** EXPERIMENTAL (HLL) ** Open Watcom Linker Version 1.6beta1 Limited Availability
Portions Copyright (c) 1985-2002 Sybase, Inc. All Rights Reserved.
Created on:       07/11/17 08:37:12
Executable Image: bin/xapian-compact.exe
creating an OS/2 EMX executable


                        +------------+
                        |   Groups   |
                        +------------+

Group                           Address              Size
=====                           =======              ====

CGROUP                          0001:00000000        00091a20
DGROUP                          0002:00000000        000124a0



                        +--------------+
                        |   Segments   |
                        +--------------+

Segment                Class          Group          Address         Size
=======                =====          =====          =======         ====

TEXT32                 CODE           CGROUP         0001:00000000   00091a20
________TEXT           CODE           CGROUP         0001:00091a20   00000000
DATA32                 DATA           DGROUP         0002:00000000   00012030
SET1__os2dll           DATA           DGROUP         0002:00012030   00000004
SET2__os2dll           DATA           DGROUP         0002:00012034   00000000
SET3__os2dll           DATA           DGROUP         0002:00012034   00000004
SET1___CTOR_LIST__     DATA           DGROUP         0002:00012038   00000004
SET2___CTOR_LIST__     DATA           DGROUP         0002:0001203c   0000000c
SET3___CTOR_LIST__     DATA           DGROUP         0002:00012048   00000004
SET1___DTOR_LIST__     DATA           DGROUP         0002:0001204c   00000004
SET2___DTOR_LIST__     DATA           DGROUP         0002:00012050   00000008
SET3___DTOR_LIST__     DATA           DGROUP         0002:00012058   00000004
SET1___crtinit1__      DATA           DGROUP         0002:0001205c   00000004
SET2___crtinit1__      DATA           DGROUP         0002:00012060   00000000
SET3___crtinit1__      DATA           DGROUP         0002:00012060   00000004
SET1___crtexit1__      DATA           DGROUP         0002:00012064   00000004
SET2___crtexit1__      DATA           DGROUP         0002:00012068   00000000
SET3___crtexit1__      DATA           DGROUP         0002:00012068   00000004
SET1___eh_frame__      DATA           DGROUP         0002:0001206c   00000004
SET2___eh_frame__      DATA           DGROUP         0002:00012070   000000ac
SET3___eh_frame__      DATA           DGROUP         0002:0001211c   00000004
SET1___eh_init__       DATA           DGROUP         0002:00012120   00000004
SET2___eh_init__       DATA           DGROUP         0002:00012124   00000004
SET3___eh_init__       DATA           DGROUP         0002:00012128   00000004
SET1___eh_term__       DATA           DGROUP         0002:0001212c   00000004
SET2___eh_term__       DATA           DGROUP         0002:00012130   00000004
SET3___eh_term__       DATA           DGROUP         0002:00012134   00000004
SET1___fork_parent1__  DATA           DGROUP         0002:00012138   00000004
SET2___fork_parent1__  DATA           DGROUP         0002:0001213c   00000000
SET3___fork_parent1__  DATA           DGROUP         0002:0001213c   00000004
SET1___fork_child1__   DATA           DGROUP         0002:00012140   00000004
SET2___fork_child1__   DATA           DGROUP         0002:00012144   00000004
SET3___fork_child1__   DATA           DGROUP         0002:00012148   00000004
________DATA           DATA           DGROUP         0002:00012150   00000000
BSS32                  BSS            DGROUP         0002:00012150   00000350
c_common               BSS            DGROUP         0002:000124a0   00000000
________BSS            BSS            DGROUP         0002:000124a0   00000000
STACK                  STACK          AUTO           0003:00000000   00100000


                        +----------------+
                        |   Memory Map   |
                        +----------------+

* = unreferenced symbol
+ = symbol only referenced locally

Address        Symbol
=======        ======

Module: F:\dev\gcc061\lib\crt0hiwildresp.obj({standard input})
0001:00000000* __text
0002:00000000* __data
0002:00000000* ___data_start
0002:00012150* ___bss_start
0002:00012030+ __os2dll
0002:00012038  ___CTOR_LIST__
0002:0001204c  ___DTOR_LIST__
0002:0001205c* ___crtinit1__
0002:00012064* ___crtexit1__
0002:0001206c  ___eh_frame__
0002:00012120  ___eh_init__
0002:0001212c  ___eh_term__
0002:00012138+ ___fork_parent1__
0002:00012140+ ___fork_child1__
Module: F:\rd\dse\xapian-core-1.0.2\bin\bin_xapian_compact-xapian-compact.o(bin\xapian-compact.cc)
0001:000007f4  _main
0001:000032cc  __ZNSt6vectorISsSaISsEE7reserveEj$w$jYzmvCqdFP5PYk7f3
0001:000033c2  __ZNSt6vectorIjSaIjEE7reserveEj$w$jYzmvCqdFP5PYk7f3
0001:000035e8  __ZNSt6vectorISsSaISsEE13_M_insert_auxEN9__gnu_cxx17__normal_iteratorIPSsS1_EERKSs$w$jYzmvCqdFP5PYk7f3
0001:000038fc  __ZSt24__uninitialized_copy_auxIN9__gnu_cxx17__normal_iteratorIPKSsSt6vectorISsSaISsEEEEPSsET0_T_SA_S9_12__false_type$w$jYzmvCqdFP5PYk7f3
0001:0000345a  __ZNSt6vectorIjSaIjEE13_M_insert_auxEN9__gnu_cxx17__normal_iteratorIPjS1_EERKj$w$jYzmvCqdFP5PYk7f3
0001:0000b224  __ZTIN6Xapian5ErrorE$w$jYzmvCqdFP5PYk7f3
0001:00003560  __ZNSt6vectorISsSaISsEE20_M_allocate_and_copyIPSsEES3_jT_S4_$w$jYzmvCqdFP5PYk7f3
0001:000038ae  __ZNSt6vectorIjSaIjEE20_M_allocate_and_copyIPjEES3_jT_S4_$w$jYzmvCqdFP5PYk7f3
0001:000039a0  __ZSt24__uninitialized_copy_auxIPSsS0_ET0_T_S2_S1_12__false_type$w$jYzmvCqdFP5PYk7f3
0001:00003a42  __ZSt24__uninitialized_copy_auxIN9__gnu_cxx17__normal_iteratorIPSsSt6vectorISsSaISsEEEES6_ET0_T_S8_S7_12__false_type$w$jYzmvCqdFP5PYk7f3
0001:00003ae8  __ZNSt15basic_streambufIcSt11char_traitsIcEE13_S_pback_sizeE$w$jYzmvCqdFP5PYk7f3
0001:000099c4* __ZSt9make_heapIN9__gnu_cxx17__normal_iteratorIPP14PostlistCursorSt6vectorIS3_SaIS3_EEEE16PostlistCursorGtEvT_SA_T0_$w$jYzmvCqdFP5PYk7f3
0001:0000b482  __Z9pack_uintIjESsT_$w$jYzmvCqdFP5PYk7f3
0001:00009bb4  __Z14pack_uint_lastIyESsT_$w$jYzmvCqdFP5PYk7f3
0001:0000b5c6  __Z25pack_uint_preserving_sortIjESsT_$w$jYzmvCqdFP5PYk7f3
0001:00009f00* __ZNSt6vectorISt4pairIjSsESaIS1_EE5eraseEN9__gnu_cxx17__normal_iteratorIPS1_S3_EES7_$w$jYzmvCqdFP5PYk7f3
0001:0000b6e6* __ZN14PostlistCursor4nextEv$w$jYzmvCqdFP5PYk7f3
0001:00009c7a* __ZSt11__push_heapIN9__gnu_cxx17__normal_iteratorIPP14PostlistCursorSt6vectorIS3_SaIS3_EEEEiS3_16PostlistCursorGtEvT_T0_SB_T1_T2_$w$jYzmvCqdFP5PYk7f3
0001:00009aae* __ZNSt6vectorIP14PostlistCursorSaIS1_EE13_M_insert_auxEN9__gnu_cxx17__normal_iteratorIPS1_S3_EERKS1_$w$jYzmvCqdFP5PYk7f3
0001:0000ac16* __ZNSt6vectorISt4pairIjSsESaIS1_EE13_M_insert_auxEN9__gnu_cxx17__normal_iteratorIPS1_S3_EERKS1_$w$jYzmvCqdFP5PYk7f3
0001:00009d9c* __ZSt13__adjust_heapIN9__gnu_cxx17__normal_iteratorIPP14PostlistCursorSt6vectorIS3_SaIS3_EEEEiS3_16PostlistCursorGtEvT_T0_SB_T1_T2_$w$jYzmvCqdFP5PYk7f3
0001:0000b3fe  __Z11unpack_uintIjEbPPKcS1_PT_$w$jYzmvCqdFP5PYk7f3
0001:00009a22  __Z16unpack_uint_lastIyEbPPKcS1_PT_$w$jYzmvCqdFP5PYk7f3
0001:0000b32a  __ZN6Xapian20DatabaseCorruptErrorD1Ev$w$jYzmvCqdFP5PYk7f3
0001:0000c1a8  __ZTIN6Xapian20DatabaseCorruptErrorE$w$jYzmvCqdFP5PYk7f3
0001:0000abd2* __ZNSt6vectorIP14PostlistCursorSaIS1_EE5eraseEN9__gnu_cxx17__normal_iteratorIPS1_S3_EES7_$w$jYzmvCqdFP5PYk7f3
0001:00009fd6* __ZSt9make_heapIN9__gnu_cxx17__normal_iteratorIPP11MergeCursorSt6vectorIS3_SaIS3_EEEE8CursorGtEvT_SA_T0_$w$jYzmvCqdFP5PYk7f3
0001:0000a1f2* __ZSt13__adjust_heapIN9__gnu_cxx17__normal_iteratorIPP11MergeCursorSt6vectorIS3_SaIS3_EEEEiS3_8CursorGtEvT_T0_SB_T1_T2_$w$jYzmvCqdFP5PYk7f3
0001:0000a2e0* __ZSt9make_heapIN9__gnu_cxx17__normal_iteratorIPP26PrefixCompressedStringItorSt6vectorIS3_SaIS3_EEEE28PrefixCompressedStringItorGtEvT_SA_T0_$w$jYzmvCqdFP5PYk7f3
0001:0000a444* __ZSt11__push_heapIN9__gnu_cxx17__normal_iteratorIPP26PrefixCompressedStringItorSt6vectorIS3_SaIS3_EEEEiS3_28PrefixCompressedStringItorGtEvT_T0_SB_T1_T2_$w$jYzmvCqdFP5PYk7f3
0001:0000c01a  __ZN28PrefixCompressedStringWriter6appendERKSs$w$jYzmvCqdFP5PYk7f3
0001:0000bde6  __ZN26PrefixCompressedStringItorppEv$w$jYzmvCqdFP5PYk7f3
0001:0000a4fc* __ZSt13__adjust_heapIN9__gnu_cxx17__normal_iteratorIPP26PrefixCompressedStringItorSt6vectorIS3_SaIS3_EEEEiS3_28PrefixCompressedStringItorGtEvT_T0_SB_T1_T2_$w$jYzmvCqdFP5PYk7f3
0001:0000a33e* __ZNSt6vectorIP26PrefixCompressedStringItorSaIS1_EE13_M_insert_auxEN9__gnu_cxx17__normal_iteratorIPS1_S3_EERKS1_$w$jYzmvCqdFP5PYk7f3
0001:0000a13a* __ZSt11__push_heapIN9__gnu_cxx17__normal_iteratorIPP11MergeCursorSt6vectorIS3_SaIS3_EEEEiS3_8CursorGtEvT_T0_SB_T1_T2_$w$jYzmvCqdFP5PYk7f3
0001:0000a034* __ZNSt6vectorIP11MergeCursorSaIS1_EE13_M_insert_auxEN9__gnu_cxx17__normal_iteratorIPS1_S3_EERKS1_$w$jYzmvCqdFP5PYk7f3
0001:0000a5d6  __Z16unpack_uint_lastIjEbPPKcS1_PT_$w$jYzmvCqdFP5PYk7f3
0001:0000a620  __Z14pack_uint_lastIjESsT_$w$jYzmvCqdFP5PYk7f3
0001:0000af08* __ZNSt6vectorIP11MergeCursorSaIS1_EE5eraseEN9__gnu_cxx17__normal_iteratorIPS1_S3_EES7_$w$jYzmvCqdFP5PYk7f3
0001:0000af4c* __ZNSt6vectorIP26PrefixCompressedStringItorSaIS1_EE5eraseEN9__gnu_cxx17__normal_iteratorIPS1_S3_EES7_$w$jYzmvCqdFP5PYk7f3
0001:0000a6da* __ZSt9make_heapIN9__gnu_cxx17__normal_iteratorIPP28ByteLengthPrefixedStringItorSt6vectorIS3_SaIS3_EEEE30ByteLengthPrefixedStringItorGtEvT_SA_T0_$w$jYzmvCqdFP5PYk7f3
0001:0000af90* __ZSt11__push_heapIN9__gnu_cxx17__normal_iteratorIPP28ByteLengthPrefixedStringItorSt6vectorIS3_SaIS3_EEEEiS3_30ByteLengthPrefixedStringItorGtEvT_T0_SB_T1_T2_$w$jYzmvCqdFP5PYk7f3
0001:0000a83e* __ZSt13__adjust_heapIN9__gnu_cxx17__normal_iteratorIPP28ByteLengthPrefixedStringItorSt6vectorIS3_SaIS3_EEEEiS3_30ByteLengthPrefixedStringItorGtEvT_T0_SB_T1_T2_$w$jYzmvCqdFP5PYk7f3
0001:0000a738* __ZNSt6vectorIP28ByteLengthPrefixedStringItorSaIS1_EE13_M_insert_auxEN9__gnu_cxx17__normal_iteratorIPS1_S3_EERKS1_$w$jYzmvCqdFP5PYk7f3
0001:0000b266  __ZN6Xapian5ErrorC2ERKSsS2_PKci$w$jYzmvCqdFP5PYk7f3
0001:0000b10e* __ZNSt6vectorIP28ByteLengthPrefixedStringItorSaIS1_EE5eraseEN9__gnu_cxx17__normal_iteratorIPS1_S3_EES7_$w$jYzmvCqdFP5PYk7f3
0001:0000a9fe  __ZNSt6vectorIjSaIjEE14_M_fill_insertEN9__gnu_cxx17__normal_iteratorIPjS1_EEjRKj$w$jYzmvCqdFP5PYk7f3
0001:0000996c  __Z27unpack_uint_preserving_sortIjEbPPKcS1_PT_$w$jYzmvCqdFP5PYk7f3
0001:0000c15c  __ZSt4fillIN9__gnu_cxx17__normal_iteratorIPjSt6vectorIjSaIjEEEEjEvT_S7_RKT0_$w$jYzmvCqdFP5PYk7f3
0001:0000c184  __ZSt6fill_nIPjjjET_S1_T0_RKT1_$w$jYzmvCqdFP5PYk7f3
0001:0000b152  __ZSt6fill_nIN9__gnu_cxx17__normal_iteratorIPjSt6vectorIjSaIjEEEEjjET_S7_T0_RKT1_$w$jYzmvCqdFP5PYk7f3
0001:0000b174* __ZSt24__uninitialized_copy_auxIN9__gnu_cxx17__normal_iteratorIPSt4pairIjSsESt6vectorIS3_SaIS3_EEEES8_ET0_T_SA_S9_12__false_type$w$jYzmvCqdFP5PYk7f3
0001:0000b22c  __ZTSN6Xapian5ErrorE$w$jYzmvCqdFP5PYk7f3
0001:0000c1e0  __Z29unpack_string_preserving_sortPPKcS0_RSs$w$jYzmvCqdFP5PYk7f3
0001:0000c1c0  __ZTSN6Xapian20DatabaseCorruptErrorE$w$jYzmvCqdFP5PYk7f3
0001:0000c360  __ZTIN6Xapian13DatabaseErrorE$w$jYzmvCqdFP5PYk7f3
0001:0000c36c  __ZTSN6Xapian13DatabaseErrorE$w$jYzmvCqdFP5PYk7f3
0001:0000c388  __ZTIN6Xapian12RuntimeErrorE$w$jYzmvCqdFP5PYk7f3
0001:0000c394  __ZTSN6Xapian12RuntimeErrorE$w$jYzmvCqdFP5PYk7f3
0002:00012150  __ZN16__Atomicity_lockILi0EE17_S_atomicity_lockE$w$jYzmvCqdFP5PYk7f3
0001:000007f4* main
Module: F:\dev\gcc061\lib\libend.lib(src/libend/386/endlink386.asm)
0002:000124a0  _end
0002:00012150  _edata
Module: F:\dev\gcc061\lib\libend.lib(src/libend/386/end.asm)
0001:00091a20* _etext
0001:00091a20* __etext
0000:00000000  WEAK$ZERO
0002:000124a0  __end
0002:00012150  __edata
Module: T:\tmp\ldconv_libgcc_so_d_a_4c93473e9a2713bd08.lib(__main.obj)
0001:0000c400* ___do_global_dtors
0001:0000c406* ___do_global_ctors
0001:0000c416* ___POST$__do_global_ctors
0001:0000c418  ___main
0001:0000c422* ___POST$__main
Module: F:\rd\dse\xapian-core-1.0.2\.libs\getopt.a(common\getopt.cc)
0001:0000c5bc  __Z20gnu_getopt_internal_iPKPcPKcPK6optionPii
0002:00001130  _optind
0002:00001134* _opterr
0002:00001138* _optopt
0002:00012180  _optarg
0002:00012184* ___getopt_initialized
Module: F:\rd\dse\xapian-core-1.0.2\.libs\xapian.a(backends\database.cc)
0001:0000e746* __ZN6Xapian8Database8InternalD1Ev
0001:0000e754* __ZN6Xapian8Database8InternalD0Ev
0001:0000e766  __ZN6Xapian8Database8Internal10keep_aliveEv
0001:0000f846  __ZNK6Xapian8Database8Internal22open_spelling_termlistERKSs
0001:0000f84e  __ZNK6Xapian8Database8Internal22open_spelling_wordlistEv
0001:0000f856  __ZNK6Xapian8Database8Internal22get_spelling_frequencyERKSs
0001:0000f890  __ZNK6Xapian8Database8Internal12add_spellingERKSsj
0001:0000fac0  __ZNK6Xapian8Database8Internal15remove_spellingERKSsj
0001:0000fcf0  __ZNK6Xapian8Database8Internal21open_synonym_termlistERKSs
0001:0000fcf8  __ZNK6Xapian8Database8Internal20open_synonym_keylistERKSs
0001:0000fd28  __ZNK6Xapian8Database8Internal11add_synonymERKSsS3_
0001:0000ff58  __ZNK6Xapian8Database8Internal14remove_synonymERKSsS3_
0001:00010188  __ZNK6Xapian8Database8Internal14clear_synonymsERKSs
0001:0000e7a8  __ZN6Xapian8Database8Internal5flushEv
0001:0000e7ae* __ZN6Xapian8Database8Internal6cancelEv
0001:0000f60e  __ZN6Xapian8Database8Internal12add_documentERKNS_8DocumentE
0001:0000f616  __ZN6Xapian8Database8Internal15delete_documentEj
0001:0000f628  __ZN6Xapian8Database8Internal15delete_documentERKSs
0001:0000f6e6  __ZN6Xapian8Database8Internal16replace_documentEjRKNS_8DocumentE
0001:0000f6f8  __ZN6Xapian8Database8Internal16replace_documentERKSsRKNS_8DocumentE
0001:0000d7d0* __ZN6Xapian5Flint4openERKSs
0001:0000d84e* __ZN6Xapian5Flint4openERKSsii
0001:0000d8ca* __ZN6Xapian8InMemory4openEv
0001:0000d932* __ZN6Xapian4Auto9open_stubERKSs
0001:0000d9b8* __ZN6Xapian8DatabaseC2ERKSs
0001:0000df44  __ZN6Xapian8DatabaseC1ERKSs
0001:0000e4d0* __ZN6Xapian16WritableDatabaseC2ERKSsi
0001:0000e5e8* __ZN6Xapian16WritableDatabaseC1ERKSsi
0001:0000e700  __ZN6Xapian8Database8InternalC2Ev
0001:0000e71c* __ZN6Xapian8Database8InternalC1Ev
0001:0000e738  __ZN6Xapian8Database8InternalD2Ev
0001:0000e76c  __ZN6Xapian8Database8Internal11dtor_calledEv
0001:0000f1a2  __ZN6Xapian8Database8Internal18cancel_transactionEv
0001:0000e830  __ZN6Xapian8Database8Internal17begin_transactionEb
0001:0000ecee  __ZN6Xapian8Database8Internal18commit_transactionEv
0001:0000d2d0  __ZTVN6Xapian8Database8InternalE$w$PcXKN6PcFP5L1eGp4
0001:00010670  __ZTIN6Xapian8Database8InternalE$w$PcXKN6PcFP5L1eGp4
0001:0000d3c8  __ZN6Xapian8Database8Internal6reopenEv$w$PcXKN6PcFP5L1eGp4
0001:0000d3ce  __ZNK6Xapian8Database8Internal16request_documentEj$w$PcXKN6PcFP5L1eGp4
0001:0000d3d4  __ZNK6Xapian8Database8Internal16collect_documentEj$w$PcXKN6PcFP5L1eGp4
0001:0000d3f8  __ZN6Xapian8Database8Internal17as_remotedatabaseEv$w$PcXKN6PcFP5L1eGp4
0001:0000d370* __ZTV12LeafPostList$w$PcXKN6PcFP5L1eGp4
0001:00010690* __ZTI12LeafPostList$w$PcXKN6PcFP5L1eGp4
0001:0000d66e* __ZN12LeafPostListD1Ev$w$PcXKN6PcFP5L1eGp4
0001:0000d6ac* __ZN12LeafPostListD0Ev$w$PcXKN6PcFP5L1eGp4
0001:0000d706* __ZNK12LeafPostList16get_termfreq_minEv$w$PcXKN6PcFP5L1eGp4
0001:0000d71c* __ZNK12LeafPostList16get_termfreq_estEv$w$PcXKN6PcFP5L1eGp4
0001:0000d6f0* __ZNK12LeafPostList16get_termfreq_maxEv$w$PcXKN6PcFP5L1eGp4
0001:0000d7a0* __ZNK12LeafPostList13get_maxweightEv$w$PcXKN6PcFP5L1eGp4
0001:0000d756* __ZNK12LeafPostList10get_weightEv$w$PcXKN6PcFP5L1eGp4
0001:0000d400* __ZNK6Xapian15PostingIterator8Internal16get_collapse_keyEv$w$PcXKN6PcFP5L1eGp4
0001:0000d7b8* __ZN12LeafPostList16recalc_maxweightEv$w$PcXKN6PcFP5L1eGp4
0001:0000d43e* __ZNK6Xapian15PostingIterator8Internal7get_wdfEv$w$PcXKN6PcFP5L1eGp4
0001:0000d732* __ZN12LeafPostList14set_termweightEPKN6Xapian6WeightE$w$PcXKN6PcFP5L1eGp4
0001:000107f4* __ZN6Xapian18UnimplementedErrorD1Ev$w$PcXKN6PcFP5L1eGp4
0001:00011810* __ZTIN6Xapian18UnimplementedErrorE$w$PcXKN6PcFP5L1eGp4
0001:000106d0* __ZTVN6Xapian15PostingIterator8InternalE$w$PcXKN6PcFP5L1eGp4
0001:000103b8* __ZNSt6vectorIN6Xapian8Internal9RefCntPtrINS0_8Database8InternalEEESaIS5_EE13_M_insert_auxEN9__gnu_cxx17__normal_iteratorIPS5_S7_EERKS5_$w$PcXKN6PcFP5L1eGp4
0001:000108c8  __ZN6Xapian20DatabaseOpeningErrorD1Ev$w$PcXKN6PcFP5L1eGp4
0001:0001181c  __ZTIN6Xapian20DatabaseOpeningErrorE$w$PcXKN6PcFP5L1eGp4
0001:00010720* __ZN6Xapian21InvalidOperationErrorD1Ev$w$PcXKN6PcFP5L1eGp4
0001:00011828* __ZTIN6Xapian21InvalidOperationErrorE$w$PcXKN6PcFP5L1eGp4
0001:000105fa* __ZN6Xapian8Internal9RefCntPtrINS_8Database8InternalEEaSEPS3_$w$PcXKN6PcFP5L1eGp4
0001:00010636* __ZSt24__uninitialized_copy_auxIN9__gnu_cxx17__normal_iteratorIPN6Xapian8Internal9RefCntPtrINS2_8Database8InternalEEESt6vectorIS7_SaIS7_EEEESC_ET0_T_SE_SD_12__false_type$w$PcXKN6PcFP5L1eGp4
0001:000106ab  __ZTSN6Xapian8Database8InternalE$w$PcXKN6PcFP5L1eGp4
0001:00011834* __ZTIN6Xapian8Internal10RefCntBaseE$w$PcXKN6PcFP5L1eGp4
0001:0001069c* __ZTS12LeafPostList$w$PcXKN6PcFP5L1eGp4
0001:000117f0* __ZTIN6Xapian15PostingIterator8InternalE$w$PcXKN6PcFP5L1eGp4
0001:000106c8* __ZNSt15basic_streambufIcSt11char_traitsIcEE13_S_pback_sizeE$w$PcXKN6PcFP5L1eGp4
0001:0001099c* __ZN6Xapian15PostingIterator8InternalD1Ev$w$PcXKN6PcFP5L1eGp4
0001:000109aa* __ZN6Xapian15PostingIterator8InternalD0Ev$w$PcXKN6PcFP5L1eGp4
0001:000116e0* __ZStplIcSt11char_traitsIcESaIcEESbIT_T0_T1_EPKS3_RKS6_$w$PcXKN6PcFP5L1eGp4
0001:00011660* __ZStplIcSt11char_traitsIcESaIcEESbIT_T0_T1_ERKS6_S8_$w$PcXKN6PcFP5L1eGp4
0001:000118f0* __ZTSN6Xapian15PostingIterator8InternalE$w$PcXKN6PcFP5L1eGp4
0001:000118d0* __ZTSN6Xapian18UnimplementedErrorE$w$PcXKN6PcFP5L1eGp4
0001:00011914* __ZTIN6Xapian10LogicErrorE$w$PcXKN6PcFP5L1eGp4
0001:000118b0  __ZTSN6Xapian20DatabaseOpeningErrorE$w$PcXKN6PcFP5L1eGp4
0001:00011920* __ZTIN6Xapian13DatabaseErrorE$w$PcXKN6PcFP5L1eGp4
0001:00011870* __ZTSN6Xapian21InvalidOperationErrorE$w$PcXKN6PcFP5L1eGp4
0001:0001183c* __ZTSN6Xapian8Internal10RefCntBaseE$w$PcXKN6PcFP5L1eGp4
0001:00011945* __ZTSN6Xapian10LogicErrorE$w$PcXKN6PcFP5L1eGp4
0001:00011968* __ZTIN6Xapian5ErrorE$w$PcXKN6PcFP5L1eGp4
0001:0001192c* __ZTSN6Xapian13DatabaseErrorE$w$PcXKN6PcFP5L1eGp4
0001:0001195c* __ZTIN6Xapian12RuntimeErrorE$w$PcXKN6PcFP5L1eGp4
0001:00011980* __ZTSN6Xapian12RuntimeErrorE$w$PcXKN6PcFP5L1eGp4
0001:00011970* __ZTSN6Xapian5ErrorE$w$PcXKN6PcFP5L1eGp4
0002:000121e0* __ZN16__Atomicity_lockILi0EE17_S_atomicity_lockE$w$PcXKN6PcFP5L1eGp4
Module: F:\rd\dse\xapian-core-1.0.2\.libs\xapian.a(api\omdatabase.cc)
0001:00014996* __ZN6Xapian16WritableDatabaseD1Ev
0001:000149b2* __ZN6Xapian16WritableDatabaseD0Ev
0001:000154d8* __ZNK6Xapian16WritableDatabase15get_descriptionEv
0001:00012520  __ZN6Xapian8DatabaseD1Ev
0001:000125b6* __ZN6Xapian8DatabaseD0Ev
0001:00013be8* __ZNK6Xapian8Database15get_descriptionEv
0001:00011e18  __ZN6Xapian8DatabaseC2Ev
0001:00011e44  __ZN6Xapian8DatabaseC1Ev
0001:00011e70* __ZN6Xapian8DatabaseC2EPNS0_8InternalE
0001:00011fba  __ZN6Xapian8DatabaseC1EPNS0_8InternalE
0001:00012104* __ZN6Xapian8DatabaseC2ERKS0_
0001:000121cc* __ZN6Xapian8DatabaseC1ERKS0_
0001:00012468* __ZN6Xapian8DatabaseaSERKS0_
0001:0001248a  __ZN6Xapian8DatabaseD2Ev
0001:0001265a* __ZN6Xapian8Database6reopenEv
0001:000126b8  __ZN6Xapian8Database12add_databaseERKS0_
0001:00012948  __ZNK6Xapian8Database14postlist_beginERKSs
0001:00012aca* __ZNK6Xapian8Database14termlist_beginEj
0001:00012d9e* __ZNK6Xapian8Database14allterms_beginEv
0001:00012e76* __ZNK6Xapian8Database14allterms_beginERKSs
0001:00012fd4* __ZNK6Xapian8Database13has_positionsEv
0001:0001302e* __ZNK6Xapian8Database18positionlist_beginEjRKSs
0001:000134a0  __ZNK6Xapian8Database12get_doccountEv
0001:000134d4  __ZNK6Xapian8Database13get_lastdocidEv
0001:0001354c* __ZNK6Xapian8Database12get_avlengthEv
0001:000135be* __ZNK6Xapian8Database12get_termfreqERKSs
0001:00013612* __ZNK6Xapian8Database19get_collection_freqERKSs
0001:00013666* __ZNK6Xapian8Database13get_doclengthEj
0001:000138d0* __ZNK6Xapian8Database12get_documentEj
0001:00013b56* __ZNK6Xapian8Database11term_existsERKSs
0001:00013bb4* __ZN6Xapian8Database10keep_aliveEv
0001:00013c1e* __ZNK6Xapian8Database23get_spelling_suggestionERKSsj
0001:00014430* __ZNK6Xapian8Database15spellings_beginEv
0001:00014598* __ZNK6Xapian8Database14synonyms_beginERKSs
0001:00014706* __ZNK6Xapian8Database18synonym_keys_beginERKSs
0001:00014874* __ZN6Xapian16WritableDatabaseC2Ev
0001:00014896* __ZN6Xapian16WritableDatabaseC1Ev
0001:000148b8* __ZN6Xapian16WritableDatabaseC2EPNS_8Database8InternalE
0001:000148e0  __ZN6Xapian16WritableDatabaseC1EPNS_8Database8InternalE
0001:00014908* __ZN6Xapian16WritableDatabaseC2ERKS0_
0001:00014930* __ZN6Xapian16WritableDatabaseC1ERKS0_
0001:00014958* __ZN6Xapian16WritableDatabaseaSERKS0_
0001:0001497a* __ZN6Xapian16WritableDatabaseD2Ev
0001:000149da* __ZN6Xapian16WritableDatabase5flushEv
0001:000149f4* __ZN6Xapian16WritableDatabase17begin_transactionEb
0001:00014a16* __ZN6Xapian16WritableDatabase18commit_transactionEv
0001:00014a30* __ZN6Xapian16WritableDatabase18cancel_transactionEv
0001:00014a4a* __ZN6Xapian16WritableDatabase12add_documentERKNS_8DocumentE
0001:00014a6c* __ZN6Xapian16WritableDatabase15delete_documentEj
0001:00014ce0* __ZN6Xapian16WritableDatabase15delete_documentERKSs
0001:00014f3c* __ZN6Xapian16WritableDatabase16replace_documentEjRKNS_8DocumentE
0001:0001519e* __ZN6Xapian16WritableDatabase16replace_documentERKSsRKNS_8DocumentE
0001:00015404* __ZNK6Xapian16WritableDatabase12add_spellingERKSsj
0001:0001542c* __ZNK6Xapian16WritableDatabase15remove_spellingERKSsj
0001:00015454* __ZNK6Xapian16WritableDatabase11add_synonymERKSsS2_
0001:0001547c* __ZNK6Xapian16WritableDatabase14remove_synonymERKSsS2_
0001:000154a4* __ZNK6Xapian16WritableDatabase14clear_synonymsERKSs
0001:000119b0  __ZTVN6Xapian16WritableDatabaseE$w$hF4TDhIcFP5w0YYj1
0001:00015c40  __ZTIN6Xapian16WritableDatabaseE$w$hF4TDhIcFP5w0YYj1
0001:000119c8  __ZTVN6Xapian8DatabaseE$w$hF4TDhIcFP5w0YYj1
0001:00015c38  __ZTIN6Xapian8DatabaseE$w$hF4TDhIcFP5w0YYj1
0001:000119f0  __ZTV12LeafPostList$w$hF4TDhIcFP5w0YYj1
0001:00015c2c  __ZTI12LeafPostList$w$hF4TDhIcFP5w0YYj1
0001:00011cb6  __ZN12LeafPostListD1Ev$w$hF4TDhIcFP5w0YYj1
0001:00011cf4  __ZN12LeafPostListD0Ev$w$hF4TDhIcFP5w0YYj1
0001:00011d4e  __ZNK12LeafPostList16get_termfreq_minEv$w$hF4TDhIcFP5w0YYj1
0001:00011d64  __ZNK12LeafPostList16get_termfreq_estEv$w$hF4TDhIcFP5w0YYj1
0001:00011d38  __ZNK12LeafPostList16get_termfreq_maxEv$w$hF4TDhIcFP5w0YYj1
0001:00011de8  __ZNK12LeafPostList13get_maxweightEv$w$hF4TDhIcFP5w0YYj1
0001:00011d9e  __ZNK12LeafPostList10get_weightEv$w$hF4TDhIcFP5w0YYj1
0001:00011a48  __ZNK6Xapian15PostingIterator8Internal16get_collapse_keyEv$w$hF4TDhIcFP5w0YYj1
0001:00011e00  __ZN12LeafPostList16recalc_maxweightEv$w$hF4TDhIcFP5w0YYj1
0001:00011a86  __ZNK6Xapian15PostingIterator8Internal7get_wdfEv$w$hF4TDhIcFP5w0YYj1
0001:00011d7a  __ZN12LeafPostList14set_termweightEPKN6Xapian6WeightE$w$hF4TDhIcFP5w0YYj1
0001:00015db4  __ZN6Xapian18UnimplementedErrorD1Ev$w$hF4TDhIcFP5w0YYj1
0001:00016030  __ZTIN6Xapian18UnimplementedErrorE$w$hF4TDhIcFP5w0YYj1
0001:00015c90  __ZTVN6Xapian15PostingIterator8InternalE$w$hF4TDhIcFP5w0YYj1
0001:0001550e  __ZNSt6vectorIN6Xapian8Internal9RefCntPtrINS0_8Database8InternalEEESaIS5_EE13_M_insert_auxEN9__gnu_cxx17__normal_iteratorIPS5_S7_EERKS5_$w$hF4TDhIcFP5w0YYj1
0001:00012294  __ZNSt6vectorIN6Xapian8Internal9RefCntPtrINS0_8Database8InternalEEESaIS5_EEaSERKS7_$w$hF4TDhIcFP5w0YYj1
0001:00015784  __ZN6Xapian8Internal9RefCntPtrINS_8Database8InternalEEaSEPS3_$w$hF4TDhIcFP5w0YYj1
0001:00015750  __ZSt24__uninitialized_copy_auxIN9__gnu_cxx17__normal_iteratorIPKN6Xapian8Internal9RefCntPtrINS2_8Database8InternalEEESt6vectorIS7_SaIS7_EEEEPS7_ET0_T_SG_SF_12__false_type$w$hF4TDhIcFP5w0YYj1
0001:00015ea8  __ZNSt6vectorIN6Xapian8Internal9RefCntPtrINS0_8Database8InternalEEESaIS5_EE20_M_allocate_and_copyIN9__gnu_cxx17__normal_iteratorIPKS5_S7_EEEEPS5_jT_SF_$w$hF4TDhIcFP5w0YYj1
0001:00015ce0  __ZN6Xapian20InvalidArgumentErrorD1Ev$w$hF4TDhIcFP5w0YYj1
0001:0001603c  __ZTIN6Xapian20InvalidArgumentErrorE$w$hF4TDhIcFP5w0YYj1
0001:000157c0  __ZNSt6vectorIP12LeafPostListSaIS1_EE13_M_insert_auxEN9__gnu_cxx17__normal_iteratorIPS1_S3_EERKS1_$w$hF4TDhIcFP5w0YYj1
0001:000158c6  __ZNSt6vectorIPN6Xapian12TermIterator8InternalESaIS3_EE13_M_insert_auxEN9__gnu_cxx17__normal_iteratorIPS3_S5_EERKS3_$w$hF4TDhIcFP5w0YYj1
0001:000159cc  __ZNSt6vectorIjSaIjEE13_M_assign_auxIN6Xapian12Utf8IteratorEEEvT_S5_St18input_iterator_tag$w$hF4TDhIcFP5w0YYj1
0001:00015ad2  __ZSt24__uninitialized_copy_auxIN9__gnu_cxx17__normal_iteratorIPN6Xapian8Internal9RefCntPtrINS2_8Database8InternalEEESt6vectorIS7_SaIS7_EEEESC_ET0_T_SE_SD_12__false_type$w$hF4TDhIcFP5w0YYj1
0001:00015b06  __ZNSt6vectorIjSaIjEE5eraseEN9__gnu_cxx17__normal_iteratorIPjS1_EES5_$w$hF4TDhIcFP5w0YYj1
0001:00015b4a  __ZNSt6vectorIjSaIjEE15_M_range_insertIN6Xapian12Utf8IteratorEEEvN9__gnu_cxx17__normal_iteratorIPjS1_EET_S9_St18input_iterator_tag$w$hF4TDhIcFP5w0YYj1
0001:00015bca  __ZNSt6vectorIjSaIjEE6insertEN9__gnu_cxx17__normal_iteratorIPjS1_EERKj$w$hF4TDhIcFP5w0YYj1
0001:00015eee* __ZNSt6vectorIjSaIjEE13_M_insert_auxEN9__gnu_cxx17__normal_iteratorIPjS1_EERKj$w$hF4TDhIcFP5w0YYj1
0001:00015c7b  __ZTS12LeafPostList$w$hF4TDhIcFP5w0YYj1
0001:00016010  __ZTIN6Xapian15PostingIterator8InternalE$w$hF4TDhIcFP5w0YYj1
0001:00015c68  __ZTSN6Xapian8DatabaseE$w$hF4TDhIcFP5w0YYj1
0001:00015c4c  __ZTSN6Xapian16WritableDatabaseE$w$hF4TDhIcFP5w0YYj1
0001:00015c8c* __ZNSt15basic_streambufIcSt11char_traitsIcEE13_S_pback_sizeE$w$hF4TDhIcFP5w0YYj1
0001:00015e88  __ZN6Xapian15PostingIterator8InternalD1Ev$w$hF4TDhIcFP5w0YYj1
0001:00015e96  __ZN6Xapian15PostingIterator8InternalD0Ev$w$hF4TDhIcFP5w0YYj1
0001:00016090  __ZTSN6Xapian15PostingIterator8InternalE$w$hF4TDhIcFP5w0YYj1
0001:000160c0  __ZTIN6Xapian8Internal10RefCntBaseE$w$hF4TDhIcFP5w0YYj1
0001:00016070  __ZTSN6Xapian18UnimplementedErrorE$w$hF4TDhIcFP5w0YYj1
0001:000160b4  __ZTIN6Xapian10LogicErrorE$w$hF4TDhIcFP5w0YYj1
0001:00016050  __ZTSN6Xapian20InvalidArgumentErrorE$w$hF4TDhIcFP5w0YYj1
0001:000160e7  __ZTSN6Xapian10LogicErrorE$w$hF4TDhIcFP5w0YYj1
0001:00016100* __ZTIN6Xapian5ErrorE$w$hF4TDhIcFP5w0YYj1
0001:000160c8  __ZTSN6Xapian8Internal10RefCntBaseE$w$hF4TDhIcFP5w0YYj1
0001:00016108* __ZTSN6Xapian5ErrorE$w$hF4TDhIcFP5w0YYj1
0002:000121f0* __ZN16__Atomicity_lockILi0EE17_S_atomicity_lockE$w$hF4TDhIcFP5w0YYj1
Module: F:\rd\dse\xapian-core-1.0.2\.libs\xapian.a(backends\flint\flint_table.cc)
0001:00016158* __ZNK10FlintTable10read_blockEmPh
0001:0001641a* __ZNK10FlintTable11write_blockEmPKh
0001:00016b2c* __ZNK10FlintTable15set_overwrittenEv
0001:00016f7c* __ZNK10FlintTable15block_to_cursorEP7Cursor_im
0001:000170a4* __ZN10FlintTable5alterEv
0001:000171b4* __ZN10FlintTable13find_in_blockEPKh4Key_bi
0001:0001e0fe* __ZNK4Key_ltES_
0001:000172c4  __ZNK10FlintTable4findEP7Cursor_
0001:0001e188* __ZNK4Key_eqES_
0001:000173ee* __ZN10FlintTable7compactEPh
0001:000174f0* __ZN10FlintTable10split_rootEm
0001:00017c0e* __ZN10FlintTable8add_itemE8Item_wr_i
0001:00017822* __ZN10FlintTable9enter_keyEi4Key_S0_
0001:00017a74* __ZN10FlintTable9mid_pointEPh
0001:00017b06* __ZN10FlintTable17add_item_to_blockEPh8Item_wr_i
0001:00017e88* __ZN10FlintTable11delete_itemEib
0001:000180e2* __ZN10FlintTable6add_ktEb
0001:00018290* __ZN10FlintTable9delete_ktEv
0001:00018322  __ZNK10FlintTable8form_keyERKSs
0001:0001842e  __ZN10FlintTable3addERKSsSsb
0001:0001c2b0  __ZN10FlintTable15create_and_openEj
0001:000192d4  __ZN10FlintTable3delERKSs
0001:0001936e  __ZNK10FlintTable15get_exact_entryERKSsRSs
0001:000193ea* __ZNK10FlintTable8find_tagERKSsPSs
0001:000193a4  __ZNK10FlintTable10key_existsERKSs
0001:000194b4  __ZNK10FlintTable8read_tagEP7Cursor_PSsb
0001:0001a0f0  __ZN10FlintTable19set_full_compactionEb
0001:0001a10a  __ZNK10FlintTable10cursor_getEv
0001:0001a18c* __ZN10FlintTable10basic_openEbj
0001:0001a7f8* __ZN10FlintTable9read_rootEv
0001:0001a980* __ZN10FlintTable16do_open_to_writeEbjb
0001:0001df18* __ZNK10FlintTable12prev_defaultEP7Cursor_i
0001:0001e006* __ZNK10FlintTable12next_defaultEP7Cursor_i
0001:0001b0d2  __ZN10FlintTableC2ESsbib
0001:0001b1ec  __ZN10FlintTableC1ESsbib
0001:0001b312  __ZNK10FlintTable6existsEv
0001:0001b6ba  __ZN10FlintTable5eraseEv
0001:0001c9d0* __ZN10FlintTable5closeEv
0001:0001c288  __ZN10FlintTable14set_block_sizeEj
0001:0001c858  __ZN10FlintTableD2Ev
0001:0001c914  __ZN10FlintTableD1Ev
0001:0001cac8  __ZN10FlintTable6commitEj
0001:0001d240  __ZN10FlintTable6cancelEv
0001:0001d62a* __ZN10FlintTable15do_open_to_readEbj
0001:0001dd84* __ZNK10FlintTable19prev_for_sequentialEP7Cursor_i
0001:0001de4a* __ZNK10FlintTable19next_for_sequentialEP7Cursor_i
0001:0001dcb4  __ZN10FlintTable4openEv
0001:0001dd10  __ZN10FlintTable4openEj
0001:0001e46c* __ZN6Xapian13DatabaseErrorD1Ev$w$JlvPuhXcFP5BoWMn2
0001:0001e7d4* __ZTIN6Xapian13DatabaseErrorE$w$JlvPuhXcFP5BoWMn2
0001:0001e2d4* __ZN6Xapian5ErrorC2ERKSsS2_PKci$w$JlvPuhXcFP5BoWMn2
0001:0001e540* __ZN6Xapian20DatabaseCorruptErrorD1Ev$w$JlvPuhXcFP5BoWMn2
0001:0001e7c8* __ZTIN6Xapian20DatabaseCorruptErrorE$w$JlvPuhXcFP5BoWMn2
0001:0001e614* __ZN6Xapian21DatabaseModifiedErrorD1Ev$w$JlvPuhXcFP5BoWMn2
0001:0001e7e0* __ZTIN6Xapian21DatabaseModifiedErrorE$w$JlvPuhXcFP5BoWMn2
0001:0001e1da* __ZStplIcSt11char_traitsIcESaIcEESbIT_T0_T1_EPKS3_RKS6_$w$JlvPuhXcFP5BoWMn2
0001:0001e398* __ZN6Xapian20InvalidArgumentErrorD1Ev$w$JlvPuhXcFP5BoWMn2
0001:0001e7ec* __ZTIN6Xapian20InvalidArgumentErrorE$w$JlvPuhXcFP5BoWMn2
0001:0001e7bc  __ZTISt9bad_alloc$w$JlvPuhXcFP5BoWMn2
0001:0001e6e8* __ZN6Xapian20DatabaseOpeningErrorD1Ev$w$JlvPuhXcFP5BoWMn2
0001:0001e7f8* __ZTIN6Xapian20DatabaseOpeningErrorE$w$JlvPuhXcFP5BoWMn2
0001:0001e8b0  __ZTSSt9bad_alloc$w$JlvPuhXcFP5BoWMn2
0001:0001e8c0  __ZTISt9exception$w$JlvPuhXcFP5BoWMn2
0001:0001e890* __ZTSN6Xapian20DatabaseCorruptErrorE$w$JlvPuhXcFP5BoWMn2
0001:0001e871* __ZTSN6Xapian13DatabaseErrorE$w$JlvPuhXcFP5BoWMn2
0001:0001e8d4* __ZTIN6Xapian12RuntimeErrorE$w$JlvPuhXcFP5BoWMn2
0001:0001e850* __ZTSN6Xapian21DatabaseModifiedErrorE$w$JlvPuhXcFP5BoWMn2
0001:0001e830* __ZTSN6Xapian20InvalidArgumentErrorE$w$JlvPuhXcFP5BoWMn2
0001:0001e8c8* __ZTIN6Xapian10LogicErrorE$w$JlvPuhXcFP5BoWMn2
0001:0001e810* __ZTSN6Xapian20DatabaseOpeningErrorE$w$JlvPuhXcFP5BoWMn2
0001:0001e90e  __ZTSSt9exception$w$JlvPuhXcFP5BoWMn2
0001:0001e8f8* __ZTSN6Xapian10LogicErrorE$w$JlvPuhXcFP5BoWMn2
0001:0001e91c* __ZTIN6Xapian5ErrorE$w$JlvPuhXcFP5BoWMn2
0001:0001e8e0* __ZTSN6Xapian12RuntimeErrorE$w$JlvPuhXcFP5BoWMn2
0001:0001e924* __ZTSN6Xapian5ErrorE$w$JlvPuhXcFP5BoWMn2
0002:00012200* __ZN16__Atomicity_lockILi0EE17_S_atomicity_lockE$w$JlvPuhXcFP5BoWMn2
Module: F:\rd\dse\xapian-core-1.0.2\.libs\xapian.a(api\ompostlistiterator.cc)
0001:0001e958* __ZN6Xapian15PostingIteratorC2EPNS0_8InternalE
0001:0001ea00  __ZN6Xapian15PostingIteratorC1EPNS0_8InternalE
0001:0001ea9c* __ZN6Xapian15PostingIteratorC2Ev
0001:0001eaaa* __ZN6Xapian15PostingIteratorC1Ev
0001:0001eab8* __ZN6Xapian15PostingIteratorD2Ev
0001:0001eae8  __ZN6Xapian15PostingIteratorD1Ev
0001:0001eb18* __ZN6Xapian15PostingIteratorC2ERKS0_
0001:0001eb30* __ZN6Xapian15PostingIteratorC1ERKS0_
0001:0001eb84* __ZN6Xapian15PostingIteratoraSERKS0_
0001:0001eb92  __ZNK6Xapian15PostingIteratordeEv
0001:0001ebb8* __ZN6Xapian15PostingIteratorppEv
0001:0001ec12* __ZN6Xapian15PostingIterator7skip_toEj
0001:0001ec70* __ZNK6Xapian15PostingIterator13get_doclengthEv
0001:0001ec88* __ZNK6Xapian15PostingIterator7get_wdfEv
0001:0001eca0* __ZNK6Xapian15PostingIterator18positionlist_beginEv
0001:0001ecf6* __ZNK6Xapian15PostingIterator15get_descriptionEv
0001:0001eb48  __ZN6Xapian8Internal9RefCntPtrINS_15PostingIterator8InternalEEaSEPS3_$w$thf2s2LcFP5X62Yy4
0001:0001ee74* __ZNSt15basic_streambufIcSt11char_traitsIcEE13_S_pback_sizeE$w$thf2s2LcFP5X62Yy4
0002:00012210* __ZN16__Atomicity_lockILi0EE17_S_atomicity_lockE$w$thf2s2LcFP5X62Yy4
Module: F:\rd\dse\xapian-core-1.0.2\.libs\xapian.a(api\error.cc)
0001:0001ee80* __ZN6Xapian5ErrorC2ERKSsS2_PKcS4_
0001:0001effa* __ZN6Xapian5ErrorC1ERKSsS2_PKcS4_
0001:0001f174* __ZNK6Xapian5Error16get_error_stringEv
0001:0001f218  __ZNK6Xapian5Error15get_descriptionEv
0002:00012220* __ZN16__Atomicity_lockILi0EE17_S_atomicity_lockE$w$hPNbTNGcFP5hEmYu1
Module: F:\rd\dse\xapian-core-1.0.2\.libs\xapian.a(backends\flint\flint_cursor.cc)
0001:0001f3a0  __ZN11FlintCursorC2EP10FlintTable
0001:0001f562  __ZN11FlintCursorC1EP10FlintTable
0001:0001f724  __ZN11FlintCursorD2Ev
0001:0001f80c  __ZN11FlintCursorD1Ev
0001:0001f8f4  __ZN11FlintCursor4prevEv
0001:0001ff90* __ZNK11FlintCursor7get_keyEPSs
0001:0001fb56  __ZN11FlintCursor10find_entryERKSs
0001:0001fa46  __ZN11FlintCursor4nextEv
0001:0001ffd2  __ZN11FlintCursor8read_tagEb
0001:0002007c  __ZN11FlintCursor3delEv
0001:000200ba* __ZN6Xapian20DatabaseCorruptErrorD1Ev$w$V755DRQcFP5VVtfM1
0001:00020190* __ZTIN6Xapian20DatabaseCorruptErrorE$w$V755DRQcFP5VVtfM1
0001:000201a0* __ZTSN6Xapian20DatabaseCorruptErrorE$w$V755DRQcFP5VVtfM1
0001:000201c0* __ZTIN6Xapian13DatabaseErrorE$w$V755DRQcFP5VVtfM1
0001:000201cc* __ZTSN6Xapian13DatabaseErrorE$w$V755DRQcFP5VVtfM1
0001:000201e8* __ZTIN6Xapian12RuntimeErrorE$w$V755DRQcFP5VVtfM1
0001:000201f4* __ZTSN6Xapian12RuntimeErrorE$w$V755DRQcFP5VVtfM1
0001:0002020c* __ZTIN6Xapian5ErrorE$w$V755DRQcFP5VVtfM1
0001:00020214* __ZTSN6Xapian5ErrorE$w$V755DRQcFP5VVtfM1
0002:00012230* __ZN16__Atomicity_lockILi0EE17_S_atomicity_lockE$w$V755DRQcFP5VVtfM1
Module: T:\tmp\ldconv_libgcc_so_d_a_4c93473e9a2713bd08.lib(emx-eh.obj)
0001:00020240  ___ehInit
0001:00020269* ___POST$__ehInit
0001:00020272* ___ehTerm
0001:0002029a* ___POST$__ehTerm
Module: F:\rd\dse\xapian-core-1.0.2\.libs\xapian.a(backends\inmemory\inmemory_database.cc)
0001:00022928* __ZN16InMemoryDatabaseD1Ev
0001:00022ff6* __ZN16InMemoryDatabaseD0Ev
0001:00023a32* __ZNK16InMemoryDatabase12get_doccountEv
0001:00023a3e* __ZNK16InMemoryDatabase13get_lastdocidEv
0001:00023a50* __ZNK16InMemoryDatabase12get_avlengthEv
0001:00023a96* __ZNK16InMemoryDatabase13get_doclengthEj
0001:000239ce* __ZNK16InMemoryDatabase12get_termfreqERKSs
0001:00023a00* __ZNK16InMemoryDatabase19get_collection_freqERKSs
0001:0002855e* __ZNK16InMemoryDatabase11term_existsERKSs
0001:00028598* __ZNK16InMemoryDatabase13has_positionsEv
0001:000236d2* __ZNK16InMemoryDatabase14open_post_listERKSs
0001:00023ff0* __ZNK16InMemoryDatabase14open_term_listEj
0001:000285a4* __ZNK16InMemoryDatabase13open_alltermsERKSs
0001:00024ff0* __ZNK16InMemoryDatabase18open_position_listEjRKSs
0001:000247ec* __ZNK16InMemoryDatabase13open_documentEjb
0001:00025774* __ZN16InMemoryDatabase5flushEv
0001:0002577a* __ZN16InMemoryDatabase6cancelEv
0001:000263c4* __ZN16InMemoryDatabase12add_documentERKN6Xapian8DocumentE
0001:00025780* __ZN16InMemoryDatabase15delete_documentEj
0001:00025e20* __ZN16InMemoryDatabase16replace_documentEjRKN6Xapian8DocumentE
0001:00021a44* __ZNK23InMemoryAllDocsPostList9get_docidEv
0001:00021a50* __ZNK23InMemoryAllDocsPostList13get_doclengthEv
0001:00021a70* __ZNK23InMemoryAllDocsPostList7get_wdfEv
0001:00021aaa* __ZN23InMemoryAllDocsPostList18read_position_listEv
0001:00021cda* __ZNK23InMemoryAllDocsPostList18open_position_listEv
0001:00021f0a* __ZN23InMemoryAllDocsPostList4nextEd
0001:00021f3c* __ZN23InMemoryAllDocsPostList7skip_toEjd
0001:00021f7e* __ZNK23InMemoryAllDocsPostList6at_endEv
0001:00021fb4* __ZNK23InMemoryAllDocsPostList15get_descriptionEv
0001:00021a36* __ZNK23InMemoryAllDocsPostList12get_termfreqEv
0001:00021276* __ZNK16InMemoryTermList15get_approx_sizeEv
0001:00021290* __ZNK16InMemoryTermList16accumulate_statsERN6Xapian8Internal11ExpandStatsE
0001:000216be* __ZNK16InMemoryTermList12get_termnameEv
0001:00021248* __ZNK16InMemoryTermList7get_wdfEv
0001:00021256* __ZNK16InMemoryTermList12get_termfreqEv
0001:000216e8* __ZN16InMemoryTermList4nextEv
0001:00021702* __ZNK16InMemoryTermList6at_endEv
0001:00021750* __ZNK16InMemoryTermList18positionlist_countEv
0001:00021980* __ZNK16InMemoryTermList18positionlist_beginEv
0001:00020f52* __ZNK16InMemoryPostList9get_docidEv
0001:000210e0* __ZNK16InMemoryPostList13get_doclengthEv
0001:00021182* __ZNK16InMemoryPostList7get_wdfEv
0001:0002110a* __ZN16InMemoryPostList18read_position_listEv
0001:00021134* __ZNK16InMemoryPostList18open_position_listEv
0001:00020f60* __ZN16InMemoryPostList4nextEd
0001:00020fa0* __ZN16InMemoryPostList7skip_toEjd
0001:00020fe6* __ZNK16InMemoryPostList6at_endEv
0001:0002100e* __ZNK16InMemoryPostList15get_descriptionEv
0001:00020f46* __ZNK16InMemoryPostList12get_termfreqEv
0001:00020e0e* __ZN16InMemoryPostListC2EN6Xapian8Internal9RefCntPtrIK16InMemoryDatabaseEERK12InMemoryTerm
0001:00020eaa* __ZN16InMemoryPostListC1EN6Xapian8Internal9RefCntPtrIK16InMemoryDatabaseEERK12InMemoryTerm
0001:00021190* __ZN16InMemoryTermListC2EN6Xapian8Internal9RefCntPtrIK16InMemoryDatabaseEEjRK11InMemoryDocd
0001:000211ec* __ZN16InMemoryTermListC1EN6Xapian8Internal9RefCntPtrIK16InMemoryDatabaseEEjRK11InMemoryDocd
0001:000219c6* __ZN23InMemoryAllDocsPostListC2EN6Xapian8Internal9RefCntPtrIK16InMemoryDatabaseEE
0001:000219fe* __ZN23InMemoryAllDocsPostListC1EN6Xapian8Internal9RefCntPtrIK16InMemoryDatabaseEE
0001:00022086* __ZN16InMemoryDatabaseC2Ev
0001:00022170  __ZN16InMemoryDatabaseC1Ev
0001:0002225a* __ZN16InMemoryDatabaseD2Ev
0001:000238aa* __ZNK16InMemoryDatabase10doc_existsEj
0001:0002571a* __ZN16InMemoryDatabase10add_valuesEjRKSt3mapIjSsSt4lessIjESaISt4pairIKjSsEEE
0001:0002649e* __ZN16InMemoryDatabase14finish_add_docEjRKN6Xapian8DocumentE
0001:00027a78* __ZN16InMemoryDatabase8make_docERKSs
0001:000277fe* __ZN16InMemoryDatabase9make_termERKSs
0001:00027dfa* __ZN16InMemoryDatabase12make_postingEP11InMemoryDocRKSsjjjb
0001:000202b0  __ZTV16InMemoryDatabase$w$bu4lHu2dFP5kMzuN0
0001:0002c300  __ZTI16InMemoryDatabase$w$bu4lHu2dFP5kMzuN0
0001:000209ea* __ZN6Xapian8Database8Internal6reopenEv$w$bu4lHu2dFP5kMzuN0
0001:000209f0* __ZNK6Xapian8Database8Internal16request_documentEj$w$bu4lHu2dFP5kMzuN0
0001:000209f6* __ZNK6Xapian8Database8Internal16collect_documentEj$w$bu4lHu2dFP5kMzuN0
0001:00020a1a* __ZN6Xapian8Database8Internal17as_remotedatabaseEv$w$bu4lHu2dFP5kMzuN0
0001:00020350  __ZTV23InMemoryAllDocsPostList$w$bu4lHu2dFP5kMzuN0
0001:0002c2e8  __ZTI23InMemoryAllDocsPostList$w$bu4lHu2dFP5kMzuN0
0001:00020c1e  __ZN23InMemoryAllDocsPostListD1Ev$w$bu4lHu2dFP5kMzuN0
0001:00020cb2  __ZN23InMemoryAllDocsPostListD0Ev$w$bu4lHu2dFP5kMzuN0
0001:0002080e* __ZNK12LeafPostList16get_termfreq_minEv$w$bu4lHu2dFP5kMzuN0
0001:00020824* __ZNK12LeafPostList16get_termfreq_estEv$w$bu4lHu2dFP5kMzuN0
0001:000207f8* __ZNK12LeafPostList16get_termfreq_maxEv$w$bu4lHu2dFP5kMzuN0
0001:000208a8* __ZNK12LeafPostList13get_maxweightEv$w$bu4lHu2dFP5kMzuN0
0001:0002085e* __ZNK12LeafPostList10get_weightEv$w$bu4lHu2dFP5kMzuN0
0001:00020508* __ZNK6Xapian15PostingIterator8Internal16get_collapse_keyEv$w$bu4lHu2dFP5kMzuN0
0001:000208c0* __ZN12LeafPostList16recalc_maxweightEv$w$bu4lHu2dFP5kMzuN0
0001:0002083a* __ZN12LeafPostList14set_termweightEPKN6Xapian6WeightE$w$bu4lHu2dFP5kMzuN0
0001:000203b0  __ZTV16InMemoryTermList$w$bu4lHu2dFP5kMzuN0
0001:0002c2f4  __ZTI16InMemoryTermList$w$bu4lHu2dFP5kMzuN0
0001:00020d4a  __ZN16InMemoryTermListD1Ev$w$bu4lHu2dFP5kMzuN0
0001:00020da8  __ZN16InMemoryTermListD0Ev$w$bu4lHu2dFP5kMzuN0
0001:000203f0  __ZTV16InMemoryPostList$w$bu4lHu2dFP5kMzuN0
0001:0002c2dc  __ZTI16InMemoryPostList$w$bu4lHu2dFP5kMzuN0
0001:00020a22  __ZN16InMemoryPostListD1Ev$w$bu4lHu2dFP5kMzuN0
0001:00020b1e  __ZN16InMemoryPostListD0Ev$w$bu4lHu2dFP5kMzuN0
0001:00020450  __ZTV13EmptyPostList$w$bu4lHu2dFP5kMzuN0
0001:0002c2d0  __ZTI13EmptyPostList$w$bu4lHu2dFP5kMzuN0
0001:000208d8  __ZN13EmptyPostListD1Ev$w$bu4lHu2dFP5kMzuN0
0001:00020916  __ZN13EmptyPostListD0Ev$w$bu4lHu2dFP5kMzuN0
0001:00020962  __ZNK13EmptyPostList13get_maxweightEv$w$bu4lHu2dFP5kMzuN0
0001:0002096a  __ZNK13EmptyPostList9get_docidEv$w$bu4lHu2dFP5kMzuN0
0001:00020972  __ZNK13EmptyPostList10get_weightEv$w$bu4lHu2dFP5kMzuN0
0001:0002097a  __ZNK13EmptyPostList13get_doclengthEv$w$bu4lHu2dFP5kMzuN0
0001:00020546* __ZNK6Xapian15PostingIterator8Internal7get_wdfEv$w$bu4lHu2dFP5kMzuN0
0001:00020982  __ZN13EmptyPostList18read_position_listEv$w$bu4lHu2dFP5kMzuN0
0001:0002098a  __ZNK13EmptyPostList18open_position_listEv$w$bu4lHu2dFP5kMzuN0
0001:00020992  __ZN13EmptyPostList4nextEd$w$bu4lHu2dFP5kMzuN0
0001:0002099a  __ZN13EmptyPostList7skip_toEjd$w$bu4lHu2dFP5kMzuN0
0001:000209a2  __ZNK13EmptyPostList6at_endEv$w$bu4lHu2dFP5kMzuN0
0001:000209b4  __ZNK13EmptyPostList15get_descriptionEv$w$bu4lHu2dFP5kMzuN0
0001:0002095a  __ZNK13EmptyPostList12get_termfreqEv$w$bu4lHu2dFP5kMzuN0
0001:000204b0* __ZTV12LeafPostList$w$bu4lHu2dFP5kMzuN0
0001:0002c2c4* __ZTI12LeafPostList$w$bu4lHu2dFP5kMzuN0
0001:00020776* __ZN12LeafPostListD1Ev$w$bu4lHu2dFP5kMzuN0
0001:000207b4* __ZN12LeafPostListD0Ev$w$bu4lHu2dFP5kMzuN0
0001:0002c4e8* __ZN6Xapian18UnimplementedErrorD1Ev$w$bu4lHu2dFP5kMzuN0
0001:0002ed50* __ZTIN6Xapian18UnimplementedErrorE$w$bu4lHu2dFP5kMzuN0
0001:0002c390* __ZTVN6Xapian15PostingIterator8InternalE$w$bu4lHu2dFP5kMzuN0
0001:0002c3f0* __ZTVN6Xapian16PositionIterator8InternalE$w$bu4lHu2dFP5kMzuN0
0001:000287ec* __ZStplIcSt11char_traitsIcESaIcEESbIT_T0_T1_EPKS3_RKS6_$w$bu4lHu2dFP5kMzuN0
0001:0002c7e2* __ZSt6__copyISt13_Bit_iteratorS0_ET0_T_S2_S1_St26random_access_iterator_tag$w$bu4lHu2dFP5kMzuN0
0001:0002c7a4* __ZNSt18_Bit_iterator_base7_M_incrEi$w$bu4lHu2dFP5kMzuN0
0001:0002c8d8* __ZNSt6vectorIbSaIbEE14_M_fill_insertESt13_Bit_iteratorjb$w$bu4lHu2dFP5kMzuN0
0001:0002871a* __ZNSt8_Rb_treeIjSt4pairIKjSsESt10_Select1stIS2_ESt4lessIjESaIS2_EE8_M_eraseEPSt13_Rb_tree_nodeIS2_E$w$bu4lHu2dFP5kMzuN0
0001:000288e2  __ZNSt8_Rb_treeISsSt4pairIKSs12InMemoryTermESt10_Select1stIS3_ESt4lessISsESaIS3_EE8_M_eraseEPSt13_Rb_tree_nodeIS3_E$w$bu4lHu2dFP5kMzuN0
0001:000238de  __ZNKSt8_Rb_treeISsSt4pairIKSs12InMemoryTermESt10_Select1stIS3_ESt4lessISsESaIS3_EE4findERS1_$w$bu4lHu2dFP5kMzuN0
0001:00028a62* __ZStplIcSt11char_traitsIcESaIcEESbIT_T0_T1_ERKS6_S8_$w$bu4lHu2dFP5kMzuN0
0001:0002c5bc* __ZN6Xapian16DocNotFoundErrorD1Ev$w$bu4lHu2dFP5kMzuN0
0001:0002edb0* __ZTIN6Xapian16DocNotFoundErrorE$w$bu4lHu2dFP5kMzuN0
0001:0002c414* __ZN6Xapian20InvalidArgumentErrorD1Ev$w$bu4lHu2dFP5kMzuN0
0001:0002edbc* __ZTIN6Xapian20InvalidArgumentErrorE$w$bu4lHu2dFP5kMzuN0
0001:0002c690* __ZN6Xapian10RangeErrorD1Ev$w$bu4lHu2dFP5kMzuN0
0001:0002edc8* __ZTIN6Xapian10RangeErrorE$w$bu4lHu2dFP5kMzuN0
0001:0002d836* __ZNSt8_Rb_treeIjSt4pairIKjSsESt10_Select1stIS2_ESt4lessIjESaIS2_EEC1ERKS8_$w$bu4lHu2dFP5kMzuN0
0001:00028ae2  __ZNSt6vectorISt3mapIjSsSt4lessIjESaISt4pairIKjSsEEESaIS7_EE13_M_insert_auxEN9__gnu_cxx17__normal_iteratorIPS7_S9_EERKS7_$w$bu4lHu2dFP5kMzuN0
0001:00028d66  __ZNSt8_Rb_treeISsSt4pairIKSs12InMemoryTermESt10_Select1stIS3_ESt4lessISsESaIS3_EE4findERS1_$w$bu4lHu2dFP5kMzuN0
0001:00028e72  __ZNSt6vectorI17InMemoryTermEntrySaIS0_EE5eraseEN9__gnu_cxx17__normal_iteratorIPS0_S2_EES6_$w$bu4lHu2dFP5kMzuN0
0001:0002ad34  __ZNSt6vectorI11InMemoryDocSaIS0_EE14_M_fill_insertEN9__gnu_cxx17__normal_iteratorIPS0_S2_EEjRKS0_$w$bu4lHu2dFP5kMzuN0
0001:00029368  __ZSt13__destroy_auxIP17InMemoryTermEntryEvT_S2_12__false_type$w$bu4lHu2dFP5kMzuN0
0001:00028fc4  __ZNSt6vectorIdSaIdEE5eraseEN9__gnu_cxx17__normal_iteratorIPdS1_EES5_$w$bu4lHu2dFP5kMzuN0
0001:000291d2  __ZNSt6vectorISsSaISsEE5eraseEN9__gnu_cxx17__normal_iteratorIPSsS1_EES5_$w$bu4lHu2dFP5kMzuN0
0001:0002a104  __ZNSt6vectorISt3mapIjSsSt4lessIjESaISt4pairIKjSsEEESaIS7_EE5eraseEN9__gnu_cxx17__normal_iteratorIPS7_S9_EESD_$w$bu4lHu2dFP5kMzuN0
0001:000287a4  __ZNSt8_Rb_treeIjSt4pairIKjSsESt10_Select1stIS2_ESt4lessIjESaIS2_EE5clearEv$w$bu4lHu2dFP5kMzuN0
0001:0002b502  __ZNSt6vectorISt3mapIjSsSt4lessIjESaISt4pairIKjSsEEESaIS7_EE14_M_fill_insertEN9__gnu_cxx17__normal_iteratorIPS7_S9_EEjRKS7_$w$bu4lHu2dFP5kMzuN0
0001:00029d90  __ZNSt6vectorISsSaISsEE14_M_fill_insertEN9__gnu_cxx17__normal_iteratorIPSsS1_EEjRKSs$w$bu4lHu2dFP5kMzuN0
0001:00029008  __ZNSt6vectorIdSaIdEE14_M_fill_insertEN9__gnu_cxx17__normal_iteratorIPdS1_EEjRKd$w$bu4lHu2dFP5kMzuN0
0001:0002929c* __ZNSt8_Rb_treeIjSt4pairIKjSsESt10_Select1stIS2_ESt4lessIjESaIS2_EE13insert_uniqueERKS2_$w$bu4lHu2dFP5kMzuN0
0001:0002776c  __ZNSt8_Rb_treeISsSt4pairIKSs12InMemoryTermESt10_Select1stIS3_ESt4lessISsESaIS3_EE11lower_boundERS1_$w$bu4lHu2dFP5kMzuN0
0001:000296fe  __ZNSt12_Vector_baseI15InMemoryPostingSaIS0_EEC2EjRKS1_$w$bu4lHu2dFP5kMzuN0
0001:0002d20e  __ZNSaI15InMemoryPostingED1Ev$w$bu4lHu2dFP5kMzuN0
0001:0002a316  __ZSt24__uninitialized_copy_auxIN9__gnu_cxx17__normal_iteratorIPK15InMemoryPostingSt6vectorIS2_SaIS2_EEEEPS2_ET0_T_SB_SA_12__false_type$w$bu4lHu2dFP5kMzuN0
0001:00029754  __ZNSt8_Rb_treeISsSt4pairIKSs12InMemoryTermESt10_Select1stIS3_ESt4lessISsESaIS3_EE13insert_uniqueESt17_Rb_tree_iteratorIS3_RS3_PS3_ERKS3_$w$bu4lHu2dFP5kMzuN0
0001:0002d76a  __ZNSt4pairIKSs12InMemoryTermED1Ev$w$bu4lHu2dFP5kMzuN0
0001:000296c0  __ZSt13__destroy_auxIP15InMemoryPostingEvT_S2_12__false_type$w$bu4lHu2dFP5kMzuN0
0001:0002d24c  __ZNSt14__simple_allocI15InMemoryPostingSt24__default_alloc_templateILb1ELi0EEE10deallocateEPS0_j$w$bu4lHu2dFP5kMzuN0
0001:0002a1ce  __ZSt24__uninitialized_copy_auxIN9__gnu_cxx17__normal_iteratorIPK17InMemoryTermEntrySt6vectorIS2_SaIS2_EEEEPS2_ET0_T_SB_SA_12__false_type$w$bu4lHu2dFP5kMzuN0
0001:00029430  __ZNSt6vectorI17InMemoryTermEntrySaIS0_EEaSERKS2_$w$bu4lHu2dFP5kMzuN0
0001:0002d268  __ZNSt6vectorI17InMemoryTermEntrySaIS0_EED1Ev$w$bu4lHu2dFP5kMzuN0
0001:0002d214  __ZNSt12_Vector_baseI15InMemoryPostingSaIS0_EED2Ev$w$bu4lHu2dFP5kMzuN0
0001:0002aa6e* __ZNSt6vectorISsSaISsEE13_M_insert_auxEN9__gnu_cxx17__normal_iteratorIPSsS1_EERKSs$w$bu4lHu2dFP5kMzuN0
0001:000299c0  __ZNSt6vectorIdSaIdEE13_M_insert_auxEN9__gnu_cxx17__normal_iteratorIPdS1_EERKd$w$bu4lHu2dFP5kMzuN0
0001:0002a588  __ZNSt6vectorI11InMemoryDocSaIS0_EE13_M_insert_auxEN9__gnu_cxx17__normal_iteratorIPS0_S2_EERKS0_$w$bu4lHu2dFP5kMzuN0
0001:00029acc* __ZNSt6vectorIjSaIjEE13_M_insert_auxEN9__gnu_cxx17__normal_iteratorIPjS1_EERKj$w$bu4lHu2dFP5kMzuN0
0001:0002d2f8  __ZSt11lower_boundIN9__gnu_cxx17__normal_iteratorIP15InMemoryPostingSt6vectorIS2_SaIS2_EEEES2_23InMemoryPostingLessThanET_S9_S9_RKT0_T1_$w$bu4lHu2dFP5kMzuN0
0001:0002d33e  __ZNSt6vectorI15InMemoryPostingSaIS0_EE6insertEN9__gnu_cxx17__normal_iteratorIPS0_S2_EERKS0_$w$bu4lHu2dFP5kMzuN0
0001:0002d53c  __ZSt11lower_boundIN9__gnu_cxx17__normal_iteratorIP17InMemoryTermEntrySt6vectorIS2_SaIS2_EEEES2_25InMemoryTermEntryLessThanET_S9_S9_RKT0_T1_$w$bu4lHu2dFP5kMzuN0
0001:0002d5ea  __ZNSt6vectorI17InMemoryTermEntrySaIS0_EE6insertEN9__gnu_cxx17__normal_iteratorIPS0_S2_EERKS0_$w$bu4lHu2dFP5kMzuN0
0001:0002d02c  __ZNSt6vectorIjSaIjEE15_M_range_insertIN9__gnu_cxx17__normal_iteratorIPKjS1_EEEEvNS4_IPjS1_EET_SA_St20forward_iterator_tag$w$bu4lHu2dFP5kMzuN0
0001:0002865c  __ZSt4__lgIiET_S0_$w$bu4lHu2dFP5kMzuN0
0001:00028676  __ZSt16__introsort_loopIN9__gnu_cxx17__normal_iteratorIPjSt6vectorIjSaIjEEEEiEvT_S7_T0_$w$bu4lHu2dFP5kMzuN0
0001:00029bd2  __ZSt22__final_insertion_sortIN9__gnu_cxx17__normal_iteratorIPjSt6vectorIjSaIjEEEEEvT_S7_$w$bu4lHu2dFP5kMzuN0
0001:0002d468  __ZNSt6vectorIjSaIjEEaSERKS1_$w$bu4lHu2dFP5kMzuN0
0001:0002da1e  __ZSt8__medianIjERKT_S2_S2_S2_$w$bu4lHu2dFP5kMzuN0
0001:0002da7a  __ZSt21__unguarded_partitionIN9__gnu_cxx17__normal_iteratorIPjSt6vectorIjSaIjEEEEjET_S7_S7_T0_$w$bu4lHu2dFP5kMzuN0
0001:0002d9a2  __ZSt12partial_sortIN9__gnu_cxx17__normal_iteratorIPjSt6vectorIjSaIjEEEEEvT_S7_S7_$w$bu4lHu2dFP5kMzuN0
0001:00029c38* __ZNSt8_Rb_treeIjSt4pairIKjSsESt10_Select1stIS2_ESt4lessIjESaIS2_EEaSERKS8_$w$bu4lHu2dFP5kMzuN0
0001:00029cdc  __ZSt24__uninitialized_copy_auxIN9__gnu_cxx17__normal_iteratorIPSt3mapIjSsSt4lessIjESaISt4pairIKjSsEEESt6vectorIS9_SaIS9_EEEESE_ET0_T_SG_SF_12__false_type$w$bu4lHu2dFP5kMzuN0
0001:0002e700  __ZSt4fillIN9__gnu_cxx17__normal_iteratorIPdSt6vectorIdSaIdEEEEdEvT_S7_RKT0_$w$bu4lHu2dFP5kMzuN0
0001:0002e728  __ZSt6fill_nIPdjdET_S1_T0_RKT1_$w$bu4lHu2dFP5kMzuN0
0001:00029d72  __ZSt6fill_nIN9__gnu_cxx17__normal_iteratorIPdSt6vectorIdSaIdEEEEjdET_S7_T0_RKT1_$w$bu4lHu2dFP5kMzuN0
0001:0002e746* __ZNSt8_Rb_treeIjSt4pairIKjSsESt10_Select1stIS2_ESt4lessIjESaIS2_EE9_M_insertEPSt18_Rb_tree_node_baseSA_RKS2_$w$bu4lHu2dFP5kMzuN0
0001:0002cfdc* __ZNSt22_Rb_tree_base_iterator12_M_decrementEv$w$bu4lHu2dFP5kMzuN0
0001:0002e7f0  __ZNSt6vectorI17InMemoryTermEntrySaIS0_EE20_M_allocate_and_copyIN9__gnu_cxx17__normal_iteratorIPKS0_S2_EEEEPS0_jT_SA_$w$bu4lHu2dFP5kMzuN0
0001:0002e870  __ZNSt8_Rb_treeISsSt4pairIKSs12InMemoryTermESt10_Select1stIS3_ESt4lessISsESaIS3_EE9_M_insertEPSt18_Rb_tree_node_baseSB_RKS3_$w$bu4lHu2dFP5kMzuN0
0001:0002a418  __ZNSt8_Rb_treeISsSt4pairIKSs12InMemoryTermESt10_Select1stIS3_ESt4lessISsESaIS3_EE13insert_uniqueERKS3_$w$bu4lHu2dFP5kMzuN0
0001:0002e9ba  __ZSt16__insertion_sortIN9__gnu_cxx17__normal_iteratorIPjSt6vectorIjSaIjEEEEEvT_S7_$w$bu4lHu2dFP5kMzuN0
0001:0002e984  __ZSt25__unguarded_linear_insertIN9__gnu_cxx17__normal_iteratorIPjSt6vectorIjSaIjEEEEjEvT_T0_$w$bu4lHu2dFP5kMzuN0
0001:0002e602* __ZNSt8_Rb_treeIjSt4pairIKjSsESt10_Select1stIS2_ESt4lessIjESaIS2_EE7_M_copyEPSt13_Rb_tree_nodeIS2_ESB_$w$bu4lHu2dFP5kMzuN0
0001:0002b3ba* __ZSt24__uninitialized_copy_auxIN9__gnu_cxx17__normal_iteratorIPSsSt6vectorISsSaISsEEEES6_ET0_T_S8_S7_12__false_type$w$bu4lHu2dFP5kMzuN0
0001:0002b460  __ZSt26__uninitialized_fill_n_auxIN9__gnu_cxx17__normal_iteratorIPSsSt6vectorISsSaISsEEEEjSsET_S7_T0_RKT1_12__false_type$w$bu4lHu2dFP5kMzuN0
0001:0002b19c* __ZSt24__uninitialized_copy_auxIPSsS0_ET0_T_S2_S1_12__false_type$w$bu4lHu2dFP5kMzuN0
0001:0002b23e  __ZSt4fillIN9__gnu_cxx17__normal_iteratorIPSsSt6vectorISsSaISsEEEESsEvT_S7_RKT0_$w$bu4lHu2dFP5kMzuN0
0001:0002b276  __ZSt26__uninitialized_fill_n_auxIPSsjSsET_S1_T0_RKT1_12__false_type$w$bu4lHu2dFP5kMzuN0
0001:0002b316  __ZSt24__uninitialized_copy_auxIN9__gnu_cxx17__normal_iteratorIPSsSt6vectorISsSaISsEEEES2_ET0_T_S8_S7_12__false_type$w$bu4lHu2dFP5kMzuN0
0001:0002b840  __ZSt24__uninitialized_copy_auxIN9__gnu_cxx17__normal_iteratorIP11InMemoryDocSt6vectorIS2_SaIS2_EEEES7_ET0_T_S9_S8_12__false_type$w$bu4lHu2dFP5kMzuN0
0001:0002b9c8  __ZSt24__uninitialized_copy_auxIP11InMemoryDocS1_ET0_T_S3_S2_12__false_type$w$bu4lHu2dFP5kMzuN0
0001:0002bb52  __ZSt4fillIN9__gnu_cxx17__normal_iteratorIP11InMemoryDocSt6vectorIS2_SaIS2_EEEES2_EvT_S8_RKT0_$w$bu4lHu2dFP5kMzuN0
0001:0002bb96  __ZSt26__uninitialized_fill_n_auxIP11InMemoryDocjS0_ET_S2_T0_RKT1_12__false_type$w$bu4lHu2dFP5kMzuN0
0001:0002bd14  __ZSt24__uninitialized_copy_auxIN9__gnu_cxx17__normal_iteratorIP11InMemoryDocSt6vectorIS2_SaIS2_EEEES3_ET0_T_S9_S8_12__false_type$w$bu4lHu2dFP5kMzuN0
0001:0002bea0  __ZSt26__uninitialized_fill_n_auxIN9__gnu_cxx17__normal_iteratorIP11InMemoryDocSt6vectorIS2_SaIS2_EEEEjS2_ET_S8_T0_RKT1_12__false_type$w$bu4lHu2dFP5kMzuN0
0001:0002c224  __ZSt26__uninitialized_fill_n_auxIN9__gnu_cxx17__normal_iteratorIPSt3mapIjSsSt4lessIjESaISt4pairIKjSsEEESt6vectorIS9_SaIS9_EEEEjS9_ET_SF_T0_RKT1_12__false_type$w$bu4lHu2dFP5kMzuN0
0001:0002c01e  __ZSt24__uninitialized_copy_auxIPSt3mapIjSsSt4lessIjESaISt4pairIKjSsEEES8_ET0_T_SA_S9_12__false_type$w$bu4lHu2dFP5kMzuN0
0001:0002c0b0  __ZSt4fillIN9__gnu_cxx17__normal_iteratorIPSt3mapIjSsSt4lessIjESaISt4pairIKjSsEEESt6vectorIS9_SaIS9_EEEES9_EvT_SF_RKT0_$w$bu4lHu2dFP5kMzuN0
0001:0002c0e8  __ZSt26__uninitialized_fill_n_auxIPSt3mapIjSsSt4lessIjESaISt4pairIKjSsEEEjS7_ET_S9_T0_RKT1_12__false_type$w$bu4lHu2dFP5kMzuN0
0001:0002c184  __ZSt24__uninitialized_copy_auxIN9__gnu_cxx17__normal_iteratorIPSt3mapIjSsSt4lessIjESaISt4pairIKjSsEEESt6vectorIS9_SaIS9_EEEESA_ET0_T_SG_SF_12__false_type$w$bu4lHu2dFP5kMzuN0
0001:0002c36f* __ZTS12LeafPostList$w$bu4lHu2dFP5kMzuN0
0001:0002ed30* __ZTIN6Xapian15PostingIterator8InternalE$w$bu4lHu2dFP5kMzuN0
0001:0002c35f  __ZTS13EmptyPostList$w$bu4lHu2dFP5kMzuN0
0001:0002c34c  __ZTS16InMemoryPostList$w$bu4lHu2dFP5kMzuN0
0001:0002c332  __ZTS23InMemoryAllDocsPostList$w$bu4lHu2dFP5kMzuN0
0001:0002c31f  __ZTS16InMemoryTermList$w$bu4lHu2dFP5kMzuN0
0001:0002ed70* __ZTIN6Xapian12TermIterator8InternalE$w$bu4lHu2dFP5kMzuN0
0001:0002c30c  __ZTS16InMemoryDatabase$w$bu4lHu2dFP5kMzuN0
0001:0002ed90* __ZTIN6Xapian8Database8InternalE$w$bu4lHu2dFP5kMzuN0
0001:0002c380* __ZNSt15basic_streambufIcSt11char_traitsIcEE13_S_pback_sizeE$w$bu4lHu2dFP5kMzuN0
0001:0002c784* __ZN6Xapian15PostingIterator8InternalD1Ev$w$bu4lHu2dFP5kMzuN0
0001:0002c792* __ZN6Xapian15PostingIterator8InternalD0Ev$w$bu4lHu2dFP5kMzuN0
0001:0002ed10* __ZTIN6Xapian16PositionIterator8InternalE$w$bu4lHu2dFP5kMzuN0
0001:0002c764* __ZN6Xapian16PositionIterator8InternalD1Ev$w$bu4lHu2dFP5kMzuN0
0001:0002c772* __ZN6Xapian16PositionIterator8InternalD0Ev$w$bu4lHu2dFP5kMzuN0
0001:0002cf2e* __ZSt4fillISt13_Bit_iteratorbEvT_S1_RKT0_$w$bu4lHu2dFP5kMzuN0
0001:0002d908* __ZSt6fill_nISt13_Bit_iteratorjbET_S1_T0_RKT1_$w$bu4lHu2dFP5kMzuN0
0001:0002dad8  __ZNSt6vectorI15InMemoryPostingSaIS0_EE13_M_insert_auxEN9__gnu_cxx17__normal_iteratorIPS0_S2_EERKS0_$w$bu4lHu2dFP5kMzuN0
0001:0002effe  __ZNSt6vectorIjSaIjEE20_M_allocate_and_copyIN9__gnu_cxx17__normal_iteratorIPKjS1_EEEEPjjT_S9_$w$bu4lHu2dFP5kMzuN0
0001:0002df22  __ZNSt6vectorI17InMemoryTermEntrySaIS0_EE13_M_insert_auxEN9__gnu_cxx17__normal_iteratorIPS0_S2_EERKS0_$w$bu4lHu2dFP5kMzuN0
0001:0002f0be  __ZSt9make_heapIN9__gnu_cxx17__normal_iteratorIPjSt6vectorIjSaIjEEEEEvT_S7_$w$bu4lHu2dFP5kMzuN0
0001:0002f116  __ZSt9sort_heapIN9__gnu_cxx17__normal_iteratorIPjSt6vectorIjSaIjEEEEEvT_S7_$w$bu4lHu2dFP5kMzuN0
0001:0002f04c  __ZSt13__adjust_heapIN9__gnu_cxx17__normal_iteratorIPjSt6vectorIjSaIjEEEEijEvT_T0_S8_T1_$w$bu4lHu2dFP5kMzuN0
0001:0002ea18  __ZSt24__uninitialized_copy_auxIN9__gnu_cxx17__normal_iteratorIP15InMemoryPostingSt6vectorIS2_SaIS2_EEEES7_ET0_T_S9_S8_12__false_type$w$bu4lHu2dFP5kMzuN0
0001:0002eb30  __ZSt24__uninitialized_copy_auxIN9__gnu_cxx17__normal_iteratorIP17InMemoryTermEntrySt6vectorIS2_SaIS2_EEEES7_ET0_T_S9_S8_12__false_type$w$bu4lHu2dFP5kMzuN0
0001:0002f174* __ZNSt8_Rb_treeIjSt4pairIKjSsESt10_Select1stIS2_ESt4lessIjESaIS2_EE14_M_create_nodeERKS2_$w$bu4lHu2dFP5kMzuN0
0001:0002eef6* __ZSt18_Rb_tree_rebalancePSt18_Rb_tree_node_baseRS0_$w$bu4lHu2dFP5kMzuN0
0001:0002f1e6  __ZNSt8_Rb_treeISsSt4pairIKSs12InMemoryTermESt10_Select1stIS3_ESt4lessISsESaIS3_EE14_M_create_nodeERKS3_$w$bu4lHu2dFP5kMzuN0
0001:0002eed0* __ZTSN6Xapian16PositionIterator8InternalE$w$bu4lHu2dFP5kMzuN0
0001:0002f318* __ZTIN6Xapian8Internal10RefCntBaseE$w$bu4lHu2dFP5kMzuN0
0001:0002ee90* __ZTSN6Xapian15PostingIterator8InternalE$w$bu4lHu2dFP5kMzuN0
0001:0002ee71* __ZTSN6Xapian18UnimplementedErrorE$w$bu4lHu2dFP5kMzuN0
0001:0002f30c* __ZTIN6Xapian10LogicErrorE$w$bu4lHu2dFP5kMzuN0
0001:0002ee50* __ZTSN6Xapian12TermIterator8InternalE$w$bu4lHu2dFP5kMzuN0
0001:0002ee2c* __ZTSN6Xapian8Database8InternalE$w$bu4lHu2dFP5kMzuN0
0001:0002ee10* __ZTSN6Xapian16DocNotFoundErrorE$w$bu4lHu2dFP5kMzuN0
0001:0002f300* __ZTIN6Xapian12RuntimeErrorE$w$bu4lHu2dFP5kMzuN0
0001:0002edf0* __ZTSN6Xapian20InvalidArgumentErrorE$w$bu4lHu2dFP5kMzuN0
0001:0002edd4* __ZTSN6Xapian10RangeErrorE$w$bu4lHu2dFP5kMzuN0
0001:0002f36e* __ZSt20_Rb_tree_rotate_leftPSt18_Rb_tree_node_baseRS0_$w$bu4lHu2dFP5kMzuN0
0001:0002f3b0* __ZSt21_Rb_tree_rotate_rightPSt18_Rb_tree_node_baseRS0_$w$bu4lHu2dFP5kMzuN0
0001:0002f3f2  __ZSt11__push_heapIN9__gnu_cxx17__normal_iteratorIPjSt6vectorIjSaIjEEEEijEvT_T0_S8_T1_$w$bu4lHu2dFP5kMzuN0
0001:0002f355* __ZTSN6Xapian12RuntimeErrorE$w$bu4lHu2dFP5kMzuN0
0001:0002f42c* __ZTIN6Xapian5ErrorE$w$bu4lHu2dFP5kMzuN0
0001:0002f33f* __ZTSN6Xapian10LogicErrorE$w$bu4lHu2dFP5kMzuN0
0001:0002f320* __ZTSN6Xapian8Internal10RefCntBaseE$w$bu4lHu2dFP5kMzuN0
0001:0002f434* __ZTSN6Xapian5ErrorE$w$bu4lHu2dFP5kMzuN0
0002:00012250* __ZN16__Atomicity_lockILi0EE17_S_atomicity_lockE$w$bu4lHu2dFP5kMzuN0
Module: F:\rd\dse\xapian-core-1.0.2\.libs\xapian.a(backends\flint\flint_database.cc)
0001:00038332* __ZN21FlintWritableDatabaseD1Ev
0001:0003856e* __ZN21FlintWritableDatabaseD0Ev
0001:0003d530* __ZNK21FlintWritableDatabase12get_doccountEv
0001:0003d540* __ZNK21FlintWritableDatabase13get_lastdocidEv
0001:0003d554* __ZNK21FlintWritableDatabase12get_avlengthEv
0001:0003d5b2* __ZNK21FlintWritableDatabase13get_doclengthEj
0001:0003d610* __ZNK21FlintWritableDatabase12get_termfreqERKSs
0001:0003d66e* __ZNK21FlintWritableDatabase19get_collection_freqERKSs
0001:0003d6cc* __ZNK21FlintWritableDatabase11term_existsERKSs
0001:0003d6f0* __ZNK21FlintWritableDatabase13has_positionsEv
0001:0003d70c* __ZNK21FlintWritableDatabase14open_post_listERKSs
0001:0003db40* __ZNK21FlintWritableDatabase14open_term_listEj
0001:0003e1e0* __ZNK21FlintWritableDatabase13open_alltermsERKSs
0001:0003dda4* __ZNK21FlintWritableDatabase18open_position_listEjRKSs
0001:0003dc70* __ZNK21FlintWritableDatabase13open_documentEjb
0001:0003e692* __ZNK21FlintWritableDatabase22open_spelling_termlistERKSs
0001:0003e6a8* __ZNK21FlintWritableDatabase22open_spelling_wordlistEv
0001:0003e8d6* __ZNK21FlintWritableDatabase22get_spelling_frequencyERKSs
0001:0003e666* __ZNK21FlintWritableDatabase12add_spellingERKSsj
0001:0003e67c* __ZNK21FlintWritableDatabase15remove_spellingERKSsj
0001:0003e8ec* __ZNK21FlintWritableDatabase21open_synonym_termlistERKSs
0001:0003e902* __ZNK21FlintWritableDatabase20open_synonym_keylistERKSs
0001:0003ea44* __ZNK21FlintWritableDatabase11add_synonymERKSsS1_
0001:0003ea5a* __ZNK21FlintWritableDatabase14remove_synonymERKSsS1_
0001:0003ea70* __ZNK21FlintWritableDatabase14clear_synonymsERKSs
0001:000387e8* __ZN21FlintWritableDatabase5flushEv
0001:0003e562* __ZN21FlintWritableDatabase6cancelEv
0001:00038c42* __ZN21FlintWritableDatabase12add_documentERKN6Xapian8DocumentE
0001:00039ef2* __ZN21FlintWritableDatabase15delete_documentEj
0001:0003b034* __ZN21FlintWritableDatabase16replace_documentEjRKN6Xapian8DocumentE
0001:00034750* __ZN13FlintDatabaseD1Ev
0001:00034e08* __ZN13FlintDatabaseD0Ev
0001:00036900* __ZNK13FlintDatabase12get_doccountEv
0001:00036910* __ZNK13FlintDatabase13get_lastdocidEv
0001:00036924* __ZNK13FlintDatabase12get_avlengthEv
0001:00036986* __ZNK13FlintDatabase13get_doclengthEj
0001:00036bca* __ZNK13FlintDatabase12get_termfreqERKSs
0001:00036bdc* __ZNK13FlintDatabase19get_collection_freqERKSs
0001:00036bf2* __ZNK13FlintDatabase11term_existsERKSs
0001:00036ddc* __ZNK13FlintDatabase13has_positionsEv
0001:00036df6* __ZNK13FlintDatabase14open_post_listERKSs
0001:0003703a* __ZNK13FlintDatabase14open_term_listEj
0001:000376f8* __ZNK13FlintDatabase13open_alltermsERKSs
0001:000372ee* __ZNK13FlintDatabase18open_position_listEjRKSs
0001:0003716a* __ZNK13FlintDatabase13open_documentEjb
0001:00037810* __ZNK13FlintDatabase22open_spelling_termlistERKSs
0001:00037828* __ZNK13FlintDatabase22open_spelling_wordlistEv
0001:00037a4e* __ZNK13FlintDatabase22get_spelling_frequencyERKSs
0001:00037a64* __ZNK13FlintDatabase21open_synonym_termlistERKSs
0001:00037a7a* __ZNK13FlintDatabase20open_synonym_keylistERKSs
0001:0003603c* __ZN13FlintDatabase6reopenEv
0001:00036788* __ZN13FlintDatabase6cancelEv
0001:0002fb20* __ZN13FlintDatabaseC2ERKSsij
0001:000354c8* __ZN13FlintDatabase15database_existsEv
0001:00035906* __ZN13FlintDatabase22open_tables_consistentEv
0001:000360ca* __ZN13FlintDatabase23get_database_write_lockEv
0001:00035550* __ZN13FlintDatabase22create_and_open_tablesEj
0001:00035f8a* __ZNK13FlintDatabase24get_next_revision_numberEv
0001:00035f9c* __ZN13FlintDatabase19set_revision_numberEj
0001:00031ddc  __ZN13FlintDatabaseC1ERKSsij
0001:00034098* __ZN13FlintDatabaseD2Ev
0001:00035e8c* __ZN13FlintDatabase11open_tablesEj
0001:00035f7e* __ZNK13FlintDatabase19get_revision_numberEv
0001:000363a0* __ZN13FlintDatabase5applyEv
0001:00037bcc* __ZN21FlintWritableDatabaseC2ERKSsii
0001:00037e60  __ZN21FlintWritableDatabaseC1ERKSsii
0001:000380f6* __ZN21FlintWritableDatabaseD2Ev
0001:00038a7a* __ZNK21FlintWritableDatabase14do_flush_constEv
0001:00038eb2* __ZN21FlintWritableDatabase13add_document_EjRKN6Xapian8DocumentE
0002:00012260* __ZN21FlintWritableDatabase15flush_thresholdE
0001:0002f450  __ZTV21FlintWritableDatabase$w$bgb8VaScFP5G8Iuq2
0001:0002f5e8* __ZN6Xapian8Database8Internal6reopenEv$w$bgb8VaScFP5G8Iuq2
0001:0002f5ee* __ZNK6Xapian8Database8Internal16request_documentEj$w$bgb8VaScFP5G8Iuq2
0001:0002f5f4* __ZNK6Xapian8Database8Internal16collect_documentEj$w$bgb8VaScFP5G8Iuq2
0001:0002f618* __ZN6Xapian8Database8Internal17as_remotedatabaseEv$w$bgb8VaScFP5G8Iuq2
0001:0002f4f0  __ZTV13FlintDatabase$w$bgb8VaScFP5G8Iuq2
0001:0002f590* __ZTV12LeafPostList$w$bgb8VaScFP5G8Iuq2
0001:0002f88e* __ZN12LeafPostListD1Ev$w$bgb8VaScFP5G8Iuq2
0001:0002f8cc* __ZN12LeafPostListD0Ev$w$bgb8VaScFP5G8Iuq2
0001:0002f926* __ZNK12LeafPostList16get_termfreq_minEv$w$bgb8VaScFP5G8Iuq2
0001:0002f93c* __ZNK12LeafPostList16get_termfreq_estEv$w$bgb8VaScFP5G8Iuq2
0001:0002f910* __ZNK12LeafPostList16get_termfreq_maxEv$w$bgb8VaScFP5G8Iuq2
0001:0002f9c0* __ZNK12LeafPostList13get_maxweightEv$w$bgb8VaScFP5G8Iuq2
0001:0002f976* __ZNK12LeafPostList10get_weightEv$w$bgb8VaScFP5G8Iuq2
0001:0002f620* __ZNK6Xapian15PostingIterator8Internal16get_collapse_keyEv$w$bgb8VaScFP5G8Iuq2
0001:0002f9d8* __ZN12LeafPostList16recalc_maxweightEv$w$bgb8VaScFP5G8Iuq2
0001:0002f65e* __ZNK6Xapian15PostingIterator8Internal7get_wdfEv$w$bgb8VaScFP5G8Iuq2
0001:0002f952* __ZN12LeafPostList14set_termweightEPKN6Xapian6WeightE$w$bgb8VaScFP5G8Iuq2
0001:0003ebf8  __ZNSt8_Rb_treeISsSsSt9_IdentityISsESt4lessISsESaISsEEC1ERKS3_RKS4_$w$bgb8VaScFP5G8Iuq2
0001:0003eb06  __ZNSt14__simple_allocISt13_Rb_tree_nodeISt4pairIK8fragmentSt3setISsSt4lessISsESaISsEEEESt24__default_alloc_templateILb1ELi0EEE8allocateEj$w$bgb8VaScFP5G8Iuq2
0001:0003eb26  __ZNSt8_Rb_treeI8fragmentSt4pairIKS0_St3setISsSt4lessISsESaISsEEESt10_Select1stIS8_ES4_IS0_ESaIS8_EE19_M_empty_initializeEv$w$bgb8VaScFP5G8Iuq2
0001:0003edde* __ZStplIcSt11char_traitsIcESaIcEESbIT_T0_T1_EPKS3_RKS6_$w$bgb8VaScFP5G8Iuq2
0001:0003ec3e  __ZNSt8_Rb_treeISsSsSt9_IdentityISsESt4lessISsESaISsEE8_M_eraseEPSt13_Rb_tree_nodeISsE$w$bgb8VaScFP5G8Iuq2
0001:0003eb48  __ZNSt8_Rb_treeI8fragmentSt4pairIKS0_St3setISsSt4lessISsESaISsEEESt10_Select1stIS8_ES4_IS0_ESaIS8_EE8_M_eraseEPSt13_Rb_tree_nodeIS8_E$w$bgb8VaScFP5G8Iuq2
0001:0003eed4  __ZNSt8_Rb_treeISsSt4pairIKSsS0_IiiEESt10_Select1stIS3_ESt4lessISsESaIS3_EE8_M_eraseEPSt13_Rb_tree_nodeIS3_E$w$bgb8VaScFP5G8Iuq2
0001:0003ef5e  __ZNSt8_Rb_treeIjSt4pairIKjjESt10_Select1stIS2_ESt4lessIjESaIS2_EE8_M_eraseEPSt13_Rb_tree_nodeIS2_E$w$bgb8VaScFP5G8Iuq2
0001:0003efa2  __ZNSt8_Rb_treeISsSt4pairIKSsSt3mapIjS0_IcjESt4lessIjESaIS0_IKjS3_EEEESt10_Select1stISA_ES4_ISsESaISA_EE8_M_eraseEPSt13_Rb_tree_nodeISA_E$w$bgb8VaScFP5G8Iuq2
0001:0003f0e4  __ZNSt8_Rb_treeISsSt4pairIKSsS0_IiiEESt10_Select1stIS3_ESt4lessISsESaIS3_EE4findERS1_$w$bgb8VaScFP5G8Iuq2
0001:0003f360  __ZNSt8_Rb_treeISsSt4pairIKSsSt3mapIjS0_IcjESt4lessIjESaIS0_IKjS3_EEEESt10_Select1stISA_ES4_ISsESaISA_EE4findERS1_$w$bgb8VaScFP5G8Iuq2
0001:0003ecc8  __ZNSt8_Rb_treeIjSt4pairIKjS0_IcjEESt10_Select1stIS3_ESt4lessIjESaIS3_EEC1ERKS9_$w$bgb8VaScFP5G8Iuq2
0001:0003ed9a  __ZNSt8_Rb_treeIjSt4pairIKjS0_IcjEESt10_Select1stIS3_ESt4lessIjESaIS3_EE8_M_eraseEPSt13_Rb_tree_nodeIS3_E$w$bgb8VaScFP5G8Iuq2
0001:0003f1f0  __ZNSt8_Rb_treeISsSt4pairIKSsS0_IiiEESt10_Select1stIS3_ESt4lessISsESaIS3_EE13insert_uniqueERKS3_$w$bgb8VaScFP5G8Iuq2
0001:0003ea86* __ZStplIcSt11char_traitsIcESaIcEESbIT_T0_T1_ERKS6_S8_$w$bgb8VaScFP5G8Iuq2
0001:0003fb60  __ZTI21FlintWritableDatabase$w$bgb8VaScFP5G8Iuq2
0001:0003fb54  __ZTI13FlintDatabase$w$bgb8VaScFP5G8Iuq2
0001:0003fb48* __ZTI12LeafPostList$w$bgb8VaScFP5G8Iuq2
0001:0003fcfe* __ZN6Xapian18UnimplementedErrorD1Ev$w$bgb8VaScFP5G8Iuq2
0001:00041190* __ZTIN6Xapian18UnimplementedErrorE$w$bgb8VaScFP5G8Iuq2
0001:0003fbb0* __ZTVN6Xapian15PostingIterator8InternalE$w$bgb8VaScFP5G8Iuq2
0001:000401f6* __ZN6Xapian20DatabaseOpeningErrorD1Ev$w$bgb8VaScFP5G8Iuq2
0001:000411a8* __ZTIN6Xapian20DatabaseOpeningErrorE$w$bgb8VaScFP5G8Iuq2
0001:0003ff7a  __ZN6Xapian19DatabaseCreateErrorD1Ev$w$bgb8VaScFP5G8Iuq2
0001:000411b4  __ZTIN6Xapian19DatabaseCreateErrorE$w$bgb8VaScFP5G8Iuq2
0001:0004053e  __ZNSt8_Rb_treeISsSt4pairIKSsjESt10_Select1stIS2_ESt4lessISsESaIS2_EED1Ev$w$bgb8VaScFP5G8Iuq2
0001:000405b8  __ZNSt8_Rb_treeISsSt4pairIKSsjESt10_Select1stIS2_ESt4lessISsESaIS2_EE8_M_eraseEPSt13_Rb_tree_nodeIS2_E$w$bgb8VaScFP5G8Iuq2
0001:00040122  __ZN6Xapian21DatabaseModifiedErrorD1Ev$w$bgb8VaScFP5G8Iuq2
0001:000411cc  __ZTIN6Xapian21DatabaseModifiedErrorE$w$bgb8VaScFP5G8Iuq2
0001:0003fea6* __ZN6Xapian20DatabaseCorruptErrorD1Ev$w$bgb8VaScFP5G8Iuq2
0001:000411c0* __ZTIN6Xapian20DatabaseCorruptErrorE$w$bgb8VaScFP5G8Iuq2
0001:0004004e  __ZN6Xapian17DatabaseLockErrorD1Ev$w$bgb8VaScFP5G8Iuq2
0001:000411d8  __ZTIN6Xapian17DatabaseLockErrorE$w$bgb8VaScFP5G8Iuq2
0001:0003fdd2  __ZN6Xapian13DatabaseErrorD1Ev$w$bgb8VaScFP5G8Iuq2
0001:000411e4* __ZTIN6Xapian13DatabaseErrorE$w$bgb8VaScFP5G8Iuq2
0001:000411fc* __ZTIN6Xapian5ErrorE$w$bgb8VaScFP5G8Iuq2
0001:000402ca  __ZN6Xapian10RangeErrorD1Ev$w$bgb8VaScFP5G8Iuq2
0001:000411f0  __ZTIN6Xapian10RangeErrorE$w$bgb8VaScFP5G8Iuq2
0001:000407f0  __ZN17FlintAllTermsListC1EN6Xapian8Internal9RefCntPtrIKNS0_8Database8InternalEEEPK18FlintPostListTableRKSs$w$bgb8VaScFP5G8Iuq2
0001:00040642  __ZN20FlintSynonymTermListC1EN6Xapian8Internal9RefCntPtrIKNS0_8Database8InternalEEEP11FlintCursorjRKSs$w$bgb8VaScFP5G8Iuq2
0001:0003fc2a* __ZN6Xapian21InvalidOperationErrorD1Ev$w$bgb8VaScFP5G8Iuq2
0001:0004119c* __ZTIN6Xapian21InvalidOperationErrorE$w$bgb8VaScFP5G8Iuq2
0001:0003f46c  __ZNSt8_Rb_treeISsSt4pairIKSsSt3mapIjS0_IcjESt4lessIjESaIS0_IKjS3_EEEESt10_Select1stISA_ES4_ISsESaISA_EE13insert_uniqueERKSA_$w$bgb8VaScFP5G8Iuq2
0001:0003f5dc  __ZNSt8_Rb_treeIjSt4pairIKjS0_IcjEESt10_Select1stIS3_ESt4lessIjESaIS3_EE13insert_uniqueERKS3_$w$bgb8VaScFP5G8Iuq2
0001:0003f6a8  __ZNSt8_Rb_treeIjSt4pairIKjjESt10_Select1stIS2_ESt4lessIjESaIS2_EE11lower_boundERS1_$w$bgb8VaScFP5G8Iuq2
0001:0003f6dc  __ZNSt8_Rb_treeIjSt4pairIKjjESt10_Select1stIS2_ESt4lessIjESaIS2_EE13insert_uniqueESt17_Rb_tree_iteratorIS2_RS2_PS2_ERKS2_$w$bgb8VaScFP5G8Iuq2
0001:0004039e* __Z25pack_uint_preserving_sortIjESsT_$w$bgb8VaScFP5G8Iuq2
0001:0003f7b4  __ZNSt8_Rb_treeIjSt4pairIKjS0_IcjEESt10_Select1stIS3_ESt4lessIjESaIS3_EE4findERS1_$w$bgb8VaScFP5G8Iuq2
0001:0003f80a  __ZNSt8_Rb_treeIjSt4pairIKjjESt10_Select1stIS2_ESt4lessIjESaIS2_EE5eraseERS1_$w$bgb8VaScFP5G8Iuq2
0001:0003f930  __ZNSt4listISt4pairISsjESaIS1_EE6insertESt14_List_iteratorIS1_RS1_PS1_ERKS1_$w$bgb8VaScFP5G8Iuq2
0001:0003f8ae  __ZNSt10_List_baseISt4pairISsjESaIS1_EE7__clearEv$w$bgb8VaScFP5G8Iuq2
0001:00041204  __ZTIN6Xapian16DocNotFoundErrorE$w$bgb8VaScFP5G8Iuq2
0001:00040bd6  __ZNSt8_Rb_treeIjSt4pairIKjjESt10_Select1stIS2_ESt4lessIjESaIS2_EE4findERS1_$w$bgb8VaScFP5G8Iuq2
0001:0003f97c  __ZNSt8_Rb_treeIjSt4pairIKjS0_IcjEESt10_Select1stIS3_ESt4lessIjESaIS3_EE7_M_copyEPSt13_Rb_tree_nodeIS3_ESC_$w$bgb8VaScFP5G8Iuq2
0001:000404ce* __ZNSt22_Rb_tree_base_iterator12_M_decrementEv$w$bgb8VaScFP5G8Iuq2
0001:00040c2c  __ZNSt8_Rb_treeISsSt4pairIKSsS0_IiiEESt10_Select1stIS3_ESt4lessISsESaIS3_EE9_M_insertEPSt18_Rb_tree_node_baseSB_RKS3_$w$bgb8VaScFP5G8Iuq2
0001:00040d40  __ZNSt8_Rb_treeISsSt4pairIKSsSt3mapIjS0_IcjESt4lessIjESaIS0_IKjS3_EEEESt10_Select1stISA_ES4_ISsESaISA_EE9_M_insertEPSt18_Rb_tree_node_baseSH_RKSA_$w$bgb8VaScFP5G8Iuq2
0001:00040e90  __ZNSt8_Rb_treeIjSt4pairIKjS0_IcjEESt10_Select1stIS3_ESt4lessIjESaIS3_EE9_M_insertEPSt18_Rb_tree_node_baseSB_RKS3_$w$bgb8VaScFP5G8Iuq2
0001:00040f3a  __ZNSt8_Rb_treeIjSt4pairIKjjESt10_Select1stIS2_ESt4lessIjESaIS2_EE9_M_insertEPSt18_Rb_tree_node_baseSA_RKS2_$w$bgb8VaScFP5G8Iuq2
0001:0003fa7a  __ZNSt8_Rb_treeIjSt4pairIKjjESt10_Select1stIS2_ESt4lessIjESaIS2_EE13insert_uniqueERKS2_$w$bgb8VaScFP5G8Iuq2
0001:00040fe4  __ZNSt8_Rb_treeIjSt4pairIKjjESt10_Select1stIS2_ESt4lessIjESaIS2_EE11upper_boundERS1_$w$bgb8VaScFP5G8Iuq2
0001:00041018  __ZNSt8_Rb_treeIjSt4pairIKjjESt10_Select1stIS2_ESt4lessIjESaIS2_EE5eraseESt17_Rb_tree_iteratorIS2_RS2_PS2_ESC_$w$bgb8VaScFP5G8Iuq2
0001:00040486* __ZNSt22_Rb_tree_base_iterator12_M_incrementEv$w$bgb8VaScFP5G8Iuq2
0001:000410cc  __ZNSt4listISt4pairISsjESaIS1_EE14_M_create_nodeERKS1_$w$bgb8VaScFP5G8Iuq2
0001:00040e54  __ZNSt8_Rb_treeIjSt4pairIKjS0_IcjEESt10_Select1stIS3_ESt4lessIjESaIS3_EE14_M_create_nodeERKS3_$w$bgb8VaScFP5G8Iuq2
0001:0003fb94* __ZTS12LeafPostList$w$bgb8VaScFP5G8Iuq2
0001:00041170* __ZTIN6Xapian15PostingIterator8InternalE$w$bgb8VaScFP5G8Iuq2
0001:0003fb84  __ZTS13FlintDatabase$w$bgb8VaScFP5G8Iuq2
0001:00041150* __ZTIN6Xapian8Database8InternalE$w$bgb8VaScFP5G8Iuq2
0001:0003fb6c  __ZTS21FlintWritableDatabase$w$bgb8VaScFP5G8Iuq2
0001:0003fba4* __ZNSt15basic_streambufIcSt11char_traitsIcEE13_S_pback_sizeE$w$bgb8VaScFP5G8Iuq2
0001:0004051e* __ZN6Xapian15PostingIterator8InternalD1Ev$w$bgb8VaScFP5G8Iuq2
0001:0004052c* __ZN6Xapian15PostingIterator8InternalD0Ev$w$bgb8VaScFP5G8Iuq2
0001:0004179e  __ZNSt8_Rb_treeISsSt4pairIKSsS0_IiiEESt10_Select1stIS3_ESt4lessISsESaIS3_EE14_M_create_nodeERKS3_$w$bgb8VaScFP5G8Iuq2
0001:000413b0* __ZSt18_Rb_tree_rebalancePSt18_Rb_tree_node_baseRS0_$w$bgb8VaScFP5G8Iuq2
0001:00041818  __ZNSt8_Rb_treeISsSt4pairIKSsSt3mapIjS0_IcjESt4lessIjESaIS0_IKjS3_EEEESt10_Select1stISA_ES4_ISsESaISA_EE14_M_create_nodeERKSA_$w$bgb8VaScFP5G8Iuq2
0001:000418de  __ZNSt8_Rb_treeIjSt4pairIKjjESt10_Select1stIS2_ESt4lessIjESaIS2_EE14_M_create_nodeERKS2_$w$bgb8VaScFP5G8Iuq2
0001:000414b8* __ZSt28_Rb_tree_rebalance_for_erasePSt18_Rb_tree_node_baseRS0_S1_S1_$w$bgb8VaScFP5G8Iuq2
0001:00041394* __ZTSN6Xapian8Database8InternalE$w$bgb8VaScFP5G8Iuq2
0001:00041924* __ZTIN6Xapian8Internal10RefCntBaseE$w$bgb8VaScFP5G8Iuq2
0001:00041370* __ZTSN6Xapian15PostingIterator8InternalE$w$bgb8VaScFP5G8Iuq2
0001:00041351* __ZTSN6Xapian18UnimplementedErrorE$w$bgb8VaScFP5G8Iuq2
0001:00041918* __ZTIN6Xapian10LogicErrorE$w$bgb8VaScFP5G8Iuq2
0001:00041330* __ZTSN6Xapian21InvalidOperationErrorE$w$bgb8VaScFP5G8Iuq2
0001:00041310* __ZTSN6Xapian20DatabaseOpeningErrorE$w$bgb8VaScFP5G8Iuq2
0001:000412f0  __ZTSN6Xapian19DatabaseCreateErrorE$w$bgb8VaScFP5G8Iuq2
0001:000412d0* __ZTSN6Xapian20DatabaseCorruptErrorE$w$bgb8VaScFP5G8Iuq2
0001:00041290  __ZTSN6Xapian21DatabaseModifiedErrorE$w$bgb8VaScFP5G8Iuq2
0001:0004126b  __ZTSN6Xapian17DatabaseLockErrorE$w$bgb8VaScFP5G8Iuq2
0001:00041252* __ZTSN6Xapian13DatabaseErrorE$w$bgb8VaScFP5G8Iuq2
0001:0004190c* __ZTIN6Xapian12RuntimeErrorE$w$bgb8VaScFP5G8Iuq2
0001:0004123c  __ZTSN6Xapian10RangeErrorE$w$bgb8VaScFP5G8Iuq2
0001:0004122c* __ZTSN6Xapian5ErrorE$w$bgb8VaScFP5G8Iuq2
0001:00041210  __ZTSN6Xapian16DocNotFoundErrorE$w$bgb8VaScFP5G8Iuq2
0001:0004197a* __ZSt20_Rb_tree_rotate_leftPSt18_Rb_tree_node_baseRS0_$w$bgb8VaScFP5G8Iuq2
0001:000419bc* __ZSt21_Rb_tree_rotate_rightPSt18_Rb_tree_node_baseRS0_$w$bgb8VaScFP5G8Iuq2
0001:00041961* __ZTSN6Xapian12RuntimeErrorE$w$bgb8VaScFP5G8Iuq2
0001:0004194b* __ZTSN6Xapian10LogicErrorE$w$bgb8VaScFP5G8Iuq2
0001:0004192c* __ZTSN6Xapian8Internal10RefCntBaseE$w$bgb8VaScFP5G8Iuq2
0002:00012264* __ZN16__Atomicity_lockILi0EE17_S_atomicity_lockE$w$bgb8VaScFP5G8Iuq2
Module: F:\rd\dse\xapian-core-1.0.2\.libs\xapian.a(backends\flint\flint_positionlist.cc)
0001:00042b1a* __ZNK17FlintPositionList8get_sizeEv
0001:00042b2c* __ZNK17FlintPositionList12get_positionEv
0001:00042b3a* __ZN17FlintPositionList4nextEv
0001:00042b52* __ZN17FlintPositionList7skip_toEj
0001:00042b8c* __ZNK17FlintPositionList6at_endEv
0001:00041ad0* __ZN6Xapian9BitReader20decode_interpolativeERSt6vectorIjSaIjEEii
0001:00041b7c  __ZN22FlintPositionListTable16set_positionlistEjRKSsN6Xapian16PositionIteratorERKS3_
0001:00042370  __ZN17FlintPositionList9read_dataEPK10FlintTablejRKSs
0001:00041a10  __ZTV17FlintPositionList$w$nQaGqOTcFP5cxbMK1
0001:00042f20  __ZTI17FlintPositionList$w$nQaGqOTcFP5cxbMK1
0001:00041a34  __ZN17FlintPositionListD1Ev$w$nQaGqOTcFP5cxbMK1
0001:00041a80  __ZN17FlintPositionListD0Ev$w$nQaGqOTcFP5cxbMK1
0001:00042f50  __ZTVN6Xapian16PositionIterator8InternalE$w$nQaGqOTcFP5cxbMK1
0001:000436e0  __ZN6Xapian9BitReader6decodeEj$w$nQaGqOTcFP5cxbMK1
0001:00043210* __Z25pack_uint_preserving_sortIjESsT_$w$nQaGqOTcFP5cxbMK1
0001:00042ba4* __ZStplIcSt11char_traitsIcESaIcEESbIT_T0_T1_ERKS6_S8_$w$nQaGqOTcFP5cxbMK1
0001:000430cc* __Z9pack_uintIjESsT_$w$nQaGqOTcFP5cxbMK1
0001:00043318  __ZN9BitWriter6encodeEjj$w$nQaGqOTcFP5cxbMK1
0001:00042c24* __ZNSt6vectorIjSaIjEE13_M_insert_auxEN9__gnu_cxx17__normal_iteratorIPjS1_EERKj$w$nQaGqOTcFP5cxbMK1
0001:0004378e* __ZNSt6vectorIjSaIjEE5eraseEN9__gnu_cxx17__normal_iteratorIPjS1_EES5_$w$nQaGqOTcFP5cxbMK1
0001:00043048* __Z11unpack_uintIjEbPPKcS1_PT_$w$nQaGqOTcFP5cxbMK1
0001:00042d2a* __ZNSt6vectorIjSaIjEE14_M_fill_insertEN9__gnu_cxx17__normal_iteratorIPjS1_EEjRKj$w$nQaGqOTcFP5cxbMK1
0001:00043632  __ZN6Xapian9BitReader9read_bitsEi$w$nQaGqOTcFP5cxbMK1
0001:00042f74* __ZN6Xapian20DatabaseCorruptErrorD1Ev$w$nQaGqOTcFP5cxbMK1
0001:00043950* __ZTIN6Xapian20DatabaseCorruptErrorE$w$nQaGqOTcFP5cxbMK1
0001:000437d2* __ZSt4fillIN9__gnu_cxx17__normal_iteratorIPjSt6vectorIjSaIjEEEEjEvT_S7_RKT0_$w$nQaGqOTcFP5cxbMK1
0001:000437fa* __ZSt6fill_nIPjjjET_S1_T0_RKT1_$w$nQaGqOTcFP5cxbMK1
0001:00042efe* __ZSt6fill_nIN9__gnu_cxx17__normal_iteratorIPjSt6vectorIjSaIjEEEEjjET_S7_T0_RKT1_$w$nQaGqOTcFP5cxbMK1
0001:00042f2c  __ZTS17FlintPositionList$w$nQaGqOTcFP5cxbMK1
0001:00043830  __ZTIN6Xapian16PositionIterator8InternalE$w$nQaGqOTcFP5cxbMK1
0001:00042f40* __ZNSt15basic_streambufIcSt11char_traitsIcEE13_S_pback_sizeE$w$nQaGqOTcFP5cxbMK1
0001:000432f8  __ZN6Xapian16PositionIterator8InternalD1Ev$w$nQaGqOTcFP5cxbMK1
0001:00043306  __ZN6Xapian16PositionIterator8InternalD0Ev$w$nQaGqOTcFP5cxbMK1
0001:00043990  __ZTSN6Xapian16PositionIterator8InternalE$w$nQaGqOTcFP5cxbMK1
0001:000439c4* __ZTIN6Xapian8Internal10RefCntBaseE$w$nQaGqOTcFP5cxbMK1
0001:00043970* __ZTSN6Xapian20DatabaseCorruptErrorE$w$nQaGqOTcFP5cxbMK1
0001:000439b8* __ZTIN6Xapian13DatabaseErrorE$w$nQaGqOTcFP5cxbMK1
0001:000439eb* __ZTSN6Xapian13DatabaseErrorE$w$nQaGqOTcFP5cxbMK1
0001:00043a04* __ZTIN6Xapian12RuntimeErrorE$w$nQaGqOTcFP5cxbMK1
0001:000439cc* __ZTSN6Xapian8Internal10RefCntBaseE$w$nQaGqOTcFP5cxbMK1
0001:00043a10* __ZTSN6Xapian12RuntimeErrorE$w$nQaGqOTcFP5cxbMK1
0001:00043a28* __ZTIN6Xapian5ErrorE$w$nQaGqOTcFP5cxbMK1
0001:00043a30* __ZTSN6Xapian5ErrorE$w$nQaGqOTcFP5cxbMK1
0002:00012270* __ZN16__Atomicity_lockILi0EE17_S_atomicity_lockE$w$nQaGqOTcFP5cxbMK1
Module: F:\rd\dse\xapian-core-1.0.2\.libs\xapian.a(api\omdocument.cc)
0001:00043a50* __ZN6Xapian8DocumentC2EPNS0_8InternalE
0001:00043a66  __ZN6Xapian8DocumentC1EPNS0_8InternalE
0001:00043a7c* __ZN6Xapian8DocumentC2Ev
0001:00043be2* __ZN6Xapian8DocumentC1Ev
0001:00043d48* __ZNK6Xapian8Document9get_valueEj
0001:00045914* __ZNK6Xapian8Document8Internal9get_valueEj
0001:00043d7a  __ZNK6Xapian8Document8get_dataEv
0001:00045a02* __ZNK6Xapian8Document8Internal8get_dataEv
0001:00043da6* __ZN6Xapian8Document8set_dataERKSs
0001:00045a6a* __ZN6Xapian8Document8Internal8set_dataERKSs
0001:00043db8* __ZN6Xapian8DocumentaSERKS0_
0001:00043dca* __ZN6Xapian8DocumentC2ERKS0_
0001:00043de2* __ZN6Xapian8DocumentC1ERKS0_
0001:00043dfa* __ZN6Xapian8DocumentD2Ev
0001:00043e2a  __ZN6Xapian8DocumentD1Ev
0001:00043e66* __ZNK6Xapian8Document15get_descriptionEv
0001:00049250* __ZNK6Xapian8Document8Internal15get_descriptionEv
0001:00044042* __ZN6Xapian8Document9add_valueEjRKSs
0001:00045afc* __ZN6Xapian8Document8Internal9add_valueEjRKSs
0001:00044054* __ZN6Xapian8Document12remove_valueEj
0001:00045cfa* __ZN6Xapian8Document8Internal12remove_valueEj
0001:00044066* __ZN6Xapian8Document12clear_valuesEv
0001:000461d0* __ZN6Xapian8Document8Internal12clear_valuesEv
0001:000440ae* __ZN6Xapian8Document11add_postingERKSsjj
0001:00046242* __ZN6Xapian8Document8Internal11add_postingERKSsjj
0001:00044316* __ZN6Xapian8Document8add_termERKSsj
0001:00046e70* __ZN6Xapian8Document8Internal8add_termERKSsj
0001:00044576* __ZN6Xapian8Document14remove_postingERKSsjj
0001:00047adc* __ZN6Xapian8Document8Internal14remove_postingERKSsjj
0001:000447de* __ZN6Xapian8Document11remove_termERKSs
0001:00047eda* __ZN6Xapian8Document8Internal11remove_termERKSs
0001:000447f0* __ZN6Xapian8Document11clear_termsEv
0001:000483e0* __ZN6Xapian8Document8Internal11clear_termsEv
0001:00044802* __ZNK6Xapian8Document14termlist_countEv
0001:00048438* __ZNK6Xapian8Document8Internal14termlist_countEv
0001:00044814  __ZNK6Xapian8Document14termlist_beginEv
0001:00045a94* __ZNK6Xapian8Document8Internal14open_term_listEv
0001:00044844* __ZNK6Xapian8Document12values_countEv
0001:000491f4* __ZNK6Xapian8Document8Internal12values_countEv
0001:00044856  __ZNK6Xapian8Document12values_beginEv
0001:00044886  __ZNK6Xapian8Document10values_endEv
0001:000448c2* __ZNK6Xapian8Document9get_docidEv
0001:000448d0* __ZN14OmDocumentTerm12add_positionEj
0001:00044a06* __ZN14OmDocumentTerm15remove_positionEj
0001:0004510c* __ZNK14OmDocumentTerm15get_descriptionEv
0001:000459ca* __ZNK6Xapian8Document8Internal14get_all_valuesEv
0001:00049a5c* __ZNK6Xapian8Document8Internal11need_valuesEv
0001:0004845e* __ZNK6Xapian8Document8Internal10need_termsEv
0001:0004a470  __ZTVN6Xapian8Document8InternalE$w$3I5LQpJcFP5aGf7F2
0001:00049c44  __ZNSt8_Rb_treeISsSt4pairIKSs14OmDocumentTermESt10_Select1stIS3_ESt4lessISsESaIS3_EEC1ERKS7_RKS8_$w$3I5LQpJcFP5aGf7F2
0001:00049c3e  __ZNSaISt4pairIKSs14OmDocumentTermEED1Ev$w$3I5LQpJcFP5aGf7F2
0001:0004a48c  __ZNSt6vectorIjSaIjEED1Ev$w$3I5LQpJcFP5aGf7F2
0001:0004a822  __ZNSt8_Rb_treeIjSt4pairIKjSsESt10_Select1stIS2_ESt4lessIjESaIS2_EED1Ev$w$3I5LQpJcFP5aGf7F2
0001:0004b078  __ZN6Xapian8Internal9RefCntPtrINS_8Document8InternalEEaSEPS3_$w$3I5LQpJcFP5aGf7F2
0001:00044fee  __ZStplIcSt11char_traitsIcESaIcEESbIT_T0_T1_EPKS3_RKS6_$w$3I5LQpJcFP5aGf7F2
0001:0004aba4* __ZN6Xapian20InvalidArgumentErrorD1Ev$w$3I5LQpJcFP5aGf7F2
0001:0004b69c* __ZTIN6Xapian20InvalidArgumentErrorE$w$3I5LQpJcFP5aGf7F2
0001:0004b0d8* __ZNSt6vectorIjSaIjEE13_M_insert_auxEN9__gnu_cxx17__normal_iteratorIPjS1_EERKj$w$3I5LQpJcFP5aGf7F2
0001:0004496a  __ZSt11lower_boundIN9__gnu_cxx17__normal_iteratorIPjSt6vectorIjSaIjEEEEjET_S7_S7_RKT0_$w$3I5LQpJcFP5aGf7F2
0001:00049c8a* __ZNSt6vectorIjSaIjEE6insertEN9__gnu_cxx17__normal_iteratorIPjS1_EERKj$w$3I5LQpJcFP5aGf7F2
0001:00049cea  __ZStplIcSt11char_traitsIcESaIcEESbIT_T0_T1_ERKS6_S8_$w$3I5LQpJcFP5aGf7F2
0001:00049d6a  __ZNSt6vectorIjSaIjEE5eraseEN9__gnu_cxx17__normal_iteratorIPjS1_EE$w$3I5LQpJcFP5aGf7F2
0001:0004b1de  __ZNSt8_Rb_treeIjSt4pairIKjSsESt10_Select1stIS2_ESt4lessIjESaIS2_EE4findERS1_$w$3I5LQpJcFP5aGf7F2
0001:00049b6c  __ZNSt8_Rb_treeIjSt4pairIKjSsESt10_Select1stIS2_ESt4lessIjESaIS2_EEC1ERKS8_$w$3I5LQpJcFP5aGf7F2
0001:0004a430  __ZTV11MapTermList$w$3I5LQpJcFP5aGf7F2
0001:00049db0  __ZNSt8_Rb_treeIjSt4pairIKjSsESt10_Select1stIS2_ESt4lessIjESaIS2_EE11lower_boundERS1_$w$3I5LQpJcFP5aGf7F2
0001:0004a272  __ZNSt8_Rb_treeIjSt4pairIKjSsESt10_Select1stIS2_ESt4lessIjESaIS2_EE13insert_uniqueESt17_Rb_tree_iteratorIS2_RS2_PS2_ERKS2_$w$3I5LQpJcFP5aGf7F2
0001:00049de4* __ZNSt6vectorIjSaIjEE5eraseEN9__gnu_cxx17__normal_iteratorIPjS1_EES5_$w$3I5LQpJcFP5aGf7F2
0001:0004a506  __ZSt28_Rb_tree_rebalance_for_erasePSt18_Rb_tree_node_baseRS0_S1_S1_$w$3I5LQpJcFP5aGf7F2
0001:0004b234  __ZNSt8_Rb_treeIjSt4pairIKjSsESt10_Select1stIS2_ESt4lessIjESaIS2_EE8_M_eraseEPSt13_Rb_tree_nodeIS2_E$w$3I5LQpJcFP5aGf7F2
0001:00049e28  __ZNSt8_Rb_treeISsSt4pairIKSs14OmDocumentTermESt10_Select1stIS3_ESt4lessISsESaIS3_EE4findERS1_$w$3I5LQpJcFP5aGf7F2
0001:0004b0b4  __ZNSt14__simple_allocIjSt24__default_alloc_templateILb1ELi0EEE8allocateEj$w$3I5LQpJcFP5aGf7F2
0001:00049f34  __ZNSt8_Rb_treeISsSt4pairIKSs14OmDocumentTermESt10_Select1stIS3_ESt4lessISsESaIS3_EE13insert_uniqueERKS3_$w$3I5LQpJcFP5aGf7F2
0001:0004b2be  __ZNSt8_Rb_treeISsSt4pairIKSs14OmDocumentTermESt10_Select1stIS3_ESt4lessISsESaIS3_EE8_M_eraseEPSt13_Rb_tree_nodeIS3_E$w$3I5LQpJcFP5aGf7F2
0001:0004a0a4  __ZNSt8_Rb_treeIjSt4pairIKjSsESt10_Select1stIS2_ESt4lessIjESaIS2_EEaSERKS8_$w$3I5LQpJcFP5aGf7F2
0001:0004a174  __ZNSt8_Rb_treeIjSt4pairIKjSsESt10_Select1stIS2_ESt4lessIjESaIS2_EE7_M_copyEPSt13_Rb_tree_nodeIS2_ESB_$w$3I5LQpJcFP5aGf7F2
0001:0004a4b6  __ZNSt22_Rb_tree_base_iterator12_M_decrementEv$w$3I5LQpJcFP5aGf7F2
0001:0004b42e  __ZNSt8_Rb_treeISsSt4pairIKSs14OmDocumentTermESt10_Select1stIS3_ESt4lessISsESaIS3_EE9_M_insertEPSt18_Rb_tree_node_baseSB_RKS3_$w$3I5LQpJcFP5aGf7F2
0001:0004b542  __ZNSt8_Rb_treeIjSt4pairIKjSsESt10_Select1stIS2_ESt4lessIjESaIS2_EE14_M_create_nodeERKS2_$w$3I5LQpJcFP5aGf7F2
0001:0004b5b4  __ZNSt8_Rb_treeIjSt4pairIKjSsESt10_Select1stIS2_ESt4lessIjESaIS2_EE9_M_insertEPSt18_Rb_tree_node_baseSA_RKS2_$w$3I5LQpJcFP5aGf7F2
0001:0004a34a  __ZNSt8_Rb_treeIjSt4pairIKjSsESt10_Select1stIS2_ESt4lessIjESaIS2_EE13insert_uniqueERKS2_$w$3I5LQpJcFP5aGf7F2
0001:0004a418* __ZNSt15basic_streambufIcSt11char_traitsIcEE13_S_pback_sizeE$w$3I5LQpJcFP5aGf7F2
0001:0004b690  __ZTI11MapTermList$w$3I5LQpJcFP5aGf7F2
0001:0004ac78  __ZN11MapTermListD1Ev$w$3I5LQpJcFP5aGf7F2
0001:0004ac94  __ZN11MapTermListD0Ev$w$3I5LQpJcFP5aGf7F2
0001:0004acbc  __ZNK11MapTermList15get_approx_sizeEv$w$3I5LQpJcFP5aGf7F2
0001:0004acc8  __ZNK11MapTermList16accumulate_statsERN6Xapian8Internal11ExpandStatsE$w$3I5LQpJcFP5aGf7F2
0001:0004acd4  __ZNK11MapTermList12get_termnameEv$w$3I5LQpJcFP5aGf7F2
0001:0004ad00  __ZNK11MapTermList7get_wdfEv$w$3I5LQpJcFP5aGf7F2
0001:0004ad82  __ZNK11MapTermList12get_termfreqEv$w$3I5LQpJcFP5aGf7F2
0001:0004b03a  __ZN11MapTermList4nextEv$w$3I5LQpJcFP5aGf7F2
0001:0004b060  __ZNK11MapTermList6at_endEv$w$3I5LQpJcFP5aGf7F2
0001:0004b026  __ZNK11MapTermList18positionlist_countEv$w$3I5LQpJcFP5aGf7F2
0001:0004afb2  __ZNK11MapTermList18positionlist_beginEv$w$3I5LQpJcFP5aGf7F2
0001:0004b670  __ZTIN6Xapian8Document8InternalE$w$3I5LQpJcFP5aGf7F2
0001:0004a7ec  __ZNK6Xapian8Document8Internal12do_get_valueEj$w$3I5LQpJcFP5aGf7F2
0001:0004a89c  __ZNK6Xapian8Document8Internal17do_get_all_valuesEv$w$3I5LQpJcFP5aGf7F2
0001:0004a8ee  __ZNK6Xapian8Document8Internal11do_get_dataEv$w$3I5LQpJcFP5aGf7F2
0001:0004a924  __ZN6Xapian8Document8InternalD1Ev$w$3I5LQpJcFP5aGf7F2
0001:0004aa60  __ZN6Xapian8Document8InternalD0Ev$w$3I5LQpJcFP5aGf7F2
0001:0004b784  __ZSt21_Rb_tree_rotate_rightPSt18_Rb_tree_node_baseRS0_$w$3I5LQpJcFP5aGf7F2
0001:0004b742  __ZSt20_Rb_tree_rotate_leftPSt18_Rb_tree_node_baseRS0_$w$3I5LQpJcFP5aGf7F2
0001:0004b8ce  __ZN6Xapian21InvalidOperationErrorD1Ev$w$3I5LQpJcFP5aGf7F2
0001:0004bb70  __ZTIN6Xapian21InvalidOperationErrorE$w$3I5LQpJcFP5aGf7F2
0001:0004b6fa  __ZNSt22_Rb_tree_base_iterator12_M_incrementEv$w$3I5LQpJcFP5aGf7F2
0001:0004b9a2  __ZNSt8_Rb_treeISsSt4pairIKSs14OmDocumentTermESt10_Select1stIS3_ESt4lessISsESaIS3_EE14_M_create_nodeERKS3_$w$3I5LQpJcFP5aGf7F2
0001:0004b7c6  __ZSt18_Rb_tree_rebalancePSt18_Rb_tree_node_baseRS0_$w$3I5LQpJcFP5aGf7F2
0001:0004b6de  __ZTSN6Xapian8Document8InternalE$w$3I5LQpJcFP5aGf7F2
0001:0004bb88* __ZTIN6Xapian8Internal10RefCntBaseE$w$3I5LQpJcFP5aGf7F2
0001:0004b6d0  __ZTS11MapTermList$w$3I5LQpJcFP5aGf7F2
0001:0004bb50  __ZTIN6Xapian12TermIterator8InternalE$w$3I5LQpJcFP5aGf7F2
0001:0004b6b0* __ZTSN6Xapian20InvalidArgumentErrorE$w$3I5LQpJcFP5aGf7F2
0001:0004bb7c* __ZTIN6Xapian10LogicErrorE$w$3I5LQpJcFP5aGf7F2
0001:0004bc10  __ZTSN6Xapian12TermIterator8InternalE$w$3I5LQpJcFP5aGf7F2
0001:0004bbd0  __ZTSN6Xapian21InvalidOperationErrorE$w$3I5LQpJcFP5aGf7F2
0001:0004bbaf* __ZTSN6Xapian10LogicErrorE$w$3I5LQpJcFP5aGf7F2
0001:0004bc34* __ZTIN6Xapian5ErrorE$w$3I5LQpJcFP5aGf7F2
0001:0004bb90* __ZTSN6Xapian8Internal10RefCntBaseE$w$3I5LQpJcFP5aGf7F2
0001:0004bc3c* __ZTSN6Xapian5ErrorE$w$3I5LQpJcFP5aGf7F2
0002:00012280* __ZN16__Atomicity_lockILi0EE17_S_atomicity_lockE$w$3I5LQpJcFP5aGf7F2
Module: F:\rd\dse\xapian-core-1.0.2\.libs\xapian.a(backends\flint\flint_spelling.cc)
0001:0004fb58* __ZN21FlintSpellingTermListD1Ev
0001:0004fbf8* __ZN21FlintSpellingTermListD0Ev
0001:0004fca0* __ZNK21FlintSpellingTermList15get_approx_sizeEv
0001:0004fcfc* __ZNK21FlintSpellingTermList16accumulate_statsERN6Xapian8Internal11ExpandStatsE
0001:0004ff2c* __ZNK21FlintSpellingTermList12get_termnameEv
0001:0004ff56* __ZNK21FlintSpellingTermList7get_wdfEv
0001:0004ff60* __ZNK21FlintSpellingTermList12get_termfreqEv
0001:0004ff6a* __ZNK21FlintSpellingTermList19get_collection_freqEv
0001:0004ff8a* __ZN21FlintSpellingTermList4nextEv
0001:000502c2* __ZNK21FlintSpellingTermList6at_endEv
0001:00050318* __ZNK21FlintSpellingTermList18positionlist_countEv
0001:00050584* __ZNK21FlintSpellingTermList18positionlist_beginEv
0001:0004bc8e  __ZN18FlintSpellingTable13merge_changesEv
0001:0004c7e4* __ZN18FlintSpellingTable12add_fragmentE8fragmentRKSs
0001:0004cbea  __ZN18FlintSpellingTable8add_wordERKSsj
0001:0004d634* __ZN18FlintSpellingTable15remove_fragmentE8fragmentRKSs
0001:0004d68a  __ZN18FlintSpellingTable11remove_wordERKSsj
0001:0004e124  __ZN18FlintSpellingTable13open_termlistERKSs
0001:0004f60c  __ZNK18FlintSpellingTable18get_word_frequencyERKSs
0001:0004fab8* __ZN21FlintSpellingTermListD2Ev
0001:0004bc50  __ZTV21FlintSpellingTermList$w$ljklpQVcFP5Tq8Yy4
0001:0005173c  __ZTI21FlintSpellingTermList$w$ljklpQVcFP5Tq8Yy4
0001:0005190c* __ZNSt22_Rb_tree_base_iterator12_M_incrementEv$w$ljklpQVcFP5Tq8Yy4
0001:00051e24* __ZN28PrefixCompressedStringWriter6appendERKSs$w$ljklpQVcFP5Tq8Yy4
0001:00051b5a* __ZN26PrefixCompressedStringItorppEv$w$ljklpQVcFP5Tq8Yy4
0001:0004cac8* __ZStplIcSt11char_traitsIcESaIcEESbIT_T0_T1_EPKS3_RKS6_$w$ljklpQVcFP5Tq8Yy4
0001:00050864* __Z14pack_uint_lastIjESsT_$w$ljklpQVcFP5Tq8Yy4
0001:00051aac* __ZNSt8_Rb_treeISsSt4pairIKSsjESt10_Select1stIS2_ESt4lessISsESaIS2_EE8_M_eraseEPSt13_Rb_tree_nodeIS2_E$w$ljklpQVcFP5Tq8Yy4
0001:000507b4* __ZNSt8_Rb_treeI8fragmentSt4pairIKS0_St3setISsSt4lessISsESaISsEEESt10_Select1stIS8_ES4_IS0_ESaIS8_EE8_M_eraseEPSt13_Rb_tree_nodeIS8_E$w$ljklpQVcFP5Tq8Yy4
0001:00051f66  __ZNSt8_Rb_treeI8fragmentSt4pairIKS0_St3setISsSt4lessISsESaISsEEESt10_Select1stIS8_ES4_IS0_ESaIS8_EE4findERS2_$w$ljklpQVcFP5Tq8Yy4
0001:000509a8  __ZNSt8_Rb_treeISsSsSt9_IdentityISsESt4lessISsESaISsEEC1ERKS5_$w$ljklpQVcFP5Tq8Yy4
0001:00050a7a  __ZNSt8_Rb_treeI8fragmentSt4pairIKS0_St3setISsSt4lessISsESaISsEEESt10_Select1stIS8_ES4_IS0_ESaIS8_EE13insert_uniqueERKS8_$w$ljklpQVcFP5Tq8Yy4
0001:0005091e* __ZNSt8_Rb_treeISsSsSt9_IdentityISsESt4lessISsESaISsEE8_M_eraseEPSt13_Rb_tree_nodeISsE$w$ljklpQVcFP5Tq8Yy4
0001:00050b70  __ZNSt8_Rb_treeISsSsSt9_IdentityISsESt4lessISsESaISsEE13insert_uniqueERKSs$w$ljklpQVcFP5Tq8Yy4
0001:00051ffc  __ZNSt8_Rb_treeISsSt4pairIKSsjESt10_Select1stIS2_ESt4lessISsESaIS2_EE4findERS1_$w$ljklpQVcFP5Tq8Yy4
0001:00050d2a  __ZNSt8_Rb_treeISsSt4pairIKSsjESt10_Select1stIS2_ESt4lessISsESaIS2_EE11lower_boundERS1_$w$ljklpQVcFP5Tq8Yy4
0001:00051248  __ZNSt8_Rb_treeISsSt4pairIKSsjESt10_Select1stIS2_ESt4lessISsESaIS2_EE13insert_uniqueESt17_Rb_tree_iteratorIS2_RS2_PS2_ERKS2_$w$ljklpQVcFP5Tq8Yy4
0001:00050ce0* __Z16unpack_uint_lastIjEbPPKcS1_PT_$w$ljklpQVcFP5Tq8Yy4
0001:00051838* __ZN6Xapian20DatabaseCorruptErrorD1Ev$w$ljklpQVcFP5Tq8Yy4
0001:000526d0* __ZTIN6Xapian20DatabaseCorruptErrorE$w$ljklpQVcFP5Tq8Yy4
0001:00050dbc  __ZNSt8_Rb_treeISsSsSt9_IdentityISsESt4lessISsESaISsEE5eraseERKSs$w$ljklpQVcFP5Tq8Yy4
0001:00050e60  __ZSt9make_heapIN9__gnu_cxx17__normal_iteratorIPPN6Xapian12TermIterator8InternalESt6vectorIS5_SaIS5_EEEE25TermListGreaterApproxSizeEvT_SC_T0_$w$ljklpQVcFP5Tq8Yy4
0001:00050fc4  __ZSt13__adjust_heapIN9__gnu_cxx17__normal_iteratorIPPN6Xapian12TermIterator8InternalESt6vectorIS5_SaIS5_EEEEiS5_25TermListGreaterApproxSizeEvT_T0_SD_T1_T2_$w$ljklpQVcFP5Tq8Yy4
0001:000514b4  __ZSt11__push_heapIN9__gnu_cxx17__normal_iteratorIPPN6Xapian12TermIterator8InternalESt6vectorIS5_SaIS5_EEEEiS5_25TermListGreaterApproxSizeEvT_T0_SD_T1_T2_$w$ljklpQVcFP5Tq8Yy4
0001:00050ebe* __ZNSt6vectorIPN6Xapian12TermIterator8InternalESaIS3_EE13_M_insert_auxEN9__gnu_cxx17__normal_iteratorIPS3_S5_EERKS3_$w$ljklpQVcFP5Tq8Yy4
0001:00051516  __ZNSt6vectorIPN6Xapian12TermIterator8InternalESaIS3_EE5eraseEN9__gnu_cxx17__normal_iteratorIPS3_S5_EES9_$w$ljklpQVcFP5Tq8Yy4
0001:00052108  __ZNKSt8_Rb_treeISsSt4pairIKSsjESt10_Select1stIS2_ESt4lessISsESaIS2_EE4findERS1_$w$ljklpQVcFP5Tq8Yy4
0001:00051764* __ZN6Xapian18UnimplementedErrorD1Ev$w$ljklpQVcFP5Tq8Yy4
0001:000526dc* __ZTIN6Xapian18UnimplementedErrorE$w$ljklpQVcFP5Tq8Yy4
0001:0005106a  __ZNSt8_Rb_treeISsSsSt9_IdentityISsESt4lessISsESaISsEE7_M_copyEPSt13_Rb_tree_nodeISsES8_$w$ljklpQVcFP5Tq8Yy4
0001:00051954* __ZNSt22_Rb_tree_base_iterator12_M_decrementEv$w$ljklpQVcFP5Tq8Yy4
0001:00051168  __ZNSt8_Rb_treeI8fragmentSt4pairIKS0_St3setISsSt4lessISsESaISsEEESt10_Select1stIS8_ES4_IS0_ESaIS8_EE9_M_insertEPSt18_Rb_tree_node_baseSF_RKS8_$w$ljklpQVcFP5Tq8Yy4
0001:00052260  __ZNSt8_Rb_treeISsSsSt9_IdentityISsESt4lessISsESaISsEE9_M_insertEPSt18_Rb_tree_node_baseS7_RKSs$w$ljklpQVcFP5Tq8Yy4
0001:00052374  __ZNSt8_Rb_treeISsSsSt9_IdentityISsESt4lessISsESaISsEE11lower_boundERKSs$w$ljklpQVcFP5Tq8Yy4
0001:00052406  __ZNSt8_Rb_treeISsSsSt9_IdentityISsESt4lessISsESaISsEE11upper_boundERKSs$w$ljklpQVcFP5Tq8Yy4
0001:00052494  __ZNSt8_Rb_treeISsSsSt9_IdentityISsESt4lessISsESaISsEE5eraseESt17_Rb_tree_iteratorISsRSsPSsES9_$w$ljklpQVcFP5Tq8Yy4
0001:000521f8  __ZNSt8_Rb_treeISsSsSt9_IdentityISsESt4lessISsESaISsEE14_M_create_nodeERKSs$w$ljklpQVcFP5Tq8Yy4
0001:0005155a  __ZNSt8_Rb_treeI8fragmentSt4pairIKS0_St3setISsSt4lessISsESaISsEEESt10_Select1stIS8_ES4_IS0_ESaIS8_EE14_M_create_nodeERKS8_$w$ljklpQVcFP5Tq8Yy4
0001:000519a4* __ZSt18_Rb_tree_rebalancePSt18_Rb_tree_node_baseRS0_$w$ljklpQVcFP5Tq8Yy4
0001:0005259a  __ZNSt8_Rb_treeISsSt4pairIKSsjESt10_Select1stIS2_ESt4lessISsESaIS2_EE9_M_insertEPSt18_Rb_tree_node_baseSA_RKS2_$w$ljklpQVcFP5Tq8Yy4
0001:000515cc  __ZNSt8_Rb_treeISsSt4pairIKSsjESt10_Select1stIS2_ESt4lessISsESaIS2_EE13insert_uniqueERKS2_$w$ljklpQVcFP5Tq8Yy4
0001:00051748  __ZTS21FlintSpellingTermList$w$ljklpQVcFP5Tq8Yy4
0001:000526b0* __ZTIN6Xapian12TermIterator8InternalE$w$ljklpQVcFP5Tq8Yy4
0001:00051760* __ZNSt15basic_streambufIcSt11char_traitsIcEE13_S_pback_sizeE$w$ljklpQVcFP5Tq8Yy4
0001:00052752* __ZSt20_Rb_tree_rotate_leftPSt18_Rb_tree_node_baseRS0_$w$ljklpQVcFP5Tq8Yy4
0001:00052794* __ZSt21_Rb_tree_rotate_rightPSt18_Rb_tree_node_baseRS0_$w$ljklpQVcFP5Tq8Yy4
0001:000527d6* __ZSt28_Rb_tree_rebalance_for_erasePSt18_Rb_tree_node_baseRS0_S1_S1_$w$ljklpQVcFP5Tq8Yy4
0001:00052abc  __ZNSt8_Rb_treeISsSt4pairIKSsjESt10_Select1stIS2_ESt4lessISsESaIS2_EE14_M_create_nodeERKS2_$w$ljklpQVcFP5Tq8Yy4
0001:00052730* __ZTSN6Xapian12TermIterator8InternalE$w$ljklpQVcFP5Tq8Yy4
0001:00052b48* __ZTIN6Xapian8Internal10RefCntBaseE$w$ljklpQVcFP5Tq8Yy4
0001:00052710* __ZTSN6Xapian20DatabaseCorruptErrorE$w$ljklpQVcFP5Tq8Yy4
0001:00052b3c* __ZTIN6Xapian13DatabaseErrorE$w$ljklpQVcFP5Tq8Yy4
0001:000526e8* __ZTSN6Xapian18UnimplementedErrorE$w$ljklpQVcFP5Tq8Yy4
0001:00052b30* __ZTIN6Xapian10LogicErrorE$w$ljklpQVcFP5Tq8Yy4
0001:00052b88* __ZTSN6Xapian10LogicErrorE$w$ljklpQVcFP5Tq8Yy4
0001:00052bac* __ZTIN6Xapian5ErrorE$w$ljklpQVcFP5Tq8Yy4
0001:00052b6f* __ZTSN6Xapian13DatabaseErrorE$w$ljklpQVcFP5Tq8Yy4
0001:00052ba0* __ZTIN6Xapian12RuntimeErrorE$w$ljklpQVcFP5Tq8Yy4
0001:00052b50* __ZTSN6Xapian8Internal10RefCntBaseE$w$ljklpQVcFP5Tq8Yy4
0001:00052bc4* __ZTSN6Xapian12RuntimeErrorE$w$ljklpQVcFP5Tq8Yy4
0001:00052bb4* __ZTSN6Xapian5ErrorE$w$ljklpQVcFP5Tq8Yy4
0002:00012290* __ZN16__Atomicity_lockILi0EE17_S_atomicity_lockE$w$ljklpQVcFP5Tq8Yy4
Module: F:\rd\dse\xapian-core-1.0.2\.libs\xapian.a(backends\inmemory\inmemory_alltermslist.cc)
0001:00053206* __ZN20InMemoryAllTermsListD1Ev
0001:000532a0* __ZN20InMemoryAllTermsListD0Ev
0001:00053342* __ZNK20InMemoryAllTermsList15get_approx_sizeEv
0001:00053350* __ZNK20InMemoryAllTermsList12get_termnameEv
0001:0005337c* __ZNK20InMemoryAllTermsList12get_termfreqEv
0001:000533d0* __ZNK20InMemoryAllTermsList19get_collection_freqEv
0001:00053926* __ZN20InMemoryAllTermsList4nextEv
0001:00053600* __ZN20InMemoryAllTermsList7skip_toERKSs
0001:000539cc* __ZNK20InMemoryAllTermsList6at_endEv
0001:00053058* __ZN20InMemoryAllTermsListC2EPKSt3mapISs12InMemoryTermSt4lessISsESaISt4pairIKSsS1_EEEN6Xapian8Internal9RefCntPtrIK16InMemoryDatabaseEERS5_
0001:000530e2  __ZN20InMemoryAllTermsListC1EPKSt3mapISs12InMemoryTermSt4lessISsESaISt4pairIKSsS1_EEEN6Xapian8Internal9RefCntPtrIK16InMemoryDatabaseEERS5_
0001:0005316c* __ZN20InMemoryAllTermsListD2Ev
0001:00052bf0  __ZTV20InMemoryAllTermsList$w$1XlVbLYcFP5XCzIV3
0001:000539f4  __ZTI20InMemoryAllTermsList$w$1XlVbLYcFP5XCzIV3
0001:00052c30* __ZTV12LeafPostList$w$1XlVbLYcFP5XCzIV3
0001:000539e8* __ZTI12LeafPostList$w$1XlVbLYcFP5XCzIV3
0001:00052ef6* __ZN12LeafPostListD1Ev$w$1XlVbLYcFP5XCzIV3
0001:00052f34* __ZN12LeafPostListD0Ev$w$1XlVbLYcFP5XCzIV3
0001:00052f8e* __ZNK12LeafPostList16get_termfreq_minEv$w$1XlVbLYcFP5XCzIV3
0001:00052fa4* __ZNK12LeafPostList16get_termfreq_estEv$w$1XlVbLYcFP5XCzIV3
0001:00052f78* __ZNK12LeafPostList16get_termfreq_maxEv$w$1XlVbLYcFP5XCzIV3
0001:00053028* __ZNK12LeafPostList13get_maxweightEv$w$1XlVbLYcFP5XCzIV3
0001:00052fde* __ZNK12LeafPostList10get_weightEv$w$1XlVbLYcFP5XCzIV3
0001:00052c88* __ZNK6Xapian15PostingIterator8Internal16get_collapse_keyEv$w$1XlVbLYcFP5XCzIV3
0001:00053040* __ZN12LeafPostList16recalc_maxweightEv$w$1XlVbLYcFP5XCzIV3
0001:00052cc6* __ZNK6Xapian15PostingIterator8Internal7get_wdfEv$w$1XlVbLYcFP5XCzIV3
0001:00052fba* __ZN12LeafPostList14set_termweightEPKN6Xapian6WeightE$w$1XlVbLYcFP5XCzIV3
0001:00053a80* __ZN6Xapian18UnimplementedErrorD1Ev$w$1XlVbLYcFP5XCzIV3
0001:00053bf0* __ZTIN6Xapian18UnimplementedErrorE$w$1XlVbLYcFP5XCzIV3
0001:00053a30* __ZTVN6Xapian15PostingIterator8InternalE$w$1XlVbLYcFP5XCzIV3
0001:0005389e  __ZNKSt8_Rb_treeISsSt4pairIKSs12InMemoryTermESt10_Select1stIS3_ESt4lessISsESaIS3_EE11lower_boundERS1_$w$1XlVbLYcFP5XCzIV3
0001:00053b74* __ZNSt22_Rb_tree_base_iterator12_M_incrementEv$w$1XlVbLYcFP5XCzIV3
0001:00053a17* __ZTS12LeafPostList$w$1XlVbLYcFP5XCzIV3
0001:00053bd0* __ZTIN6Xapian15PostingIterator8InternalE$w$1XlVbLYcFP5XCzIV3
0001:00053a00  __ZTS20InMemoryAllTermsList$w$1XlVbLYcFP5XCzIV3
0001:00053bbc* __ZTI12AllTermsList$w$1XlVbLYcFP5XCzIV3
0001:00053a28* __ZNSt15basic_streambufIcSt11char_traitsIcEE13_S_pback_sizeE$w$1XlVbLYcFP5XCzIV3
0001:00053b54* __ZN6Xapian15PostingIterator8InternalD1Ev$w$1XlVbLYcFP5XCzIV3
0001:00053b62* __ZN6Xapian15PostingIterator8InternalD0Ev$w$1XlVbLYcFP5XCzIV3
0001:00053c54* __ZTS12AllTermsList$w$1XlVbLYcFP5XCzIV3
0001:00053c70* __ZTIN6Xapian12TermIterator8InternalE$w$1XlVbLYcFP5XCzIV3
0001:00053c30* __ZTSN6Xapian15PostingIterator8InternalE$w$1XlVbLYcFP5XCzIV3
0001:00053c9c* __ZTIN6Xapian8Internal10RefCntBaseE$w$1XlVbLYcFP5XCzIV3
0001:00053bfc* __ZTSN6Xapian18UnimplementedErrorE$w$1XlVbLYcFP5XCzIV3
0001:00053c90* __ZTIN6Xapian10LogicErrorE$w$1XlVbLYcFP5XCzIV3
0001:00053cf0* __ZTSN6Xapian12TermIterator8InternalE$w$1XlVbLYcFP5XCzIV3
0001:00053cc3* __ZTSN6Xapian10LogicErrorE$w$1XlVbLYcFP5XCzIV3
0001:00053d14* __ZTIN6Xapian5ErrorE$w$1XlVbLYcFP5XCzIV3
0001:00053ca4* __ZTSN6Xapian8Internal10RefCntBaseE$w$1XlVbLYcFP5XCzIV3
0001:00053d1c* __ZTSN6Xapian5ErrorE$w$1XlVbLYcFP5XCzIV3
0002:000122a0* __ZN16__Atomicity_lockILi0EE17_S_atomicity_lockE$w$1XlVbLYcFP5XCzIV3
Module: F:\rd\dse\xapian-core-1.0.2\.libs\xapian.a(api\editdistance.cc)
0001:00053d30  __Z22edit_distance_unsignedPKjiS0_i
0001:00053fb8  __ZN11edist_stateIjEC1EPKjiS2_i$w$hhKsaAGcFP5wOhyV2
0001:00053e6c  __ZN11edist_stateIjE15edist_calc_f_kpEii$w$hhKsaAGcFP5wOhyV2
0001:00053e54  __ZN11edist_stateIjED1Ev$w$hhKsaAGcFP5wOhyV2
0002:000122b0* __ZN16__Atomicity_lockILi0EE17_S_atomicity_lockE$w$hhKsaAGcFP5wOhyV2
Module: F:\rd\dse\xapian-core-1.0.2\.libs\xapian.a(backends\flint\flint_synonym.cc)
0001:00055928* __ZN20FlintSynonymTermListD1Ev
0001:00055a48* __ZN20FlintSynonymTermListD0Ev
0001:00055b70* __ZNK20FlintSynonymTermList15get_approx_sizeEv
0001:00055b7c* __ZNK20FlintSynonymTermList12get_termnameEv
0001:00055bf2* __ZNK20FlintSynonymTermList12get_termfreqEv
0001:00055e5e* __ZNK20FlintSynonymTermList19get_collection_freqEv
0001:0005608e* __ZN20FlintSynonymTermList4nextEv
0001:000560fc* __ZN20FlintSynonymTermList7skip_toERKSs
0001:0005613c* __ZNK20FlintSynonymTermList6at_endEv
0001:000540cc  __ZN17FlintSynonymTable13merge_changesEv
0001:0005437c  __ZN17FlintSynonymTable11add_synonymERKSsS1_
0001:000548d6  __ZN17FlintSynonymTable14remove_synonymERKSsS1_
0001:00054ea2  __ZN17FlintSynonymTable14clear_synonymsERKSs
0001:00054f8c  __ZN17FlintSynonymTable13open_termlistERKSs
0001:00055808* __ZN20FlintSynonymTermListD2Ev
0001:00054090  __ZTV20FlintSynonymTermList$w$5JTU8HWcFP5Yrzae3
0001:000569a0  __ZTI20FlintSynonymTermList$w$5JTU8HWcFP5Yrzae3
0001:00056bb4* __ZNSt22_Rb_tree_base_iterator12_M_incrementEv$w$5JTU8HWcFP5Yrzae3
0001:00054e18* __ZNSt8_Rb_treeISsSsSt9_IdentityISsESt4lessISsESaISsEE8_M_eraseEPSt13_Rb_tree_nodeISsE$w$5JTU8HWcFP5Yrzae3
0001:0005614c* __ZNSt8_Rb_treeISsSsSt9_IdentityISsESt4lessISsESaISsEE13insert_uniqueERKSs$w$5JTU8HWcFP5Yrzae3
0001:00056ae0* __ZN6Xapian20DatabaseCorruptErrorD1Ev$w$5JTU8HWcFP5Yrzae3
0001:00057b3c* __ZTIN6Xapian20DatabaseCorruptErrorE$w$5JTU8HWcFP5Yrzae3
0001:000562bc* __ZNSt8_Rb_treeISsSsSt9_IdentityISsESt4lessISsESaISsEE5eraseERKSs$w$5JTU8HWcFP5Yrzae3
0001:00056370* __ZNSt6vectorISsSaISsEE7reserveEj$w$5JTU8HWcFP5Yrzae3
0001:000564ee* __ZNSt6vectorISsSaISsEE13_M_insert_auxEN9__gnu_cxx17__normal_iteratorIPSsS1_EERKSs$w$5JTU8HWcFP5Yrzae3
0001:000569d0  __ZTV14VectorTermList$w$5JTU8HWcFP5Yrzae3
0001:000567b4* __ZSt24__uninitialized_copy_auxIN9__gnu_cxx17__normal_iteratorIPKSsSt6vectorISsSaISsEEEEPSsET0_T_SA_S9_12__false_type$w$5JTU8HWcFP5Yrzae3
0001:00056a0c* __ZN6Xapian21InvalidOperationErrorD1Ev$w$5JTU8HWcFP5Yrzae3
0001:00057b30* __ZTIN6Xapian21InvalidOperationErrorE$w$5JTU8HWcFP5Yrzae3
0001:00056bfc* __ZNSt22_Rb_tree_base_iterator12_M_decrementEv$w$5JTU8HWcFP5Yrzae3
0001:000577dc* __ZNSt8_Rb_treeISsSsSt9_IdentityISsESt4lessISsESaISsEE9_M_insertEPSt18_Rb_tree_node_baseS7_RKSs$w$5JTU8HWcFP5Yrzae3
0001:000578f0* __ZNSt8_Rb_treeISsSsSt9_IdentityISsESt4lessISsESaISsEE11lower_boundERKSs$w$5JTU8HWcFP5Yrzae3
0001:00057982* __ZNSt8_Rb_treeISsSsSt9_IdentityISsESt4lessISsESaISsEE11upper_boundERKSs$w$5JTU8HWcFP5Yrzae3
0001:00057a10* __ZNSt8_Rb_treeISsSsSt9_IdentityISsESt4lessISsESaISsEE5eraseESt17_Rb_tree_iteratorISsRSsPSsES9_$w$5JTU8HWcFP5Yrzae3
0001:00056466* __ZNSt6vectorISsSaISsEE20_M_allocate_and_copyIPSsEES3_jT_S4_$w$5JTU8HWcFP5Yrzae3
0001:00056858* __ZSt24__uninitialized_copy_auxIPSsS0_ET0_T_S2_S1_12__false_type$w$5JTU8HWcFP5Yrzae3
0001:000568fa* __ZSt24__uninitialized_copy_auxIN9__gnu_cxx17__normal_iteratorIPSsSt6vectorISsSaISsEEEES6_ET0_T_S8_S7_12__false_type$w$5JTU8HWcFP5Yrzae3
0001:000569ac  __ZTS20FlintSynonymTermList$w$5JTU8HWcFP5Yrzae3
0001:00057b18* __ZTI12AllTermsList$w$5JTU8HWcFP5Yrzae3
0001:000569c4* __ZNSt15basic_streambufIcSt11char_traitsIcEE13_S_pback_sizeE$w$5JTU8HWcFP5Yrzae3
0001:00057b24  __ZTI14VectorTermList$w$5JTU8HWcFP5Yrzae3
0001:00056c4c  __ZN14VectorTermListD1Ev$w$5JTU8HWcFP5Yrzae3
0001:00056d00  __ZN14VectorTermListD0Ev$w$5JTU8HWcFP5Yrzae3
0001:00056dc0  __ZNK14VectorTermList15get_approx_sizeEv$w$5JTU8HWcFP5Yrzae3
0001:00056dd2  __ZNK14VectorTermList16accumulate_statsERN6Xapian8Internal11ExpandStatsE$w$5JTU8HWcFP5Yrzae3
0001:00056dde  __ZNK14VectorTermList12get_termnameEv$w$5JTU8HWcFP5Yrzae3
0001:00056e0e  __ZNK14VectorTermList7get_wdfEv$w$5JTU8HWcFP5Yrzae3
0001:00056e46  __ZNK14VectorTermList12get_termfreqEv$w$5JTU8HWcFP5Yrzae3
0001:00057076  __ZN14VectorTermList4nextEv$w$5JTU8HWcFP5Yrzae3
0001:000570b8  __ZN14VectorTermList7skip_toERKSs$w$5JTU8HWcFP5Yrzae3
0001:000572e8  __ZNK14VectorTermList6at_endEv$w$5JTU8HWcFP5Yrzae3
0001:000575ac  __ZNK14VectorTermList18positionlist_countEv$w$5JTU8HWcFP5Yrzae3
0001:00057346  __ZNK14VectorTermList18positionlist_beginEv$w$5JTU8HWcFP5Yrzae3
0001:00057fa0* __ZNSt8_Rb_treeISsSsSt9_IdentityISsESt4lessISsESaISsEE14_M_create_nodeERKSs$w$5JTU8HWcFP5Yrzae3
0001:00057bb2* __ZSt18_Rb_tree_rebalancePSt18_Rb_tree_node_baseRS0_$w$5JTU8HWcFP5Yrzae3
0001:00057cba* __ZSt28_Rb_tree_rebalance_for_erasePSt18_Rb_tree_node_baseRS0_S1_S1_$w$5JTU8HWcFP5Yrzae3
0001:00057ba2* __ZTS12AllTermsList$w$5JTU8HWcFP5Yrzae3
0001:00058010* __ZTIN6Xapian12TermIterator8InternalE$w$5JTU8HWcFP5Yrzae3
0001:00057b91  __ZTS14VectorTermList$w$5JTU8HWcFP5Yrzae3
0001:00057b70* __ZTSN6Xapian21InvalidOperationErrorE$w$5JTU8HWcFP5Yrzae3
0001:0005803c* __ZTIN6Xapian10LogicErrorE$w$5JTU8HWcFP5Yrzae3
0001:00057b50* __ZTSN6Xapian20DatabaseCorruptErrorE$w$5JTU8HWcFP5Yrzae3
0001:00058030* __ZTIN6Xapian13DatabaseErrorE$w$5JTU8HWcFP5Yrzae3
0001:000580b2* __ZSt20_Rb_tree_rotate_leftPSt18_Rb_tree_node_baseRS0_$w$5JTU8HWcFP5Yrzae3
0001:000580f4* __ZSt21_Rb_tree_rotate_rightPSt18_Rb_tree_node_baseRS0_$w$5JTU8HWcFP5Yrzae3
0001:00058090* __ZTSN6Xapian12TermIterator8InternalE$w$5JTU8HWcFP5Yrzae3
0001:0005814c* __ZTIN6Xapian8Internal10RefCntBaseE$w$5JTU8HWcFP5Yrzae3
0001:0005805e* __ZTSN6Xapian13DatabaseErrorE$w$5JTU8HWcFP5Yrzae3
0001:00058140* __ZTIN6Xapian12RuntimeErrorE$w$5JTU8HWcFP5Yrzae3
0001:00058048* __ZTSN6Xapian10LogicErrorE$w$5JTU8HWcFP5Yrzae3
0001:00058138* __ZTIN6Xapian5ErrorE$w$5JTU8HWcFP5Yrzae3
0001:0005818b* __ZTSN6Xapian5ErrorE$w$5JTU8HWcFP5Yrzae3
0001:00058173* __ZTSN6Xapian12RuntimeErrorE$w$5JTU8HWcFP5Yrzae3
0001:00058154* __ZTSN6Xapian8Internal10RefCntBaseE$w$5JTU8HWcFP5Yrzae3
0002:000122c0* __ZN16__Atomicity_lockILi0EE17_S_atomicity_lockE$w$5JTU8HWcFP5Yrzae3
Module: F:\rd\dse\xapian-core-1.0.2\.libs\xapian.a(backends\flint\flint_termlist.cc)
0001:0005b442* __ZNK13FlintTermList15get_approx_sizeEv
0001:0005be10* __ZNK13FlintTermList16accumulate_statsERN6Xapian8Internal11ExpandStatsE
0001:0005bd9a  __ZNK13FlintTermList12get_termnameEv
0001:0005bdc4  __ZNK13FlintTermList7get_wdfEv
0001:0005bdd0* __ZNK13FlintTermList12get_termfreqEv
0001:0005b4b2  __ZN13FlintTermList4nextEv
0001:0005bd8e  __ZNK13FlintTermList6at_endEv
0001:0005c27e* __ZNK13FlintTermList18positionlist_countEv
0001:0005c4ae* __ZNK13FlintTermList18positionlist_beginEv
0001:000583bc  __ZN18FlintTermListTable11set_entriesEjN6Xapian12TermIteratorERKS1_jb
0001:00058f78  __ZN18FlintTermListTable15delete_termlistEj
0001:00059126* __ZN13FlintTermListC2EN6Xapian8Internal9RefCntPtrIKNS0_8Database8InternalEEEPK10FlintTablejj
0001:0005a2b4  __ZN13FlintTermListC1EN6Xapian8Internal9RefCntPtrIKNS0_8Database8InternalEEEPK10FlintTablejj
0001:0005b44e  __ZNK13FlintTermList13get_doclengthEv
0001:000581b0  __ZTV13FlintTermList$w$78eFAOXcFP5nzqEK0
0001:0005c5ec  __ZTI13FlintTermList$w$78eFAOXcFP5nzqEK0
0001:000581ec  __ZN13FlintTermListD1Ev$w$78eFAOXcFP5nzqEK0
0001:000582c2  __ZN13FlintTermListD0Ev$w$78eFAOXcFP5nzqEK0
0001:0005d218* __Z9pack_uintIjESsT_$w$78eFAOXcFP5nzqEK0
0001:0005d3a0* __Z25pack_uint_preserving_sortIjESsT_$w$78eFAOXcFP5nzqEK0
0001:0005c4f4* __ZStplIcSt11char_traitsIcESaIcEESbIT_T0_T1_EPKS3_RKS6_$w$78eFAOXcFP5nzqEK0
0001:0005c7b4* __ZN6Xapian16DocNotFoundErrorD1Ev$w$78eFAOXcFP5nzqEK0
0001:0005d550* __ZTIN6Xapian16DocNotFoundErrorE$w$78eFAOXcFP5nzqEK0
0001:0005d194* __Z11unpack_uintIjEbPPKcS1_PT_$w$78eFAOXcFP5nzqEK0
0001:0005c888* __ZN6Xapian10RangeErrorD1Ev$w$78eFAOXcFP5nzqEK0
0001:0005d55c* __ZTIN6Xapian10RangeErrorE$w$78eFAOXcFP5nzqEK0
0001:0005c6e0* __ZN6Xapian20DatabaseCorruptErrorD1Ev$w$78eFAOXcFP5nzqEK0
0001:0005d568* __ZTIN6Xapian20DatabaseCorruptErrorE$w$78eFAOXcFP5nzqEK0
0001:0005d35c* __Z11unpack_boolPPKcS0_Pb$w$78eFAOXcFP5nzqEK0
0001:0005c99a  __ZSt6__copyISt13_Bit_iteratorS0_ET0_T_S2_S1_St26random_access_iterator_tag$w$78eFAOXcFP5nzqEK0
0001:0005c95c  __ZNSt18_Bit_iterator_base7_M_incrEi$w$78eFAOXcFP5nzqEK0
0001:0005ca90  __ZNSt6vectorIbSaIbEE14_M_fill_insertESt13_Bit_iteratorjb$w$78eFAOXcFP5nzqEK0
0001:0005c60c* __ZN6Xapian18UnimplementedErrorD1Ev$w$78eFAOXcFP5nzqEK0
0001:0005d574* __ZTIN6Xapian18UnimplementedErrorE$w$78eFAOXcFP5nzqEK0
0001:0005c5f8  __ZTS13FlintTermList$w$78eFAOXcFP5nzqEK0
0001:0005d530* __ZTIN6Xapian12TermIterator8InternalE$w$78eFAOXcFP5nzqEK0
0001:0005c608* __ZNSt15basic_streambufIcSt11char_traitsIcEE13_S_pback_sizeE$w$78eFAOXcFP5nzqEK0
0001:0005d0e6  __ZSt4fillISt13_Bit_iteratorbEvT_S1_RKT0_$w$78eFAOXcFP5nzqEK0
0001:0005d488  __ZSt6fill_nISt13_Bit_iteratorjbET_S1_T0_RKT1_$w$78eFAOXcFP5nzqEK0
0001:0005d610* __ZTSN6Xapian12TermIterator8InternalE$w$78eFAOXcFP5nzqEK0
0001:0005d658* __ZTIN6Xapian8Internal10RefCntBaseE$w$78eFAOXcFP5nzqEK0
0001:0005d5e6* __ZTSN6Xapian16DocNotFoundErrorE$w$78eFAOXcFP5nzqEK0
0001:0005d64c* __ZTIN6Xapian12RuntimeErrorE$w$78eFAOXcFP5nzqEK0
0001:0005d5d0* __ZTSN6Xapian10RangeErrorE$w$78eFAOXcFP5nzqEK0
0001:0005d5b0* __ZTSN6Xapian20DatabaseCorruptErrorE$w$78eFAOXcFP5nzqEK0
0001:0005d640* __ZTIN6Xapian13DatabaseErrorE$w$78eFAOXcFP5nzqEK0
0001:0005d580* __ZTSN6Xapian18UnimplementedErrorE$w$78eFAOXcFP5nzqEK0
0001:0005d634* __ZTIN6Xapian10LogicErrorE$w$78eFAOXcFP5nzqEK0
0001:0005d6b0* __ZTSN6Xapian10LogicErrorE$w$78eFAOXcFP5nzqEK0
0001:0005d6c8* __ZTIN6Xapian5ErrorE$w$78eFAOXcFP5nzqEK0
0001:0005d697* __ZTSN6Xapian13DatabaseErrorE$w$78eFAOXcFP5nzqEK0
0001:0005d67f* __ZTSN6Xapian12RuntimeErrorE$w$78eFAOXcFP5nzqEK0
0001:0005d660* __ZTSN6Xapian8Internal10RefCntBaseE$w$78eFAOXcFP5nzqEK0
0001:0005d6d0* __ZTSN6Xapian5ErrorE$w$78eFAOXcFP5nzqEK0
0002:000122d0* __ZN16__Atomicity_lockILi0EE17_S_atomicity_lockE$w$78eFAOXcFP5nzqEK0
Module: F:\rd\dse\xapian-core-1.0.2\.libs\xapian.a(backends\inmemory\inmemory_positionlist.cc)
0001:0005d93c* __ZNK20InMemoryPositionList8get_sizeEv
0001:0005d94e* __ZNK20InMemoryPositionList12get_positionEv
0001:0005d95c* __ZN20InMemoryPositionList4nextEv
0001:0005d974* __ZN20InMemoryPositionList7skip_toEj
0001:0005d9ae* __ZNK20InMemoryPositionList6at_endEv
0001:0005d7b0* __ZN20InMemoryPositionListC2ERKSt6vectorIjSaIjEE
0001:0005d85e  __ZN20InMemoryPositionListC1ERKSt6vectorIjSaIjEE
0001:0005d90c  __ZN20InMemoryPositionList8set_dataERKSt6vectorIjSaIjEE
0001:0005d6f0  __ZTV20InMemoryPositionList$w$9xGVIi3dFP52Xa9D0
0001:0005d9c8  __ZTI20InMemoryPositionList$w$9xGVIi3dFP52Xa9D0
0001:0005d714  __ZN20InMemoryPositionListD1Ev$w$9xGVIi3dFP52Xa9D0
0001:0005d760  __ZN20InMemoryPositionListD0Ev$w$9xGVIi3dFP52Xa9D0
0001:0005d9f0* __ZTVN6Xapian16PositionIterator8InternalE$w$9xGVIi3dFP52Xa9D0
0001:0005da34* __ZNSt6vectorIjSaIjEEaSERKS1_$w$9xGVIi3dFP52Xa9D0
0001:0005d9d4  __ZTS20InMemoryPositionList$w$9xGVIi3dFP52Xa9D0
0001:0005db10* __ZTIN6Xapian16PositionIterator8InternalE$w$9xGVIi3dFP52Xa9D0
0001:0005d9ec* __ZNSt15basic_streambufIcSt11char_traitsIcEE13_S_pback_sizeE$w$9xGVIi3dFP52Xa9D0
0001:0005da14* __ZN6Xapian16PositionIterator8InternalD1Ev$w$9xGVIi3dFP52Xa9D0
0001:0005da22* __ZN6Xapian16PositionIterator8InternalD0Ev$w$9xGVIi3dFP52Xa9D0
0001:0005db56* __ZNSt6vectorIjSaIjEE20_M_allocate_and_copyIN9__gnu_cxx17__normal_iteratorIPKjS1_EEEEPjjT_S9_$w$9xGVIi3dFP52Xa9D0
0001:0005db30* __ZTSN6Xapian16PositionIterator8InternalE$w$9xGVIi3dFP52Xa9D0
0001:0005dba4* __ZTIN6Xapian8Internal10RefCntBaseE$w$9xGVIi3dFP52Xa9D0
0001:0005dbac* __ZTSN6Xapian8Internal10RefCntBaseE$w$9xGVIi3dFP52Xa9D0
0002:000122e0* __ZN16__Atomicity_lockILi0EE17_S_atomicity_lockE$w$9xGVIi3dFP52Xa9D0
Module: F:\rd\dse\xapian-core-1.0.2\.libs\xapian.a(backends\flint\flint_document.cc)
0001:0005f1d2* __ZNK13FlintDocument12do_get_valueEj
0001:0005f286* __ZNK13FlintDocument17do_get_all_valuesEv
0001:0005f346* __ZNK13FlintDocument11do_get_dataEv
0001:0005eaa6* __ZN13FlintDocumentD1Ev
0001:0005ee38* __ZN13FlintDocumentD0Ev
0001:0005e018* __ZN13FlintDocumentC2EN6Xapian8Internal9RefCntPtrIKNS0_8Database8InternalEEEPK15FlintValueTablePK16FlintRecordTablejb
0001:0005e396  __ZN13FlintDocumentC1EN6Xapian8Internal9RefCntPtrIKNS0_8Database8InternalEEEPK15FlintValueTablePK16FlintRecordTablejb
0001:0005e714* __ZN13FlintDocumentD2Ev
0001:0005dbd0  __ZTV13FlintDocument$w$pffA5EScFP5kOZCL3
0001:0005f4a4  __ZTI13FlintDocument$w$pffA5EScFP5kOZCL3
0001:0005dbf0* __ZTV12LeafPostList$w$pffA5EScFP5kOZCL3
0001:0005f498* __ZTI12LeafPostList$w$pffA5EScFP5kOZCL3
0001:0005deb6* __ZN12LeafPostListD1Ev$w$pffA5EScFP5kOZCL3
0001:0005def4* __ZN12LeafPostListD0Ev$w$pffA5EScFP5kOZCL3
0001:0005df4e* __ZNK12LeafPostList16get_termfreq_minEv$w$pffA5EScFP5kOZCL3
0001:0005df64* __ZNK12LeafPostList16get_termfreq_estEv$w$pffA5EScFP5kOZCL3
0001:0005df38* __ZNK12LeafPostList16get_termfreq_maxEv$w$pffA5EScFP5kOZCL3
0001:0005dfe8* __ZNK12LeafPostList13get_maxweightEv$w$pffA5EScFP5kOZCL3
0001:0005df9e* __ZNK12LeafPostList10get_weightEv$w$pffA5EScFP5kOZCL3
0001:0005dc48* __ZNK6Xapian15PostingIterator8Internal16get_collapse_keyEv$w$pffA5EScFP5kOZCL3
0001:0005e000* __ZN12LeafPostList16recalc_maxweightEv$w$pffA5EScFP5kOZCL3
0001:0005dc86* __ZNK6Xapian15PostingIterator8Internal7get_wdfEv$w$pffA5EScFP5kOZCL3
0001:0005df7a* __ZN12LeafPostList14set_termweightEPKN6Xapian6WeightE$w$pffA5EScFP5kOZCL3
0001:0005f560* __ZN6Xapian18UnimplementedErrorD1Ev$w$pffA5EScFP5kOZCL3
0001:0005fb70* __ZTIN6Xapian18UnimplementedErrorE$w$pffA5EScFP5kOZCL3
0001:0005f510* __ZTVN6Xapian15PostingIterator8InternalE$w$pffA5EScFP5kOZCL3
0001:0005f4d8* __ZTVN6Xapian8Document8InternalE$w$pffA5EScFP5kOZCL3
0001:0005f40a* __ZNSt8_Rb_treeISsSt4pairIKSs14OmDocumentTermESt10_Select1stIS3_ESt4lessISsESaIS3_EEC1ERKS7_RKS8_$w$pffA5EScFP5kOZCL3
0001:0005f404* __ZNSaISt4pairIKSs14OmDocumentTermEED1Ev$w$pffA5EScFP5kOZCL3
0001:0005f634* __ZNSt6vectorIjSaIjEED1Ev$w$pffA5EScFP5kOZCL3
0001:0005f6b4* __ZNSt8_Rb_treeIjSt4pairIKjSsESt10_Select1stIS2_ESt4lessIjESaIS2_EED1Ev$w$pffA5EScFP5kOZCL3
0001:0005f450  __ZNSt8_Rb_treeISsSt4pairIKSs14OmDocumentTermESt10_Select1stIS3_ESt4lessISsESaIS3_EE5clearEv$w$pffA5EScFP5kOZCL3
0001:0005f37a* __ZNSt8_Rb_treeIjSt4pairIKjSsESt10_Select1stIS2_ESt4lessIjESaIS2_EE8_M_eraseEPSt13_Rb_tree_nodeIS2_E$w$pffA5EScFP5kOZCL3
0001:0005f9da* __ZNSt8_Rb_treeISsSt4pairIKSs14OmDocumentTermESt10_Select1stIS3_ESt4lessISsESaIS3_EE8_M_eraseEPSt13_Rb_tree_nodeIS3_E$w$pffA5EScFP5kOZCL3
0001:0005f4c0* __ZTS12LeafPostList$w$pffA5EScFP5kOZCL3
0001:0005fb50* __ZTIN6Xapian15PostingIterator8InternalE$w$pffA5EScFP5kOZCL3
0001:0005f4b0  __ZTS13FlintDocument$w$pffA5EScFP5kOZCL3
0001:0005fb90* __ZTIN6Xapian8Document8InternalE$w$pffA5EScFP5kOZCL3
0001:0005f4d0* __ZNSt15basic_streambufIcSt11char_traitsIcEE13_S_pback_sizeE$w$pffA5EScFP5kOZCL3
0001:0005f67e* __ZNK6Xapian8Document8Internal12do_get_valueEj$w$pffA5EScFP5kOZCL3
0001:0005f72e* __ZNK6Xapian8Document8Internal17do_get_all_valuesEv$w$pffA5EScFP5kOZCL3
0001:0005f780* __ZNK6Xapian8Document8Internal11do_get_dataEv$w$pffA5EScFP5kOZCL3
0001:0005f7b6* __ZN6Xapian8Document8InternalD1Ev$w$pffA5EScFP5kOZCL3
0001:0005f8c4* __ZN6Xapian8Document8InternalD0Ev$w$pffA5EScFP5kOZCL3
0001:0005f65e* __ZN6Xapian15PostingIterator8InternalD1Ev$w$pffA5EScFP5kOZCL3
0001:0005f66c* __ZN6Xapian15PostingIterator8InternalD0Ev$w$pffA5EScFP5kOZCL3
0001:0005fbf0* __ZTSN6Xapian15PostingIterator8InternalE$w$pffA5EScFP5kOZCL3
0001:0005fc14* __ZTIN6Xapian8Internal10RefCntBaseE$w$pffA5EScFP5kOZCL3
0001:0005fbcc* __ZTSN6Xapian18UnimplementedErrorE$w$pffA5EScFP5kOZCL3
0001:0005fc1c* __ZTIN6Xapian10LogicErrorE$w$pffA5EScFP5kOZCL3
0001:0005fbb0* __ZTSN6Xapian8Document8InternalE$w$pffA5EScFP5kOZCL3
0001:0005fc3e* __ZTSN6Xapian8Internal10RefCntBaseE$w$pffA5EScFP5kOZCL3
0001:0005fc28* __ZTSN6Xapian10LogicErrorE$w$pffA5EScFP5kOZCL3
0001:0005fc60* __ZTIN6Xapian5ErrorE$w$pffA5EScFP5kOZCL3
0001:0005fc68* __ZTSN6Xapian5ErrorE$w$pffA5EScFP5kOZCL3
0002:000122f0* __ZN16__Atomicity_lockILi0EE17_S_atomicity_lockE$w$pffA5EScFP5kOZCL3
Module: F:\rd\dse\xapian-core-1.0.2\.libs\xapian.a(backends\flint\flint_modifiedpostlist.cc)
0001:0006020a* __ZN21FlintModifiedPostListD1Ev
0001:000602fc* __ZN21FlintModifiedPostListD0Ev
0001:00060490* __ZNK21FlintModifiedPostList9get_docidEv
0001:000604cc* __ZNK21FlintModifiedPostList13get_doclengthEv
0001:00060510* __ZNK21FlintModifiedPostList7get_wdfEv
0001:00060550* __ZN21FlintModifiedPostList18read_position_listEv
0001:000605ce* __ZNK21FlintModifiedPostList18open_position_listEv
0001:00060620* __ZN21FlintModifiedPostList4nextEd
0001:000606ac* __ZN21FlintModifiedPostList7skip_toEjd
0001:00060712* __ZNK21FlintModifiedPostList6at_endEv
0001:00060748* __ZNK21FlintModifiedPostList15get_descriptionEv
0001:00060470* __ZNK21FlintModifiedPostList12get_termfreqEv
0001:00060118* __ZN21FlintModifiedPostListD2Ev
0001:000603f4* __ZN21FlintModifiedPostList12skip_deletesEd
0001:0005fc90  __ZTV21FlintModifiedPostList$w$hnXzHqTcFP5YstYz3
0001:000608cc  __ZTI21FlintModifiedPostList$w$hnXzHqTcFP5YstYz3
0001:0006004e* __ZNK12LeafPostList16get_termfreq_minEv$w$hnXzHqTcFP5YstYz3
0001:00060064* __ZNK12LeafPostList16get_termfreq_estEv$w$hnXzHqTcFP5YstYz3
0001:00060038* __ZNK12LeafPostList16get_termfreq_maxEv$w$hnXzHqTcFP5YstYz3
0001:000600e8* __ZNK12LeafPostList13get_maxweightEv$w$hnXzHqTcFP5YstYz3
0001:0006009e* __ZNK12LeafPostList10get_weightEv$w$hnXzHqTcFP5YstYz3
0001:0005fd48* __ZNK6Xapian15PostingIterator8Internal16get_collapse_keyEv$w$hnXzHqTcFP5YstYz3
0001:00060100* __ZN12LeafPostList16recalc_maxweightEv$w$hnXzHqTcFP5YstYz3
0001:0006007a* __ZN12LeafPostList14set_termweightEPKN6Xapian6WeightE$w$hnXzHqTcFP5YstYz3
0001:0005fcf0* __ZTV12LeafPostList$w$hnXzHqTcFP5YstYz3
0001:000608c0* __ZTI12LeafPostList$w$hnXzHqTcFP5YstYz3
0001:0005ffb6* __ZN12LeafPostListD1Ev$w$hnXzHqTcFP5YstYz3
0001:0005fff4* __ZN12LeafPostListD0Ev$w$hnXzHqTcFP5YstYz3
0001:0005fd86* __ZNK6Xapian15PostingIterator8Internal7get_wdfEv$w$hnXzHqTcFP5YstYz3
0001:000609a8* __ZN6Xapian18UnimplementedErrorD1Ev$w$hnXzHqTcFP5YstYz3
0001:00060ad0* __ZTIN6Xapian18UnimplementedErrorE$w$hnXzHqTcFP5YstYz3
0001:00060910* __ZTVN6Xapian15PostingIterator8InternalE$w$hnXzHqTcFP5YstYz3
0001:0006087c* __ZNSt8_Rb_treeIjSt4pairIKjS0_IcjEESt10_Select1stIS3_ESt4lessIjESaIS3_EE8_M_eraseEPSt13_Rb_tree_nodeIS3_E$w$hnXzHqTcFP5YstYz3
0001:00060960* __ZNSt22_Rb_tree_base_iterator12_M_incrementEv$w$hnXzHqTcFP5YstYz3
0001:000608f0* __ZTS12LeafPostList$w$hnXzHqTcFP5YstYz3
0001:00060ab0* __ZTIN6Xapian15PostingIterator8InternalE$w$hnXzHqTcFP5YstYz3
0001:000608d8  __ZTS21FlintModifiedPostList$w$hnXzHqTcFP5YstYz3
0001:00060adc  __ZTI13FlintPostList$w$hnXzHqTcFP5YstYz3
0001:00060900* __ZNSt15basic_streambufIcSt11char_traitsIcEE13_S_pback_sizeE$w$hnXzHqTcFP5YstYz3
0001:00060a7c* __ZN6Xapian15PostingIterator8InternalD1Ev$w$hnXzHqTcFP5YstYz3
0001:00060a8a* __ZN6Xapian15PostingIterator8InternalD0Ev$w$hnXzHqTcFP5YstYz3
0001:00060b30* __ZTSN6Xapian15PostingIterator8InternalE$w$hnXzHqTcFP5YstYz3
0001:00060b60* __ZTIN6Xapian8Internal10RefCntBaseE$w$hnXzHqTcFP5YstYz3
0001:00060af8* __ZTSN6Xapian18UnimplementedErrorE$w$hnXzHqTcFP5YstYz3
0001:00060b54* __ZTIN6Xapian10LogicErrorE$w$hnXzHqTcFP5YstYz3
0001:00060ae8  __ZTS13FlintPostList$w$hnXzHqTcFP5YstYz3
0001:00060b87* __ZTSN6Xapian10LogicErrorE$w$hnXzHqTcFP5YstYz3
0001:00060ba0* __ZTIN6Xapian5ErrorE$w$hnXzHqTcFP5YstYz3
0001:00060b68* __ZTSN6Xapian8Internal10RefCntBaseE$w$hnXzHqTcFP5YstYz3
0001:00060ba8* __ZTSN6Xapian5ErrorE$w$hnXzHqTcFP5YstYz3
0002:00012300* __ZN16__Atomicity_lockILi0EE17_S_atomicity_lockE$w$hnXzHqTcFP5YstYz3
Module: F:\rd\dse\xapian-core-1.0.2\.libs\xapian.a(backends\multi\multi_termlist.cc)
0001:00060d58* __ZN13MultiTermListD1Ev
0001:00060da0* __ZN13MultiTermListD0Ev
0001:00060df0* __ZNK13MultiTermList15get_approx_sizeEv
0001:00060e08* __ZNK13MultiTermList16accumulate_statsERN6Xapian8Internal11ExpandStatsE
0001:00060e36* __ZNK13MultiTermList12get_termnameEv
0001:00060e62* __ZNK13MultiTermList7get_wdfEv
0001:00060e7a* __ZNK13MultiTermList12get_termfreqEv
0001:00060ec4* __ZN13MultiTermList4nextEv
0001:00060edc* __ZNK13MultiTermList6at_endEv
0001:00060ef8* __ZNK13MultiTermList18positionlist_countEv
0001:00060f10* __ZNK13MultiTermList18positionlist_beginEv
0001:00060c0c* __ZN13MultiTermListC2EPN6Xapian12TermIterator8InternalERKNS0_8DatabaseEj
0001:00060c8e  __ZN13MultiTermListC1EPN6Xapian12TermIterator8InternalERKNS0_8DatabaseEj
0001:00060d10* __ZN13MultiTermListD2Ev
0001:00060bd0  __ZTV13MultiTermList$w$xlqRrk4dFP5HNLaE0
0001:00060f3c  __ZTI13MultiTermList$w$xlqRrk4dFP5HNLaE0
0001:00060f48  __ZTS13MultiTermList$w$xlqRrk4dFP5HNLaE0
0001:00060f70* __ZTIN6Xapian12TermIterator8InternalE$w$xlqRrk4dFP5HNLaE0
0001:00060f58* __ZNSt15basic_streambufIcSt11char_traitsIcEE13_S_pback_sizeE$w$xlqRrk4dFP5HNLaE0
0001:00060f90* __ZTSN6Xapian12TermIterator8InternalE$w$xlqRrk4dFP5HNLaE0
0001:00060fb4* __ZTIN6Xapian8Internal10RefCntBaseE$w$xlqRrk4dFP5HNLaE0
0001:00060fbc* __ZTSN6Xapian8Internal10RefCntBaseE$w$xlqRrk4dFP5HNLaE0
0002:00012310* __ZN16__Atomicity_lockILi0EE17_S_atomicity_lockE$w$xlqRrk4dFP5HNLaE0
Module: F:\rd\dse\xapian-core-1.0.2\.libs\xapian.a(backends\flint\flint_alldocspostlist.cc)
0001:00061d40* __ZN20FlintAllDocsPostListD1Ev
0001:00061e0e* __ZN20FlintAllDocsPostListD0Ev
0001:00061f66* __ZN20FlintAllDocsPostList4nextEd
0001:000624b4* __ZN20FlintAllDocsPostList7skip_toEjd
0001:00062af8* __ZNK20FlintAllDocsPostList15get_descriptionEv
0001:0006196e* __ZN20FlintAllDocsPostListC2EN6Xapian8Internal9RefCntPtrIKNS0_8Database8InternalEEEPK10FlintTablej
0001:00061af0  __ZN20FlintAllDocsPostListC1EN6Xapian8Internal9RefCntPtrIKNS0_8Database8InternalEEEPK10FlintTablej
0001:00061c72* __ZN20FlintAllDocsPostListD2Ev
0001:00060ff0  __ZTV20FlintAllDocsPostList$w$bofo3RPcFP5BymuG0
0001:00062d24  __ZTI20FlintAllDocsPostList$w$bofo3RPcFP5BymuG0
0001:000613ae* __ZNK12LeafPostList16get_termfreq_minEv$w$bofo3RPcFP5BymuG0
0001:000613c4* __ZNK12LeafPostList16get_termfreq_estEv$w$bofo3RPcFP5BymuG0
0001:00061398* __ZNK12LeafPostList16get_termfreq_maxEv$w$bofo3RPcFP5BymuG0
0001:00061448* __ZNK12LeafPostList13get_maxweightEv$w$bofo3RPcFP5BymuG0
0001:00061484  __ZNK20FlintAllDocsPostList9get_docidEv$w$bofo3RPcFP5BymuG0
0001:000613fe* __ZNK12LeafPostList10get_weightEv$w$bofo3RPcFP5BymuG0
0001:000610a8* __ZNK6Xapian15PostingIterator8Internal16get_collapse_keyEv$w$bofo3RPcFP5BymuG0
0001:00061490  __ZNK20FlintAllDocsPostList13get_doclengthEv$w$bofo3RPcFP5BymuG0
0001:00061460* __ZN12LeafPostList16recalc_maxweightEv$w$bofo3RPcFP5BymuG0
0001:000614b0  __ZNK20FlintAllDocsPostList7get_wdfEv$w$bofo3RPcFP5BymuG0
0001:00061502  __ZN20FlintAllDocsPostList18read_position_listEv$w$bofo3RPcFP5BymuG0
0001:00061732  __ZNK20FlintAllDocsPostList18open_position_listEv$w$bofo3RPcFP5BymuG0
0001:00061962  __ZNK20FlintAllDocsPostList6at_endEv$w$bofo3RPcFP5BymuG0
0001:00061478  __ZNK20FlintAllDocsPostList12get_termfreqEv$w$bofo3RPcFP5BymuG0
0001:000613da* __ZN12LeafPostList14set_termweightEPKN6Xapian6WeightE$w$bofo3RPcFP5BymuG0
0001:00061050* __ZTV12LeafPostList$w$bofo3RPcFP5BymuG0
0001:00062d18* __ZTI12LeafPostList$w$bofo3RPcFP5BymuG0
0001:00061316* __ZN12LeafPostListD1Ev$w$bofo3RPcFP5BymuG0
0001:00061354* __ZN12LeafPostListD0Ev$w$bofo3RPcFP5BymuG0
0001:000610e6* __ZNK6Xapian15PostingIterator8Internal7get_wdfEv$w$bofo3RPcFP5BymuG0
0001:00062e94* __ZN6Xapian18UnimplementedErrorD1Ev$w$bofo3RPcFP5BymuG0
0001:00063250* __ZTIN6Xapian18UnimplementedErrorE$w$bofo3RPcFP5BymuG0
0001:00062d70* __ZTVN6Xapian15PostingIterator8InternalE$w$bofo3RPcFP5BymuG0
0001:00062dc0* __ZN6Xapian21InvalidOperationErrorD1Ev$w$bofo3RPcFP5BymuG0
0001:0006325c* __ZTIN6Xapian21InvalidOperationErrorE$w$bofo3RPcFP5BymuG0
0001:00062bca* __Z27unpack_uint_preserving_sortIjEbPPKcS1_PT_$w$bofo3RPcFP5BymuG0
0001:00062f68* __ZN6Xapian20DatabaseCorruptErrorD1Ev$w$bofo3RPcFP5BymuG0
0001:00063268* __ZTIN6Xapian20DatabaseCorruptErrorE$w$bofo3RPcFP5BymuG0
0001:0006303c* __ZN6Xapian10RangeErrorD1Ev$w$bofo3RPcFP5BymuG0
0001:00063274* __ZTIN6Xapian10RangeErrorE$w$bofo3RPcFP5BymuG0
0001:00063130* __Z25pack_uint_preserving_sortIjESsT_$w$bofo3RPcFP5BymuG0
0001:00062c22* __ZStplIcSt11char_traitsIcESaIcEESbIT_T0_T1_EPKS3_RKS6_$w$bofo3RPcFP5BymuG0
0001:00062d47* __ZTS12LeafPostList$w$bofo3RPcFP5BymuG0
0001:00063230* __ZTIN6Xapian15PostingIterator8InternalE$w$bofo3RPcFP5BymuG0
0001:00062d30  __ZTS20FlintAllDocsPostList$w$bofo3RPcFP5BymuG0
0001:00062d58* __ZNSt15basic_streambufIcSt11char_traitsIcEE13_S_pback_sizeE$w$bofo3RPcFP5BymuG0
0001:00063110* __ZN6Xapian15PostingIterator8InternalD1Ev$w$bofo3RPcFP5BymuG0
0001:0006311e* __ZN6Xapian15PostingIterator8InternalD0Ev$w$bofo3RPcFP5BymuG0
0001:00063310* __ZTSN6Xapian15PostingIterator8InternalE$w$bofo3RPcFP5BymuG0
0001:00063358* __ZTIN6Xapian8Internal10RefCntBaseE$w$bofo3RPcFP5BymuG0
0001:000632f1* __ZTSN6Xapian18UnimplementedErrorE$w$bofo3RPcFP5BymuG0
0001:0006334c* __ZTIN6Xapian10LogicErrorE$w$bofo3RPcFP5BymuG0
0001:000632d0* __ZTSN6Xapian21InvalidOperationErrorE$w$bofo3RPcFP5BymuG0
0001:000632b0* __ZTSN6Xapian20DatabaseCorruptErrorE$w$bofo3RPcFP5BymuG0
0001:00063340* __ZTIN6Xapian13DatabaseErrorE$w$bofo3RPcFP5BymuG0
0001:00063280* __ZTSN6Xapian10RangeErrorE$w$bofo3RPcFP5BymuG0
0001:00063334* __ZTIN6Xapian12RuntimeErrorE$w$bofo3RPcFP5BymuG0
0001:000633ae* __ZTSN6Xapian12RuntimeErrorE$w$bofo3RPcFP5BymuG0
0001:000633c8* __ZTIN6Xapian5ErrorE$w$bofo3RPcFP5BymuG0
0001:00063395* __ZTSN6Xapian13DatabaseErrorE$w$bofo3RPcFP5BymuG0
0001:0006337f* __ZTSN6Xapian10LogicErrorE$w$bofo3RPcFP5BymuG0
0001:00063360* __ZTSN6Xapian8Internal10RefCntBaseE$w$bofo3RPcFP5BymuG0
0001:000633d0* __ZTSN6Xapian5ErrorE$w$bofo3RPcFP5BymuG0
0002:00012320* __ZN16__Atomicity_lockILi0EE17_S_atomicity_lockE$w$bofo3RPcFP5BymuG0
Module: F:\rd\dse\xapian-core-1.0.2\.libs\xapian.a(expand\ortermlist.cc)
0001:00064078* __ZN19FreqAdderOrTermListD1Ev
0001:00064094* __ZN19FreqAdderOrTermListD0Ev
0001:000638a0* __ZNK10OrTermList15get_approx_sizeEv
0001:000638d6* __ZNK10OrTermList16accumulate_statsERN6Xapian8Internal11ExpandStatsE
0001:000639ee* __ZNK10OrTermList12get_termnameEv
0001:00063a76* __ZNK10OrTermList7get_wdfEv
0001:000640bc* __ZNK19FreqAdderOrTermList12get_termfreqEv
0001:00063bfa* __ZN10OrTermList4nextEv
0001:00064024* __ZNK10OrTermList6at_endEv
0001:0006402c* __ZNK10OrTermList18positionlist_countEv
0001:00064034* __ZNK10OrTermList18positionlist_beginEv
0001:000635d4* __ZN10OrTermListD1Ev
0001:00063736* __ZN10OrTermListD0Ev
0001:00063b7a* __ZNK10OrTermList12get_termfreqEv
0001:0006346c* __ZNK10OrTermList13check_startedEv
0001:00063472* __ZN10OrTermListD2Ev
0001:0006405c* __ZN19FreqAdderOrTermListD2Ev
0001:000633f0  __ZTV19FreqAdderOrTermList$w$7m9Vxx6dFP5Ubs9O1
0001:000641cc  __ZTI19FreqAdderOrTermList$w$7m9Vxx6dFP5Ubs9O1
0001:00063430  __ZTV10OrTermList$w$7m9Vxx6dFP5Ubs9O1
0001:000641c0  __ZTI10OrTermList$w$7m9Vxx6dFP5Ubs9O1
0001:000641ee  __ZTS10OrTermList$w$7m9Vxx6dFP5Ubs9O1
0001:00064210* __ZTIN6Xapian12TermIterator8InternalE$w$7m9Vxx6dFP5Ubs9O1
0001:000641d8  __ZTS19FreqAdderOrTermList$w$7m9Vxx6dFP5Ubs9O1
0001:000641fc* __ZNSt15basic_streambufIcSt11char_traitsIcEE13_S_pback_sizeE$w$7m9Vxx6dFP5Ubs9O1
0001:00064230* __ZTSN6Xapian12TermIterator8InternalE$w$7m9Vxx6dFP5Ubs9O1
0001:00064254* __ZTIN6Xapian8Internal10RefCntBaseE$w$7m9Vxx6dFP5Ubs9O1
0001:0006425c* __ZTSN6Xapian8Internal10RefCntBaseE$w$7m9Vxx6dFP5Ubs9O1
0002:00012330* __ZN16__Atomicity_lockILi0EE17_S_atomicity_lockE$w$7m9Vxx6dFP5Ubs9O1
Module: F:\rd\dse\xapian-core-1.0.2\.libs\xapian.a(api\ompositionlistiterator.cc)
0001:00064290* __ZN6Xapian16PositionIteratorC2EPNS0_8InternalE
0001:00064312  __ZN6Xapian16PositionIteratorC1EPNS0_8InternalE
0001:00064394* __ZN6Xapian16PositionIteratorC2Ev
0001:000643a2* __ZN6Xapian16PositionIteratorC1Ev
0001:000643b0* __ZN6Xapian16PositionIteratorC2ERKS0_
0001:000643c8  __ZN6Xapian16PositionIteratorC1ERKS0_
0001:000643e0* __ZN6Xapian16PositionIteratorD2Ev
0001:00064410  __ZN6Xapian16PositionIteratorD1Ev
0001:0006447c* __ZN6Xapian16PositionIteratoraSERKS0_
0001:0006448a  __ZNK6Xapian16PositionIteratordeEv
0001:000644a2  __ZN6Xapian16PositionIteratorppEv
0001:000644e2* __ZN6Xapian16PositionIterator7skip_toEj
0001:00064544* __ZNK6Xapian16PositionIterator15get_descriptionEv
0001:00064440  __ZN6Xapian8Internal9RefCntPtrINS_16PositionIterator8InternalEEaSEPS3_$w$X0raXLKcFP52AzWX2
0001:0006457c* __ZNSt15basic_streambufIcSt11char_traitsIcEE13_S_pback_sizeE$w$X0raXLKcFP52AzWX2
0002:00012340* __ZN16__Atomicity_lockILi0EE17_S_atomicity_lockE$w$X0raXLKcFP52AzWX2
Module: F:\rd\dse\xapian-core-1.0.2\.libs\xapian.a(backends\inmemory\inmemory_document.cc)
0001:00065566* __ZNK16InMemoryDocument12do_get_valueEj
0001:000656a0* __ZNK16InMemoryDocument17do_get_all_valuesEv
0001:000656ca* __ZNK16InMemoryDocument11do_get_dataEv
0001:00064e50* __ZN16InMemoryDocumentC2EPKN6Xapian8Database8InternalEjRKSsRKSt3mapIjSsSt4lessIjESaISt4pairIKjSsEEE
0001:000651da  __ZN16InMemoryDocumentC1EPKN6Xapian8Database8InternalEjRKSsRKSt3mapIjSsSt4lessIjESaISt4pairIKjSsEEE
0001:00064580  __ZTV16InMemoryDocument$w$dVdzJV2dFP5YrRC82
0001:00065910  __ZTI16InMemoryDocument$w$dVdzJV2dFP5YrRC82
0001:0006459c  __ZN16InMemoryDocumentD1Ev$w$dVdzJV2dFP5YrRC82
0001:000649f2  __ZN16InMemoryDocumentD0Ev$w$dVdzJV2dFP5YrRC82
0001:000656f4* __ZNSt8_Rb_treeIjSt4pairIKjSsESt10_Select1stIS2_ESt4lessIjESaIS2_EE8_M_eraseEPSt13_Rb_tree_nodeIS2_E$w$dVdzJV2dFP5YrRC82
0001:00065938* __ZTVN6Xapian8Document8InternalE$w$dVdzJV2dFP5YrRC82
0001:000657ca* __ZNSt8_Rb_treeISsSt4pairIKSs14OmDocumentTermESt10_Select1stIS3_ESt4lessISsESaIS3_EE5clearEv$w$dVdzJV2dFP5YrRC82
0001:00065784* __ZNSt8_Rb_treeISsSt4pairIKSs14OmDocumentTermESt10_Select1stIS3_ESt4lessISsESaIS3_EEC1ERKS7_RKS8_$w$dVdzJV2dFP5YrRC82
0001:0006577e* __ZNSaISt4pairIKSs14OmDocumentTermEED1Ev$w$dVdzJV2dFP5YrRC82
0001:000655ce* __ZNSt8_Rb_treeIjSt4pairIKjSsESt10_Select1stIS2_ESt4lessIjESaIS2_EEC1ERKS8_$w$dVdzJV2dFP5YrRC82
0001:00065954* __ZNSt6vectorIjSaIjEED1Ev$w$dVdzJV2dFP5YrRC82
0001:000659b4* __ZNSt8_Rb_treeIjSt4pairIKjSsESt10_Select1stIS2_ESt4lessIjESaIS2_EED1Ev$w$dVdzJV2dFP5YrRC82
0001:00065cda  __ZNKSt8_Rb_treeIjSt4pairIKjSsESt10_Select1stIS2_ESt4lessIjESaIS2_EE4findERS1_$w$dVdzJV2dFP5YrRC82
0001:00065812* __ZNSt8_Rb_treeIjSt4pairIKjSsESt10_Select1stIS2_ESt4lessIjESaIS2_EE7_M_copyEPSt13_Rb_tree_nodeIS2_ESB_$w$dVdzJV2dFP5YrRC82
0001:00065d1a* __ZNSt8_Rb_treeISsSt4pairIKSs14OmDocumentTermESt10_Select1stIS3_ESt4lessISsESaIS3_EE8_M_eraseEPSt13_Rb_tree_nodeIS3_E$w$dVdzJV2dFP5YrRC82
0001:00065e8a* __ZNSt8_Rb_treeIjSt4pairIKjSsESt10_Select1stIS2_ESt4lessIjESaIS2_EE14_M_create_nodeERKS2_$w$dVdzJV2dFP5YrRC82
0001:0006591c  __ZTS16InMemoryDocument$w$dVdzJV2dFP5YrRC82
0001:00065f00* __ZTIN6Xapian8Document8InternalE$w$dVdzJV2dFP5YrRC82
0001:00065930* __ZNSt15basic_streambufIcSt11char_traitsIcEE13_S_pback_sizeE$w$dVdzJV2dFP5YrRC82
0001:0006597e* __ZNK6Xapian8Document8Internal12do_get_valueEj$w$dVdzJV2dFP5YrRC82
0001:00065a2e* __ZNK6Xapian8Document8Internal17do_get_all_valuesEv$w$dVdzJV2dFP5YrRC82
0001:00065a80* __ZNK6Xapian8Document8Internal11do_get_dataEv$w$dVdzJV2dFP5YrRC82
0001:00065ab6* __ZN6Xapian8Document8InternalD1Ev$w$dVdzJV2dFP5YrRC82
0001:00065bc4* __ZN6Xapian8Document8InternalD0Ev$w$dVdzJV2dFP5YrRC82
0001:00065f20* __ZTSN6Xapian8Document8InternalE$w$dVdzJV2dFP5YrRC82
0001:00065f3c* __ZTIN6Xapian8Internal10RefCntBaseE$w$dVdzJV2dFP5YrRC82
0001:00065f44* __ZTSN6Xapian8Internal10RefCntBaseE$w$dVdzJV2dFP5YrRC82
0002:00012350* __ZN16__Atomicity_lockILi0EE17_S_atomicity_lockE$w$dVdzJV2dFP5YrRC82
Module: F:\rd\dse\xapian-core-1.0.2\.libs\xapian.a(backends\multi\multi_postlist.cc)
0001:000667c0* __ZN13MultiPostListD1Ev
0001:00066918* __ZN13MultiPostListD0Ev
0001:00066afc* __ZNK13MultiPostList9get_docidEv
0001:00066b08* __ZNK13MultiPostList13get_doclengthEv
0001:00066b30* __ZNK13MultiPostList7get_wdfEv
0001:00066b58* __ZN13MultiPostList18read_position_listEv
0001:00066b80* __ZNK13MultiPostList18open_position_listEv
0001:00066ba8* __ZN13MultiPostList4nextEd
0001:00066c5e* __ZN13MultiPostList7skip_toEjd
0001:00066d20* __ZNK13MultiPostList6at_endEv
0001:00066d34* __ZNK13MultiPostList15get_descriptionEv
0001:00066ab6* __ZNK13MultiPostList12get_termfreqEv
0001:00066a76* __ZN13MultiPostList14set_termweightEPKN6Xapian6WeightE
0001:00066408* __ZN13MultiPostListC2ERSt6vectorIP12LeafPostListSaIS2_EERKN6Xapian8DatabaseE
0001:00066538  __ZN13MultiPostListC1ERSt6vectorIP12LeafPostListSaIS2_EERKN6Xapian8DatabaseE
0001:00066668* __ZN13MultiPostListD2Ev
0001:00065f80  __ZTV13MultiPostList$w$1PPoO34dFP5Z3d3B0
0001:00067134  __ZTI13MultiPostList$w$1PPoO34dFP5Z3d3B0
0001:0006633e* __ZNK12LeafPostList16get_termfreq_minEv$w$1PPoO34dFP5Z3d3B0
0001:00066354* __ZNK12LeafPostList16get_termfreq_estEv$w$1PPoO34dFP5Z3d3B0
0001:00066328* __ZNK12LeafPostList16get_termfreq_maxEv$w$1PPoO34dFP5Z3d3B0
0001:000663d8* __ZNK12LeafPostList13get_maxweightEv$w$1PPoO34dFP5Z3d3B0
0001:0006638e* __ZNK12LeafPostList10get_weightEv$w$1PPoO34dFP5Z3d3B0
0001:00066038* __ZNK6Xapian15PostingIterator8Internal16get_collapse_keyEv$w$1PPoO34dFP5Z3d3B0
0001:000663f0* __ZN12LeafPostList16recalc_maxweightEv$w$1PPoO34dFP5Z3d3B0
0001:00065fe0* __ZTV12LeafPostList$w$1PPoO34dFP5Z3d3B0
0001:00067128* __ZTI12LeafPostList$w$1PPoO34dFP5Z3d3B0
0001:000662a6* __ZN12LeafPostListD1Ev$w$1PPoO34dFP5Z3d3B0
0001:000662e4* __ZN12LeafPostListD0Ev$w$1PPoO34dFP5Z3d3B0
0001:00066076* __ZNK6Xapian15PostingIterator8Internal7get_wdfEv$w$1PPoO34dFP5Z3d3B0
0001:0006636a* __ZN12LeafPostList14set_termweightEPKN6Xapian6WeightE$w$1PPoO34dFP5Z3d3B0
0001:000671d0* __ZN6Xapian18UnimplementedErrorD1Ev$w$1PPoO34dFP5Z3d3B0
0001:00067300* __ZTIN6Xapian18UnimplementedErrorE$w$1PPoO34dFP5Z3d3B0
0001:00067180* __ZTVN6Xapian15PostingIterator8InternalE$w$1PPoO34dFP5Z3d3B0
0001:00067064  __ZNSt6vectorIP12LeafPostListSaIS1_EE5eraseEN9__gnu_cxx17__normal_iteratorIPS1_S3_EES7_$w$1PPoO34dFP5Z3d3B0
0001:000670a8* __ZStplIcSt11char_traitsIcESaIcEESbIT_T0_T1_ERKS6_S8_$w$1PPoO34dFP5Z3d3B0
0001:00067150* __ZTS12LeafPostList$w$1PPoO34dFP5Z3d3B0
0001:000672e0* __ZTIN6Xapian15PostingIterator8InternalE$w$1PPoO34dFP5Z3d3B0
0001:00067140  __ZTS13MultiPostList$w$1PPoO34dFP5Z3d3B0
0001:00067160* __ZNSt15basic_streambufIcSt11char_traitsIcEE13_S_pback_sizeE$w$1PPoO34dFP5Z3d3B0
0001:000672a4* __ZN6Xapian15PostingIterator8InternalD1Ev$w$1PPoO34dFP5Z3d3B0
0001:000672b2* __ZN6Xapian15PostingIterator8InternalD0Ev$w$1PPoO34dFP5Z3d3B0
0001:00067340* __ZTSN6Xapian15PostingIterator8InternalE$w$1PPoO34dFP5Z3d3B0
0001:00067370* __ZTIN6Xapian8Internal10RefCntBaseE$w$1PPoO34dFP5Z3d3B0
0001:0006730c* __ZTSN6Xapian18UnimplementedErrorE$w$1PPoO34dFP5Z3d3B0
0001:00067364* __ZTIN6Xapian10LogicErrorE$w$1PPoO34dFP5Z3d3B0
0001:00067397* __ZTSN6Xapian10LogicErrorE$w$1PPoO34dFP5Z3d3B0
0001:000673b0* __ZTIN6Xapian5ErrorE$w$1PPoO34dFP5Z3d3B0
0001:00067378* __ZTSN6Xapian8Internal10RefCntBaseE$w$1PPoO34dFP5Z3d3B0
0001:000673b8* __ZTSN6Xapian5ErrorE$w$1PPoO34dFP5Z3d3B0
0002:00012360* __ZN16__Atomicity_lockILi0EE17_S_atomicity_lockE$w$1PPoO34dFP5Z3d3B0
Module: F:\rd\dse\xapian-core-1.0.2\.libs\xapian.a(backends\flint\flint_postlist.cc)
0001:0006f198* __ZN13FlintPostListD1Ev
0001:0006f35e* __ZN13FlintPostListD0Ev
0001:0007122c  __ZN13FlintPostList18read_position_listEv
0001:00071262  __ZNK13FlintPostList18open_position_listEv
0001:000712f0  __ZN13FlintPostList4nextEd
0001:000720f0  __ZN13FlintPostList7skip_toEjd
0001:00072160  __ZNK13FlintPostList15get_descriptionEv
0001:00067998  __ZNK18FlintPostListTable13get_lastdocidEv
0001:00067d1e  __ZNK18FlintPostListTable12get_termfreqERKSs
0001:0006d870  __ZN13FlintPostList22read_number_of_entriesEPPKcS1_PjS3_
0001:00068154  __ZNK18FlintPostListTable19get_collection_freqERKSs
0001:0006858a  __ZN18FlintPostListTable30set_total_length_and_lastdocidEyj
0001:0006879a  __ZNK18FlintPostListTable16get_total_lengthEv
0001:00068dc2* __ZN19PostlistChunkReader4nextEv
0001:0006944a* __ZN19PostlistChunkWriterC2ERKSsbS1_b
0001:00069512* __ZN19PostlistChunkWriterC1ERKSsbS1_b
0001:000695da* __ZN19PostlistChunkWriter6appendEP10FlintTablejjj
0001:00069bf4* __ZN19PostlistChunkWriter5flushEP10FlintTable
0001:0006de22  __ZN13FlintPostListC2EN6Xapian8Internal9RefCntPtrIKNS0_8Database8InternalEEEPK10FlintTableS9_RKSs
0001:0006e6fa  __ZN13FlintPostListC1EN6Xapian8Internal9RefCntPtrIKNS0_8Database8InternalEEEPK10FlintTableS9_RKSs
0001:0006efd2  __ZN13FlintPostListD2Ev
0001:0006f52a* __ZN13FlintPostList13next_in_chunkEv
0001:0006fc42* __ZN13FlintPostList10next_chunkEv
0001:00071326* __ZN13FlintPostList22current_chunk_containsEj
0001:00071344* __ZN13FlintPostList24move_to_chunk_containingEj
0001:000720a2* __ZN13FlintPostList33move_forward_in_chunk_to_at_leastEj
0001:00072356* __ZN18FlintPostListTable9get_chunkERKSsjbPP19PostlistChunkReaderPP19PostlistChunkWriter
0001:00074188  __ZN18FlintPostListTable13merge_changesERKSt3mapISsS0_IjSt4pairIcjESt4lessIjESaIS1_IKjS2_EEES3_ISsESaIS1_IKSsS8_EEERKS0_IjjS4_SaIS1_IS5_jEEERKS0_ISsS1_IiiES9_SaIS1_ISA_SL_EEE
0001:000673e0  __ZTV13FlintPostList$w$nkGITUUcFP5FPRwH0
0001:00075da4* __ZTI13FlintPostList$w$nkGITUUcFP5FPRwH0
0001:00067844* __ZNK12LeafPostList16get_termfreq_minEv$w$nkGITUUcFP5FPRwH0
0001:0006785a* __ZNK12LeafPostList16get_termfreq_estEv$w$nkGITUUcFP5FPRwH0
0001:0006782e* __ZNK12LeafPostList16get_termfreq_maxEv$w$nkGITUUcFP5FPRwH0
0001:000678de* __ZNK12LeafPostList13get_maxweightEv$w$nkGITUUcFP5FPRwH0
0001:0006791a  __ZNK13FlintPostList9get_docidEv$w$nkGITUUcFP5FPRwH0
0001:00067894* __ZNK12LeafPostList10get_weightEv$w$nkGITUUcFP5FPRwH0
0001:00067540* __ZNK6Xapian15PostingIterator8Internal16get_collapse_keyEv$w$nkGITUUcFP5FPRwH0
0001:00067926  __ZNK13FlintPostList13get_doclengthEv$w$nkGITUUcFP5FPRwH0
0001:000678f6* __ZN12LeafPostList16recalc_maxweightEv$w$nkGITUUcFP5FPRwH0
0001:0006793c  __ZNK13FlintPostList7get_wdfEv$w$nkGITUUcFP5FPRwH0
0001:00067948  __ZNK13FlintPostList6at_endEv$w$nkGITUUcFP5FPRwH0
0001:0006790e  __ZNK13FlintPostList12get_termfreqEv$w$nkGITUUcFP5FPRwH0
0001:00067870* __ZN12LeafPostList14set_termweightEPKN6Xapian6WeightE$w$nkGITUUcFP5FPRwH0
0001:00067440* __ZTV12LeafPostList$w$nkGITUUcFP5FPRwH0
0001:00075d98* __ZTI12LeafPostList$w$nkGITUUcFP5FPRwH0
0001:000677ac* __ZN12LeafPostListD1Ev$w$nkGITUUcFP5FPRwH0
0001:000677ea* __ZN12LeafPostListD0Ev$w$nkGITUUcFP5FPRwH0
0001:0006757c* __ZNK6Xapian15PostingIterator8Internal7get_wdfEv$w$nkGITUUcFP5FPRwH0
0001:0007606e* __ZN6Xapian18UnimplementedErrorD1Ev$w$nkGITUUcFP5FPRwH0
0001:00076ba0* __ZTIN6Xapian18UnimplementedErrorE$w$nkGITUUcFP5FPRwH0
0001:00075de0* __ZTVN6Xapian15PostingIterator8InternalE$w$nkGITUUcFP5FPRwH0
0001:0007632a* __Z11unpack_uintIjEbPPKcS1_PT_$w$nkGITUUcFP5FPRwH0
0001:00076142* __ZN6Xapian20DatabaseCorruptErrorD1Ev$w$nkGITUUcFP5FPRwH0
0001:00076bac* __ZTIN6Xapian20DatabaseCorruptErrorE$w$nkGITUUcFP5FPRwH0
0001:000763ae* __Z9pack_uintIjESsT_$w$nkGITUUcFP5FPRwH0
0001:000759c8* __Z14pack_uint_lastIyESsT_$w$nkGITUUcFP5FPRwH0
0001:00075a8e* __Z16unpack_uint_lastIyEbPPKcS1_PT_$w$nkGITUUcFP5FPRwH0
0001:00075ed6* __ZN6Xapian5ErrorC2ERKSsS2_PKci$w$nkGITUUcFP5FPRwH0
0001:00076216* __ZN6Xapian10RangeErrorD1Ev$w$nkGITUUcFP5FPRwH0
0001:00076bb8* __ZTIN6Xapian10RangeErrorE$w$nkGITUUcFP5FPRwH0
0001:0007591a* __ZStplIcSt11char_traitsIcESaIcEESbIT_T0_T1_ERKS6_S8_$w$nkGITUUcFP5FPRwH0
0001:00076670* __Z25pack_uint_preserving_sortIjESsT_$w$nkGITUUcFP5FPRwH0
0001:000764f2* __Z29unpack_string_preserving_sortPPKcS0_RSs$w$nkGITUUcFP5FPRwH0
0001:00075b1a* __Z27unpack_uint_preserving_sortIjEbPPKcS1_PT_$w$nkGITUUcFP5FPRwH0
0001:0007599a  __ZNSsC1IPKcEET_S2_RKSaIcE$w$nkGITUUcFP5FPRwH0
0001:00075e40* __ZTVN6Xapian16PositionIterator8InternalE$w$nkGITUUcFP5FPRwH0
0001:00075b72* __ZStplIcSt11char_traitsIcESaIcEESbIT_T0_T1_EPKS3_RKS6_$w$nkGITUUcFP5FPRwH0
0001:00075e8e* __ZNSt22_Rb_tree_base_iterator12_M_incrementEv$w$nkGITUUcFP5FPRwH0
0001:00075c68  __ZNKSt8_Rb_treeISsSt4pairIKSsS0_IiiEESt10_Select1stIS3_ESt4lessISsESaIS3_EE4findERS1_$w$nkGITUUcFP5FPRwH0
0001:00075d58  __ZNKSt8_Rb_treeIjSt4pairIKjjESt10_Select1stIS2_ESt4lessIjESaIS2_EE4findERS1_$w$nkGITUUcFP5FPRwH0
0001:00075fc6  __ZNSs12_S_constructIPKcEEPcT_S3_RKSaIcESt20forward_iterator_tag$w$nkGITUUcFP5FPRwH0
0001:00075dc0* __ZTS12LeafPostList$w$nkGITUUcFP5FPRwH0
0001:00076b80* __ZTIN6Xapian15PostingIterator8InternalE$w$nkGITUUcFP5FPRwH0
0001:00075db0* __ZTS13FlintPostList$w$nkGITUUcFP5FPRwH0
0001:00075dd0* __ZNSt15basic_streambufIcSt11char_traitsIcEE13_S_pback_sizeE$w$nkGITUUcFP5FPRwH0
0001:0007630a* __ZN6Xapian15PostingIterator8InternalD1Ev$w$nkGITUUcFP5FPRwH0
0001:00076318* __ZN6Xapian15PostingIterator8InternalD0Ev$w$nkGITUUcFP5FPRwH0
0001:00076b60* __ZTIN6Xapian16PositionIterator8InternalE$w$nkGITUUcFP5FPRwH0
0001:000762ea* __ZN6Xapian16PositionIterator8InternalD1Ev$w$nkGITUUcFP5FPRwH0
0001:000762f8* __ZN6Xapian16PositionIterator8InternalD0Ev$w$nkGITUUcFP5FPRwH0
0001:00076c86  __Z11unpack_boolPPKcS0_Pb$w$nkGITUUcFP5FPRwH0
0001:00076c60* __ZTSN6Xapian16PositionIterator8InternalE$w$nkGITUUcFP5FPRwH0
0001:00076cf0* __ZTIN6Xapian8Internal10RefCntBaseE$w$nkGITUUcFP5FPRwH0
0001:00076c20* __ZTSN6Xapian15PostingIterator8InternalE$w$nkGITUUcFP5FPRwH0
0001:00076c00* __ZTSN6Xapian18UnimplementedErrorE$w$nkGITUUcFP5FPRwH0
0001:00076ce4* __ZTIN6Xapian10LogicErrorE$w$nkGITUUcFP5FPRwH0
0001:00076be0* __ZTSN6Xapian20DatabaseCorruptErrorE$w$nkGITUUcFP5FPRwH0
0001:00076cd8* __ZTIN6Xapian13DatabaseErrorE$w$nkGITUUcFP5FPRwH0
0001:00076bc4* __ZTSN6Xapian10RangeErrorE$w$nkGITUUcFP5FPRwH0
0001:00076ccc* __ZTIN6Xapian12RuntimeErrorE$w$nkGITUUcFP5FPRwH0
0001:00076d46* __ZTSN6Xapian12RuntimeErrorE$w$nkGITUUcFP5FPRwH0
0001:00076d60* __ZTIN6Xapian5ErrorE$w$nkGITUUcFP5FPRwH0
0001:00076d2d* __ZTSN6Xapian13DatabaseErrorE$w$nkGITUUcFP5FPRwH0
0001:00076d17* __ZTSN6Xapian10LogicErrorE$w$nkGITUUcFP5FPRwH0
0001:00076cf8* __ZTSN6Xapian8Internal10RefCntBaseE$w$nkGITUUcFP5FPRwH0
0001:00076d68* __ZTSN6Xapian5ErrorE$w$nkGITUUcFP5FPRwH0
0002:00012370* __ZN16__Atomicity_lockILi0EE17_S_atomicity_lockE$w$nkGITUUcFP5FPRwH0
Module: F:\rd\dse\xapian-core-1.0.2\.libs\xapian.a(backends\flint\contiguousalldocspostlist.cc)
0001:000772dc* __ZN25ContiguousAllDocsPostListD1Ev
0001:00077370* __ZN25ContiguousAllDocsPostListD0Ev
0001:00077414* __ZNK25ContiguousAllDocsPostList9get_docidEv
0001:00077420* __ZNK25ContiguousAllDocsPostList13get_doclengthEv
0001:00077440* __ZNK25ContiguousAllDocsPostList7get_wdfEv
0001:0007744a* __ZN25ContiguousAllDocsPostList18read_position_listEv
0001:000774a2* __ZNK25ContiguousAllDocsPostList18open_position_listEv
0001:000776d2* __ZN25ContiguousAllDocsPostList4nextEd
0001:00077704* __ZN25ContiguousAllDocsPostList7skip_toEjd
0001:00077738* __ZNK25ContiguousAllDocsPostList6at_endEv
0001:0007776a* __ZNK25ContiguousAllDocsPostList15get_descriptionEv
0001:00077408* __ZNK25ContiguousAllDocsPostList12get_termfreqEv
0001:00077248* __ZN25ContiguousAllDocsPostListD2Ev
0001:00076dc0  __ZTV25ContiguousAllDocsPostList$w$Zrs85rPcFP5j3k8g2
0001:000778b0  __ZTI25ContiguousAllDocsPostList$w$Zrs85rPcFP5j3k8g2
0001:0007717e* __ZNK12LeafPostList16get_termfreq_minEv$w$Zrs85rPcFP5j3k8g2
0001:00077194* __ZNK12LeafPostList16get_termfreq_estEv$w$Zrs85rPcFP5j3k8g2
0001:00077168* __ZNK12LeafPostList16get_termfreq_maxEv$w$Zrs85rPcFP5j3k8g2
0001:00077218* __ZNK12LeafPostList13get_maxweightEv$w$Zrs85rPcFP5j3k8g2
0001:000771ce* __ZNK12LeafPostList10get_weightEv$w$Zrs85rPcFP5j3k8g2
0001:00076e78* __ZNK6Xapian15PostingIterator8Internal16get_collapse_keyEv$w$Zrs85rPcFP5j3k8g2
0001:00077230* __ZN12LeafPostList16recalc_maxweightEv$w$Zrs85rPcFP5j3k8g2
0001:000771aa* __ZN12LeafPostList14set_termweightEPKN6Xapian6WeightE$w$Zrs85rPcFP5j3k8g2
0001:00076e20* __ZTV12LeafPostList$w$Zrs85rPcFP5j3k8g2
0001:000778a4* __ZTI12LeafPostList$w$Zrs85rPcFP5j3k8g2
0001:000770e6* __ZN12LeafPostListD1Ev$w$Zrs85rPcFP5j3k8g2
0001:00077124* __ZN12LeafPostListD0Ev$w$Zrs85rPcFP5j3k8g2
0001:00076eb6* __ZNK6Xapian15PostingIterator8Internal7get_wdfEv$w$Zrs85rPcFP5j3k8g2
0001:00077a24* __ZN6Xapian18UnimplementedErrorD1Ev$w$Zrs85rPcFP5j3k8g2
0001:00077b80* __ZTIN6Xapian18UnimplementedErrorE$w$Zrs85rPcFP5j3k8g2
0001:00077900* __ZTVN6Xapian15PostingIterator8InternalE$w$Zrs85rPcFP5j3k8g2
0001:00077950* __ZN6Xapian21InvalidOperationErrorD1Ev$w$Zrs85rPcFP5j3k8g2
0001:00077b8c* __ZTIN6Xapian21InvalidOperationErrorE$w$Zrs85rPcFP5j3k8g2
0001:00077b18  __ZN6Xapian8Internal9RefCntPtrIKNS_8Database8InternalEEaSEPS4_$w$Zrs85rPcFP5j3k8g2
0001:000778d8* __ZTS12LeafPostList$w$Zrs85rPcFP5j3k8g2
0001:00077b60* __ZTIN6Xapian15PostingIterator8InternalE$w$Zrs85rPcFP5j3k8g2
0001:000778bc  __ZTS25ContiguousAllDocsPostList$w$Zrs85rPcFP5j3k8g2
0001:000778e8* __ZNSt15basic_streambufIcSt11char_traitsIcEE13_S_pback_sizeE$w$Zrs85rPcFP5j3k8g2
0001:00077af8* __ZN6Xapian15PostingIterator8InternalD1Ev$w$Zrs85rPcFP5j3k8g2
0001:00077b06* __ZN6Xapian15PostingIterator8InternalD0Ev$w$Zrs85rPcFP5j3k8g2
0001:00077be0* __ZTSN6Xapian15PostingIterator8InternalE$w$Zrs85rPcFP5j3k8g2
0001:00077c10* __ZTIN6Xapian8Internal10RefCntBaseE$w$Zrs85rPcFP5j3k8g2
0001:00077bc1* __ZTSN6Xapian18UnimplementedErrorE$w$Zrs85rPcFP5j3k8g2
0001:00077c04* __ZTIN6Xapian10LogicErrorE$w$Zrs85rPcFP5j3k8g2
0001:00077ba0* __ZTSN6Xapian21InvalidOperationErrorE$w$Zrs85rPcFP5j3k8g2
0001:00077c37* __ZTSN6Xapian10LogicErrorE$w$Zrs85rPcFP5j3k8g2
0001:00077c50* __ZTIN6Xapian5ErrorE$w$Zrs85rPcFP5j3k8g2
0001:00077c18* __ZTSN6Xapian8Internal10RefCntBaseE$w$Zrs85rPcFP5j3k8g2
0001:00077c58* __ZTSN6Xapian5ErrorE$w$Zrs85rPcFP5j3k8g2
0002:00012390* __ZN16__Atomicity_lockILi0EE17_S_atomicity_lockE$w$Zrs85rPcFP5j3k8g2
Module: F:\rd\dse\xapian-core-1.0.2\.libs\xapian.a(backends\multi\multi_alltermslist.cc)
0001:00077fb8* __ZN17MultiAllTermsListD1Ev
0001:000780e0* __ZN17MultiAllTermsListD0Ev
0001:0007840a* __ZNK17MultiAllTermsList15get_approx_sizeEv
0001:0007843e* __ZNK17MultiAllTermsList12get_termnameEv
0001:00078468* __ZNK17MultiAllTermsList12get_termfreqEv
0001:0007857e* __ZNK17MultiAllTermsList19get_collection_freqEv
0001:000786e4* __ZN17MultiAllTermsList4nextEv
0001:00078694* __ZN17MultiAllTermsList7skip_toERKSs
0001:00078818* __ZNK17MultiAllTermsList6at_endEv
0001:00077cbc* __ZN17MultiAllTermsListC2ERKSt6vectorIPN6Xapian12TermIterator8InternalESaIS4_EE
0001:00077da6  __ZN17MultiAllTermsListC1ERKSt6vectorIPN6Xapian12TermIterator8InternalESaIS4_EE
0001:00077e90* __ZN17MultiAllTermsListD2Ev
0001:00078210* __ZN17MultiAllTermsList14update_currentEv
0001:00077c80  __ZTV17MultiAllTermsList$w$xNspEC3dFP5vfKFf1
0001:00078868  __ZTI17MultiAllTermsList$w$xNspEC3dFP5vfKFf1
0001:00078824* __ZNSt6vectorIPN6Xapian12TermIterator8InternalESaIS3_EE5eraseEN9__gnu_cxx17__normal_iteratorIPS3_S5_EES9_$w$xNspEC3dFP5vfKFf1
0001:00078874  __ZTS17MultiAllTermsList$w$xNspEC3dFP5vfKFf1
0001:0007888c* __ZTI12AllTermsList$w$xNspEC3dFP5vfKFf1
0001:00078888* __ZNSt15basic_streambufIcSt11char_traitsIcEE13_S_pback_sizeE$w$xNspEC3dFP5vfKFf1
0001:00078898* __ZTS12AllTermsList$w$xNspEC3dFP5vfKFf1
0001:000788c0* __ZTIN6Xapian12TermIterator8InternalE$w$xNspEC3dFP5vfKFf1
0001:000788e0* __ZTSN6Xapian12TermIterator8InternalE$w$xNspEC3dFP5vfKFf1
0001:00078904* __ZTIN6Xapian8Internal10RefCntBaseE$w$xNspEC3dFP5vfKFf1
0001:0007890c* __ZTSN6Xapian8Internal10RefCntBaseE$w$xNspEC3dFP5vfKFf1
0002:000123a0* __ZN16__Atomicity_lockILi0EE17_S_atomicity_lockE$w$xNspEC3dFP5vfKFf1
Module: F:\rd\dse\xapian-core-1.0.2\.libs\xapian.a(backends\flint\flint_spellingwordslist.cc)
0001:00078a1c* __ZN22FlintSpellingWordsListD1Ev
0001:00078abc* __ZN22FlintSpellingWordsListD0Ev
0001:00078bb2* __ZNK22FlintSpellingWordsList15get_approx_sizeEv
0001:00078df8* __ZNK22FlintSpellingWordsList12get_termnameEv
0001:00078e7e* __ZNK22FlintSpellingWordsList12get_termfreqEv
0001:00079148* __ZNK22FlintSpellingWordsList19get_collection_freqEv
0001:00079378* __ZN22FlintSpellingWordsList4nextEv
0001:000793b6* __ZN22FlintSpellingWordsList7skip_toERKSs
0001:0007949e* __ZNK22FlintSpellingWordsList6at_endEv
0001:0007897c* __ZN22FlintSpellingWordsListD2Ev
0001:00078940  __ZTV22FlintSpellingWordsList$w$5Vx26cWcFP5sXExp4
0001:000794f8  __ZTI22FlintSpellingWordsList$w$5Vx26cWcFP5sXExp4
0001:000795f8* __ZN6Xapian18UnimplementedErrorD1Ev$w$5Vx26cWcFP5sXExp4
0001:000798a4* __ZTIN6Xapian18UnimplementedErrorE$w$5Vx26cWcFP5sXExp4
0001:000794ae* __Z16unpack_uint_lastIjEbPPKcS1_PT_$w$5Vx26cWcFP5sXExp4
0001:000796cc* __ZN6Xapian20DatabaseCorruptErrorD1Ev$w$5Vx26cWcFP5sXExp4
0001:000798b0* __ZTIN6Xapian20DatabaseCorruptErrorE$w$5Vx26cWcFP5sXExp4
0001:00079524* __ZN6Xapian21InvalidOperationErrorD1Ev$w$5Vx26cWcFP5sXExp4
0001:000798bc* __ZTIN6Xapian21InvalidOperationErrorE$w$5Vx26cWcFP5sXExp4
0001:000797a0* __ZStplIcSt11char_traitsIcESaIcEESbIT_T0_T1_EPKS3_RKS6_$w$5Vx26cWcFP5sXExp4
0001:00079504  __ZTS22FlintSpellingWordsList$w$5Vx26cWcFP5sXExp4
0001:00079898  __ZTI12AllTermsList$w$5Vx26cWcFP5sXExp4
0001:00079520* __ZNSt15basic_streambufIcSt11char_traitsIcEE13_S_pback_sizeE$w$5Vx26cWcFP5sXExp4
0001:0007995e  __ZTS12AllTermsList$w$5Vx26cWcFP5sXExp4
0001:00079980* __ZTIN6Xapian12TermIterator8InternalE$w$5Vx26cWcFP5sXExp4
0001:00079940* __ZTSN6Xapian18UnimplementedErrorE$w$5Vx26cWcFP5sXExp4
0001:000799a0* __ZTIN6Xapian10LogicErrorE$w$5Vx26cWcFP5sXExp4
0001:00079920* __ZTSN6Xapian20DatabaseCorruptErrorE$w$5Vx26cWcFP5sXExp4
0001:000799ac* __ZTIN6Xapian13DatabaseErrorE$w$5Vx26cWcFP5sXExp4
0001:000798e0* __ZTSN6Xapian21InvalidOperationErrorE$w$5Vx26cWcFP5sXExp4
0001:00079a00* __ZTSN6Xapian12TermIterator8InternalE$w$5Vx26cWcFP5sXExp4
0001:00079a38* __ZTIN6Xapian8Internal10RefCntBaseE$w$5Vx26cWcFP5sXExp4
0001:000799d1* __ZTSN6Xapian10LogicErrorE$w$5Vx26cWcFP5sXExp4
0001:00079a30* __ZTIN6Xapian5ErrorE$w$5Vx26cWcFP5sXExp4
0001:000799b8* __ZTSN6Xapian13DatabaseErrorE$w$5Vx26cWcFP5sXExp4
0001:00079a24* __ZTIN6Xapian12RuntimeErrorE$w$5Vx26cWcFP5sXExp4
0001:00079a6f* __ZTSN6Xapian12RuntimeErrorE$w$5Vx26cWcFP5sXExp4
0001:00079a5f* __ZTSN6Xapian5ErrorE$w$5Vx26cWcFP5sXExp4
0001:00079a40* __ZTSN6Xapian8Internal10RefCntBaseE$w$5Vx26cWcFP5sXExp4
0002:000123b0* __ZN16__Atomicity_lockILi0EE17_S_atomicity_lockE$w$5Vx26cWcFP5sXExp4
Module: F:\rd\dse\xapian-core-1.0.2\.libs\xapian.a(backends\flint\flint_alltermslist.cc)
0001:0007a0fc* __ZN17FlintAllTermsListD1Ev
0001:0007a2a0* __ZN17FlintAllTermsListD0Ev
0001:0007a450* __ZNK17FlintAllTermsList15get_approx_sizeEv
0001:0007a45c* __ZNK17FlintAllTermsList12get_termnameEv
0001:0007a486* __ZNK17FlintAllTermsList12get_termfreqEv
0001:0007a4ae* __ZNK17FlintAllTermsList19get_collection_freqEv
0001:0007a514* __ZN17FlintAllTermsList4nextEv
0001:0007a80a* __ZN17FlintAllTermsList7skip_toERKSs
0001:0007aa86* __ZNK17FlintAllTermsList6at_endEv
0001:00079f08* __ZNK17FlintAllTermsList26read_termfreq_and_collfreqEv
0001:00079f58* __ZN17FlintAllTermsListD2Ev
0001:00079aa0  __ZTV17FlintAllTermsList$w$rQxkrdQcFP531lGm0
0001:0007aaa4  __ZTI17FlintAllTermsList$w$rQxkrdQcFP531lGm0
0001:00079ae0* __ZTV12LeafPostList$w$rQxkrdQcFP531lGm0
0001:0007aa98* __ZTI12LeafPostList$w$rQxkrdQcFP531lGm0
0001:00079da6* __ZN12LeafPostListD1Ev$w$rQxkrdQcFP531lGm0
0001:00079de4* __ZN12LeafPostListD0Ev$w$rQxkrdQcFP531lGm0
0001:00079e3e* __ZNK12LeafPostList16get_termfreq_minEv$w$rQxkrdQcFP531lGm0
0001:00079e54* __ZNK12LeafPostList16get_termfreq_estEv$w$rQxkrdQcFP531lGm0
0001:00079e28* __ZNK12LeafPostList16get_termfreq_maxEv$w$rQxkrdQcFP531lGm0
0001:00079ed8* __ZNK12LeafPostList13get_maxweightEv$w$rQxkrdQcFP531lGm0
0001:00079e8e* __ZNK12LeafPostList10get_weightEv$w$rQxkrdQcFP531lGm0
0001:00079b38* __ZNK6Xapian15PostingIterator8Internal16get_collapse_keyEv$w$rQxkrdQcFP531lGm0
0001:00079ef0* __ZN12LeafPostList16recalc_maxweightEv$w$rQxkrdQcFP531lGm0
0001:00079b76* __ZNK6Xapian15PostingIterator8Internal7get_wdfEv$w$rQxkrdQcFP531lGm0
0001:00079e6a* __ZN12LeafPostList14set_termweightEPKN6Xapian6WeightE$w$rQxkrdQcFP531lGm0
0001:0007ab30* __ZN6Xapian18UnimplementedErrorD1Ev$w$rQxkrdQcFP531lGm0
0001:0007aec0* __ZTIN6Xapian18UnimplementedErrorE$w$rQxkrdQcFP531lGm0
0001:0007aae0* __ZTVN6Xapian15PostingIterator8InternalE$w$rQxkrdQcFP531lGm0
0001:0007acf8* __Z29unpack_string_preserving_sortPPKcS0_RSs$w$rQxkrdQcFP531lGm0
0001:0007ac04* __ZN6Xapian20DatabaseCorruptErrorD1Ev$w$rQxkrdQcFP531lGm0
0001:0007aecc* __ZTIN6Xapian20DatabaseCorruptErrorE$w$rQxkrdQcFP531lGm0
0001:0007aac4* __ZTS12LeafPostList$w$rQxkrdQcFP531lGm0
0001:0007aea0* __ZTIN6Xapian15PostingIterator8InternalE$w$rQxkrdQcFP531lGm0
0001:0007aab0  __ZTS17FlintAllTermsList$w$rQxkrdQcFP531lGm0
0001:0007ae78* __ZTI12AllTermsList$w$rQxkrdQcFP531lGm0
0001:0007aad4* __ZNSt15basic_streambufIcSt11char_traitsIcEE13_S_pback_sizeE$w$rQxkrdQcFP531lGm0
0001:0007acd8* __ZN6Xapian15PostingIterator8InternalD1Ev$w$rQxkrdQcFP531lGm0
0001:0007ace6* __ZN6Xapian15PostingIterator8InternalD0Ev$w$rQxkrdQcFP531lGm0
0001:0007af44* __ZTS12AllTermsList$w$rQxkrdQcFP531lGm0
0001:0007af60* __ZTIN6Xapian12TermIterator8InternalE$w$rQxkrdQcFP531lGm0
0001:0007af20* __ZTSN6Xapian15PostingIterator8InternalE$w$rQxkrdQcFP531lGm0
0001:0007af98* __ZTIN6Xapian8Internal10RefCntBaseE$w$rQxkrdQcFP531lGm0
0001:0007af00* __ZTSN6Xapian18UnimplementedErrorE$w$rQxkrdQcFP531lGm0
0001:0007af8c* __ZTIN6Xapian10LogicErrorE$w$rQxkrdQcFP531lGm0
0001:0007aee0* __ZTSN6Xapian20DatabaseCorruptErrorE$w$rQxkrdQcFP531lGm0
0001:0007af80* __ZTIN6Xapian13DatabaseErrorE$w$rQxkrdQcFP531lGm0
0001:0007b000* __ZTSN6Xapian12TermIterator8InternalE$w$rQxkrdQcFP531lGm0
0001:0007afd5* __ZTSN6Xapian13DatabaseErrorE$w$rQxkrdQcFP531lGm0
0001:0007b02c* __ZTIN6Xapian12RuntimeErrorE$w$rQxkrdQcFP531lGm0
0001:0007afbf* __ZTSN6Xapian10LogicErrorE$w$rQxkrdQcFP531lGm0
0001:0007b024* __ZTIN6Xapian5ErrorE$w$rQxkrdQcFP531lGm0
0001:0007afa0* __ZTSN6Xapian8Internal10RefCntBaseE$w$rQxkrdQcFP531lGm0
0001:0007b050* __ZTSN6Xapian5ErrorE$w$rQxkrdQcFP531lGm0
0001:0007b038* __ZTSN6Xapian12RuntimeErrorE$w$rQxkrdQcFP531lGm0
0002:000123c0* __ZN16__Atomicity_lockILi0EE17_S_atomicity_lockE$w$rQxkrdQcFP531lGm0
Module: F:\rd\dse\xapian-core-1.0.2\.libs\xapian.a(backends\flint\flint_btreebase.cc)
0001:0007b060* __ZN15FlintTable_baseC2Ev
0001:0007b0b6  __ZN15FlintTable_baseC1Ev
0001:0007b10c* __ZN15FlintTable_baseC2ERKS_
0001:0007b1e8* __ZN15FlintTable_baseC1ERKS_
0001:0007b2c4  __ZN15FlintTable_base4swapERS_
0001:0007b362* __ZN15FlintTable_baseD2Ev
0001:0007b3a6  __ZN15FlintTable_baseD1Ev
0001:0007b402* __ZN15FlintTable_base14do_unpack_uintEPPKcS1_PmRSsRKSsS1_
0001:0007b95e  __ZN15FlintTable_base4readERKSscRSs
0001:0007dcae  __ZN15FlintTable_base13write_to_fileERKSs
0001:0007ebcc* __ZN15FlintTable_base20calculate_last_blockEv
0001:0007e9bc  __ZNK15FlintTable_base19block_free_at_startEm
0001:0007e9e8  __ZN15FlintTable_base10free_blockEm
0001:0007ea3a* __ZN15FlintTable_base14extend_bit_mapEv
0001:0007eb3a  __ZN15FlintTable_base15next_free_blockEv
0001:0007eba0* __ZN15FlintTable_base14block_free_nowEm
0001:0007ec32* __ZNK15FlintTable_base8is_emptyEv
0001:0007ec5c  __ZN15FlintTable_base13clear_bit_mapEv
0001:0007ec84  __ZN15FlintTable_base6commitEv
0001:0007f18a  __Z11unpack_uintImEbPPKcS1_PT_$w$fEw9TCQcFP5YHp9p1
0001:0007ed38* __ZStplIcSt11char_traitsIcESaIcEESbIT_T0_T1_EPKS3_RKS6_$w$fEw9TCQcFP5YHp9p1
0001:0007ecb8* __ZStplIcSt11char_traitsIcESaIcEESbIT_T0_T1_ERKS6_S8_$w$fEw9TCQcFP5YHp9p1
0001:0007ee2e  __Z9pack_uintImESsT_$w$fEw9TCQcFP5YHp9p1
0001:0007f046* __Z9pack_uintIjESsT_$w$fEw9TCQcFP5YHp9p1
0001:0007ef72* __ZN6Xapian20DatabaseOpeningErrorD1Ev$w$fEw9TCQcFP5YHp9p1
0001:0007f210* __ZTIN6Xapian20DatabaseOpeningErrorE$w$fEw9TCQcFP5YHp9p1
0001:0007f220* __ZTSN6Xapian20DatabaseOpeningErrorE$w$fEw9TCQcFP5YHp9p1
0001:0007f240* __ZTIN6Xapian13DatabaseErrorE$w$fEw9TCQcFP5YHp9p1
0001:0007f24c* __ZTSN6Xapian13DatabaseErrorE$w$fEw9TCQcFP5YHp9p1
0001:0007f268* __ZTIN6Xapian12RuntimeErrorE$w$fEw9TCQcFP5YHp9p1
0001:0007f274* __ZTSN6Xapian12RuntimeErrorE$w$fEw9TCQcFP5YHp9p1
0001:0007f28c* __ZTIN6Xapian5ErrorE$w$fEw9TCQcFP5YHp9p1
0001:0007f294* __ZTSN6Xapian5ErrorE$w$fEw9TCQcFP5YHp9p1
0002:000123d0* __ZN16__Atomicity_lockILi0EE17_S_atomicity_lockE$w$fEw9TCQcFP5YHp9p1
Module: F:\rd\dse\xapian-core-1.0.2\.libs\xapian.a(api\omtermlistiterator.cc)
0001:0007f2c0* __ZN6Xapian12TermIteratorC2EPNS0_8InternalE
0001:0007f352  __ZN6Xapian12TermIteratorC1EPNS0_8InternalE
0001:0007f3e4* __ZN6Xapian12TermIteratorC2Ev
0001:0007f3f2* __ZN6Xapian12TermIteratorC1Ev
0001:0007f400* __ZN6Xapian12TermIteratorD2Ev
0001:0007f430  __ZN6Xapian12TermIteratorD1Ev
0001:0007f460* __ZN6Xapian12TermIteratorC2ERKS0_
0001:0007f478* __ZN6Xapian12TermIteratorC1ERKS0_
0001:0007f490* __ZN6Xapian12TermIteratoraSERKS0_
0001:0007f4a2  __ZNK6Xapian12TermIteratordeEv
0001:0007f4ce  __ZNK6Xapian12TermIterator7get_wdfEv
0001:0007f4e6  __ZNK6Xapian12TermIterator12get_termfreqEv
0001:0007f4fe  __ZN6Xapian12TermIteratorppEv
0001:0007f54e* __ZN6Xapian12TermIterator7skip_toERKSs
0001:0007f5aa* __ZNK6Xapian12TermIterator18positionlist_countEv
0001:0007f5c2  __ZNK6Xapian12TermIterator18positionlist_beginEv
0001:0007f604* __ZNK6Xapian12TermIterator15get_descriptionEv
0001:0007f640  __ZN6Xapian8Internal9RefCntPtrINS_12TermIterator8InternalEEaSEPS3_$w$9JKOnnMcFP5fJ5Ot2
0001:0007f63c* __ZNSt15basic_streambufIcSt11char_traitsIcEE13_S_pback_sizeE$w$9JKOnnMcFP5fJ5Ot2
0002:000123e0* __ZN16__Atomicity_lockILi0EE17_S_atomicity_lockE$w$9JKOnnMcFP5fJ5Ot2
Module: F:\rd\dse\xapian-core-1.0.2\.libs\xapian.a(backends\alltermslist.cc)
0001:0007f6d8* __ZN12AllTermsListD1Ev
0001:0007f6f4* __ZN12AllTermsListD0Ev
0001:0007f71c  __ZNK12AllTermsList16accumulate_statsERN6Xapian8Internal11ExpandStatsE
0001:0007f768  __ZNK12AllTermsList7get_wdfEv
0001:0007f9cc  __ZNK12AllTermsList18positionlist_countEv
0001:0007fc30  __ZNK12AllTermsList18positionlist_beginEv
0001:0007f6bc  __ZN12AllTermsListD2Ev
0001:0007f680  __ZTV12AllTermsList$w$NhYx9tOcFP52RGMb3
0001:0007fe60* __ZTI12AllTermsList$w$NhYx9tOcFP52RGMb3
0001:0007fe80* __ZN6Xapian21InvalidOperationErrorD1Ev$w$NhYx9tOcFP52RGMb3
0001:0007ff80* __ZTIN6Xapian21InvalidOperationErrorE$w$NhYx9tOcFP52RGMb3
0001:0007fe6c* __ZTS12AllTermsList$w$NhYx9tOcFP52RGMb3
0001:0007ff60* __ZTIN6Xapian12TermIterator8InternalE$w$NhYx9tOcFP52RGMb3
0001:0007fe7c* __ZNSt15basic_streambufIcSt11char_traitsIcEE13_S_pback_sizeE$w$NhYx9tOcFP52RGMb3
0001:0007ffe0* __ZTSN6Xapian12TermIterator8InternalE$w$NhYx9tOcFP52RGMb3
0001:00080010* __ZTIN6Xapian8Internal10RefCntBaseE$w$NhYx9tOcFP52RGMb3
0001:0007ffa0* __ZTSN6Xapian21InvalidOperationErrorE$w$NhYx9tOcFP52RGMb3
0001:00080004* __ZTIN6Xapian10LogicErrorE$w$NhYx9tOcFP52RGMb3
0001:00080037* __ZTSN6Xapian10LogicErrorE$w$NhYx9tOcFP52RGMb3
0001:00080050* __ZTIN6Xapian5ErrorE$w$NhYx9tOcFP52RGMb3
0001:00080018* __ZTSN6Xapian8Internal10RefCntBaseE$w$NhYx9tOcFP52RGMb3
0001:00080058* __ZTSN6Xapian5ErrorE$w$NhYx9tOcFP52RGMb3
0002:000123f0* __ZN16__Atomicity_lockILi0EE17_S_atomicity_lockE$w$NhYx9tOcFP52RGMb3
Module: F:\rd\dse\xapian-core-1.0.2\.libs\xapian.a(backends\flint\flint_version.cc)
0001:000800c8  __ZN12FlintVersion6createEv
0001:000806bc  __ZN12FlintVersion14read_and_checkEv
0001:00081170* __ZN6Xapian20DatabaseOpeningErrorD1Ev$w$97je3pYcFP5pBFXf2
0001:00081318* __ZTIN6Xapian20DatabaseOpeningErrorE$w$97je3pYcFP5pBFXf2
0001:0008109c* __ZN6Xapian20DatabaseCorruptErrorD1Ev$w$97je3pYcFP5pBFXf2
0001:00081324* __ZTIN6Xapian20DatabaseCorruptErrorE$w$97je3pYcFP5pBFXf2
0001:00081244  __ZN6Xapian20DatabaseVersionErrorD1Ev$w$97je3pYcFP5pBFXf2
0001:00081330  __ZTIN6Xapian20DatabaseVersionErrorE$w$97je3pYcFP5pBFXf2
0001:00081380* __ZTSN6Xapian20DatabaseOpeningErrorE$w$97je3pYcFP5pBFXf2
0001:000813a0* __ZTIN6Xapian13DatabaseErrorE$w$97je3pYcFP5pBFXf2
0001:00081360* __ZTSN6Xapian20DatabaseCorruptErrorE$w$97je3pYcFP5pBFXf2
0001:00081340  __ZTSN6Xapian20DatabaseVersionErrorE$w$97je3pYcFP5pBFXf2
0001:000813ac* __ZTSN6Xapian13DatabaseErrorE$w$97je3pYcFP5pBFXf2
0001:000813c8* __ZTIN6Xapian12RuntimeErrorE$w$97je3pYcFP5pBFXf2
0001:000813d4* __ZTSN6Xapian12RuntimeErrorE$w$97je3pYcFP5pBFXf2
0001:000813ec* __ZTIN6Xapian5ErrorE$w$97je3pYcFP5pBFXf2
0001:000813f4* __ZTSN6Xapian5ErrorE$w$97je3pYcFP5pBFXf2
0002:00012400* __ZN16__Atomicity_lockILi0EE17_S_atomicity_lockE$w$97je3pYcFP5pBFXf2
Module: F:\rd\dse\xapian-core-1.0.2\.libs\xapian.a(api\termlist.cc)
0001:0008146a* __ZN6Xapian12TermIterator8InternalD1Ev
0001:00081478* __ZN6Xapian12TermIterator8InternalD0Ev
0001:0008148a  __ZNK6Xapian12TermIterator8Internal19get_collection_freqEv
0001:00081492  __ZN6Xapian12TermIterator8Internal7skip_toERKSs
0001:0008145c  __ZN6Xapian12TermIterator8InternalD2Ev
0001:00081420  __ZTVN6Xapian12TermIterator8InternalE$w$tpPY9iNcFP5l9Uci2
0001:00081680* __ZTIN6Xapian12TermIterator8InternalE$w$tpPY9iNcFP5l9Uci2
0001:000816a0* __ZTSN6Xapian12TermIterator8InternalE$w$tpPY9iNcFP5l9Uci2
0001:000816c8* __ZTIN6Xapian8Internal10RefCntBaseE$w$tpPY9iNcFP5l9Uci2
0001:000816c4* __ZNSt15basic_streambufIcSt11char_traitsIcEE13_S_pback_sizeE$w$tpPY9iNcFP5l9Uci2
0001:000816d0* __ZTSN6Xapian8Internal10RefCntBaseE$w$tpPY9iNcFP5l9Uci2
0002:00012410* __ZN16__Atomicity_lockILi0EE17_S_atomicity_lockE$w$tpPY9iNcFP5l9Uci2
Module: F:\rd\dse\xapian-core-1.0.2\.libs\xapian.a(backends\flint\flint_record.cc)
0001:00081728  __ZNK16FlintRecordTable10get_recordEj
0001:00081c7c  __ZNK16FlintRecordTable12get_doccountEv
0001:00081c88  __ZN16FlintRecordTable14replace_recordERKSsj
0001:00081e0c  __ZN16FlintRecordTable13delete_recordEj
0001:0008235c* __Z25pack_uint_preserving_sortIjESsT_$w$NpOoQ9VcFP5q74pb4
0001:00082192* __ZStplIcSt11char_traitsIcESaIcEESbIT_T0_T1_EPKS3_RKS6_$w$NpOoQ9VcFP5q74pb4
0001:00082288  __ZN6Xapian16DocNotFoundErrorD1Ev$w$NpOoQ9VcFP5q74pb4
0001:00082444* __ZTIN6Xapian16DocNotFoundErrorE$w$NpOoQ9VcFP5q74pb4
0001:00082450* __ZTSN6Xapian16DocNotFoundErrorE$w$NpOoQ9VcFP5q74pb4
0001:0008246c* __ZTIN6Xapian12RuntimeErrorE$w$NpOoQ9VcFP5q74pb4
0001:00082478* __ZTSN6Xapian12RuntimeErrorE$w$NpOoQ9VcFP5q74pb4
0001:00082490* __ZTIN6Xapian5ErrorE$w$NpOoQ9VcFP5q74pb4
0001:00082498* __ZTSN6Xapian5ErrorE$w$NpOoQ9VcFP5q74pb4
0002:00012420* __ZN16__Atomicity_lockILi0EE17_S_atomicity_lockE$w$NpOoQ9VcFP5q74pb4
Module: T:\tmp\ldconv_libgcc_so_d_a_4c93473e9a2713bd08.lib(emx-ctordtor.obj)
0001:000824b0  ___ctordtorInit
0001:000824ba* ___POST$__ctordtorInit
0001:000824de  ___ctordtorTerm
0001:000824e8* ___POST$__ctordtorTerm
Module: F:\rd\dse\xapian-core-1.0.2\.libs\xapian.a(common\utils.cc)
0001:00082570* __ZN6Xapian8Internal6is_tabE
0001:00082670* __ZN6Xapian8Internal6lo_tabE
0001:00082790* __ZN6Xapian8Internal6up_tabE
0001:00082894  __Z11om_tostringi
0001:00082926  __Z11om_tostringj
0001:000829b8* __Z11om_tostringl
0001:00082a4a  __Z11om_tostringm
0001:00082ade* __Z11om_tostringd
0001:00082b70* __Z11om_tostringPKv
0001:00082c02* __Z11om_tostringb
0001:00082c44  __Z11file_existsRKSs
0002:00012440* __ZN16__Atomicity_lockILi0EE17_S_atomicity_lockE$w$5vuJVq5dFP5zay9A1
Module: F:\rd\dse\xapian-core-1.0.2\.libs\xapian.a(unicode\utf8itor.cc)
0001:00082cb0* __ZN6Xapian7Unicode16nonascii_to_utf8EjPc
0001:00082d44* __ZN6Xapian12Utf8IteratorC2EPKc
0001:00082d8e* __ZN6Xapian12Utf8IteratorC1EPKc
0001:00082dd8  __ZNK6Xapian12Utf8Iterator25calculate_sequence_lengthEv
0001:00082ec2  __ZNK6Xapian12Utf8IteratordeEv
0002:00012450* __ZN16__Atomicity_lockILi0EE17_S_atomicity_lockE$w$TMQI64odFP57RPt83
Module: F:\rd\dse\xapian-core-1.0.2\.libs\xapian.a(backends\flint\flint_io.cc)
0001:00082fa2  __Z13flint_io_readiPcjj
0001:00083454  __Z14flint_io_writeiPKcj
0001:000836c8* __ZN6Xapian13DatabaseErrorD1Ev$w$jcp3ERScFP5LRCO13
0001:0008379c* __ZTIN6Xapian13DatabaseErrorE$w$jcp3ERScFP5LRCO13
0001:000837a8* __ZTSN6Xapian13DatabaseErrorE$w$jcp3ERScFP5LRCO13
0001:000837c4* __ZTIN6Xapian12RuntimeErrorE$w$jcp3ERScFP5LRCO13
0001:000837d0* __ZTSN6Xapian12RuntimeErrorE$w$jcp3ERScFP5LRCO13
0001:000837e8* __ZTIN6Xapian5ErrorE$w$jcp3ERScFP5LRCO13
0001:000837f0* __ZTSN6Xapian5ErrorE$w$jcp3ERScFP5LRCO13
0002:00012460* __ZN16__Atomicity_lockILi0EE17_S_atomicity_lockE$w$jcp3ERScFP5LRCO13
Module: F:\dev\gcc061\local\lib\libz.lib(deflate.obj)
0001:00083800* _deflate_copyright
0001:000838be  _deflateInit2_
0001:00083ca2* _deflateReset
0001:00084480  _deflateEnd
0001:00083b55* _deflateSetDictionary
0001:00083d87* _deflateParams
0001:00083e66  _deflate
0001:0008454c* _deflateCopy
0001:0008552f  _deflateInit_
0001:00085579* _deflatePrime
0001:000855b2* _deflateBound
Module: F:\dev\gcc061\local\lib\libz.lib(inflate.obj)
0001:00085960  _inflateInit2_
0001:00086548  _inflate
0001:00087b58* _inflateSetDictionary
0001:00087c45* _inflateSync
0001:00087e66* _inflateCopy
0001:00087f9a* _inflateReset
0001:00088018* _inflateInit_
0001:00088043  _inflateEnd
0001:0008809f* _inflateSyncPoint
Module: F:\rd\dse\xapian-core-1.0.2\.libs\xapian.a(api\omvalueiterator.cc)
0001:00088200  __ZNK6Xapian13ValueIteratordeEv
0001:00088482* __ZNK6Xapian13ValueIteratorptEv
0001:00088704  __ZNK6Xapian13ValueIterator11get_valuenoEv
0001:00088822* __ZNK6Xapian13ValueIterator15get_descriptionEv
0001:00088a0e* __ZNSt6vectorIjSaIjEE7reserveEj$w$L8gTaJMcFP5OAkbp1
0001:00088ecc* __ZNSt22_Rb_tree_base_iterator12_M_incrementEv$w$L8gTaJMcFP5OAkbp1
0001:00088bac* __ZNSt8_Rb_treeIjSt4pairIKjSsESt10_Select1stIS2_ESt4lessIjESaIS2_EE11lower_boundERS1_$w$L8gTaJMcFP5OAkbp1
0001:00088d24* __ZNSt8_Rb_treeIjSt4pairIKjSsESt10_Select1stIS2_ESt4lessIjESaIS2_EE13insert_uniqueESt17_Rb_tree_iteratorIS2_RS2_PS2_ERKS2_$w$L8gTaJMcFP5OAkbp1
0001:00088aa6* __ZNSt6vectorIjSaIjEE13_M_insert_auxEN9__gnu_cxx17__normal_iteratorIPjS1_EERKj$w$L8gTaJMcFP5OAkbp1
0001:00088be0* __ZStplIcSt11char_traitsIcESaIcEESbIT_T0_T1_EPKS3_RKS6_$w$L8gTaJMcFP5OAkbp1
0001:00088cd6* __ZNSt6vectorIjSaIjEE20_M_allocate_and_copyIPjEES3_jT_S4_$w$L8gTaJMcFP5OAkbp1
0001:00088f14* __ZNSt22_Rb_tree_base_iterator12_M_decrementEv$w$L8gTaJMcFP5OAkbp1
0001:00088f64* __ZNSt8_Rb_treeIjSt4pairIKjSsESt10_Select1stIS2_ESt4lessIjESaIS2_EE9_M_insertEPSt18_Rb_tree_node_baseSA_RKS2_$w$L8gTaJMcFP5OAkbp1
0001:00088dfc* __ZNSt8_Rb_treeIjSt4pairIKjSsESt10_Select1stIS2_ESt4lessIjESaIS2_EE13insert_uniqueERKS2_$w$L8gTaJMcFP5OAkbp1
0001:00088ec8* __ZNSt15basic_streambufIcSt11char_traitsIcEE13_S_pback_sizeE$w$L8gTaJMcFP5OAkbp1
0001:00089116* __ZNSt8_Rb_treeIjSt4pairIKjSsESt10_Select1stIS2_ESt4lessIjESaIS2_EE14_M_create_nodeERKS2_$w$L8gTaJMcFP5OAkbp1
0001:0008900e* __ZSt18_Rb_tree_rebalancePSt18_Rb_tree_node_baseRS0_$w$L8gTaJMcFP5OAkbp1
0001:00089188* __ZSt20_Rb_tree_rotate_leftPSt18_Rb_tree_node_baseRS0_$w$L8gTaJMcFP5OAkbp1
0001:000891ca* __ZSt21_Rb_tree_rotate_rightPSt18_Rb_tree_node_baseRS0_$w$L8gTaJMcFP5OAkbp1
0002:00012470* __ZN16__Atomicity_lockILi0EE17_S_atomicity_lockE$w$L8gTaJMcFP5OAkbp1
Module: F:\rd\dse\xapian-core-1.0.2\.libs\xapian.a(backends\flint\flint_lock.cc)
0001:00089210  __ZN9FlintLock4lockEb
0001:00089280  __ZN9FlintLock7releaseEv
0002:00012480* __ZN16__Atomicity_lockILi0EE17_S_atomicity_lockE$w$FHFUL4TcFP5iusnK2
Module: F:\rd\dse\xapian-core-1.0.2\.libs\xapian.a(backends\flint\flint_values.cc)
0001:000892b0* __ZN15FlintValueTable8make_keyERSsjj
0001:000893fa* __ZN15FlintValueTable12unpack_entryEPPKcS1_PjRSs
0001:00089cc2  __ZN15FlintValueTable9add_valueERKSsjj
0001:0008a8f0  __ZNK15FlintValueTable9get_valueERSsjj
0001:0008acf4  __ZNK15FlintValueTable14get_all_valuesERSt3mapIjSsSt4lessIjESaISt4pairIKjSsEEEj
0001:0008b2ce  __ZN15FlintValueTable17delete_all_valuesEj
0001:0008b95c* __Z25pack_uint_preserving_sortIjESsT_$w$JvCmP9YcFP51s5hE3
0001:0008b794* __Z11unpack_uintIjEbPPKcS1_PT_$w$JvCmP9YcFP51s5hE3
0001:0008b5ec* __ZN6Xapian20DatabaseCorruptErrorD1Ev$w$JvCmP9YcFP51s5hE3
0001:0008baf0* __ZTIN6Xapian20DatabaseCorruptErrorE$w$JvCmP9YcFP51s5hE3
0001:0008b6c0* __ZN6Xapian10RangeErrorD1Ev$w$JvCmP9YcFP51s5hE3
0001:0008bafc* __ZTIN6Xapian10RangeErrorE$w$JvCmP9YcFP51s5hE3
0001:0008b818* __Z9pack_uintIjESsT_$w$JvCmP9YcFP51s5hE3
0001:0008b3c6* __ZStplIcSt11char_traitsIcESaIcEESbIT_T0_T1_ERKS6_S8_$w$JvCmP9YcFP51s5hE3
0001:0008b4d0* __ZNSt8_Rb_treeIjSt4pairIKjSsESt10_Select1stIS2_ESt4lessIjESaIS2_EE13insert_uniqueERKS2_$w$JvCmP9YcFP51s5hE3
0001:0008b446* __ZNSt8_Rb_treeIjSt4pairIKjSsESt10_Select1stIS2_ESt4lessIjESaIS2_EE8_M_eraseEPSt13_Rb_tree_nodeIS2_E$w$JvCmP9YcFP51s5hE3
0001:0008ba44* __ZNSt8_Rb_treeIjSt4pairIKjSsESt10_Select1stIS2_ESt4lessIjESaIS2_EE9_M_insertEPSt18_Rb_tree_node_baseSA_RKS2_$w$JvCmP9YcFP51s5hE3
0001:0008b59c* __ZNSt22_Rb_tree_base_iterator12_M_decrementEv$w$JvCmP9YcFP51s5hE3
0001:0008bc58* __ZNSt8_Rb_treeIjSt4pairIKjSsESt10_Select1stIS2_ESt4lessIjESaIS2_EE14_M_create_nodeERKS2_$w$JvCmP9YcFP51s5hE3
0001:0008bb50* __ZSt18_Rb_tree_rebalancePSt18_Rb_tree_node_baseRS0_$w$JvCmP9YcFP51s5hE3
0001:0008bb30* __ZTSN6Xapian20DatabaseCorruptErrorE$w$JvCmP9YcFP51s5hE3
0001:0008bcd8* __ZTIN6Xapian13DatabaseErrorE$w$JvCmP9YcFP51s5hE3
0001:0008bb08* __ZTSN6Xapian10RangeErrorE$w$JvCmP9YcFP51s5hE3
0001:0008bccc* __ZTIN6Xapian12RuntimeErrorE$w$JvCmP9YcFP51s5hE3
0001:0008bd16* __ZSt20_Rb_tree_rotate_leftPSt18_Rb_tree_node_baseRS0_$w$JvCmP9YcFP51s5hE3
0001:0008bd58* __ZSt21_Rb_tree_rotate_rightPSt18_Rb_tree_node_baseRS0_$w$JvCmP9YcFP51s5hE3
0001:0008bcfd* __ZTSN6Xapian12RuntimeErrorE$w$JvCmP9YcFP51s5hE3
0001:0008bd9c* __ZTIN6Xapian5ErrorE$w$JvCmP9YcFP51s5hE3
0001:0008bce4* __ZTSN6Xapian13DatabaseErrorE$w$JvCmP9YcFP51s5hE3
0001:0008bda4* __ZTSN6Xapian5ErrorE$w$JvCmP9YcFP51s5hE3
0002:00012490* __ZN16__Atomicity_lockILi0EE17_S_atomicity_lockE$w$JvCmP9YcFP51s5hE3
Module: F:\dev\gcc061\local\lib\libz.lib(zutil.obj)
0001:0008be50  _z_errmsg
0001:0008be78* _zlibCompileFlags
0001:0008be88* _zlibVersion
0001:0008be92* _zError
0001:0008bea6  _zcalloc
0001:0008beb9  _zcfree
Module: F:\dev\gcc061\local\lib\libz.lib(adler32.obj)
0001:0008bed0  _adler32
Module: F:\dev\gcc061\local\lib\libz.lib(trees.obj)
0001:0008c650  __dist_code
0001:0008c850  __length_code
0001:0008ca48  __tr_stored_block
0001:0008cafb  __tr_align
0001:0008cd72  __tr_flush_block
0001:0008d70d  __tr_init
0001:0008d7e3* __tr_tally
Module: F:\dev\gcc061\local\lib\libz.lib(crc32.obj)
0001:000907f0  _crc32
0001:00090d08* _get_crc_table
Module: F:\dev\gcc061\local\lib\libz.lib(compress.obj)
0001:00090d36* _compress2
0001:00090de2* _compress
0001:00090e8f  _compressBound
Module: F:\dev\gcc061\local\lib\libz.lib(inftrees.obj)
0001:00090eb0* _inflate_copyright
0001:00090ff0  _inflate_table
Module: F:\dev\gcc061\local\lib\libz.lib(inffast.obj)
0001:00091580  _inflate_fast


                        +----------------------+
                        |   Imported Symbols   |
                        +----------------------+

Symbol                              Module
======                              ======

___libc_ForkRegisterModule          libc063
___init_app                         libc063
__response                          libc063
__wildcard                          libc063
__CRT_init                          libc063
__atfork_callback                   libc063
__fmode_bin                         libc063
__ZNSt8ios_base4InitD1Ev            libc063
__ZNSt8ios_base4InitC1Ev            libc063
__alloca                            libc063
__ZSt4cout                          libc063
__ZStlsISt11char_traitsIcEERSt13basic_ostreamIcT_ES5_PKc libc063
__ZSt4endlIcSt11char_traitsIcEERSt13basic_ostreamIT_T0_ES6_ libc063
__ZNSolsEPFRSoS_E                   libc063
__ZSt4cerr                          libc063
__ZNSsC1EPKcRKSaIcE                 libc063
__ZNSsC1ERKSs                       libc063
__ZNSs6appendEPKcj                  libc063
__ZNSs4_Rep11_S_terminalE           libc063
__ZNSs6appendEjc                    libc063
__ZNSt8ios_baseC2Ev                 libc063
__ZTTSt14basic_ifstreamIcSt11char_traitsIcEE libc063
__ZTVSt9basic_iosIcSt11char_traitsIcEE libc063
__ZNSt9basic_iosIcSt11char_traitsIcEE4initEPSt15basic_streambufIcS1_E libc063
__ZTVSt14basic_ifstreamIcSt11char_traitsIcEE libc063
__ZNSt13basic_filebufIcSt11char_traitsIcEEC1Ev libc063
__ZNSt13basic_filebufIcSt11char_traitsIcEE4openEPKcSt13_Ios_Openmode libc063
__ZNSt9basic_iosIcSt11char_traitsIcEE5clearESt12_Ios_Iostate libc063
__ZNSi4readEPci                     libc063
__errno                             libc063
__ZStlsIcSt11char_traitsIcESaIcEERSt13basic_ostreamIT_T0_ES7_RKSbIS4_S5_T1_E libc063
__ZTTSt14basic_ofstreamIcSt11char_traitsIcEE libc063
__ZTVSt14basic_ofstreamIcSt11char_traitsIcEE libc063
__ZNSo5writeEPKci                   libc063
__ZNSt13basic_filebufIcSt11char_traitsIcEE5closeEv libc063
__ZTVSt13basic_filebufIcSt11char_traitsIcEE libc063
__ZNSt12__basic_fileIcED1Ev         libc063
__ZTVSt15basic_streambufIcSt11char_traitsIcEE libc063
__ZNSt6localeD1Ev                   libc063
__ZNSt8ios_baseD2Ev                 libc063
__ZNSt24__default_alloc_templateILb1ELi0EE10deallocateEPvj libc063
__ZNSs4_Rep10_M_destroyERKSaIcE     libc063
__ZSt5flushIcSt11char_traitsIcEERSt13basic_ostreamIT_T0_ES6_ libc063
__ZStlsISt11char_traitsIcEERSt13basic_ostreamIcT_ES5_c libc063
__ZNSolsEd                          libc063
__ZNSolsEx                          libc063
__ZNSt24__default_alloc_templateILb1ELi0EE8allocateEj libc063
__Unwind_Resume                     libc063
___cxa_begin_catch                  libc063
__ZNSt15basic_streambufIcSt11char_traitsIcEED2Ev libc063
___cxa_end_catch                    libc063
__ZSt20__throw_length_errorPKc      libc063
___cxa_rethrow                      libc063
__ZNSs6assignERKSs                  libc063
__Znwj                              libc063
__ZNSs6appendERKSs                  libc063
__ZNSsC1EPKcjRKSaIcE                libc063
__ZNSs20_S_empty_rep_storageE       libc063
__ZNSs12_M_leak_hardEv              libc063
__ZdlPv                             libc063
__ZNSsD1Ev                          libc063
___cxa_allocate_exception           libc063
___cxa_throw                        libc063
___cxa_free_exception               libc063
__ZNSaIcED1Ev                       libc063
__ZNKSs7compareERKSs                libc063
__ZTVN10__cxxabiv117__class_type_infoE libc063
__ZNSs7replaceEN9__gnu_cxx17__normal_iteratorIPcSsEES2_jc libc063
__ZSt20__throw_out_of_rangePKc      libc063
__ZNSs7replaceEjjPKcj               libc063
__ZNSs6resizeEjc                    libc063
__ZTVN10__cxxabiv120__si_class_type_infoE libc063
__ZNSs6assignEPKcj                  libc063
___gxx_personality_v0               libc063
__std_exit                          libc063
___stderrp                          libc063
__std_strtoul                       libc063
__std_strcmp                        libc063
__std_stat                          libc063
___cxa_pure_virtual                 libc063
__ZTVN10__cxxabiv121__vmi_class_type_infoE libc063
__ZNKSt9basic_iosIcSt11char_traitsIcEE5widenEc libc063
__ZSt7getlineIcSt11char_traitsIcESaIcEERSt13basic_istreamIT_T0_ES7_RSbIS4_S5_T1_ES4_ libc063
__ZNKSs4findEcj                     libc063
__ZNSsC1ERKSsjj                     libc063
__ZNKSs7compareEPKc                 libc063
__ZNSs7reserveEj                    libc063
__std_mkdir                         libc063
__std_strerror                      libc063
__std_rename                        libc063
__Znaj                              libc063
__ZdaPv                             libc063
__ZTVSt9bad_alloc                   libc063
__ZNSt9bad_allocD1Ev                libc063
__ZNSs4swapERSs                     libc063
__ZNSs4_Rep10_M_disposeERKSaIcE     libc063
__std_memmove                       libc063
_hstrerror                          tcpip32
__std_sprintf                       libc063
__std_unlink                        libc063
___register_frame_table             libc063
___deregister_frame                 libc063
__ZNSs4_Rep9_S_createEjRKSaIcE      libc063
__ZSt19__throw_logic_errorPKc       libc063
__ZNSsC1EjcRKSaIcE                  libc063
___ctordtorInit1                    libc063
___ctordtorTerm1                    libc063
__std_atexit                        libc063
__std_strncmp                       libc063
__std_fprintf                       libc063
__std_strchr                        libc063
__std_getenv                        libc063
__std_lseek                         libc063
__std_memcpy                        libc063
__std_memset                        libc063
__std_abort                         libc063
__std_close                         libc063
__std_open                          libc063
__std_fsync                         libc063
DosOpen                             doscalls
DosClose                            doscalls
__std_atoi                          libc063
__std_snprintf                      libc063
__std_read                          libc063
__std_write                         libc063
__std_malloc                        libc063
__std_free                          libc063


                        +--------------------+
                        |   Libraries Used   |
                        +--------------------+

F:\rd\dse\xapian-core-1.0.2\.libs\getopt.a
F:\rd\dse\xapian-core-1.0.2\.libs\xapian.a
F:\dev\gcc061\local\lib\libz.lib
F:\dev\gcc061\lib\libsocket.lib
F:\dev\gcc061\lib\libc_dll.lib
F:\dev\gcc061\lib\libc_alias.lib
F:\dev\gcc061\lib\libos2.lib
T:\tmp\ldconv_libgcc_so_d_a_4c93473e9a2713bd08.lib
F:\dev\gcc061\lib\libend.lib


                        +-----------------------+
                        |   Linker Statistics   |
                        +-----------------------+

Stack size:  00100000 (1048576.)
Memory size:  001a3ec0 (1720000.)
Entry point address: 0001:00000000
Link time: 00:00.51
