** EXPERIMENTAL (HLL) ** Open Watcom Linker Version 1.6beta1 Limited Availability
Portions Copyright (c) 1985-2002 Sybase, Inc. All Rights Reserved.
Created on:       07/08/02 12:23:31
Executable Image: xapian10.dll
creating an OS/2 EMX dynamic link library


                        +------------+
                        |   Groups   |
                        +------------+

Group                           Address              Size
=====                           =======              ====

CGROUP                          0001:00000000        001252b0
DGROUP                          0002:00000000        00039140



                        +--------------+
                        |   Segments   |
                        +--------------+

Segment                Class          Group          Address         Size
=======                =====          =====          =======         ====

TEXT32                 CODE           CGROUP         0001:00000000   001252b0
________TEXT           CODE           CGROUP         0001:001252b0   00000000
DATA32                 DATA           DGROUP         0002:00000000   00038890
SET1__os2dll           DATA           DGROUP         0002:00038890   00000004
SET2__os2dll           DATA           DGROUP         0002:00038894   00000000
SET3__os2dll           DATA           DGROUP         0002:00038894   00000004
SET1___CTOR_LIST__     DATA           DGROUP         0002:00038898   00000004
SET2___CTOR_LIST__     DATA           DGROUP         0002:0003889c   00000008
SET3___CTOR_LIST__     DATA           DGROUP         0002:000388a4   00000004
SET1___DTOR_LIST__     DATA           DGROUP         0002:000388a8   00000004
SET2___DTOR_LIST__     DATA           DGROUP         0002:000388ac   00000008
SET3___DTOR_LIST__     DATA           DGROUP         0002:000388b4   00000004
SET1___crtinit1__      DATA           DGROUP         0002:000388b8   00000004
SET2___crtinit1__      DATA           DGROUP         0002:000388bc   00000000
SET3___crtinit1__      DATA           DGROUP         0002:000388bc   00000004
SET1___crtexit1__      DATA           DGROUP         0002:000388c0   00000004
SET2___crtexit1__      DATA           DGROUP         0002:000388c4   00000000
SET3___crtexit1__      DATA           DGROUP         0002:000388c4   00000004
SET1___eh_frame__      DATA           DGROUP         0002:000388c8   00000004
SET2___eh_frame__      DATA           DGROUP         0002:000388cc   00000190
SET3___eh_frame__      DATA           DGROUP         0002:00038a5c   00000004
SET1___eh_init__       DATA           DGROUP         0002:00038a60   00000004
SET2___eh_init__       DATA           DGROUP         0002:00038a64   00000004
SET3___eh_init__       DATA           DGROUP         0002:00038a68   00000004
SET1___eh_term__       DATA           DGROUP         0002:00038a6c   00000004
SET2___eh_term__       DATA           DGROUP         0002:00038a70   00000004
SET3___eh_term__       DATA           DGROUP         0002:00038a74   00000004
SET1___fork_parent1__  DATA           DGROUP         0002:00038a78   00000004
SET2___fork_parent1__  DATA           DGROUP         0002:00038a7c   00000000
SET3___fork_parent1__  DATA           DGROUP         0002:00038a7c   00000004
SET1___fork_child1__   DATA           DGROUP         0002:00038a80   00000004
SET2___fork_child1__   DATA           DGROUP         0002:00038a84   00000004
SET3___fork_child1__   DATA           DGROUP         0002:00038a88   00000004
________DATA           DATA           DGROUP         0002:00038a90   00000000
BSS32                  BSS            DGROUP         0002:00038a90   000006b0
c_common               BSS            DGROUP         0002:00039140   00000000
________BSS            BSS            DGROUP         0002:00039140   00000000


                        +----------------+
                        |   Memory Map   |
                        +----------------+

* = unreferenced symbol
+ = symbol only referenced locally

Address        Symbol
=======        ======

Module: E:\dev\gcc061\lib\dll0hi.obj({standard input})
0001:00000000* __text
0002:00000000* __data
0002:00000000* ___data_start
0002:00038a90* ___bss_start
0002:00038890+ __os2dll
0002:00038898  ___CTOR_LIST__
0002:000388a8  ___DTOR_LIST__
0002:000388b8* ___crtinit1__
0002:000388c0* ___crtexit1__
0002:000388c8  ___eh_frame__
0002:00038a60  ___eh_init__
0002:00038a6c  ___eh_term__
0002:00038a78+ ___fork_parent1__
0002:00038a80+ ___fork_child1__
Module: E:\rd\dse\xapian-core-1.0.2\.libs\xapian.lib(backends\flint\flint_spellingwordslist.cc)
0001:000000a0  __ZN22FlintSpellingWordsListD2Ev
0001:00000148  __ZN22FlintSpellingWordsListD1Ev
0001:000001f0  __ZN22FlintSpellingWordsListD0Ev
0001:000002d2  __ZNK22FlintSpellingWordsList15get_approx_sizeEv
0001:00000418  __ZNK22FlintSpellingWordsList12get_termnameEv
0001:0000046a  __ZNK22FlintSpellingWordsList12get_termfreqEv
0001:00000654  __ZNK22FlintSpellingWordsList19get_collection_freqEv
0001:0000079a  __ZN22FlintSpellingWordsList4nextEv
0001:000007f4  __ZN22FlintSpellingWordsList7skip_toERKSs
0001:000008a4  __ZNK22FlintSpellingWordsList6at_endEv
0001:00000980  __ZTV22FlintSpellingWordsList$w$DgAcLa1XRM5sXExp4
0001:000008be* __ZN6Xapian8Internal9RefCntPtrIKNS_8Database8InternalEED1Ev$w$DgAcLa1XRM5sXExp4
0001:00000a3c* __ZN6Xapian18UnimplementedErrorC1ERKSsS2_i$w$DgAcLa1XRM5sXExp4
0001:00000a16* __ZN6Xapian18UnimplementedErrorD1Ev$w$DgAcLa1XRM5sXExp4
0001:00000c1c* __ZTIN6Xapian18UnimplementedErrorE$w$DgAcLa1XRM5sXExp4
0001:00000908* __Z16unpack_uint_lastIjEbPPKcS1_PT_$w$DgAcLa1XRM5sXExp4
0001:00000a94* __ZN6Xapian20DatabaseCorruptErrorC1ERKSsS2_i$w$DgAcLa1XRM5sXExp4
0001:00000a6c* __ZN6Xapian20DatabaseCorruptErrorD1Ev$w$DgAcLa1XRM5sXExp4
0001:00000c28* __ZTIN6Xapian20DatabaseCorruptErrorE$w$DgAcLa1XRM5sXExp4
0001:000009e6* __ZN6Xapian21InvalidOperationErrorC1ERKSsS2_i$w$DgAcLa1XRM5sXExp4
0001:000009bc* __ZN6Xapian21InvalidOperationErrorD1Ev$w$DgAcLa1XRM5sXExp4
0001:00000c34* __ZTIN6Xapian21InvalidOperationErrorE$w$DgAcLa1XRM5sXExp4
0001:00000ad0* __ZNK11FlintCursor9after_endEv$w$DgAcLa1XRM5sXExp4
0001:00000adc  __Z10startswithRKSsc$w$DgAcLa1XRM5sXExp4
0001:00000ac4* __ZN11FlintCursor6to_endEv$w$DgAcLa1XRM5sXExp4
0001:00000b28* __ZStplIcSt11char_traitsIcESaIcEESbIT_T0_T1_EPKS3_RKS6_$w$DgAcLa1XRM5sXExp4
0001:00000c10  __ZTI22FlintSpellingWordsList$w$DgAcLa1XRM5sXExp4
0001:00000d0c* __ZN6Xapian10LogicErrorD2Ev$w$DgAcLa1XRM5sXExp4
0001:00000d20* __ZN6Xapian10LogicErrorC2ERKSsS2_PKci$w$DgAcLa1XRM5sXExp4
0001:00000d50* __ZN6Xapian13DatabaseErrorD2Ev$w$DgAcLa1XRM5sXExp4
0001:00000d64* __ZN6Xapian13DatabaseErrorC2ERKSsS2_PKci$w$DgAcLa1XRM5sXExp4
0001:00000cf8* __ZNSt11char_traitsIcE6lengthEPKc$w$DgAcLa1XRM5sXExp4
0001:00000bc0* __ZNSs6appendIPKcEERSsT_S3_$w$DgAcLa1XRM5sXExp4
0001:00000cbe  __ZTS22FlintSpellingWordsList$w$DgAcLa1XRM5sXExp4
0001:00000d94* __ZTI12AllTermsList$w$DgAcLa1XRM5sXExp4
0001:00000ca0* __ZTSN6Xapian18UnimplementedErrorE$w$DgAcLa1XRM5sXExp4
0001:00000da0* __ZTIN6Xapian10LogicErrorE$w$DgAcLa1XRM5sXExp4
0001:00000c80* __ZTSN6Xapian20DatabaseCorruptErrorE$w$DgAcLa1XRM5sXExp4
0001:00000dac* __ZTIN6Xapian13DatabaseErrorE$w$DgAcLa1XRM5sXExp4
0001:00000c40* __ZTSN6Xapian21InvalidOperationErrorE$w$DgAcLa1XRM5sXExp4
0001:00000cf4* __ZNSt15basic_streambufIcSt11char_traitsIcEE13_S_pback_sizeE$w$DgAcLa1XRM5sXExp4
0001:00000df6* __ZN6Xapian5ErrorD2Ev$w$DgAcLa1XRM5sXExp4
0001:00000e26* __ZN6Xapian5ErrorC2ERKSsS2_PKci$w$DgAcLa1XRM5sXExp4
0001:00000ea2* __ZN6Xapian12RuntimeErrorD2Ev$w$DgAcLa1XRM5sXExp4
0001:00000eb6* __ZN6Xapian12RuntimeErrorC2ERKSsS2_PKci$w$DgAcLa1XRM5sXExp4
0001:00000de7* __ZTS12AllTermsList$w$DgAcLa1XRM5sXExp4
0001:00000f00* __ZTIN6Xapian12TermIterator8InternalE$w$DgAcLa1XRM5sXExp4
0001:00000dd1* __ZTSN6Xapian10LogicErrorE$w$DgAcLa1XRM5sXExp4
0001:00000f2c* __ZTIN6Xapian5ErrorE$w$DgAcLa1XRM5sXExp4
0001:00000db8* __ZTSN6Xapian13DatabaseErrorE$w$DgAcLa1XRM5sXExp4
0001:00000f20* __ZTIN6Xapian12RuntimeErrorE$w$DgAcLa1XRM5sXExp4
0001:00000f60* __ZTSN6Xapian12TermIterator8InternalE$w$DgAcLa1XRM5sXExp4
0001:00000f84* __ZTIN6Xapian8Internal10RefCntBaseE$w$DgAcLa1XRM5sXExp4
0001:00000f44* __ZTSN6Xapian12RuntimeErrorE$w$DgAcLa1XRM5sXExp4
0001:00000f34* __ZTSN6Xapian5ErrorE$w$DgAcLa1XRM5sXExp4
0001:00000f8c* __ZTSN6Xapian8Internal10RefCntBaseE$w$DgAcLa1XRM5sXExp4
0002:00038a90* __ZN16__Atomicity_lockILi0EE17_S_atomicity_lockE$w$DgAcLa1XRM5sXExp4
Module: E:\rd\dse\xapian-core-1.0.2\.libs\xapian.lib(api\valuerangeproc.cc)
0001:00001246  __ZN6Xapian23DateValueRangeProcessorclERSsS1_
0001:0000179a  __ZN6Xapian4v10225NumberValueRangeProcessorclERSsS2_
0001:00001a8e* __ZSt4swapIiEvRT_S1_$w$VrdIhuLWRM5FgTjC4
0001:00001bc8  __Z10startswithRKSsS0_$w$VrdIhuLWRM5FgTjC4
0001:00001c04  __Z8endswithRKSsS0_$w$VrdIhuLWRM5FgTjC4
0001:00001ab0  __ZTVN6Xapian4v10225NumberValueRangeProcessorE$w$VrdIhuLWRM5FgTjC4
0001:00001c4c  __ZTIN6Xapian4v10225NumberValueRangeProcessorE$w$VrdIhuLWRM5FgTjC4
0001:00001b44  __ZN6Xapian4v10225NumberValueRangeProcessorD1Ev$w$VrdIhuLWRM5FgTjC4
0001:00001b86  __ZN6Xapian4v10225NumberValueRangeProcessorD0Ev$w$VrdIhuLWRM5FgTjC4
0001:00001ac8  __ZTVN6Xapian23DateValueRangeProcessorE$w$VrdIhuLWRM5FgTjC4
0001:00001c40  __ZTIN6Xapian23DateValueRangeProcessorE$w$VrdIhuLWRM5FgTjC4
0001:00001adc  __ZN6Xapian23DateValueRangeProcessorD1Ev$w$VrdIhuLWRM5FgTjC4
0001:00001b10  __ZN6Xapian23DateValueRangeProcessorD0Ev$w$VrdIhuLWRM5FgTjC4
0001:00001cec  __Z10startswithRKSsPKcj$w$VrdIhuLWRM5FgTjC4
0001:00001d3c  __Z8endswithRKSsPKcj$w$VrdIhuLWRM5FgTjC4
0001:00001cc0  __ZTSN6Xapian23DateValueRangeProcessorE$w$VrdIhuLWRM5FgTjC4
0001:00001da4  __ZTIN6Xapian19ValueRangeProcessorE$w$VrdIhuLWRM5FgTjC4
0001:00001c80  __ZTSN6Xapian4v10225NumberValueRangeProcessorE$w$VrdIhuLWRM5FgTjC4
0001:00001ce8* __ZNSt15basic_streambufIcSt11char_traitsIcEE13_S_pback_sizeE$w$VrdIhuLWRM5FgTjC4
0001:00001dac  __ZTSN6Xapian19ValueRangeProcessorE$w$VrdIhuLWRM5FgTjC4
0002:00038aa0* __ZN16__Atomicity_lockILi0EE17_S_atomicity_lockE$w$VrdIhuLWRM5FgTjC4
Module: E:\rd\dse\xapian-core-1.0.2\.libs\xapian.lib(queryparser\queryparser_internal.cc)
0001:00001de0  __ZNK4Term9make_termEv
0001:00001f48  __ZNK4Term22as_query_with_synonymsEv
0001:00002494  __ZNK4Term27as_query_with_auto_synonymsEv
0001:00002650  __ZNK4Term19as_wildcarded_queryEP5State
0001:000028e0  __ZNK4Term16as_partial_queryEP5State
0001:00002b94  __ZN6Xapian11QueryParser8Internal10parse_termERNS_12Utf8IteratorERKS2_Rb
0001:000030c8  __ZN6Xapian11QueryParser8Internal11parse_queryERKSsjS3_
0001:0000550c  __ZNK9TermGroup8as_groupEP5State
0001:00008c68  __Z18prefix_needs_colonRKSsj$w$XSAxnXNXRM55llnC4
0001:0000902c  __ZN5State9stem_termERKSs$w$XSAxnXNXRM55llnC4
0001:00009182  __ZN5State13add_to_unstemERKSsS1_$w$XSAxnXNXRM55llnC4
0001:00008f6e  __ZNK4Term15as_query_objectEv$w$XSAxnXNXRM55llnC4
0001:00009530  __ZNK5State12get_databaseEv$w$XSAxnXNXRM55llnC4
0001:000087f6  __ZNK6Xapian8Database12synonyms_endERKSs$w$XSAxnXNXRM55llnC4
0001:00008782* __ZN6XapianeqERKNS_12TermIteratorES2_$w$XSAxnXNXRM55llnC4
0001:000087b2* __ZN6XapianneERKNS_12TermIteratorES2_$w$XSAxnXNXRM55llnC4
0001:00008ebe  __ZNK4Term8as_queryEv$w$XSAxnXNXRM55llnC4
0001:000087d2  __ZNK6Xapian8Database12allterms_endERKSs$w$XSAxnXNXRM55llnC4
0001:00008d24  __ZN4TermD1Ev$w$XSAxnXNXRM55llnC4
0001:00008b5a  __Z9U_isupperj$w$XSAxnXNXRM55llnC4
0001:000088f4  __ZN6Xapian12Utf8IteratorppEi$w$XSAxnXNXRM55llnC4
0001:000089f6  __ZN6Xapian7Unicode11append_utf8ERSsj$w$XSAxnXNXRM55llnC4
0001:000089e0* __ZNK6Xapian12Utf8IteratorneERKS0_$w$XSAxnXNXRM55llnC4
0001:0000897a* __ZN6Xapian12Utf8IteratorppEv$w$XSAxnXNXRM55llnC4
0001:000089ca* __ZNK6Xapian12Utf8IteratoreqERKS0_$w$XSAxnXNXRM55llnC4
0001:00008a26  __ZN6Xapian7Unicode11is_wordcharEj$w$XSAxnXNXRM55llnC4
0001:0000816c* __ZSt4swapIcSt11char_traitsIcESaIcEEvRSbIT_T0_T1_ES7_$w$XSAxnXNXRM55llnC4
0001:00008c1a  __Z8is_digitj$w$XSAxnXNXRM55llnC4
0001:00009688  __Z17check_infix_digitj$w$XSAxnXNXRM55llnC4
0001:00009628  __Z11check_infixj$w$XSAxnXNXRM55llnC4
0001:00008c40  __Z9is_suffixj$w$XSAxnXNXRM55llnC4
0001:00008aa0  __ZN6Xapian7Unicode7tolowerERKSs$w$XSAxnXNXRM55llnC4
0001:00008186  __ZNKSt4listIPN6Xapian19ValueRangeProcessorESaIS2_EE5emptyEv$w$XSAxnXNXRM55llnC4
0001:0000889a* __ZN6Xapian12Utf8IteratorC1ERKSs$w$XSAxnXNXRM55llnC4
0001:000088d2* __ZN6Xapian12Utf8IteratorC1Ev$w$XSAxnXNXRM55llnC4
0001:00008ffa  __ZN5StateC1EPN6Xapian11QueryParser8InternalEj$w$XSAxnXNXRM55llnC4
0001:00008132* __ZNSaISsEC1Ev$w$XSAxnXNXRM55llnC4
0001:0000813e* __ZNSt4listISsSaISsEEC1ERKS0_$w$XSAxnXNXRM55llnC4
0001:00008138* __ZNSaISsED1Ev$w$XSAxnXNXRM55llnC4
0001:0000905e* __ZNSt4listISsSaISsEE9push_backERKSs$w$XSAxnXNXRM55llnC4
0001:0000819e* __ZNSt6vectorISsSaISsEEC1ERKS0_$w$XSAxnXNXRM55llnC4
0001:00008a50  __ZN6Xapian7Unicode13is_whitespaceEj$w$XSAxnXNXRM55llnC4
0001:00008bea  __Z17is_not_whitespacej$w$XSAxnXNXRM55llnC4
0001:00008208  __ZSt7find_ifIN6Xapian12Utf8IteratorEPFbjEET_S4_S4_T0_$w$XSAxnXNXRM55llnC4
0001:00008d56  __ZN4TermC1ERKSs$w$XSAxnXNXRM55llnC4
0001:00008a7a  __ZN6Xapian7Unicode11is_currencyEj$w$XSAxnXNXRM55llnC4
0001:0000826a  __ZNSt4listISsSaISsEE8pop_backEv$w$XSAxnXNXRM55llnC4
0001:000082c2  __ZNSt4listISsSaISsEE4backEv$w$XSAxnXNXRM55llnC4
0001:000082f2  __ZNKSt4listISsSaISsEE4sizeEv$w$XSAxnXNXRM55llnC4
0001:00008876  __ZNK6Xapian12Utf8Iterator3rawEv$w$XSAxnXNXRM55llnC4
0001:00008328  __ZNKSt3mapISs10PrefixInfoSt4lessISsESaISt4pairIKSsS0_EEE5emptyEv$w$XSAxnXNXRM55llnC4
0001:00008c02  __Z15is_not_wordcharj$w$XSAxnXNXRM55llnC4
0001:0000833e  __ZNSt17_Rb_tree_iteratorISt4pairIKSs10PrefixInfoERKS3_PS4_EC1Ev$w$XSAxnXNXRM55llnC4
0001:00008352  __ZNSt3mapISs10PrefixInfoSt4lessISsESaISt4pairIKSsS0_EEE4findERS4_$w$XSAxnXNXRM55llnC4
0001:0000837e  __ZNSt17_Rb_tree_iteratorISt4pairIKSs10PrefixInfoERKS3_PS4_EC1ERKS_IS3_RS3_PS3_E$w$XSAxnXNXRM55llnC4
0001:0000839c  __ZNSt3mapISs10PrefixInfoSt4lessISsESaISt4pairIKSsS0_EEE3endEv$w$XSAxnXNXRM55llnC4
0001:000083c2  __ZStneISt4pairIKSs10PrefixInfoEEbRKSt17_Rb_tree_iteratorIT_RKS5_PS6_ERKS4_IS5_RS5_PS5_E$w$XSAxnXNXRM55llnC4
0001:000083d8  __ZNKSt17_Rb_tree_iteratorISt4pairIKSs10PrefixInfoERKS3_PS4_EptEv$w$XSAxnXNXRM55llnC4
0001:00008de2  __ZN4TermC1EP5StateRKSsS3_S3_bj$w$XSAxnXNXRM55llnC4
0001:00008bba  __Z9U_isalphaj$w$XSAxnXNXRM55llnC4
0001:000083ec  __ZN9__gnu_cxxneIPcSsEEbRKNS_17__normal_iteratorIT_T0_EES7_$w$XSAxnXNXRM55llnC4
0001:0000842c  __ZNK9__gnu_cxx17__normal_iteratorIPcSsEdeEv$w$XSAxnXNXRM55llnC4
0001:00008768  __Z9C_toupperc$w$XSAxnXNXRM55llnC4
0001:0000841e  __ZN9__gnu_cxx17__normal_iteratorIPcSsEppEv$w$XSAxnXNXRM55llnC4
0001:00008436* __ZSteqIcSt11char_traitsIcESaIcEEbRKSbIT_T0_T1_EPKS3_$w$XSAxnXNXRM55llnC4
0001:00008b8a  __Z9U_isdigitj$w$XSAxnXNXRM55llnC4
0001:00008da0  __ZN4TermC1Ej$w$XSAxnXNXRM55llnC4
0001:00008464* __ZNK6Xapian8Internal9RefCntPtrINS_4Stem8InternalEE3getEv$w$XSAxnXNXRM55llnC4
0001:000095e4  __Z11should_stemRKSs$w$XSAxnXNXRM55llnC4
0001:000095a8  __Z17is_stem_preventerj$w$XSAxnXNXRM55llnC4
0001:00009560  __Z19is_phrase_generatorj$w$XSAxnXNXRM55llnC4
0001:000081b8* __ZNSt6vectorISsSaISsEED1Ev$w$XSAxnXNXRM55llnC4
0001:00008158* __ZNSt4listISsSaISsEED1Ev$w$XSAxnXNXRM55llnC4
0001:00008fe4  __ZN5StateD1Ev$w$XSAxnXNXRM55llnC4
0001:000094d6  __ZNK5State10default_opEv$w$XSAxnXNXRM55llnC4
0001:000084a6  __ZNKSt4listIP4TermSaIS1_EE5beginEv$w$XSAxnXNXRM55llnC4
0001:000084c8  __ZNKSt4listIP4TermSaIS1_EE3endEv$w$XSAxnXNXRM55llnC4
0001:00008860* __ZNKSt19_List_iterator_baseneERKS_$w$XSAxnXNXRM55llnC4
0001:00008498  __ZNKSt14_List_iteratorIP4TermRKS1_PS2_EdeEv$w$XSAxnXNXRM55llnC4
0001:00008482  __ZNSt14_List_iteratorIP4TermRKS1_PS2_EppEv$w$XSAxnXNXRM55llnC4
0001:000084e8  __ZNSt14_List_iteratorIP4TermRKS1_PS2_EmmEv$w$XSAxnXNXRM55llnC4
0001:0000884a  __ZNKSt19_List_iterator_baseeqERKS_$w$XSAxnXNXRM55llnC4
0001:000094e4  __ZNK5State11is_stopwordEPK4Term$w$XSAxnXNXRM55llnC4
0001:00009160  __ZN5State15add_to_stoplistEPK4Term$w$XSAxnXNXRM55llnC4
0001:0000846e  __ZNSt14_List_iteratorIP4TermRKS1_PS2_EC1Ev$w$XSAxnXNXRM55llnC4
0001:000099b0  __ZN9TermGroupD1Ev$w$XSAxnXNXRM55llnC4
0001:00009798  __ZN9ProbQueryD1Ev$w$XSAxnXNXRM55llnC4
0001:00009dde  __ZN8TermList7destroyEv$w$XSAxnXNXRM55llnC4
0001:00009a62  __ZN9TermGroup7destroyEv$w$XSAxnXNXRM55llnC4
0001:000084fe  __ZSt4swapIPN6Xapian5QueryEEvRT_S4_$w$XSAxnXNXRM55llnC4
0001:00008520  __ZNKSt3mapI15filter_group_idN6Xapian5QueryESt4lessIS0_ESaISt4pairIKS0_S2_EEE5emptyEv$w$XSAxnXNXRM55llnC4
0001:00009846  __ZNK9ProbQuery13merge_filtersEv$w$XSAxnXNXRM55llnC4
0001:000092c0  __ZN5State11value_rangeERN6Xapian5QueryEP4TermS4_$w$XSAxnXNXRM55llnC4
0001:00009764  __ZN9ProbQueryC1Ev$w$XSAxnXNXRM55llnC4
0001:00008d08  __ZN15filter_group_idC1Ej$w$XSAxnXNXRM55llnC4
0001:00008536  __ZNSt3mapI15filter_group_idN6Xapian5QueryESt4lessIS0_ESaISt4pairIKS0_S2_EEEixERS6_$w$XSAxnXNXRM55llnC4
0001:00008cf4  __ZN15filter_group_idD1Ev$w$XSAxnXNXRM55llnC4
0001:00008e98  __ZNK4Term19get_filter_group_idEv$w$XSAxnXNXRM55llnC4
0001:00009b6a  __ZNK8TermList15as_phrase_queryEv$w$XSAxnXNXRM55llnC4
0001:00009c2a  __ZNK8TermList13as_near_queryEv$w$XSAxnXNXRM55llnC4
0001:00009d04  __ZNK8TermList12as_adj_queryEv$w$XSAxnXNXRM55llnC4
0001:00009aca  __ZN8TermListC1Ev$w$XSAxnXNXRM55llnC4
0001:00009b2a  __ZN8TermList18add_unstemmed_termEP4Term$w$XSAxnXNXRM55llnC4
0001:00009940  __ZN9TermGroupC1Ev$w$XSAxnXNXRM55llnC4
0001:00009996  __ZN9TermGroup8add_termEP4Term$w$XSAxnXNXRM55llnC4
0001:00008e8c  __ZNK4Term11get_termposEv$w$XSAxnXNXRM55llnC4
0001:00009b50  __ZN8TermList13adjust_windowEj$w$XSAxnXNXRM55llnC4
0001:00009e02* __ZNSt10_List_baseISsSaISsEEC2ERKS0_$w$XSAxnXNXRM55llnC4
0001:00009e50* __ZNSt10_List_baseISsSaISsEED2Ev$w$XSAxnXNXRM55llnC4
0001:00009fc4* __ZNSt12_Vector_baseISsSaISsEEC2ERKS0_$w$XSAxnXNXRM55llnC4
0001:000086ac* __ZSt8_DestroyIPSsEvT_S1_$w$XSAxnXNXRM55llnC4
0001:0000a000* __ZNSt12_Vector_baseISsSaISsEED2Ev$w$XSAxnXNXRM55llnC4
0001:0000a072  __ZSt19__iterator_categoryIN6Xapian12Utf8IteratorEENSt15iterator_traitsIT_E17iterator_categoryERKS3_$w$XSAxnXNXRM55llnC4
0001:0000a07e  __ZSt7find_ifIN6Xapian12Utf8IteratorEPFbjEET_S4_S4_T0_St18input_iterator_tag$w$XSAxnXNXRM55llnC4
0001:000090a2* __ZNSt4listISsSaISsEE3endEv$w$XSAxnXNXRM55llnC4
0001:0000a0e0  __ZNSt14_List_iteratorISsRSsPSsEmmEv$w$XSAxnXNXRM55llnC4
0001:000090e2  __ZNSt14_List_iteratorISsRSsPSsEC1ERKS2_$w$XSAxnXNXRM55llnC4
0001:0000a0f6  __ZNSt4listISsSaISsEE5eraseESt14_List_iteratorISsRSsPSsE$w$XSAxnXNXRM55llnC4
0001:0000a162  __ZNKSt14_List_iteratorISsRSsPSsEdeEv$w$XSAxnXNXRM55llnC4
0001:0000a1ac  __ZNKSt4listISsSaISsEE3endEv$w$XSAxnXNXRM55llnC4
0001:0000a170  __ZNKSt4listISsSaISsEE5beginEv$w$XSAxnXNXRM55llnC4
0001:0000a1cc* __ZSt8distanceISt14_List_iteratorISsRKSsPS1_EENSt15iterator_traitsIT_E15difference_typeES6_S6_$w$XSAxnXNXRM55llnC4
0001:0000a25a  __ZNKSt8_Rb_treeISsSt4pairIKSs10PrefixInfoESt10_Select1stIS3_ESt4lessISsESaIS3_EE5emptyEv$w$XSAxnXNXRM55llnC4
0001:0000881a* __ZNSt22_Rb_tree_base_iteratorC2Ev$w$XSAxnXNXRM55llnC4
0001:0000a292  __ZNSt8_Rb_treeISsSt4pairIKSs10PrefixInfoESt10_Select1stIS3_ESt4lessISsESaIS3_EE4findERS1_$w$XSAxnXNXRM55llnC4
0001:0000a26c  __ZNSt8_Rb_treeISsSt4pairIKSs10PrefixInfoESt10_Select1stIS3_ESt4lessISsESaIS3_EE3endEv$w$XSAxnXNXRM55llnC4
0001:0000a3a4  __ZNKSt17_Rb_tree_iteratorISt4pairIKSs10PrefixInfoERKS3_PS4_EdeEv$w$XSAxnXNXRM55llnC4
0001:0000a3b2  __ZNK9__gnu_cxx17__normal_iteratorIPcSsE4baseEv$w$XSAxnXNXRM55llnC4
0001:00008820* __ZNSt19_List_iterator_baseC2Ev$w$XSAxnXNXRM55llnC4
0001:00008826* __ZNSt19_List_iterator_base7_M_incrEv$w$XSAxnXNXRM55llnC4
0001:0000a400  __ZNSt14_List_iteratorIP4TermRKS1_PS2_EC1EPSt10_List_nodeIS1_E$w$XSAxnXNXRM55llnC4
0001:00008838  __ZNSt19_List_iterator_base7_M_decrEv$w$XSAxnXNXRM55llnC4
0001:0000a4e8  __ZNKSt8_Rb_treeI15filter_group_idSt4pairIKS0_N6Xapian5QueryEESt10_Select1stIS5_ESt4lessIS0_ESaIS5_EE5emptyEv$w$XSAxnXNXRM55llnC4
0001:0000a4fa  __ZNSt3mapI15filter_group_idN6Xapian5QueryESt4lessIS0_ESaISt4pairIKS0_S2_EEE11lower_boundERS6_$w$XSAxnXNXRM55llnC4
0001:0000a62a  __ZNSt3mapI15filter_group_idN6Xapian5QueryESt4lessIS0_ESaISt4pairIKS0_S2_EEE3endEv$w$XSAxnXNXRM55llnC4
0001:0000a676  __ZSteqISt4pairIK15filter_group_idN6Xapian5QueryEERS5_PS5_EbRKSt17_Rb_tree_iteratorIT_T0_T1_ESE_$w$XSAxnXNXRM55llnC4
0001:0000a5f6  __ZNKSt17_Rb_tree_iteratorISt4pairIK15filter_group_idN6Xapian5QueryEERS5_PS5_EdeEv$w$XSAxnXNXRM55llnC4
0001:0000a604  __ZNKSt3mapI15filter_group_idN6Xapian5QueryESt4lessIS0_ESaISt4pairIKS0_S2_EEE8key_compEv$w$XSAxnXNXRM55llnC4
0001:0000a526  __ZNKSt4lessI15filter_group_idEclERKS0_S3_$w$XSAxnXNXRM55llnC4
0001:000086cc  __ZNSt4pairIK15filter_group_idN6Xapian5QueryEEC1ERS1_RKS3_$w$XSAxnXNXRM55llnC4
0001:0000a544  __ZNSt17_Rb_tree_iteratorISt4pairIK15filter_group_idN6Xapian5QueryEERS5_PS5_EC1ERKS8_$w$XSAxnXNXRM55llnC4
0001:00008722  __ZNSt3mapI15filter_group_idN6Xapian5QueryESt4lessIS0_ESaISt4pairIKS0_S2_EEE6insertESt17_Rb_tree_iteratorIS7_RS7_PS7_ERKS7_$w$XSAxnXNXRM55llnC4
0001:0000971c  __ZNSt4pairIK15filter_group_idN6Xapian5QueryEED1Ev$w$XSAxnXNXRM55llnC4
0001:0000a68c* __ZSt13__destroy_auxIPSsEvT_S1_12__false_type$w$XSAxnXNXRM55llnC4
0001:00008cce  __ZN15filter_group_idC1ERKS_$w$XSAxnXNXRM55llnC4
0001:0000a6be  __ZNSt8_Rb_treeI15filter_group_idSt4pairIKS0_N6Xapian5QueryEESt10_Select1stIS5_ESt4lessIS0_ESaIS5_EE13insert_uniqueESt17_Rb_tree_iteratorIS5_RS5_PS5_ERKS5_$w$XSAxnXNXRM55llnC4
0001:0000b0b8* __ZNK6Xapian8Internal9RefCntPtrINS_12TermIterator8InternalEE3getEv$w$XSAxnXNXRM55llnC4
0001:0000b26a* __ZN6Xapian12Utf8Iterator6assignEPKcj$w$XSAxnXNXRM55llnC4
0001:0000b24a  __ZN6Xapian12Utf8IteratorC1EPKhS2_j$w$XSAxnXNXRM55llnC4
0001:0000b2a0  __ZN6Xapian7Unicode7to_utf8EjPc$w$XSAxnXNXRM55llnC4
0001:0000b2d8  __ZN6Xapian7Unicode12get_categoryEj$w$XSAxnXNXRM55llnC4
0001:0000b30c  __ZN6Xapian7Unicode7tolowerEj$w$XSAxnXNXRM55llnC4
0001:0000b068  __Z9C_isupperc$w$XSAxnXNXRM55llnC4
0001:0000b048  __Z9C_isdigitc$w$XSAxnXNXRM55llnC4
0001:0000b088  __Z9C_isalphac$w$XSAxnXNXRM55llnC4
0001:0000b35a  __ZN15filter_group_idC1ERKSs$w$XSAxnXNXRM55llnC4
0001:000090fe* __ZNSt4listISsSaISsEE6insertESt14_List_iteratorISsRSsPSsERKSs$w$XSAxnXNXRM55llnC4
0001:000090c8* __ZNSt14_List_iteratorISsRSsPSsEC1EPSt10_List_nodeISsE$w$XSAxnXNXRM55llnC4
0001:0000b21a* __ZNSt19_List_iterator_baseC2EPSt15_List_node_base$w$XSAxnXNXRM55llnC4
0001:0000b3da* __ZNSt4listISsSaISsEE14_M_create_nodeERKSs$w$XSAxnXNXRM55llnC4
0001:00009efc  __ZSt9make_pairISsSsESt4pairIT_T0_ES1_S2_$w$XSAxnXNXRM55llnC4
0001:0000b4b4  __ZNSt4pairIKSsSsEC1ISsSsEERKS_IT_T0_E$w$XSAxnXNXRM55llnC4
0001:00009f26  __ZNSt8multimapISsSsSt4lessISsESaISt4pairIKSsSsEEE6insertERKS4_$w$XSAxnXNXRM55llnC4
0001:0000b228* __ZNSt4pairIKSsSsED1Ev$w$XSAxnXNXRM55llnC4
0001:0000b492  __ZNSt4pairISsSsED1Ev$w$XSAxnXNXRM55llnC4
0001:0000b50c  __ZNSt14_List_iteratorIPN6Xapian19ValueRangeProcessorERKS2_PS3_EC1Ev$w$XSAxnXNXRM55llnC4
0001:00009f52  __ZNSt4listIPN6Xapian19ValueRangeProcessorESaIS2_EE5beginEv$w$XSAxnXNXRM55llnC4
0001:0000b520  __ZNSt14_List_iteratorIPN6Xapian19ValueRangeProcessorERKS2_PS3_EC1ERKS_IS2_RS2_PS2_E$w$XSAxnXNXRM55llnC4
0001:00009f7a* __ZNSt4listIPN6Xapian19ValueRangeProcessorESaIS2_EE3endEv$w$XSAxnXNXRM55llnC4
0001:00009fb6  __ZNKSt14_List_iteratorIPN6Xapian19ValueRangeProcessorERKS2_PS3_EdeEv$w$XSAxnXNXRM55llnC4
0001:00009fa0  __ZNSt14_List_iteratorIPN6Xapian19ValueRangeProcessorERKS2_PS3_EppEv$w$XSAxnXNXRM55llnC4
0001:0000b550  __ZNSt3mapI15filter_group_idN6Xapian5QueryESt4lessIS0_ESaISt4pairIKS0_S2_EEEC1Ev$w$XSAxnXNXRM55llnC4
0001:0000b53c  __ZNSt3mapI15filter_group_idN6Xapian5QueryESt4lessIS0_ESaISt4pairIKS0_S2_EEED1Ev$w$XSAxnXNXRM55llnC4
0001:0000b76e  __ZNKSt3mapI15filter_group_idN6Xapian5QueryESt4lessIS0_ESaISt4pairIKS0_S2_EEE5beginEv$w$XSAxnXNXRM55llnC4
0001:0000b7da  __ZNKSt17_Rb_tree_iteratorISt4pairIK15filter_group_idN6Xapian5QueryEERKS5_PS6_EptEv$w$XSAxnXNXRM55llnC4
0001:0000a3d0  __ZNKSt3mapI15filter_group_idN6Xapian5QueryESt4lessIS0_ESaISt4pairIKS0_S2_EEE3endEv$w$XSAxnXNXRM55llnC4
0001:0000a3ba  __ZNSt17_Rb_tree_iteratorISt4pairIK15filter_group_idN6Xapian5QueryEERKS5_PS6_EppEv$w$XSAxnXNXRM55llnC4
0001:0000a3ea  __ZStneISt4pairIK15filter_group_idN6Xapian5QueryEERKS5_PS6_EbRKSt17_Rb_tree_iteratorIT_T0_T1_ESF_$w$XSAxnXNXRM55llnC4
0001:0000b7fc  __ZNSaIP4TermEC1Ev$w$XSAxnXNXRM55llnC4
0001:0000b808  __ZNSt4listIP4TermSaIS1_EEC1ERKS2_$w$XSAxnXNXRM55llnC4
0001:0000b802  __ZNSaIP4TermED1Ev$w$XSAxnXNXRM55llnC4
0001:0000b8c8  __ZNSt4listIP4TermSaIS1_EE9push_backERKS1_$w$XSAxnXNXRM55llnC4
0001:00009a86  __ZNSt4listIP4TermSaIS1_EE5beginEv$w$XSAxnXNXRM55llnC4
0001:00009aae  __ZNSt14_List_iteratorIP4TermRKS1_PS2_EC1ERKS_IS1_RS1_PS1_E$w$XSAxnXNXRM55llnC4
0001:0000b90c  __ZNSt4listIP4TermSaIS1_EE3endEv$w$XSAxnXNXRM55llnC4
0001:0000b8b4  __ZNSt4listIP4TermSaIS1_EED1Ev$w$XSAxnXNXRM55llnC4
0001:0000b932  __ZNSt14_List_iteratorIP4TermRS1_PS1_EC1EPSt10_List_nodeIS1_E$w$XSAxnXNXRM55llnC4
0001:0000b9ae  __ZNSaIN6Xapian5QueryEEC1Ev$w$XSAxnXNXRM55llnC4
0001:0000b9ba  __ZNSt4listIN6Xapian5QueryESaIS1_EEC1ERKS2_$w$XSAxnXNXRM55llnC4
0001:0000b9b4  __ZNSaIN6Xapian5QueryEED1Ev$w$XSAxnXNXRM55llnC4
0001:0000b3ce  __ZN4Term9dont_stemEv$w$XSAxnXNXRM55llnC4
0001:0000ba66  __ZN8TermList8add_termEP4Term$w$XSAxnXNXRM55llnC4
0001:0000bb44  __ZNKSt4listIN6Xapian5QueryESaIS1_EE4sizeEv$w$XSAxnXNXRM55llnC4
0001:0000bb24  __ZNKSt4listIN6Xapian5QueryESaIS1_EE3endEv$w$XSAxnXNXRM55llnC4
0001:0000bae8  __ZNKSt4listIN6Xapian5QueryESaIS1_EE5beginEv$w$XSAxnXNXRM55llnC4
0001:0000a41a  __ZN6Xapian5QueryC1ISt14_List_iteratorIS0_RKS0_PS3_EEENS0_2opET_S8_j$w$XSAxnXNXRM55llnC4
0001:0000bc08  __ZN8TermListD1Ev$w$XSAxnXNXRM55llnC4
0001:00009e4a* __ZNSt16_List_alloc_baseISsSaISsELb1EEC2ERKS0_$w$XSAxnXNXRM55llnC4
0001:0000b44e* __ZNSt16_List_alloc_baseISsSaISsELb1EE11_M_get_nodeEv$w$XSAxnXNXRM55llnC4
0001:00009e94* __ZNSt10_List_baseISsSaISsEE7__clearEv$w$XSAxnXNXRM55llnC4
0001:00009e78* __ZNSt16_List_alloc_baseISsSaISsELb1EE11_M_put_nodeEPSt10_List_nodeISsE$w$XSAxnXNXRM55llnC4
0001:0000bcac* __ZNSt14__simple_allocISt10_List_nodeISsESt24__default_alloc_templateILb1ELi0EEE10deallocateEPS1_j$w$XSAxnXNXRM55llnC4
0001:0000bc98* __ZSt8_DestroyISsEvPT_$w$XSAxnXNXRM55llnC4
0001:0000bcfc  __ZNSt4pairISsSsEC1ERKSsS2_$w$XSAxnXNXRM55llnC4
0001:0000bd52  __ZNSt8_Rb_treeISsSt4pairIKSsSsESt10_Select1stIS2_ESt4lessISsESaIS2_EE12insert_equalERKS2_$w$XSAxnXNXRM55llnC4
0001:0000be16* __ZNSt14_List_iteratorIPN6Xapian19ValueRangeProcessorERS2_PS2_EC1EPSt10_List_nodeIS2_E$w$XSAxnXNXRM55llnC4
0001:00009fde* __ZNSt18_Vector_alloc_baseISsSaISsELb1EEC2ERKS0_$w$XSAxnXNXRM55llnC4
0001:0000a030* __ZNSt18_Vector_alloc_baseISsSaISsELb1EE13_M_deallocateEPSsj$w$XSAxnXNXRM55llnC4
0001:0000a04a* __ZNSt14__simple_allocISsSt24__default_alloc_templateILb1ELi0EEE10deallocateEPSsj$w$XSAxnXNXRM55llnC4
0001:0000a192  __ZNSt14_List_iteratorISsRKSsPS0_EC1EPSt10_List_nodeISsE$w$XSAxnXNXRM55llnC4
0001:0000a1fa* __ZSt19__iterator_categoryISt14_List_iteratorISsRKSsPS1_EENSt15iterator_traitsIT_E17iterator_categoryERKS6_$w$XSAxnXNXRM55llnC4
0001:0000a206* __ZSt10__distanceISt14_List_iteratorISsRKSsPS1_EENSt15iterator_traitsIT_E15difference_typeES6_S6_St18input_iterator_tag$w$XSAxnXNXRM55llnC4
0001:0000a244* __ZNSt14_List_iteratorISsRKSsPS0_EppEv$w$XSAxnXNXRM55llnC4
0001:0000be66* __ZNSt17_Rb_tree_iteratorISt4pairIKSs10PrefixInfoERS3_PS3_EC1EPSt13_Rb_tree_nodeIS3_E$w$XSAxnXNXRM55llnC4
0001:0000bcd6* __ZNKSt8_Rb_treeISsSt4pairIKSs10PrefixInfoESt10_Select1stIS3_ESt4lessISsESaIS3_EE7_M_rootEv$w$XSAxnXNXRM55llnC4
0001:0000be30* __ZNSt8_Rb_treeISsSt4pairIKSs10PrefixInfoESt10_Select1stIS3_ESt4lessISsESaIS3_EE6_S_keyEPSt13_Rb_tree_nodeIS3_E$w$XSAxnXNXRM55llnC4
0001:0000b1de* __ZNKSt4lessISsEclERKSsS2_$w$XSAxnXNXRM55llnC4
0001:0000bcf0* __ZNSt8_Rb_treeISsSt4pairIKSs10PrefixInfoESt10_Select1stIS3_ESt4lessISsESaIS3_EE7_S_leftEPSt13_Rb_tree_nodeIS3_E$w$XSAxnXNXRM55llnC4
0001:0000bce4* __ZNSt8_Rb_treeISsSt4pairIKSs10PrefixInfoESt10_Select1stIS3_ESt4lessISsESaIS3_EE8_S_rightEPSt13_Rb_tree_nodeIS3_E$w$XSAxnXNXRM55llnC4
0001:0000bec2* __ZSteqISt4pairIKSs10PrefixInfoERS3_PS3_EbRKSt17_Rb_tree_iteratorIT_T0_T1_ESC_$w$XSAxnXNXRM55llnC4
0001:0000bea0* __ZNSt8_Rb_treeISsSt4pairIKSs10PrefixInfoESt10_Select1stIS3_ESt4lessISsESaIS3_EE6_S_keyEPSt18_Rb_tree_node_base$w$XSAxnXNXRM55llnC4
0001:0000be82* __ZNSt17_Rb_tree_iteratorISt4pairIKSs10PrefixInfoERS3_PS3_EC1ERKS6_$w$XSAxnXNXRM55llnC4
0001:0000b0c2* __ZNSt22_Rb_tree_base_iterator12_M_incrementEv$w$XSAxnXNXRM55llnC4
0001:0000bf6c  __ZNKSt8_Rb_treeI15filter_group_idSt4pairIKS0_N6Xapian5QueryEESt10_Select1stIS5_ESt4lessIS0_ESaIS5_EE3endEv$w$XSAxnXNXRM55llnC4
0001:0000bfd0* __ZN6Xapian8Internal9RefCntPtrINS_5Query8InternalEEC1EPS3_$w$XSAxnXNXRM55llnC4
0001:0000a6b0  __ZNKSt14_List_iteratorIN6Xapian5QueryERKS1_PS2_EdeEv$w$XSAxnXNXRM55llnC4
0001:0000bbf2  __ZNSt14_List_iteratorIN6Xapian5QueryERKS1_PS2_EppEv$w$XSAxnXNXRM55llnC4
0001:0000bfee* __ZN6Xapian8Internal9RefCntPtrINS_5Query8InternalEED1Ev$w$XSAxnXNXRM55llnC4
0001:0000a562  __ZNSt8_Rb_treeI15filter_group_idSt4pairIKS0_N6Xapian5QueryEESt10_Select1stIS5_ESt4lessIS0_ESaIS5_EE11lower_boundERS2_$w$XSAxnXNXRM55llnC4
0001:0000b37e  __ZNK15filter_group_idltERKS_$w$XSAxnXNXRM55llnC4
0001:0000bee0  __ZNKSt8_Rb_treeI15filter_group_idSt4pairIKS0_N6Xapian5QueryEESt10_Select1stIS5_ESt4lessIS0_ESaIS5_EE7_M_rootEv$w$XSAxnXNXRM55llnC4
0001:0000c03e  __ZNSt8_Rb_treeI15filter_group_idSt4pairIKS0_N6Xapian5QueryEESt10_Select1stIS5_ESt4lessIS0_ESaIS5_EE6_S_keyEPSt13_Rb_tree_nodeIS5_E$w$XSAxnXNXRM55llnC4
0001:0000bf08  __ZNSt8_Rb_treeI15filter_group_idSt4pairIKS0_N6Xapian5QueryEESt10_Select1stIS5_ESt4lessIS0_ESaIS5_EE7_S_leftEPSt13_Rb_tree_nodeIS5_E$w$XSAxnXNXRM55llnC4
0001:0000befc  __ZNSt8_Rb_treeI15filter_group_idSt4pairIKS0_N6Xapian5QueryEESt10_Select1stIS5_ESt4lessIS0_ESaIS5_EE8_S_rightEPSt13_Rb_tree_nodeIS5_E$w$XSAxnXNXRM55llnC4
0001:0000c074  __ZNSt17_Rb_tree_iteratorISt4pairIK15filter_group_idN6Xapian5QueryEERS5_PS5_EC1EPSt13_Rb_tree_nodeIS5_E$w$XSAxnXNXRM55llnC4
0001:0000a61e  __ZNKSt8_Rb_treeI15filter_group_idSt4pairIKS0_N6Xapian5QueryEESt10_Select1stIS5_ESt4lessIS0_ESaIS5_EE8key_compEv$w$XSAxnXNXRM55llnC4
0001:0000a650  __ZNSt8_Rb_treeI15filter_group_idSt4pairIKS0_N6Xapian5QueryEESt10_Select1stIS5_ESt4lessIS0_ESaIS5_EE3endEv$w$XSAxnXNXRM55llnC4
0001:0000c0e2  __ZNKSt8_Rb_treeI15filter_group_idSt4pairIKS0_N6Xapian5QueryEESt10_Select1stIS5_ESt4lessIS0_ESaIS5_EE4sizeEv$w$XSAxnXNXRM55llnC4
0001:0000c0c0  __ZNSt8_Rb_treeI15filter_group_idSt4pairIKS0_N6Xapian5QueryEESt10_Select1stIS5_ESt4lessIS0_ESaIS5_EE6_S_keyEPSt18_Rb_tree_node_base$w$XSAxnXNXRM55llnC4
0001:0000c0b8  __ZNKSt10_Select1stISt4pairIK15filter_group_idN6Xapian5QueryEEEclERKS5_$w$XSAxnXNXRM55llnC4
0001:0000c0ee  __ZNSt8_Rb_treeI15filter_group_idSt4pairIKS0_N6Xapian5QueryEESt10_Select1stIS5_ESt4lessIS0_ESaIS5_EE9_M_insertEPSt18_Rb_tree_node_baseSD_RKS5_$w$XSAxnXNXRM55llnC4
0001:0000a98c  __ZNSt8_Rb_treeI15filter_group_idSt4pairIKS0_N6Xapian5QueryEESt10_Select1stIS5_ESt4lessIS0_ESaIS5_EE13insert_uniqueERKS5_$w$XSAxnXNXRM55llnC4
0001:0000beee  __ZNKSt8_Rb_treeI15filter_group_idSt4pairIKS0_N6Xapian5QueryEESt10_Select1stIS5_ESt4lessIS0_ESaIS5_EE12_M_rightmostEv$w$XSAxnXNXRM55llnC4
0001:0000ab6c  __ZNSt17_Rb_tree_iteratorISt4pairIK15filter_group_idN6Xapian5QueryEERS5_PS5_EmmEv$w$XSAxnXNXRM55llnC4
0001:0000ab82  __ZNSt8_Rb_treeI15filter_group_idSt4pairIKS0_N6Xapian5QueryEESt10_Select1stIS5_ESt4lessIS0_ESaIS5_EE8_S_rightEPSt18_Rb_tree_node_base$w$XSAxnXNXRM55llnC4
0001:0000c294  __ZNSt8_Rb_treeI15filter_group_idSt4pairIKS0_N6Xapian5QueryEESt10_Select1stIS5_ESt4lessIS0_ESaIS5_EE5beginEv$w$XSAxnXNXRM55llnC4
0001:0000c2c2  __ZNSt4pairISt17_Rb_tree_iteratorIS_IK15filter_group_idN6Xapian5QueryEERS5_PS5_EbEC1ERKS8_RKb$w$XSAxnXNXRM55llnC4
0001:0000b140* __ZNSt22_Rb_tree_base_iterator12_M_decrementEv$w$XSAxnXNXRM55llnC4
0001:0000b044* __ZNSt15basic_streambufIcSt11char_traitsIcEE13_S_pback_sizeE$w$XSAxnXNXRM55llnC4
0001:0000b1fc* __ZStltIcSt11char_traitsIcESaIcEEbRKSbIT_T0_T1_ES8_$w$XSAxnXNXRM55llnC4
0001:0000c4be  __ZN6Xapian7Unicode8Internal12get_categoryEi$w$XSAxnXNXRM55llnC4
0001:0000c4ae  __ZN6Xapian7Unicode8Internal13get_case_typeEi$w$XSAxnXNXRM55llnC4
0001:0000c4ca  __ZN6Xapian7Unicode8Internal9get_deltaEi$w$XSAxnXNXRM55llnC4
0001:0000c4f6* __ZStneIcSt11char_traitsIcESaIcEEbRKSbIT_T0_T1_ES8_$w$XSAxnXNXRM55llnC4
0001:0000bc1c* __ZSt10_ConstructISsSsEvPT_RKT0_$w$XSAxnXNXRM55llnC4
0001:0000b462* __ZNSt14__simple_allocISt10_List_nodeISsESt24__default_alloc_templateILb1ELi0EEE8allocateEj$w$XSAxnXNXRM55llnC4
0001:0000b6ba  __ZNSt8_Rb_treeI15filter_group_idSt4pairIKS0_N6Xapian5QueryEESt10_Select1stIS5_ESt4lessIS0_ESaIS5_EED1Ev$w$XSAxnXNXRM55llnC4
0001:0000b5ae  __ZNSaISt4pairIK15filter_group_idN6Xapian5QueryEEEC1Ev$w$XSAxnXNXRM55llnC4
0001:0000b5ba  __ZNSt8_Rb_treeI15filter_group_idSt4pairIKS0_N6Xapian5QueryEESt10_Select1stIS5_ESt4lessIS0_ESaIS5_EEC1ERKS9_RKSA_$w$XSAxnXNXRM55llnC4
0001:0000b5b4  __ZNSaISt4pairIK15filter_group_idN6Xapian5QueryEEED1Ev$w$XSAxnXNXRM55llnC4
0001:0000b5ea  __ZNSt13_Rb_tree_baseISt4pairIK15filter_group_idN6Xapian5QueryEESaIS5_EEC2ERKS6_$w$XSAxnXNXRM55llnC4
0001:0000b666  __ZNSt8_Rb_treeI15filter_group_idSt4pairIKS0_N6Xapian5QueryEESt10_Select1stIS5_ESt4lessIS0_ESaIS5_EE19_M_empty_initializeEv$w$XSAxnXNXRM55llnC4
0001:0000b61a  __ZNSt19_Rb_tree_alloc_baseISt4pairIK15filter_group_idN6Xapian5QueryEESaIS5_ELb1EEC2ERKS6_$w$XSAxnXNXRM55llnC4
0001:0000b628  __ZNSt19_Rb_tree_alloc_baseISt4pairIK15filter_group_idN6Xapian5QueryEESaIS5_ELb1EE11_M_get_nodeEv$w$XSAxnXNXRM55llnC4
0001:0000b63c  __ZNSt14__simple_allocISt13_Rb_tree_nodeISt4pairIK15filter_group_idN6Xapian5QueryEEESt24__default_alloc_templateILb1ELi0EEE8allocateEj$w$XSAxnXNXRM55llnC4
0001:0000bed8  __ZNSt8_Rb_treeI15filter_group_idSt4pairIKS0_N6Xapian5QueryEESt10_Select1stIS5_ESt4lessIS0_ESaIS5_EE8_S_colorEPSt13_Rb_tree_nodeIS5_E$w$XSAxnXNXRM55llnC4
0001:0000b7b0  __ZNKSt8_Rb_treeI15filter_group_idSt4pairIKS0_N6Xapian5QueryEESt10_Select1stIS5_ESt4lessIS0_ESaIS5_EE11_M_leftmostEv$w$XSAxnXNXRM55llnC4
0001:0000b6fe  __ZNSt8_Rb_treeI15filter_group_idSt4pairIKS0_N6Xapian5QueryEESt10_Select1stIS5_ESt4lessIS0_ESaIS5_EE5clearEv$w$XSAxnXNXRM55llnC4
0001:0000c524  __ZNSt13_Rb_tree_baseISt4pairIK15filter_group_idN6Xapian5QueryEESaIS5_EED2Ev$w$XSAxnXNXRM55llnC4
0001:0000bf14  __ZNSt8_Rb_treeI15filter_group_idSt4pairIKS0_N6Xapian5QueryEESt10_Select1stIS5_ESt4lessIS0_ESaIS5_EE8_M_eraseEPSt13_Rb_tree_nodeIS5_E$w$XSAxnXNXRM55llnC4
0001:0000b788  __ZNKSt8_Rb_treeI15filter_group_idSt4pairIKS0_N6Xapian5QueryEESt10_Select1stIS5_ESt4lessIS0_ESaIS5_EE5beginEv$w$XSAxnXNXRM55llnC4
0001:0000b7be  __ZNSt17_Rb_tree_iteratorISt4pairIK15filter_group_idN6Xapian5QueryEERKS5_PS6_EC1EPSt13_Rb_tree_nodeIS5_E$w$XSAxnXNXRM55llnC4
0001:0000b7ee  __ZNKSt17_Rb_tree_iteratorISt4pairIK15filter_group_idN6Xapian5QueryEERKS5_PS6_EdeEv$w$XSAxnXNXRM55llnC4
0001:0000b822  __ZNSt10_List_baseIP4TermSaIS1_EEC2ERKS2_$w$XSAxnXNXRM55llnC4
0001:0000b86a  __ZNSt16_List_alloc_baseIP4TermSaIS1_ELb1EEC2ERKS2_$w$XSAxnXNXRM55llnC4
0001:0000b870  __ZNSt16_List_alloc_baseIP4TermSaIS1_ELb1EE11_M_get_nodeEv$w$XSAxnXNXRM55llnC4
0001:0000b884  __ZNSt14__simple_allocISt10_List_nodeIP4TermESt24__default_alloc_templateILb1ELi0EEE8allocateEj$w$XSAxnXNXRM55llnC4
0001:0000c580  __ZNSt10_List_baseIP4TermSaIS1_EED2Ev$w$XSAxnXNXRM55llnC4
0001:0000b94c  __ZNSt4listIP4TermSaIS1_EE6insertESt14_List_iteratorIS1_RS1_PS1_ERKS1_$w$XSAxnXNXRM55llnC4
0001:0000c5a8  __ZNSt4listIP4TermSaIS1_EE14_M_create_nodeERKS1_$w$XSAxnXNXRM55llnC4
0001:0000b9d4  __ZNSt10_List_baseIN6Xapian5QueryESaIS1_EEC2ERKS2_$w$XSAxnXNXRM55llnC4
0001:0000ba1c  __ZNSt16_List_alloc_baseIN6Xapian5QueryESaIS1_ELb1EEC2ERKS2_$w$XSAxnXNXRM55llnC4
0001:0000ba22  __ZNSt16_List_alloc_baseIN6Xapian5QueryESaIS1_ELb1EE11_M_get_nodeEv$w$XSAxnXNXRM55llnC4
0001:0000ba36  __ZNSt14__simple_allocISt10_List_nodeIN6Xapian5QueryEESt24__default_alloc_templateILb1ELi0EEE8allocateEj$w$XSAxnXNXRM55llnC4
0001:0000bf8c  __ZNSt4listIN6Xapian5QueryESaIS1_EE9push_backERKS1_$w$XSAxnXNXRM55llnC4
0001:0000bb0a  __ZNSt14_List_iteratorIN6Xapian5QueryERKS1_PS2_EC1EPSt10_List_nodeIS1_E$w$XSAxnXNXRM55llnC4
0001:0000bb7a  __ZSt8distanceISt14_List_iteratorIN6Xapian5QueryERKS2_PS3_EENSt15iterator_traitsIT_E15difference_typeES8_S8_$w$XSAxnXNXRM55llnC4
0001:0000bba8  __ZSt19__iterator_categoryISt14_List_iteratorIN6Xapian5QueryERKS2_PS3_EENSt15iterator_traitsIT_E17iterator_categoryERKS8_$w$XSAxnXNXRM55llnC4
0001:0000bbb4  __ZSt10__distanceISt14_List_iteratorIN6Xapian5QueryERKS2_PS3_EENSt15iterator_traitsIT_E15difference_typeES8_S8_St18input_iterator_tag$w$XSAxnXNXRM55llnC4
0001:0000c6b2  __ZNSt4listIN6Xapian5QueryESaIS1_EED1Ev$w$XSAxnXNXRM55llnC4
0001:0000c2e8* __ZnwjPv$w$XSAxnXNXRM55llnC4
0001:0000c2f0* __ZdlPvS_$w$XSAxnXNXRM55llnC4
0001:0000c6c6* __ZNKSt8_Rb_treeISsSt4pairIKSsSsESt10_Select1stIS2_ESt4lessISsESaIS2_EE7_M_rootEv$w$XSAxnXNXRM55llnC4
0001:0000c6f4* __ZNSt8_Rb_treeISsSt4pairIKSsSsESt10_Select1stIS2_ESt4lessISsESaIS2_EE6_S_keyEPSt13_Rb_tree_nodeIS2_E$w$XSAxnXNXRM55llnC4
0001:0000c6ec  __ZNKSt10_Select1stISt4pairIKSsSsEEclERKS2_$w$XSAxnXNXRM55llnC4
0001:0000c6e0* __ZNSt8_Rb_treeISsSt4pairIKSsSsESt10_Select1stIS2_ESt4lessISsESaIS2_EE7_S_leftEPSt13_Rb_tree_nodeIS2_E$w$XSAxnXNXRM55llnC4
0001:0000c6d4* __ZNSt8_Rb_treeISsSt4pairIKSsSsESt10_Select1stIS2_ESt4lessISsESaIS2_EE8_S_rightEPSt13_Rb_tree_nodeIS2_E$w$XSAxnXNXRM55llnC4
0001:0000c72a  __ZNSt8_Rb_treeISsSt4pairIKSsSsESt10_Select1stIS2_ESt4lessISsESaIS2_EE9_M_insertEPSt18_Rb_tree_node_baseSA_RKS2_$w$XSAxnXNXRM55llnC4
0001:0000be52* __ZNSt8_Rb_treeISsSt4pairIKSs10PrefixInfoESt10_Select1stIS3_ESt4lessISsESaIS3_EE8_S_valueEPSt13_Rb_tree_nodeIS3_E$w$XSAxnXNXRM55llnC4
0001:0000be5e* __ZNKSt10_Select1stISt4pairIKSs10PrefixInfoEEclERS3_$w$XSAxnXNXRM55llnC4
0001:0000c090  __ZNSt8_Rb_treeI15filter_group_idSt4pairIKS0_N6Xapian5QueryEESt10_Select1stIS5_ESt4lessIS0_ESaIS5_EE12destroy_nodeEPSt13_Rb_tree_nodeIS5_E$w$XSAxnXNXRM55llnC4
0001:0000c8c4  __ZNSt4listIN6Xapian5QueryESaIS1_EE3endEv$w$XSAxnXNXRM55llnC4
0001:0000c904  __ZNSt4listIN6Xapian5QueryESaIS1_EE6insertESt14_List_iteratorIS1_RS1_PS1_ERKS1_$w$XSAxnXNXRM55llnC4
0001:0000c060  __ZNSt8_Rb_treeI15filter_group_idSt4pairIKS0_N6Xapian5QueryEESt10_Select1stIS5_ESt4lessIS0_ESaIS5_EE8_S_valueEPSt13_Rb_tree_nodeIS5_E$w$XSAxnXNXRM55llnC4
0001:0000c06c  __ZNKSt10_Select1stISt4pairIK15filter_group_idN6Xapian5QueryEEEclERS5_$w$XSAxnXNXRM55llnC4
0001:0000c98e  __ZSt8_DestroyISt4pairIK15filter_group_idN6Xapian5QueryEEEvPT_$w$XSAxnXNXRM55llnC4
0001:0000c540  __ZNSt19_Rb_tree_alloc_baseISt4pairIK15filter_group_idN6Xapian5QueryEESaIS5_ELb1EE11_M_put_nodeEPSt13_Rb_tree_nodeIS5_E$w$XSAxnXNXRM55llnC4
0001:0000c9a2  __ZNSt8_Rb_treeI15filter_group_idSt4pairIKS0_N6Xapian5QueryEESt10_Select1stIS5_ESt4lessIS0_ESaIS5_EE14_M_create_nodeERKS5_$w$XSAxnXNXRM55llnC4
0001:0000c288  __ZNSt8_Rb_treeI15filter_group_idSt4pairIKS0_N6Xapian5QueryEESt10_Select1stIS5_ESt4lessIS0_ESaIS5_EE9_S_parentEPSt13_Rb_tree_nodeIS5_E$w$XSAxnXNXRM55llnC4
0001:0000c2f6* __ZSt18_Rb_tree_rebalancePSt18_Rb_tree_node_baseRS0_$w$XSAxnXNXRM55llnC4
0001:0000ca92* __ZSt20_Rb_tree_rotate_leftPSt18_Rb_tree_node_baseRS0_$w$XSAxnXNXRM55llnC4
0001:0000cb1e* __ZSt21_Rb_tree_rotate_rightPSt18_Rb_tree_node_baseRS0_$w$XSAxnXNXRM55llnC4
0001:0000c55c  __ZNSt14__simple_allocISt13_Rb_tree_nodeISt4pairIK15filter_group_idN6Xapian5QueryEEESt24__default_alloc_templateILb1ELi0EEE10deallocateEPS7_j$w$XSAxnXNXRM55llnC4
0001:0000c64a  __ZNSt10_List_baseIP4TermSaIS1_EE7__clearEv$w$XSAxnXNXRM55llnC4
0001:0000c604  __ZNSt16_List_alloc_baseIP4TermSaIS1_ELb1EE11_M_put_nodeEPSt10_List_nodeIS1_E$w$XSAxnXNXRM55llnC4
0001:0000c5d6  __ZSt10_ConstructIP4TermS1_EvPT_RKT0_$w$XSAxnXNXRM55llnC4
0001:0000c620  __ZNSt14__simple_allocISt10_List_nodeIP4TermESt24__default_alloc_templateILb1ELi0EEE10deallocateEPS3_j$w$XSAxnXNXRM55llnC4
0001:0000cc02  __ZSt8_DestroyIP4TermEvPT_$w$XSAxnXNXRM55llnC4
0001:0000cc08  __ZNSt10_List_baseIN6Xapian5QueryESaIS1_EED2Ev$w$XSAxnXNXRM55llnC4
0001:0000c716* __ZNSt8_Rb_treeISsSt4pairIKSsSsESt10_Select1stIS2_ESt4lessISsESaIS2_EE8_S_valueEPSt13_Rb_tree_nodeIS2_E$w$XSAxnXNXRM55llnC4
0001:0000c722* __ZNKSt10_Select1stISt4pairIKSsSsEEclERS2_$w$XSAxnXNXRM55llnC4
0001:0000ccb4  __ZNSt8_Rb_treeISsSt4pairIKSsSsESt10_Select1stIS2_ESt4lessISsESaIS2_EE14_M_create_nodeERKS2_$w$XSAxnXNXRM55llnC4
0001:0000c974* __ZNKSt8_Rb_treeISsSt4pairIKSsSsESt10_Select1stIS2_ESt4lessISsESaIS2_EE12_M_rightmostEv$w$XSAxnXNXRM55llnC4
0001:0000c966* __ZNKSt8_Rb_treeISsSt4pairIKSsSsESt10_Select1stIS2_ESt4lessISsESaIS2_EE11_M_leftmostEv$w$XSAxnXNXRM55llnC4
0001:0000c982  __ZNSt8_Rb_treeISsSt4pairIKSsSsESt10_Select1stIS2_ESt4lessISsESaIS2_EE9_S_parentEPSt13_Rb_tree_nodeIS2_E$w$XSAxnXNXRM55llnC4
0001:0000cda4* __ZNSt17_Rb_tree_iteratorISt4pairIKSsSsERS2_PS2_EC1EPSt13_Rb_tree_nodeIS2_E$w$XSAxnXNXRM55llnC4
0001:0000c8ea  __ZNSt14_List_iteratorIN6Xapian5QueryERS1_PS1_EC1EPSt10_List_nodeIS1_E$w$XSAxnXNXRM55llnC4
0001:0000cdc0  __ZNSt4listIN6Xapian5QueryESaIS1_EE14_M_create_nodeERKS1_$w$XSAxnXNXRM55llnC4
0001:0000ca16  __ZSt10_ConstructISt4pairIK15filter_group_idN6Xapian5QueryEES5_EvPT_RKT0_$w$XSAxnXNXRM55llnC4
0001:0000cbaa  __ZNSt4pairIK15filter_group_idN6Xapian5QueryEEC1ERKS4_$w$XSAxnXNXRM55llnC4
0001:0000cc4c  __ZNSt10_List_baseIN6Xapian5QueryESaIS1_EE7__clearEv$w$XSAxnXNXRM55llnC4
0001:0000cc30  __ZNSt16_List_alloc_baseIN6Xapian5QueryESaIS1_ELb1EE11_M_put_nodeEPSt10_List_nodeIS1_E$w$XSAxnXNXRM55llnC4
0001:0000ceb0  __ZNSt14__simple_allocISt10_List_nodeIN6Xapian5QueryEESt24__default_alloc_templateILb1ELi0EEE10deallocateEPS3_j$w$XSAxnXNXRM55llnC4
0001:0000cf78  __ZSt8_DestroyIN6Xapian5QueryEEvPT_$w$XSAxnXNXRM55llnC4
0001:0000cf8c* __ZNSt19_Rb_tree_alloc_baseISt4pairIKSsSsESaIS2_ELb1EE11_M_get_nodeEv$w$XSAxnXNXRM55llnC4
0001:0000cd28  __ZSt10_ConstructISt4pairIKSsSsES2_EvPT_RKT0_$w$XSAxnXNXRM55llnC4
0001:0000ceda* __ZNSt19_Rb_tree_alloc_baseISt4pairIKSsSsESaIS2_ELb1EE11_M_put_nodeEPSt13_Rb_tree_nodeIS2_E$w$XSAxnXNXRM55llnC4
0001:0000cf20  __ZNSt4pairIKSsSsEC1ERKS1_$w$XSAxnXNXRM55llnC4
0001:0000ce34  __ZSt10_ConstructIN6Xapian5QueryES1_EvPT_RKT0_$w$XSAxnXNXRM55llnC4
0001:0000cef6* __ZNSt14__simple_allocISt13_Rb_tree_nodeISt4pairIKSsSsEESt24__default_alloc_templateILb1ELi0EEE10deallocateEPS4_j$w$XSAxnXNXRM55llnC4
0001:0000cfa0* __ZNSt14__simple_allocISt13_Rb_tree_nodeISt4pairIKSsSsEESt24__default_alloc_templateILb1ELi0EEE8allocateEj$w$XSAxnXNXRM55llnC4
0002:00038ab0* __ZN16__Atomicity_lockILi0EE17_S_atomicity_lockE$w$XSAxnXNXRM55llnC4
Module: E:\rd\dse\xapian-core-1.0.2\.libs\xapian.lib(common\utils.cc)
0001:0000cfe4  __Z11om_tostringi
0001:0000d114  __Z11om_tostringj
0001:0000d246  __Z11om_tostringl
0001:0000d378  __Z11om_tostringm
0001:0000d4ac  __Z11om_tostringd
0001:0000d5f8  __Z11om_tostringPKv
0001:0000d72a  __Z11om_tostringb
0001:0000d7a8  __Z11file_existsRKSs
0001:0000d800  __ZN6Xapian8Internal6is_tabE
0001:0000d900  __ZN6Xapian8Internal6lo_tabE
0001:0000da20  __ZN6Xapian8Internal6up_tabE
0001:0000db22* __Z4statRKSsP4stat$w$jMXZfCdXRM5zay9A1
0002:00038ac0* __ZN16__Atomicity_lockILi0EE17_S_atomicity_lockE$w$jMXZfCdXRM5zay9A1
Module: E:\rd\dse\xapian-core-1.0.2\.libs\xapian.lib(backends\flint\flint_values.cc)
0001:0000db60  __ZN15FlintValueTable8make_keyERSsjj
0001:0000dc2a  __ZN15FlintValueTable12unpack_entryEPPKcS1_PjRSs
0001:0000e190  __ZN15FlintValueTable9add_valueERKSsjj
0001:0000e5f8  __ZNK15FlintValueTable9get_valueERSsjj
0001:0000e798  __ZNK15FlintValueTable14get_all_valuesERSt3mapIjSsSt4lessIjESaISt4pairIKjSsEEEj
0001:0000ea18  __ZN15FlintValueTable17delete_all_valuesEj
0001:0000ef2e* __Z18flint_docid_to_keyj$w$t1xhjj4XRM51s5hE3
0001:0000ebc2* __Z11unpack_uintIjEbPPKcS1_PT_$w$t1xhjj4XRM51s5hE3
0001:0000eb44* __ZN6Xapian20DatabaseCorruptErrorC1ERKSsS2_i$w$t1xhjj4XRM51s5hE3
0001:0000eb1c* __ZN6Xapian20DatabaseCorruptErrorD1Ev$w$t1xhjj4XRM51s5hE3
0001:0000f344* __ZTIN6Xapian20DatabaseCorruptErrorE$w$t1xhjj4XRM51s5hE3
0001:0000eb92* __ZN6Xapian10RangeErrorC1ERKSsS2_i$w$t1xhjj4XRM51s5hE3
0001:0000eb74* __ZN6Xapian10RangeErrorD1Ev$w$t1xhjj4XRM51s5hE3
0001:0000f350* __ZTIN6Xapian10RangeErrorE$w$t1xhjj4XRM51s5hE3
0001:0000ecac  __Z13unpack_stringPPKcS0_RSs$w$t1xhjj4XRM51s5hE3
0001:0000edba* __Z9pack_uintIjESsT_$w$t1xhjj4XRM51s5hE3
0001:0000eeb8  __Z11pack_stringSs$w$t1xhjj4XRM51s5hE3
0001:0000ea88* __ZNSt3mapIjSsSt4lessIjESaISt4pairIKjSsEEE5clearEv$w$t1xhjj4XRM51s5hE3
0001:0000ea9c  __ZSt9make_pairIjSsESt4pairIT_T0_ES1_S2_$w$t1xhjj4XRM51s5hE3
0001:0000eac6  __ZNSt4pairIKjSsEC1IjSsEERKS_IT_T0_E$w$t1xhjj4XRM51s5hE3
0001:0000eaf0  __ZNSt3mapIjSsSt4lessIjESaISt4pairIKjSsEEE6insertERKS4_$w$t1xhjj4XRM51s5hE3
0001:0000ef6a* __ZNSt4pairIKjSsED1Ev$w$t1xhjj4XRM51s5hE3
0001:0000ef54  __ZNSt4pairIjSsED1Ev$w$t1xhjj4XRM51s5hE3
0001:0000efd8* __ZNSt8_Rb_treeIjSt4pairIKjSsESt10_Select1stIS2_ESt4lessIjESaIS2_EE5clearEv$w$t1xhjj4XRM51s5hE3
0001:0000f0ca  __ZNSt4pairIjSsEC1ERKjRKSs$w$t1xhjj4XRM51s5hE3
0001:0000f0fe* __ZNSt8_Rb_treeIjSt4pairIKjSsESt10_Select1stIS2_ESt4lessIjESaIS2_EE13insert_uniqueERKS2_$w$t1xhjj4XRM51s5hE3
0001:0000f48c* __ZN6Xapian13DatabaseErrorD2Ev$w$t1xhjj4XRM51s5hE3
0001:0000f4a0* __ZN6Xapian13DatabaseErrorC2ERKSsS2_PKci$w$t1xhjj4XRM51s5hE3
0001:0000f448* __ZN6Xapian12RuntimeErrorD2Ev$w$t1xhjj4XRM51s5hE3
0001:0000f45c* __ZN6Xapian12RuntimeErrorC2ERKSsS2_PKci$w$t1xhjj4XRM51s5hE3
0001:0000ef80* __ZStplIcSt11char_traitsIcESaIcEESbIT_T0_T1_ERKS6_S8_$w$t1xhjj4XRM51s5hE3
0001:0000f4d0* __Z25pack_uint_preserving_sortIjESsT_$w$t1xhjj4XRM51s5hE3
0001:0000f048* __ZNKSt8_Rb_treeIjSt4pairIKjSsESt10_Select1stIS2_ESt4lessIjESaIS2_EE7_M_rootEv$w$t1xhjj4XRM51s5hE3
0001:0000f056* __ZNSt8_Rb_treeIjSt4pairIKjSsESt10_Select1stIS2_ESt4lessIjESaIS2_EE8_M_eraseEPSt13_Rb_tree_nodeIS2_E$w$t1xhjj4XRM51s5hE3
0001:0000f0ae* __ZNKSt8_Rb_treeIjSt4pairIKjSsESt10_Select1stIS2_ESt4lessIjESaIS2_EE11_M_leftmostEv$w$t1xhjj4XRM51s5hE3
0001:0000f0bc* __ZNKSt8_Rb_treeIjSt4pairIKjSsESt10_Select1stIS2_ESt4lessIjESaIS2_EE12_M_rightmostEv$w$t1xhjj4XRM51s5hE3
0001:0000f576* __ZNSt8_Rb_treeIjSt4pairIKjSsESt10_Select1stIS2_ESt4lessIjESaIS2_EE8_S_rightEPSt13_Rb_tree_nodeIS2_E$w$t1xhjj4XRM51s5hE3
0001:0000f0f2* __ZNSt8_Rb_treeIjSt4pairIKjSsESt10_Select1stIS2_ESt4lessIjESaIS2_EE7_S_leftEPSt13_Rb_tree_nodeIS2_E$w$t1xhjj4XRM51s5hE3
0001:0000f2de* __ZNSt8_Rb_treeIjSt4pairIKjSsESt10_Select1stIS2_ESt4lessIjESaIS2_EE12destroy_nodeEPSt13_Rb_tree_nodeIS2_E$w$t1xhjj4XRM51s5hE3
0001:0000f58a* __ZNSt8_Rb_treeIjSt4pairIKjSsESt10_Select1stIS2_ESt4lessIjESaIS2_EE6_S_keyEPSt13_Rb_tree_nodeIS2_E$w$t1xhjj4XRM51s5hE3
0001:0000f582* __ZNKSt10_Select1stISt4pairIKjSsEEclERKS2_$w$t1xhjj4XRM51s5hE3
0001:0000f5c0* __ZNKSt4lessIjEclERKjS2_$w$t1xhjj4XRM51s5hE3
0001:0000f5d6* __ZNSt17_Rb_tree_iteratorISt4pairIKjSsERS2_PS2_EC1EPSt13_Rb_tree_nodeIS2_E$w$t1xhjj4XRM51s5hE3
0001:0000f5f2* __ZNSt8_Rb_treeIjSt4pairIKjSsESt10_Select1stIS2_ESt4lessIjESaIS2_EE5beginEv$w$t1xhjj4XRM51s5hE3
0001:0000f620* __ZSteqISt4pairIKjSsERS2_PS2_EbRKSt17_Rb_tree_iteratorIT_T0_T1_ESB_$w$t1xhjj4XRM51s5hE3
0001:0000f652* __ZNSt8_Rb_treeIjSt4pairIKjSsESt10_Select1stIS2_ESt4lessIjESaIS2_EE9_M_insertEPSt18_Rb_tree_node_baseSA_RKS2_$w$t1xhjj4XRM51s5hE3
0001:0000f7ec* __ZNSt4pairISt17_Rb_tree_iteratorIS_IKjSsERS2_PS2_EbEC1ERKS5_RKb$w$t1xhjj4XRM51s5hE3
0001:0000f306* __ZNSt17_Rb_tree_iteratorISt4pairIKjSsERS2_PS2_EmmEv$w$t1xhjj4XRM51s5hE3
0001:0000f31c* __ZNSt8_Rb_treeIjSt4pairIKjSsESt10_Select1stIS2_ESt4lessIjESaIS2_EE6_S_keyEPSt18_Rb_tree_node_base$w$t1xhjj4XRM51s5hE3
0001:0000f812* __ZSt8_DestroyISt4pairIKjSsEEvPT_$w$t1xhjj4XRM51s5hE3
0001:0000f636* __ZNSt19_Rb_tree_alloc_baseISt4pairIKjSsESaIS2_ELb1EE11_M_put_nodeEPSt13_Rb_tree_nodeIS2_E$w$t1xhjj4XRM51s5hE3
0001:0000f3aa* __ZNSt22_Rb_tree_base_iterator12_M_decrementEv$w$t1xhjj4XRM51s5hE3
0001:0000f5ac* __ZNSt8_Rb_treeIjSt4pairIKjSsESt10_Select1stIS2_ESt4lessIjESaIS2_EE8_S_valueEPSt13_Rb_tree_nodeIS2_E$w$t1xhjj4XRM51s5hE3
0001:0000f5b8* __ZNKSt10_Select1stISt4pairIKjSsEEclERS2_$w$t1xhjj4XRM51s5hE3
0001:0000f380* __ZTSN6Xapian20DatabaseCorruptErrorE$w$t1xhjj4XRM51s5hE3
0001:0000f868* __ZTIN6Xapian13DatabaseErrorE$w$t1xhjj4XRM51s5hE3
0001:0000f35c* __ZTSN6Xapian10RangeErrorE$w$t1xhjj4XRM51s5hE3
0001:0000f85c* __ZTIN6Xapian12RuntimeErrorE$w$t1xhjj4XRM51s5hE3
0001:0000fa64* __ZN6Xapian5ErrorD2Ev$w$t1xhjj4XRM51s5hE3
0001:0000fa94* __ZN6Xapian5ErrorC2ERKSsS2_PKci$w$t1xhjj4XRM51s5hE3
0001:0000f8a6* __ZNSt22_Rb_tree_base_iteratorC2Ev$w$t1xhjj4XRM51s5hE3
0001:0000f826* __ZNSt14__simple_allocISt13_Rb_tree_nodeISt4pairIKjSsEESt24__default_alloc_templateILb1ELi0EEE10deallocateEPS4_j$w$t1xhjj4XRM51s5hE3
0001:0000fb2e* __ZNSt8_Rb_treeIjSt4pairIKjSsESt10_Select1stIS2_ESt4lessIjESaIS2_EE14_M_create_nodeERKS2_$w$t1xhjj4XRM51s5hE3
0001:0000f850* __ZNSt8_Rb_treeIjSt4pairIKjSsESt10_Select1stIS2_ESt4lessIjESaIS2_EE9_S_parentEPSt13_Rb_tree_nodeIS2_E$w$t1xhjj4XRM51s5hE3
0001:0000f8ac* __ZSt18_Rb_tree_rebalancePSt18_Rb_tree_node_baseRS0_$w$t1xhjj4XRM51s5hE3
0001:0000fb10* __ZNSt17_Rb_tree_iteratorISt4pairIKjSsERS2_PS2_EC1ERKS5_$w$t1xhjj4XRM51s5hE3
0001:0000f88d* __ZTSN6Xapian12RuntimeErrorE$w$t1xhjj4XRM51s5hE3
0001:0000fc64* __ZTIN6Xapian5ErrorE$w$t1xhjj4XRM51s5hE3
0001:0000f874* __ZTSN6Xapian13DatabaseErrorE$w$t1xhjj4XRM51s5hE3
0001:0000fc8a* __ZSt20_Rb_tree_rotate_leftPSt18_Rb_tree_node_baseRS0_$w$t1xhjj4XRM51s5hE3
0001:0000fd16* __ZSt21_Rb_tree_rotate_rightPSt18_Rb_tree_node_baseRS0_$w$t1xhjj4XRM51s5hE3
0001:0000fba2* __ZNSt19_Rb_tree_alloc_baseISt4pairIKjSsESaIS2_ELb1EE11_M_get_nodeEv$w$t1xhjj4XRM51s5hE3
0001:0000fbe6* __ZSt10_ConstructISt4pairIKjSsES2_EvPT_RKT0_$w$t1xhjj4XRM51s5hE3
0001:0000fbb6* __ZNSt14__simple_allocISt13_Rb_tree_nodeISt4pairIKjSsEESt24__default_alloc_templateILb1ELi0EEE8allocateEj$w$t1xhjj4XRM51s5hE3
0001:0000fc7c* __ZnwjPv$w$t1xhjj4XRM51s5hE3
0001:0000fda2* __ZNSt4pairIKjSsEC1ERKS1_$w$t1xhjj4XRM51s5hE3
0001:0000fc84* __ZdlPvS_$w$t1xhjj4XRM51s5hE3
0001:0000fc6c* __ZTSN6Xapian5ErrorE$w$t1xhjj4XRM51s5hE3
0002:00038ad0* __ZN16__Atomicity_lockILi0EE17_S_atomicity_lockE$w$t1xhjj4XRM51s5hE3
Module: E:\rd\dse\xapian-core-1.0.2\.libs\xapian.lib(backends\flint\flint_postlist.cc)
0001:0000ff8c  __ZNK18FlintPostListTable13get_lastdocidEv
0001:0001018a  __ZNK18FlintPostListTable12get_termfreqERKSs
0001:000125d2  __ZN13FlintPostList22read_number_of_entriesEPPKcS1_PjS3_
0001:0001028c  __ZNK18FlintPostListTable19get_collection_freqERKSs
0001:0001038e  __ZN18FlintPostListTable30set_total_length_and_lastdocidEyj
0001:00010490  __ZNK18FlintPostListTable16get_total_lengthEv
0001:00010dd8  __ZN19PostlistChunkReader4nextEv
0001:00010e46  __ZN19PostlistChunkWriterC2ERKSsbS1_b
0001:00010ed0  __ZN19PostlistChunkWriterC1ERKSsbS1_b
0001:00010f5a  __ZN19PostlistChunkWriter6appendEP10FlintTablejjj
0001:000111da  __ZN19PostlistChunkWriter5flushEP10FlintTable
0001:0001262e  __ZN13FlintPostListC2EN6Xapian8Internal9RefCntPtrIKNS0_8Database8InternalEEEPK10FlintTableS9_RKSs
0001:0001291e  __ZN13FlintPostListC1EN6Xapian8Internal9RefCntPtrIKNS0_8Database8InternalEEEPK10FlintTableS9_RKSs
0001:00012c0e  __ZN13FlintPostListD2Ev
0001:00012cee  __ZN13FlintPostListD1Ev
0001:00012dce  __ZN13FlintPostListD0Ev
0001:00012eae  __ZN13FlintPostList13next_in_chunkEv
0001:00012fbc  __ZN13FlintPostList10next_chunkEv
0001:000137ae  __ZN13FlintPostList18read_position_listEv
0001:000137e8  __ZNK13FlintPostList18open_position_listEv
0001:000138c8  __ZN13FlintPostList4nextEd
0001:00013908  __ZN13FlintPostList22current_chunk_containsEj
0001:0001393a  __ZN13FlintPostList24move_to_chunk_containingEj
0001:00013b8c  __ZN13FlintPostList33move_forward_in_chunk_to_at_leastEj
0001:00013bf0  __ZN13FlintPostList7skip_toEjd
0001:00013c80  __ZNK13FlintPostList15get_descriptionEv
0001:00013d84  __ZN18FlintPostListTable9get_chunkERKSsjbPP19PostlistChunkReaderPP19PostlistChunkWriter
0001:000148aa  __ZN18FlintPostListTable13merge_changesERKSt3mapISsS0_IjSt4pairIcjESt4lessIjESaIS1_IKjS2_EEES3_ISsESaIS1_IKSsS8_EEERKS0_IjjS4_SaIS1_IS5_jEEERKS0_ISsS1_IiiES9_SaIS1_ISA_SL_EEE
0001:00016000* __Z27pack_string_preserving_sortSs$w$zobpzDYWRM5FPRwH0
0001:0001619e* __Z25pack_uint_preserving_sortIjESsT_$w$zobpzDYWRM5FPRwH0
0001:00015e16* __Z11unpack_uintIjEbPPKcS1_PT_$w$zobpzDYWRM5FPRwH0
0001:0001596a* __ZN6Xapian20DatabaseCorruptErrorC1ERKSsS2_i$w$zobpzDYWRM5FPRwH0
0001:00015942* __ZN6Xapian20DatabaseCorruptErrorD1Ev$w$zobpzDYWRM5FPRwH0
0001:00016eac* __ZTIN6Xapian20DatabaseCorruptErrorE$w$zobpzDYWRM5FPRwH0
0001:00015f00* __Z9pack_uintIjESsT_$w$zobpzDYWRM5FPRwH0
0001:0001526e  __Z14pack_uint_lastIyESsT_$w$zobpzDYWRM5FPRwH0
0001:000152ea  __Z16unpack_uint_lastIyEbPPKcS1_PT_$w$zobpzDYWRM5FPRwH0
0001:000159b8* __ZN6Xapian10RangeErrorC1ERKSsS2_i$w$zobpzDYWRM5FPRwH0
0001:0001599a* __ZN6Xapian10RangeErrorD1Ev$w$zobpzDYWRM5FPRwH0
0001:00016ebc* __ZTIN6Xapian10RangeErrorE$w$zobpzDYWRM5FPRwH0
0001:0001609e  __Z11unpack_boolPPKcS0_Pb$w$zobpzDYWRM5FPRwH0
0001:00015216* __ZStplIcSt11char_traitsIcESaIcEESbIT_T0_T1_ERKS6_S8_$w$zobpzDYWRM5FPRwH0
0001:00016120  __Z9pack_boolb$w$zobpzDYWRM5FPRwH0
0001:00015394* __ZN7AutoPtrI11FlintCursorEC1EPS0_$w$zobpzDYWRM5FPRwH0
0001:00012f26* __ZNK7AutoPtrI11FlintCursorEptEv$w$zobpzDYWRM5FPRwH0
0001:00015e0a* __ZNK11FlintCursor9after_endEv$w$zobpzDYWRM5FPRwH0
0001:000153ce* __Z27unpack_uint_preserving_sortIjEbPPKcS1_PT_$w$zobpzDYWRM5FPRwH0
0001:00015474  __ZNSsC1IPKcEET_S2_RKSaIcE$w$zobpzDYWRM5FPRwH0
0001:000153a2* __ZN7AutoPtrI11FlintCursorED1Ev$w$zobpzDYWRM5FPRwH0
0001:00015b5a* __ZN12LeafPostListC2Ev$w$zobpzDYWRM5FPRwH0
0001:00015760  __ZTV13FlintPostList$w$zobpzDYWRM5FPRwH0
0001:000154ae* __ZN6Xapian8Internal9RefCntPtrIKNS_8Database8InternalEEC1ERKS5_$w$zobpzDYWRM5FPRwH0
0001:0001629c* __ZN17FlintPositionListC1Ev$w$zobpzDYWRM5FPRwH0
0001:00016334* __ZN17FlintPositionListD1Ev$w$zobpzDYWRM5FPRwH0
0001:000154d0* __ZN6Xapian8Internal9RefCntPtrIKNS_8Database8InternalEED1Ev$w$zobpzDYWRM5FPRwH0
0001:00015b88* __ZN12LeafPostListD2Ev$w$zobpzDYWRM5FPRwH0
0001:0001551a* __ZStplIcSt11char_traitsIcESaIcEESbIT_T0_T1_EPKS3_RKS6_$w$zobpzDYWRM5FPRwH0
0001:00016244* __ZStplIcSt11char_traitsIcESaIcEESbIT_T0_T1_ERKS6_PKS3_$w$zobpzDYWRM5FPRwH0
0001:000155b2* __ZN7AutoPtrI17FlintPositionListEC1EPS0_$w$zobpzDYWRM5FPRwH0
0001:000155e6* __ZNK7AutoPtrI17FlintPositionListEptEv$w$zobpzDYWRM5FPRwH0
0001:000155f0* __ZN7AutoPtrI17FlintPositionListE7releaseEv$w$zobpzDYWRM5FPRwH0
0001:000155c0* __ZN7AutoPtrI17FlintPositionListED1Ev$w$zobpzDYWRM5FPRwH0
0001:00016416  __ZN19PostlistChunkWriter10raw_appendEjjRKSs$w$zobpzDYWRM5FPRwH0
0001:000165d6  __ZN19PostlistChunkReaderC1EjRKSs$w$zobpzDYWRM5FPRwH0
0001:000168a6* __ZNSt17_Rb_tree_iteratorISt4pairIKSsSt3mapIjS0_IcjESt4lessIjESaIS0_IKjS3_EEEERKSA_PSB_EC1Ev$w$zobpzDYWRM5FPRwH0
0001:000168ba  __ZNKSt3mapISsS_IjSt4pairIcjESt4lessIjESaIS0_IKjS1_EEES2_ISsESaIS0_IKSsS7_EEE5beginEv$w$zobpzDYWRM5FPRwH0
0001:00016926  __ZNKSt3mapISsS_IjSt4pairIcjESt4lessIjESaIS0_IKjS1_EEES2_ISsESaIS0_IKSsS7_EEE3endEv$w$zobpzDYWRM5FPRwH0
0001:00016960  __ZStneISt4pairIKSsSt3mapIjS0_IcjESt4lessIjESaIS0_IKjS3_EEEERKSA_PSB_EbRKSt17_Rb_tree_iteratorIT_T0_T1_ESK_$w$zobpzDYWRM5FPRwH0
0001:0001698c* __ZNKSt17_Rb_tree_iteratorISt4pairIKSsSt3mapIjS0_IcjESt4lessIjESaIS0_IKjS3_EEEERKSA_PSB_EptEv$w$zobpzDYWRM5FPRwH0
0001:000169ae  __ZNKSt3mapIjSt4pairIcjESt4lessIjESaIS0_IKjS1_EEE5emptyEv$w$zobpzDYWRM5FPRwH0
0001:0001560c  __ZNKSt3mapISsSt4pairIiiESt4lessISsESaIS0_IKSsS1_EEE4findERS4_$w$zobpzDYWRM5FPRwH0
0001:0001562c* __ZNKSt17_Rb_tree_iteratorISt4pairIKSsS0_IiiEERKS3_PS4_EptEv$w$zobpzDYWRM5FPRwH0
0001:00015640  __ZNSt17_Rb_tree_iteratorISt4pairIKjS0_IcjEERKS3_PS4_EC1Ev$w$zobpzDYWRM5FPRwH0
0001:00015654  __ZNKSt3mapIjSt4pairIcjESt4lessIjESaIS0_IKjS1_EEE5beginEv$w$zobpzDYWRM5FPRwH0
0001:0001566e* __ZNKSt17_Rb_tree_iteratorISt4pairIKjS0_IcjEERKS3_PS4_EptEv$w$zobpzDYWRM5FPRwH0
0001:00015682* __ZNKSt3mapIjSt4pairIcjESt4lessIjESaIS0_IKjS1_EEE3endEv$w$zobpzDYWRM5FPRwH0
0001:0001569c* __ZStneISt4pairIKjS0_IcjEERKS3_PS4_EbRKSt17_Rb_tree_iteratorIT_T0_T1_ESD_$w$zobpzDYWRM5FPRwH0
0001:000166b4  __ZNK19PostlistChunkReader9is_at_endEv$w$zobpzDYWRM5FPRwH0
0001:00016690  __ZNK19PostlistChunkReader9get_docidEv$w$zobpzDYWRM5FPRwH0
0001:000166a8  __ZNK19PostlistChunkReader13get_doclengthEv$w$zobpzDYWRM5FPRwH0
0001:0001669c  __ZNK19PostlistChunkReader7get_wdfEv$w$zobpzDYWRM5FPRwH0
0001:000165c2  __ZN19PostlistChunkReaderD1Ev$w$zobpzDYWRM5FPRwH0
0001:000163e6  __ZN19PostlistChunkWriterD1Ev$w$zobpzDYWRM5FPRwH0
0001:000156c8  __ZNKSt3mapIjjSt4lessIjESaISt4pairIKjjEEE4findERS3_$w$zobpzDYWRM5FPRwH0
0001:000156e8* __ZNKSt17_Rb_tree_iteratorISt4pairIKjjERKS2_PS3_EptEv$w$zobpzDYWRM5FPRwH0
0001:000156b2* __ZNSt17_Rb_tree_iteratorISt4pairIKjS0_IcjEERKS3_PS4_EppEv$w$zobpzDYWRM5FPRwH0
0001:00016976  __ZNSt17_Rb_tree_iteratorISt4pairIKSsSt3mapIjS0_IcjESt4lessIjESaIS0_IKjS3_EEEERKSA_PSB_EppEv$w$zobpzDYWRM5FPRwH0
0001:00016a6a  __ZNSs12_S_constructIPKcEEPcT_S3_RKSaIcE$w$zobpzDYWRM5FPRwH0
0001:0001592e* __ZNSt11char_traitsIcE6lengthEPKc$w$zobpzDYWRM5FPRwH0
0001:000156fc* __ZNSs6appendIPKcEERSsT_S3_$w$zobpzDYWRM5FPRwH0
0001:00016bcc  __ZNKSt8_Rb_treeISsSt4pairIKSsS0_IiiEESt10_Select1stIS3_ESt4lessISsESaIS3_EE4findERS1_$w$zobpzDYWRM5FPRwH0
0001:00016cc8* __ZNKSt17_Rb_tree_iteratorISt4pairIKSsS0_IiiEERKS3_PS4_EdeEv$w$zobpzDYWRM5FPRwH0
0001:000158aa* __ZNSt22_Rb_tree_base_iteratorC2Ev$w$zobpzDYWRM5FPRwH0
0001:00016cd6  __ZNKSt8_Rb_treeIjSt4pairIKjS0_IcjEESt10_Select1stIS3_ESt4lessIjESaIS3_EE5beginEv$w$zobpzDYWRM5FPRwH0
0001:00016d28* __ZNKSt17_Rb_tree_iteratorISt4pairIKjS0_IcjEERKS3_PS4_EdeEv$w$zobpzDYWRM5FPRwH0
0001:00016d36* __ZNKSt8_Rb_treeIjSt4pairIKjS0_IcjEESt10_Select1stIS3_ESt4lessIjESaIS3_EE3endEv$w$zobpzDYWRM5FPRwH0
0001:000158b0* __ZNSt22_Rb_tree_base_iterator12_M_incrementEv$w$zobpzDYWRM5FPRwH0
0001:00016d56  __ZNKSt8_Rb_treeIjSt4pairIKjjESt10_Select1stIS2_ESt4lessIjESaIS2_EE4findERS1_$w$zobpzDYWRM5FPRwH0
0001:00016e52* __ZNKSt17_Rb_tree_iteratorISt4pairIKjjERKS2_PS3_EdeEv$w$zobpzDYWRM5FPRwH0
0001:00016ea0* __ZTI13FlintPostList$w$zobpzDYWRM5FPRwH0
0001:00015d10* __ZNK12LeafPostList16get_termfreq_minEv$w$zobpzDYWRM5FPRwH0
0001:00015d2a* __ZNK12LeafPostList16get_termfreq_estEv$w$zobpzDYWRM5FPRwH0
0001:00015cf6* __ZNK12LeafPostList16get_termfreq_maxEv$w$zobpzDYWRM5FPRwH0
0001:00015dd6* __ZNK12LeafPostList13get_maxweightEv$w$zobpzDYWRM5FPRwH0
0001:000163a8* __ZNK13FlintPostList9get_docidEv$w$zobpzDYWRM5FPRwH0
0001:00015d72* __ZNK12LeafPostList10get_weightEv$w$zobpzDYWRM5FPRwH0
0001:000159e8* __ZNK6Xapian15PostingIterator8Internal16get_collapse_keyEv$w$zobpzDYWRM5FPRwH0
0001:000163b4* __ZNK13FlintPostList13get_doclengthEv$w$zobpzDYWRM5FPRwH0
0001:00015df6* __ZN12LeafPostList16recalc_maxweightEv$w$zobpzDYWRM5FPRwH0
0001:000163ce* __ZNK13FlintPostList7get_wdfEv$w$zobpzDYWRM5FPRwH0
0001:000163da* __ZNK13FlintPostList6at_endEv$w$zobpzDYWRM5FPRwH0
0001:0001639c  __ZNK13FlintPostList12get_termfreqEv$w$zobpzDYWRM5FPRwH0
0001:00015d44* __ZN12LeafPostList14set_termweightEPKN6Xapian6WeightE$w$zobpzDYWRM5FPRwH0
0001:000157c0* __ZTV12LeafPostList$w$zobpzDYWRM5FPRwH0
0001:00016e90* __ZTI12LeafPostList$w$zobpzDYWRM5FPRwH0
0001:00015c02* __ZN12LeafPostListD1Ev$w$zobpzDYWRM5FPRwH0
0001:00015c7c* __ZN12LeafPostListD0Ev$w$zobpzDYWRM5FPRwH0
0001:00015a14* __ZNK6Xapian15PostingIterator8Internal7get_wdfEv$w$zobpzDYWRM5FPRwH0
0001:00016fda* __ZN6Xapian13DatabaseErrorD2Ev$w$zobpzDYWRM5FPRwH0
0001:00016fee* __ZN6Xapian13DatabaseErrorC2ERKSsS2_PKci$w$zobpzDYWRM5FPRwH0
0001:00016f40* __ZN6Xapian12RuntimeErrorD2Ev$w$zobpzDYWRM5FPRwH0
0001:00016f54* __ZN6Xapian12RuntimeErrorC2ERKSsS2_PKci$w$zobpzDYWRM5FPRwH0
0001:00016faa* __ZN6Xapian18UnimplementedErrorC1ERKSsS2_i$w$zobpzDYWRM5FPRwH0
0001:00016f84* __ZN6Xapian18UnimplementedErrorD1Ev$w$zobpzDYWRM5FPRwH0
0001:00017460* __ZTIN6Xapian18UnimplementedErrorE$w$zobpzDYWRM5FPRwH0
0001:00017066* __ZN6Xapian15PostingIterator8InternalC2Ev$w$zobpzDYWRM5FPRwH0
0001:00017086* __ZN6Xapian15PostingIterator8InternalD2Ev$w$zobpzDYWRM5FPRwH0
0001:000169d6* __ZStplIcSt11char_traitsIcESaIcEESbIT_T0_T1_ERKS6_S3_$w$zobpzDYWRM5FPRwH0
0001:0001701e* __ZN6Xapian16PositionIterator8InternalC2Ev$w$zobpzDYWRM5FPRwH0
0001:000170ae* __ZNSaIjEC1Ev$w$zobpzDYWRM5FPRwH0
0001:000170ba* __ZNSt6vectorIjSaIjEEC1ERKS0_$w$zobpzDYWRM5FPRwH0
0001:000170b4* __ZNSaIjED1Ev$w$zobpzDYWRM5FPRwH0
0001:000170fe* __ZN9__gnu_cxx17__normal_iteratorIPKjSt6vectorIjSaIjEEEC1Ev$w$zobpzDYWRM5FPRwH0
0001:0001703e* __ZN6Xapian16PositionIterator8InternalD2Ev$w$zobpzDYWRM5FPRwH0
0001:000170d4* __ZNSt6vectorIjSaIjEED1Ev$w$zobpzDYWRM5FPRwH0
0001:00016a3c* __ZSteqIcSt11char_traitsIcESaIcEEbRKSbIT_T0_T1_ES8_$w$zobpzDYWRM5FPRwH0
0001:000168d4  __ZNKSt8_Rb_treeISsSt4pairIKSsSt3mapIjS0_IcjESt4lessIjESaIS0_IKjS3_EEEESt10_Select1stISA_ES4_ISsESaISA_EE5beginEv$w$zobpzDYWRM5FPRwH0
0001:000168fc* __ZNKSt8_Rb_treeISsSt4pairIKSsSt3mapIjS0_IcjESt4lessIjESaIS0_IKjS3_EEEESt10_Select1stISA_ES4_ISsESaISA_EE11_M_leftmostEv$w$zobpzDYWRM5FPRwH0
0001:0001690a  __ZNSt17_Rb_tree_iteratorISt4pairIKSsSt3mapIjS0_IcjESt4lessIjESaIS0_IKjS3_EEEERKSA_PSB_EC1EPSt13_Rb_tree_nodeISA_E$w$zobpzDYWRM5FPRwH0
0001:00016940  __ZNKSt8_Rb_treeISsSt4pairIKSsSt3mapIjS0_IcjESt4lessIjESaIS0_IKjS3_EEEESt10_Select1stISA_ES4_ISsESaISA_EE3endEv$w$zobpzDYWRM5FPRwH0
0001:000169a0* __ZNKSt17_Rb_tree_iteratorISt4pairIKSsSt3mapIjS0_IcjESt4lessIjESaIS0_IKjS3_EEEERKSA_PSB_EdeEv$w$zobpzDYWRM5FPRwH0
0001:000169c4  __ZNKSt8_Rb_treeIjSt4pairIKjS0_IcjEESt10_Select1stIS3_ESt4lessIjESaIS3_EE5emptyEv$w$zobpzDYWRM5FPRwH0
0001:00016a90  __ZNSs16_S_construct_auxIPKcEEPcT_S3_RKSaIcE12__false_type$w$zobpzDYWRM5FPRwH0
0001:00016ae2  __ZNSs12_S_constructIPKcEEPcT_S3_RKSaIcESt20forward_iterator_tag$w$zobpzDYWRM5FPRwH0
0001:0001720c  __ZSteqIccEbRKSaIT_ERKSaIT0_E$w$zobpzDYWRM5FPRwH0
0001:00016e60  __ZSt8distanceIPKcENSt15iterator_traitsIT_E15difference_typeES3_S3_$w$zobpzDYWRM5FPRwH0
0001:00017216* __ZNKSt8_Rb_treeISsSt4pairIKSsS0_IiiEESt10_Select1stIS3_ESt4lessISsESaIS3_EE7_M_rootEv$w$zobpzDYWRM5FPRwH0
0001:00017224* __ZNSt8_Rb_treeISsSt4pairIKSsS0_IiiEESt10_Select1stIS3_ESt4lessISsESaIS3_EE6_S_keyEPSt13_Rb_tree_nodeIS3_E$w$zobpzDYWRM5FPRwH0
0001:0001725a* __ZNKSt4lessISsEclERKSsS2_$w$zobpzDYWRM5FPRwH0
0001:00017296* __ZNSt8_Rb_treeISsSt4pairIKSsS0_IiiEESt10_Select1stIS3_ESt4lessISsESaIS3_EE7_S_leftEPSt13_Rb_tree_nodeIS3_E$w$zobpzDYWRM5FPRwH0
0001:000172a2* __ZNSt8_Rb_treeISsSt4pairIKSsS0_IiiEESt10_Select1stIS3_ESt4lessISsESaIS3_EE8_S_rightEPSt13_Rb_tree_nodeIS3_E$w$zobpzDYWRM5FPRwH0
0001:000172ae  __ZNSt17_Rb_tree_iteratorISt4pairIKSsS0_IiiEERKS3_PS4_EC1EPSt13_Rb_tree_nodeIS3_E$w$zobpzDYWRM5FPRwH0
0001:000172ca  __ZNKSt8_Rb_treeISsSt4pairIKSsS0_IiiEESt10_Select1stIS3_ESt4lessISsESaIS3_EE3endEv$w$zobpzDYWRM5FPRwH0
0001:0001730c  __ZSteqISt4pairIKSsS0_IiiEERKS3_PS4_EbRKSt17_Rb_tree_iteratorIT_T0_T1_ESD_$w$zobpzDYWRM5FPRwH0
0001:000172ea* __ZNSt8_Rb_treeISsSt4pairIKSsS0_IiiEESt10_Select1stIS3_ESt4lessISsESaIS3_EE6_S_keyEPSt18_Rb_tree_node_base$w$zobpzDYWRM5FPRwH0
0001:00016cfe* __ZNKSt8_Rb_treeIjSt4pairIKjS0_IcjEESt10_Select1stIS3_ESt4lessIjESaIS3_EE11_M_leftmostEv$w$zobpzDYWRM5FPRwH0
0001:00016d0c* __ZNSt17_Rb_tree_iteratorISt4pairIKjS0_IcjEERKS3_PS4_EC1EPSt13_Rb_tree_nodeIS3_E$w$zobpzDYWRM5FPRwH0
0001:00017322* __ZNKSt8_Rb_treeIjSt4pairIKjjESt10_Select1stIS2_ESt4lessIjESaIS2_EE7_M_rootEv$w$zobpzDYWRM5FPRwH0
0001:00017330* __ZNSt8_Rb_treeIjSt4pairIKjjESt10_Select1stIS2_ESt4lessIjESaIS2_EE6_S_keyEPSt13_Rb_tree_nodeIS2_E$w$zobpzDYWRM5FPRwH0
0001:00017366* __ZNKSt4lessIjEclERKjS2_$w$zobpzDYWRM5FPRwH0
0001:0001737c* __ZNSt8_Rb_treeIjSt4pairIKjjESt10_Select1stIS2_ESt4lessIjESaIS2_EE7_S_leftEPSt13_Rb_tree_nodeIS2_E$w$zobpzDYWRM5FPRwH0
0001:00017388* __ZNSt8_Rb_treeIjSt4pairIKjjESt10_Select1stIS2_ESt4lessIjESaIS2_EE8_S_rightEPSt13_Rb_tree_nodeIS2_E$w$zobpzDYWRM5FPRwH0
0001:00017394  __ZNSt17_Rb_tree_iteratorISt4pairIKjjERKS2_PS3_EC1EPSt13_Rb_tree_nodeIS2_E$w$zobpzDYWRM5FPRwH0
0001:000173b0  __ZNKSt8_Rb_treeIjSt4pairIKjjESt10_Select1stIS2_ESt4lessIjESaIS2_EE3endEv$w$zobpzDYWRM5FPRwH0
0001:000173f2  __ZSteqISt4pairIKjjERKS2_PS3_EbRKSt17_Rb_tree_iteratorIT_T0_T1_ESC_$w$zobpzDYWRM5FPRwH0
0001:000173d0* __ZNSt8_Rb_treeIjSt4pairIKjjESt10_Select1stIS2_ESt4lessIjESaIS2_EE6_S_keyEPSt18_Rb_tree_node_base$w$zobpzDYWRM5FPRwH0
0001:0001740e  __ZSt19__iterator_categoryIPKcENSt15iterator_traitsIT_E17iterator_categoryERKS3_$w$zobpzDYWRM5FPRwH0
0001:0001741a  __ZSt10__distanceIPKcENSt15iterator_traitsIT_E15difference_typeES3_S3_St26random_access_iterator_tag$w$zobpzDYWRM5FPRwH0
0001:00016f10* __ZTS12LeafPostList$w$zobpzDYWRM5FPRwH0
0001:00017440* __ZTIN6Xapian15PostingIterator8InternalE$w$zobpzDYWRM5FPRwH0
0001:00016f00* __ZTS13FlintPostList$w$zobpzDYWRM5FPRwH0
0001:00016ee0* __ZTSN6Xapian20DatabaseCorruptErrorE$w$zobpzDYWRM5FPRwH0
0001:00017478* __ZTIN6Xapian13DatabaseErrorE$w$zobpzDYWRM5FPRwH0
0001:00016ec8* __ZTSN6Xapian10RangeErrorE$w$zobpzDYWRM5FPRwH0
0001:0001746c* __ZTIN6Xapian12RuntimeErrorE$w$zobpzDYWRM5FPRwH0
0001:00016f3c* __ZNSt15basic_streambufIcSt11char_traitsIcEE13_S_pback_sizeE$w$zobpzDYWRM5FPRwH0
0001:000175b2* __ZN6Xapian5ErrorD2Ev$w$zobpzDYWRM5FPRwH0
0001:000175e2* __ZN6Xapian5ErrorC2ERKSsS2_PKci$w$zobpzDYWRM5FPRwH0
0001:0001765e* __ZN6Xapian10LogicErrorD2Ev$w$zobpzDYWRM5FPRwH0
0001:00017672* __ZN6Xapian10LogicErrorC2ERKSsS2_PKci$w$zobpzDYWRM5FPRwH0
0001:000175a4* __ZN6Xapian8Internal10RefCntBaseC2Ev$w$zobpzDYWRM5FPRwH0
0001:00017580* __ZTVN6Xapian16PositionIterator8InternalE$w$zobpzDYWRM5FPRwH0
0001:00017520* __ZTVN6Xapian15PostingIterator8InternalE$w$zobpzDYWRM5FPRwH0
0001:0001713e* __ZNSt12_Vector_baseIjSaIjEEC2ERKS0_$w$zobpzDYWRM5FPRwH0
0001:000171ec* __ZSt8_DestroyIPjEvT_S1_$w$zobpzDYWRM5FPRwH0
0001:0001717a* __ZNSt12_Vector_baseIjSaIjEED2Ev$w$zobpzDYWRM5FPRwH0
0001:0001788e* __ZNSt8iteratorISt26random_access_iterator_tagjiPKjRS1_EC2Ev$w$zobpzDYWRM5FPRwH0
0001:00017742* __Z29unpack_string_preserving_sortPPKcS0_RSs$w$zobpzDYWRM5FPRwH0
0001:00017158* __ZNSt18_Vector_alloc_baseIjSaIjELb1EEC2ERKS0_$w$zobpzDYWRM5FPRwH0
0001:000171aa* __ZNSt18_Vector_alloc_baseIjSaIjELb1EE13_M_deallocateEPjj$w$zobpzDYWRM5FPRwH0
0001:000171c4* __ZNSt14__simple_allocIjSt24__default_alloc_templateILb1ELi0EEE10deallocateEPjj$w$zobpzDYWRM5FPRwH0
0001:00017408* __ZSt13__destroy_auxIPjEvT_S1_11__true_type$w$zobpzDYWRM5FPRwH0
0001:00017246* __ZNSt8_Rb_treeISsSt4pairIKSsS0_IiiEESt10_Select1stIS3_ESt4lessISsESaIS3_EE8_S_valueEPSt13_Rb_tree_nodeIS3_E$w$zobpzDYWRM5FPRwH0
0001:00017252* __ZNKSt10_Select1stISt4pairIKSsS0_IiiEEEclERS3_$w$zobpzDYWRM5FPRwH0
0001:00017278* __ZStltIcSt11char_traitsIcESaIcEEbRKSbIT_T0_T1_ES8_$w$zobpzDYWRM5FPRwH0
0001:00017352* __ZNSt8_Rb_treeIjSt4pairIKjjESt10_Select1stIS2_ESt4lessIjESaIS2_EE8_S_valueEPSt13_Rb_tree_nodeIS2_E$w$zobpzDYWRM5FPRwH0
0001:0001735e* __ZNKSt10_Select1stISt4pairIKjjEEclERS2_$w$zobpzDYWRM5FPRwH0
0001:000174e0* __ZTSN6Xapian15PostingIterator8InternalE$w$zobpzDYWRM5FPRwH0
0001:000178d4* __ZTIN6Xapian8Internal10RefCntBaseE$w$zobpzDYWRM5FPRwH0
0001:000174b5* __ZTSN6Xapian18UnimplementedErrorE$w$zobpzDYWRM5FPRwH0
0001:000178c8* __ZTIN6Xapian10LogicErrorE$w$zobpzDYWRM5FPRwH0
0001:0001749d* __ZTSN6Xapian12RuntimeErrorE$w$zobpzDYWRM5FPRwH0
0001:000178c0* __ZTIN6Xapian5ErrorE$w$zobpzDYWRM5FPRwH0
0001:00017484* __ZTSN6Xapian13DatabaseErrorE$w$zobpzDYWRM5FPRwH0
0001:000176f2* __ZN6Xapian15PostingIterator8InternalD1Ev$w$zobpzDYWRM5FPRwH0
0001:0001771a* __ZN6Xapian15PostingIterator8InternalD0Ev$w$zobpzDYWRM5FPRwH0
0001:000178a0* __ZTIN6Xapian16PositionIterator8InternalE$w$zobpzDYWRM5FPRwH0
0001:000176a2* __ZN6Xapian16PositionIterator8InternalD1Ev$w$zobpzDYWRM5FPRwH0
0001:000176ca* __ZN6Xapian16PositionIterator8InternalD0Ev$w$zobpzDYWRM5FPRwH0
0001:00017940* __ZTSN6Xapian16PositionIterator8InternalE$w$zobpzDYWRM5FPRwH0
0001:00017911* __ZTSN6Xapian5ErrorE$w$zobpzDYWRM5FPRwH0
0001:000178fb* __ZTSN6Xapian10LogicErrorE$w$zobpzDYWRM5FPRwH0
0001:000178dc* __ZTSN6Xapian8Internal10RefCntBaseE$w$zobpzDYWRM5FPRwH0
0002:00038ae0* __ZN16__Atomicity_lockILi0EE17_S_atomicity_lockE$w$zobpzDYWRM5FPRwH0
Module: E:\rd\dse\xapian-core-1.0.2\.libs\xapian.lib(backends\flint\flint_positionlist.cc)
0001:00017a8a  __ZN6Xapian9BitReader20decode_interpolativeERSt6vectorIjSaIjEEii
0001:00017b6e  __ZN22FlintPositionListTable16set_positionlistEjRKSsN6Xapian16PositionIteratorERKS3_
0001:00017efc  __ZN17FlintPositionList9read_dataEPK10FlintTablejRKSs
0001:0001841e  __ZNK17FlintPositionList8get_sizeEv
0001:00018434  __ZNK17FlintPositionList12get_positionEv
0001:0001844c  __ZN17FlintPositionList4nextEv
0001:00018474  __ZN17FlintPositionList7skip_toEj
0001:000184ca  __ZNK17FlintPositionList6at_endEv
0001:00018e4e  __ZNKSt6vectorIjSaIjEEixEj$w$vk4kSDXWRM5cxbMK1
0001:00018d30  __ZN9BitWriter6encodeEjj$w$vk4kSDXWRM5cxbMK1
0001:000190d6* __ZNSt6vectorIjSaIjEEixEj$w$vk4kSDXWRM5cxbMK1
0001:0001903a  __ZN6Xapian9BitReader6decodeEj$w$vk4kSDXWRM5cxbMK1
0001:00018554* __ZNSaIjEC1Ev$w$vk4kSDXWRM5cxbMK1
0001:000185b0  __ZNSt6vectorIjSaIjEEC1IN6Xapian16PositionIteratorEEET_S5_RKS0_$w$vk4kSDXWRM5cxbMK1
0001:0001855a* __ZNSaIjED1Ev$w$vk4kSDXWRM5cxbMK1
0001:00018baa* __ZN22FlintPositionListTable8make_keyEjRKSs$w$vk4kSDXWRM5cxbMK1
0001:000183e2* __ZNKSt6vectorIjSaIjEE4sizeEv$w$vk4kSDXWRM5cxbMK1
0001:000189e6* __Z9pack_uintIjESsT_$w$vk4kSDXWRM5cxbMK1
0001:00018560* __ZNSt6vectorIjSaIjEED1Ev$w$vk4kSDXWRM5cxbMK1
0001:0001867e* __ZNSt6vectorIjSaIjEE4backEv$w$vk4kSDXWRM5cxbMK1
0001:00018d02  __ZN9BitWriterC1ERKSs$w$vk4kSDXWRM5cxbMK1
0001:00018e10  __ZN9BitWriter6freezeEv$w$vk4kSDXWRM5cxbMK1
0001:00018cee  __ZN9BitWriterD1Ev$w$vk4kSDXWRM5cxbMK1
0001:0001918a* __ZNSt6vectorIjSaIjEE5clearEv$w$vk4kSDXWRM5cxbMK1
0001:00018ae4* __Z25pack_uint_preserving_sortIjESsT_$w$vk4kSDXWRM5cxbMK1
0001:000184fc* __ZStplIcSt11char_traitsIcESaIcEESbIT_T0_T1_ERKS6_S8_$w$vk4kSDXWRM5cxbMK1
0001:00019112* __ZNSt6vectorIjSaIjEE5beginEv$w$vk4kSDXWRM5cxbMK1
0001:000186bc  __ZN9__gnu_cxx17__normal_iteratorIPKjSt6vectorIjSaIjEEEC1IPjEERKNS0_IT_S5_EE$w$vk4kSDXWRM5cxbMK1
0001:000188fc  __Z11unpack_uintIjEbPPKcS1_PT_$w$vk4kSDXWRM5cxbMK1
0001:000188cc* __ZN6Xapian20DatabaseCorruptErrorC1ERKSsS2_i$w$vk4kSDXWRM5cxbMK1
0001:000188a4* __ZN6Xapian20DatabaseCorruptErrorD1Ev$w$vk4kSDXWRM5cxbMK1
0001:00019be0* __ZTIN6Xapian20DatabaseCorruptErrorE$w$vk4kSDXWRM5cxbMK1
0001:000186e6* __ZNSt6vectorIjSaIjEE9push_backERKj$w$vk4kSDXWRM5cxbMK1
0001:00018f1e  __ZN6Xapian9BitReaderC1ERKSs$w$vk4kSDXWRM5cxbMK1
0001:00018f56  __ZN6Xapian9BitReader9read_bitsEi$w$vk4kSDXWRM5cxbMK1
0001:00018742  __ZNSt6vectorIjSaIjEE6resizeEj$w$vk4kSDXWRM5cxbMK1
0001:00018f0a  __ZN6Xapian9BitReaderD1Ev$w$vk4kSDXWRM5cxbMK1
0001:00018e8a* __ZNKSt6vectorIjSaIjEE5beginEv$w$vk4kSDXWRM5cxbMK1
0001:00019278* __ZNKSt6vectorIjSaIjEE3endEv$w$vk4kSDXWRM5cxbMK1
0001:0001929e* __ZN9__gnu_cxxmiIPKjS2_St6vectorIjSaIjEEEENS_17__normal_iteratorIT_T1_E15difference_typeERKS9_RKNS6_IT0_S8_EE$w$vk4kSDXWRM5cxbMK1
0001:00018f00  __ZNK9__gnu_cxx17__normal_iteratorIPKjSt6vectorIjSaIjEEEdeEv$w$vk4kSDXWRM5cxbMK1
0001:000192d4  __ZN9__gnu_cxx17__normal_iteratorIPKjSt6vectorIjSaIjEEEppEv$w$vk4kSDXWRM5cxbMK1
0001:000192e2* __ZN9__gnu_cxxeqIPKjSt6vectorIjSaIjEEEEbRKNS_17__normal_iteratorIT_T0_EESB_$w$vk4kSDXWRM5cxbMK1
0001:0001876a* __ZSt8_DestroyIPjEvT_S1_$w$vk4kSDXWRM5cxbMK1
0001:00019350* __ZNSt12_Vector_baseIjSaIjEED2Ev$w$vk4kSDXWRM5cxbMK1
0001:00019314* __ZNSt12_Vector_baseIjSaIjEEC2ERKS0_$w$vk4kSDXWRM5cxbMK1
0001:0001878a  __ZNSt6vectorIjSaIjEE22_M_initialize_dispatchIN6Xapian16PositionIteratorEEEvT_S5_12__false_type$w$vk4kSDXWRM5cxbMK1
0001:000191c8* __ZNSt6vectorIjSaIjEE3endEv$w$vk4kSDXWRM5cxbMK1
0001:000193c2* __ZNK9__gnu_cxx17__normal_iteratorIPjSt6vectorIjSaIjEEEmiERKi$w$vk4kSDXWRM5cxbMK1
0001:00019180* __ZNK9__gnu_cxx17__normal_iteratorIPjSt6vectorIjSaIjEEEdeEv$w$vk4kSDXWRM5cxbMK1
0001:00018c18* __ZNSt8iteratorISt26random_access_iterator_tagjiPKjRS1_EC2Ev$w$vk4kSDXWRM5cxbMK1
0001:000191e8* __ZNK9__gnu_cxx17__normal_iteratorIPjSt6vectorIjSaIjEEE4baseEv$w$vk4kSDXWRM5cxbMK1
0001:000193f8* __ZSt10_ConstructIjjEvPT_RKT0_$w$vk4kSDXWRM5cxbMK1
0001:00019426* __ZNSt6vectorIjSaIjEE13_M_insert_auxEN9__gnu_cxx17__normal_iteratorIPjS1_EERKj$w$vk4kSDXWRM5cxbMK1
0001:00019662  __ZNSt6vectorIjSaIjEE6resizeEjRKj$w$vk4kSDXWRM5cxbMK1
0001:00019a62* __ZSt13__destroy_auxIPjEvT_S1_11__true_type$w$vk4kSDXWRM5cxbMK1
0001:0001882e  __ZNSt6vectorIjSaIjEE19_M_range_initializeIN6Xapian16PositionIteratorEEEvT_S5_St18input_iterator_tag$w$vk4kSDXWRM5cxbMK1
0001:00018b8a* __ZN6XapianneERKNS_16PositionIteratorES2_$w$vk4kSDXWRM5cxbMK1
0001:00018880  __ZTV17FlintPositionList$w$vk4kSDXWRM5cxbMK1
0001:00019ac4  __ZTI17FlintPositionList$w$vk4kSDXWRM5cxbMK1
0001:00018c1e  __ZN17FlintPositionListD1Ev$w$vk4kSDXWRM5cxbMK1
0001:00018c86  __ZN17FlintPositionListD0Ev$w$vk4kSDXWRM5cxbMK1
0001:00019c4c* __ZN6Xapian13DatabaseErrorD2Ev$w$vk4kSDXWRM5cxbMK1
0001:00019c60* __ZN6Xapian13DatabaseErrorC2ERKSsS2_PKci$w$vk4kSDXWRM5cxbMK1
0001:00019c90* __ZN6XapianeqERKNS_16PositionIteratorES2_$w$vk4kSDXWRM5cxbMK1
0001:00019cc0* __ZN6Xapian16PositionIterator8InternalD2Ev$w$vk4kSDXWRM5cxbMK1
0001:00019ce8  __Z6my_flsj$w$vk4kSDXWRM5cxbMK1
0001:00019d2c  __ZN9BitWriter10write_bitsEii$w$vk4kSDXWRM5cxbMK1
0001:00018ece  __ZNK9__gnu_cxx17__normal_iteratorIPKjSt6vectorIjSaIjEEEplERKi$w$vk4kSDXWRM5cxbMK1
0001:00018eb0* __ZN9__gnu_cxx17__normal_iteratorIPKjSt6vectorIjSaIjEEEC1ERKS2_$w$vk4kSDXWRM5cxbMK1
0001:0001914e* __ZNK9__gnu_cxx17__normal_iteratorIPjSt6vectorIjSaIjEEEplERKi$w$vk4kSDXWRM5cxbMK1
0001:00019130* __ZN9__gnu_cxx17__normal_iteratorIPjSt6vectorIjSaIjEEEC1ERKS1_$w$vk4kSDXWRM5cxbMK1
0001:00019df8* __ZNSt8iteratorISt26random_access_iterator_tagjiPjRjEC2Ev$w$vk4kSDXWRM5cxbMK1
0001:000191f0* __ZNSt6vectorIjSaIjEE5eraseEN9__gnu_cxx17__normal_iteratorIPjS1_EES5_$w$vk4kSDXWRM5cxbMK1
0001:00019dfe* __ZSt4copyIN9__gnu_cxx17__normal_iteratorIPjSt6vectorIjSaIjEEEES6_ET0_T_S8_S7_$w$vk4kSDXWRM5cxbMK1
0001:00019f10* __ZSt8_DestroyIN9__gnu_cxx17__normal_iteratorIPjSt6vectorIjSaIjEEEEEvT_S7_$w$vk4kSDXWRM5cxbMK1
0001:00019f36* __ZN9__gnu_cxxmiIPjS1_St6vectorIjSaIjEEEENS_17__normal_iteratorIT_T1_E15difference_typeERKS8_RKNS5_IT0_S7_EE$w$vk4kSDXWRM5cxbMK1
0001:000192cc* __ZNK9__gnu_cxx17__normal_iteratorIPKjSt6vectorIjSaIjEEE4baseEv$w$vk4kSDXWRM5cxbMK1
0001:0001932e* __ZNSt18_Vector_alloc_baseIjSaIjELb1EEC2ERKS0_$w$vk4kSDXWRM5cxbMK1
0001:00019380* __ZNSt18_Vector_alloc_baseIjSaIjELb1EE13_M_deallocateEPjj$w$vk4kSDXWRM5cxbMK1
0001:0001939a* __ZNSt14__simple_allocIjSt24__default_alloc_templateILb1ELi0EEE10deallocateEPjj$w$vk4kSDXWRM5cxbMK1
0001:00019c44* __ZnwjPv$w$vk4kSDXWRM5cxbMK1
0001:00019f64* __ZSt13copy_backwardIN9__gnu_cxx17__normal_iteratorIPjSt6vectorIjSaIjEEEES6_ET0_T_S8_S7_$w$vk4kSDXWRM5cxbMK1
0001:0001a096* __ZNSt18_Vector_alloc_baseIjSaIjELb1EE11_M_allocateEj$w$vk4kSDXWRM5cxbMK1
0001:00019a68* __ZSt18uninitialized_copyIN9__gnu_cxx17__normal_iteratorIPjSt6vectorIjSaIjEEEES6_ET0_T_S8_S7_$w$vk4kSDXWRM5cxbMK1
0001:00019738* __ZN9__gnu_cxx17__normal_iteratorIPjSt6vectorIjSaIjEEEppEv$w$vk4kSDXWRM5cxbMK1
0001:00019710  __ZNSt6vectorIjSaIjEE6insertEN9__gnu_cxx17__normal_iteratorIPjS1_EEjRKj$w$vk4kSDXWRM5cxbMK1
0001:00019746  __ZNSt6vectorIjSaIjEE14_M_fill_insertEN9__gnu_cxx17__normal_iteratorIPjS1_EEjRKj$w$vk4kSDXWRM5cxbMK1
0001:0001a0d8* __ZSt18uninitialized_copyIPjS0_ET0_T_S2_S1_$w$vk4kSDXWRM5cxbMK1
0001:0001a192  __ZSt4fillIN9__gnu_cxx17__normal_iteratorIPjSt6vectorIjSaIjEEEEjEvT_S7_RKT0_$w$vk4kSDXWRM5cxbMK1
0001:0001a1d2  __ZSt20uninitialized_fill_nIPjjjET_S1_T0_RKT1_$w$vk4kSDXWRM5cxbMK1
0001:0001a242  __ZSt18uninitialized_copyIN9__gnu_cxx17__normal_iteratorIPjSt6vectorIjSaIjEEEES2_ET0_T_S8_S7_$w$vk4kSDXWRM5cxbMK1
0001:0001a2f4* __ZSt3maxIjERKT_S2_S2_$w$vk4kSDXWRM5cxbMK1
0001:00019a94  __ZSt20uninitialized_fill_nIN9__gnu_cxx17__normal_iteratorIPjSt6vectorIjSaIjEEEEjjET_S7_T0_RKT1_$w$vk4kSDXWRM5cxbMK1
0001:0001a31a* __ZSt24__uninitialized_copy_auxIN9__gnu_cxx17__normal_iteratorIPjSt6vectorIjSaIjEEEES6_ET0_T_S8_S7_11__true_type$w$vk4kSDXWRM5cxbMK1
0001:0001a342  __ZSt26__uninitialized_fill_n_auxIN9__gnu_cxx17__normal_iteratorIPjSt6vectorIjSaIjEEEEjjET_S7_T0_RKT1_11__true_type$w$vk4kSDXWRM5cxbMK1
0001:00019c20  __ZTS17FlintPositionList$w$vk4kSDXWRM5cxbMK1
0001:0001a3c0* __ZTIN6Xapian16PositionIterator8InternalE$w$vk4kSDXWRM5cxbMK1
0001:00019c00* __ZTSN6Xapian20DatabaseCorruptErrorE$w$vk4kSDXWRM5cxbMK1
0001:0001a3e0* __ZTIN6Xapian13DatabaseErrorE$w$vk4kSDXWRM5cxbMK1
0001:00019c40* __ZNSt15basic_streambufIcSt11char_traitsIcEE13_S_pback_sizeE$w$vk4kSDXWRM5cxbMK1
0001:0001a484* __ZN6Xapian12RuntimeErrorD2Ev$w$vk4kSDXWRM5cxbMK1
0001:0001a498* __ZN6Xapian12RuntimeErrorC2ERKSsS2_PKci$w$vk4kSDXWRM5cxbMK1
0001:0001a4c8* __ZNK6Xapian8Internal9RefCntPtrINS_16PositionIterator8InternalEE3getEv$w$vk4kSDXWRM5cxbMK1
0001:0001a460* __ZTVN6Xapian16PositionIterator8InternalE$w$vk4kSDXWRM5cxbMK1
0001:00019e2a* __ZSt10__copy_ni1IN9__gnu_cxx17__normal_iteratorIPjSt6vectorIjSaIjEEEES6_ET0_T_S8_S7_11__true_type$w$vk4kSDXWRM5cxbMK1
0001:00019e74* __ZSt10__copy_ni2IPjN9__gnu_cxx17__normal_iteratorIS0_St6vectorIjSaIjEEEEET0_T_S8_S7_11__true_type$w$vk4kSDXWRM5cxbMK1
0001:00019ebc* __ZSt11__copy_aux2IjEPT_S1_S1_S1_11__true_type$w$vk4kSDXWRM5cxbMK1
0001:00019ede* __ZSt14__copy_trivialIjEPT_PKS0_S3_S1_$w$vk4kSDXWRM5cxbMK1
0001:00019f30* __ZSt13__destroy_auxIN9__gnu_cxx17__normal_iteratorIPjSt6vectorIjSaIjEEEEEvT_S7_11__true_type$w$vk4kSDXWRM5cxbMK1
0001:00019f90* __ZSt37__copy_backward_input_normal_iteratorIN9__gnu_cxx17__normal_iteratorIPjSt6vectorIjSaIjEEEES6_ET0_T_S8_S7_11__true_type$w$vk4kSDXWRM5cxbMK1
0001:00019fda* __ZSt38__copy_backward_output_normal_iteratorIPjN9__gnu_cxx17__normal_iteratorIS0_St6vectorIjSaIjEEEEET0_T_S8_S7_11__true_type$w$vk4kSDXWRM5cxbMK1
0001:0001a01e* __ZSt19__copy_backward_auxIPjS0_ET0_T_S2_S1_$w$vk4kSDXWRM5cxbMK1
0001:0001a040* __ZNSt24__copy_backward_dispatchIPjS0_11__true_typeE4copyEPKjS4_S0_$w$vk4kSDXWRM5cxbMK1
0001:0001a0aa* __ZNSt14__simple_allocIjSt24__default_alloc_templateILb1ELi0EEE8allocateEj$w$vk4kSDXWRM5cxbMK1
0001:0001a0fe* __ZSt24__uninitialized_copy_auxIPjS0_ET0_T_S2_S1_11__true_type$w$vk4kSDXWRM5cxbMK1
0001:0001a120* __ZSt4copyIPjS0_ET0_T_S2_S1_$w$vk4kSDXWRM5cxbMK1
0001:0001a146* __ZSt10__copy_ni1IPjS0_ET0_T_S2_S1_12__false_type$w$vk4kSDXWRM5cxbMK1
0001:0001a16c* __ZSt10__copy_ni2IPjS0_ET0_T_S2_S1_12__false_type$w$vk4kSDXWRM5cxbMK1
0001:0001a522* __ZN9__gnu_cxxneIPjSt6vectorIjSaIjEEEEbRKNS_17__normal_iteratorIT_T0_EESA_$w$vk4kSDXWRM5cxbMK1
0001:0001a1f8  __ZSt26__uninitialized_fill_n_auxIPjjjET_S1_T0_RKT1_11__true_type$w$vk4kSDXWRM5cxbMK1
0001:0001a21a  __ZSt6fill_nIPjjjET_S1_T0_RKT1_$w$vk4kSDXWRM5cxbMK1
0001:0001a268  __ZSt24__uninitialized_copy_auxIN9__gnu_cxx17__normal_iteratorIPjSt6vectorIjSaIjEEEES2_ET0_T_S8_S7_11__true_type$w$vk4kSDXWRM5cxbMK1
0001:0001a28a  __ZSt4copyIN9__gnu_cxx17__normal_iteratorIPjSt6vectorIjSaIjEEEES2_ET0_T_S8_S7_$w$vk4kSDXWRM5cxbMK1
0001:0001a2b0  __ZSt10__copy_ni1IN9__gnu_cxx17__normal_iteratorIPjSt6vectorIjSaIjEEEES2_ET0_T_S8_S7_11__true_type$w$vk4kSDXWRM5cxbMK1
0001:0001a36a  __ZSt6fill_nIN9__gnu_cxx17__normal_iteratorIPjSt6vectorIjSaIjEEEEjjET_S7_T0_RKT1_$w$vk4kSDXWRM5cxbMK1
0001:0001a420* __ZTSN6Xapian16PositionIterator8InternalE$w$vk4kSDXWRM5cxbMK1
0001:0001a560* __ZTIN6Xapian8Internal10RefCntBaseE$w$vk4kSDXWRM5cxbMK1
0001:0001a3ec* __ZTSN6Xapian13DatabaseErrorE$w$vk4kSDXWRM5cxbMK1
0001:0001a554* __ZTIN6Xapian12RuntimeErrorE$w$vk4kSDXWRM5cxbMK1
0001:0001a4d2* __ZN6Xapian16PositionIterator8InternalD1Ev$w$vk4kSDXWRM5cxbMK1
0001:0001a4fa* __ZN6Xapian16PositionIterator8InternalD0Ev$w$vk4kSDXWRM5cxbMK1
0001:0001a5a0* __ZN6Xapian5ErrorD2Ev$w$vk4kSDXWRM5cxbMK1
0001:0001a5d0* __ZN6Xapian5ErrorC2ERKSsS2_PKci$w$vk4kSDXWRM5cxbMK1
0001:0001a587* __ZTSN6Xapian12RuntimeErrorE$w$vk4kSDXWRM5cxbMK1
0001:0001a64c* __ZTIN6Xapian5ErrorE$w$vk4kSDXWRM5cxbMK1
0001:0001a568* __ZTSN6Xapian8Internal10RefCntBaseE$w$vk4kSDXWRM5cxbMK1
0001:0001a654* __ZTSN6Xapian5ErrorE$w$vk4kSDXWRM5cxbMK1
0002:00038b00* __ZN16__Atomicity_lockILi0EE17_S_atomicity_lockE$w$vk4kSDXWRM5cxbMK1
Module: E:\rd\dse\xapian-core-1.0.2\.libs\xapian.lib(backends\flint\flint_btreebase.cc)
0001:0001a680  __ZN15FlintTable_baseC2Ev
0001:0001a6f6  __ZN15FlintTable_baseC1Ev
0001:0001a76c  __ZN15FlintTable_baseC2ERKS_
0001:0001a8b6  __ZN15FlintTable_baseC1ERKS_
0001:0001aa00  __ZN15FlintTable_base4swapERS_
0001:0001ab22  __ZN15FlintTable_baseD2Ev
0001:0001ab6c  __ZN15FlintTable_baseD1Ev
0001:0001abd0  __ZN15FlintTable_base14do_unpack_uintEPPKcS1_PmRSsRKSsS1_
0001:0001af46  __ZN15FlintTable_base4readERKSscRSs
0001:0001c346  __ZN15FlintTable_base13write_to_fileERKSs
0001:0001cd5a  __ZN15FlintTable_base20calculate_last_blockEv
0001:0001ca4a  __ZNK15FlintTable_base19block_free_at_startEm
0001:0001ca92  __ZN15FlintTable_base10free_blockEm
0001:0001cafc  __ZN15FlintTable_base14extend_bit_mapEv
0001:0001cc68  __ZN15FlintTable_base15next_free_blockEv
0001:0001cd12  __ZN15FlintTable_base14block_free_nowEm
0001:0001ce08  __ZNK15FlintTable_base8is_emptyEv
0001:0001ce50  __ZN15FlintTable_base13clear_bit_mapEv
0001:0001ce78  __ZN15FlintTable_base6commitEv
0001:0001d37a  __ZSt4swapImEvRT_S1_$w$bGOviKRWRM5YHp9p1
0001:0001d39c  __ZSt4swapIbEvRT_S1_$w$bGOviKRWRM5YHp9p1
0001:0001d3c2  __ZSt4swapIPhEvRT_S2_$w$bGOviKRWRM5YHp9p1
0001:0001d3e4  __Z11unpack_uintImEbPPKcS1_PT_$w$bGOviKRWRM5YHp9p1
0001:0001cf6a* __ZStplIcSt11char_traitsIcESaIcEESbIT_T0_T1_EPKS3_RKS6_$w$bGOviKRWRM5YHp9p1
0001:0001adea* __ZStplIcSt11char_traitsIcESaIcEESbIT_T0_T1_ERKS6_PKS3_$w$bGOviKRWRM5YHp9p1
0001:0001ceac* __ZStplIcSt11char_traitsIcESaIcEESbIT_T0_T1_ERKS6_S8_$w$bGOviKRWRM5YHp9p1
0001:0001cf04* __ZStplIcSt11char_traitsIcESaIcEESbIT_T0_T1_ERKS6_S3_$w$bGOviKRWRM5YHp9p1
0001:0001d34e  __ZN8fdcloserC1Ei$w$bGOviKRWRM5YHp9p1
0001:0001d35c  __ZN8fdcloserD1Ev$w$bGOviKRWRM5YHp9p1
0001:0001d002  __Z9pack_uintImESsT_$w$bGOviKRWRM5YHp9p1
0001:0001d250  __Z9pack_uintIjESsT_$w$bGOviKRWRM5YHp9p1
0001:0001d1de  __Z9pack_uintIbESsT_$w$bGOviKRWRM5YHp9p1
0001:0001d188* __ZN6Xapian20DatabaseOpeningErrorC1ERKSsS2_i$w$bGOviKRWRM5YHp9p1
0001:0001d160* __ZN6Xapian20DatabaseOpeningErrorD1Ev$w$bGOviKRWRM5YHp9p1
0001:0001d4d0* __ZTIN6Xapian20DatabaseOpeningErrorE$w$bGOviKRWRM5YHp9p1
0001:0001d1b8  __Z13flint_io_synci$w$bGOviKRWRM5YHp9p1
0001:0001d14c* __ZNSt11char_traitsIcE6lengthEPKc$w$bGOviKRWRM5YHp9p1
0001:0001d100* __ZNSs6appendIPKcEERSsT_S3_$w$bGOviKRWRM5YHp9p1
0001:0001d50a* __ZN6Xapian13DatabaseErrorD2Ev$w$bGOviKRWRM5YHp9p1
0001:0001d51e* __ZN6Xapian13DatabaseErrorC2ERKSsS2_PKci$w$bGOviKRWRM5YHp9p1
0001:0001d4e0* __ZTSN6Xapian20DatabaseOpeningErrorE$w$bGOviKRWRM5YHp9p1
0001:0001d550* __ZTIN6Xapian13DatabaseErrorE$w$bGOviKRWRM5YHp9p1
0001:0001d576* __ZN6Xapian12RuntimeErrorD2Ev$w$bGOviKRWRM5YHp9p1
0001:0001d58a* __ZN6Xapian12RuntimeErrorC2ERKSsS2_PKci$w$bGOviKRWRM5YHp9p1
0001:0001d55c* __ZTSN6Xapian13DatabaseErrorE$w$bGOviKRWRM5YHp9p1
0001:0001d5bc* __ZTIN6Xapian12RuntimeErrorE$w$bGOviKRWRM5YHp9p1
0001:0001d5e0* __ZN6Xapian5ErrorD2Ev$w$bGOviKRWRM5YHp9p1
0001:0001d610* __ZN6Xapian5ErrorC2ERKSsS2_PKci$w$bGOviKRWRM5YHp9p1
0001:0001d5c8* __ZTSN6Xapian12RuntimeErrorE$w$bGOviKRWRM5YHp9p1
0001:0001d68c* __ZTIN6Xapian5ErrorE$w$bGOviKRWRM5YHp9p1
0001:0001d694* __ZTSN6Xapian5ErrorE$w$bGOviKRWRM5YHp9p1
0002:00038b10* __ZN16__Atomicity_lockILi0EE17_S_atomicity_lockE$w$bGOviKRWRM5YHp9p1
Module: E:\rd\dse\xapian-core-1.0.2\.libs\xapian.lib(api\omtermlistiterator.cc)
0001:0001d6c0  __ZN6Xapian12TermIteratorC2EPNS0_8InternalE
0001:0001d764  __ZN6Xapian12TermIteratorC1EPNS0_8InternalE
0001:0001d808  __ZN6Xapian12TermIteratorC2Ev
0001:0001d824  __ZN6Xapian12TermIteratorC1Ev
0001:0001d840  __ZN6Xapian12TermIteratorD2Ev
0001:0001d854  __ZN6Xapian12TermIteratorD1Ev
0001:0001d868  __ZN6Xapian12TermIteratorC2ERKS0_
0001:0001d882  __ZN6Xapian12TermIteratorC1ERKS0_
0001:0001d89c  __ZN6Xapian12TermIteratoraSERKS0_
0001:0001d8c0  __ZNK6Xapian12TermIteratordeEv
0001:0001d8f2  __ZNK6Xapian12TermIterator7get_wdfEv
0001:0001d912  __ZNK6Xapian12TermIterator12get_termfreqEv
0001:0001d932  __ZN6Xapian12TermIteratorppEv
0001:0001d992  __ZN6Xapian12TermIterator7skip_toERKSs
0001:0001da06  __ZNK6Xapian12TermIterator18positionlist_countEv
0001:0001da26  __ZNK6Xapian12TermIterator18positionlist_beginEv
0001:0001da6e  __ZNK6Xapian12TermIterator15get_descriptionEv
0001:0001db60  __ZN6Xapian8Internal9RefCntPtrINS_12TermIterator8InternalEEC1EPS3_$w$PA7wwzIWRM5fJ5Ot2
0001:0001dad2* __ZNK6Xapian8Internal9RefCntPtrINS_12TermIterator8InternalEE3getEv$w$PA7wwzIWRM5fJ5Ot2
0001:0001d8b6  __ZNK6Xapian8Internal9RefCntPtrINS_12TermIterator8InternalEEptEv$w$PA7wwzIWRM5fJ5Ot2
0001:0001db40  __Z12handle_pruneRN6Xapian8Internal9RefCntPtrINS_12TermIterator8InternalEEEPS3_$w$PA7wwzIWRM5fJ5Ot2
0001:0001dadc  __ZN6Xapian8Internal9RefCntPtrINS_12TermIterator8InternalEEaSEPS3_$w$PA7wwzIWRM5fJ5Ot2
0001:0001db80  __ZN6Xapian8Internal9RefCntPtrINS_12TermIterator8InternalEED1Ev$w$PA7wwzIWRM5fJ5Ot2
0001:0001dbca  __ZN6Xapian8Internal9RefCntPtrINS_12TermIterator8InternalEEC1ERKS4_$w$PA7wwzIWRM5fJ5Ot2
0001:0001dbec  __ZN6Xapian8Internal9RefCntPtrINS_12TermIterator8InternalEEaSERKS4_$w$PA7wwzIWRM5fJ5Ot2
0001:0001dc14* __ZNSt15basic_streambufIcSt11char_traitsIcEE13_S_pback_sizeE$w$PA7wwzIWRM5fJ5Ot2
0002:00038b20* __ZN16__Atomicity_lockILi0EE17_S_atomicity_lockE$w$PA7wwzIWRM5fJ5Ot2
Module: E:\rd\dse\xapian-core-1.0.2\.libs\xapian.lib(expand\ortermlist.cc)
0001:0001dc20  __ZNK10OrTermList13check_startedEv
0001:0001dc26  __ZN10OrTermListD2Ev
0001:0001dd0e  __ZN10OrTermListD1Ev
0001:0001ddf6  __ZN10OrTermListD0Ev
0001:0001dede  __ZNK10OrTermList15get_approx_sizeEv
0001:0001df22  __ZNK10OrTermList16accumulate_statsERN6Xapian8Internal11ExpandStatsE
0001:0001dfac  __ZNK10OrTermList12get_termnameEv
0001:0001e00c  __ZNK10OrTermList7get_wdfEv
0001:0001e0d0  __ZNK10OrTermList12get_termfreqEv
0001:0001e13a  __ZN10OrTermList4nextEv
0001:0001e4b6  __ZNK10OrTermList6at_endEv
0001:0001e4ce  __ZNK10OrTermList18positionlist_countEv
0001:0001e4d8  __ZNK10OrTermList18positionlist_beginEv
0001:0001e4fc  __ZN19FreqAdderOrTermListD2Ev
0001:0001e530  __ZN19FreqAdderOrTermListD1Ev
0001:0001e564  __ZN19FreqAdderOrTermListD0Ev
0001:0001e598  __ZNK19FreqAdderOrTermList12get_termfreqEv
0001:0001e700  __ZTV10OrTermList$w$T2ROn2gXRM5Ubs9O1
0001:0001e73c* __ZStleIcSt11char_traitsIcESaIcEEbRKSbIT_T0_T1_ES8_$w$T2ROn2gXRM5Ubs9O1
0001:0001e65c  __ZStgeIcSt11char_traitsIcESaIcEEbRKSbIT_T0_T1_ES8_$w$T2ROn2gXRM5Ubs9O1
0001:0001e76a* __ZStltIcSt11char_traitsIcESaIcEEbRKSbIT_T0_T1_ES8_$w$T2ROn2gXRM5Ubs9O1
0001:0001e688* __ZStgtIcSt11char_traitsIcESaIcEEbRKSbIT_T0_T1_ES8_$w$T2ROn2gXRM5Ubs9O1
0001:0001e788  __Z12handle_pruneRPN6Xapian12TermIterator8InternalES2_$w$T2ROn2gXRM5Ubs9O1
0001:0001e6c0  __ZTV19FreqAdderOrTermList$w$T2ROn2gXRM5Ubs9O1
0001:0001e7c8  __ZTI19FreqAdderOrTermList$w$T2ROn2gXRM5Ubs9O1
0001:0001e7bc  __ZTI10OrTermList$w$T2ROn2gXRM5Ubs9O1
0001:0001e7ea  __ZTS10OrTermList$w$T2ROn2gXRM5Ubs9O1
0001:0001e820* __ZTIN6Xapian12TermIterator8InternalE$w$T2ROn2gXRM5Ubs9O1
0001:0001e7d4  __ZTS19FreqAdderOrTermList$w$T2ROn2gXRM5Ubs9O1
0001:0001e804* __ZNSt15basic_streambufIcSt11char_traitsIcEE13_S_pback_sizeE$w$T2ROn2gXRM5Ubs9O1
0001:0001e840* __ZTSN6Xapian12TermIterator8InternalE$w$T2ROn2gXRM5Ubs9O1
0001:0001e864* __ZTIN6Xapian8Internal10RefCntBaseE$w$T2ROn2gXRM5Ubs9O1
0001:0001e86c* __ZTSN6Xapian8Internal10RefCntBaseE$w$T2ROn2gXRM5Ubs9O1
0002:00038b30* __ZN16__Atomicity_lockILi0EE17_S_atomicity_lockE$w$T2ROn2gXRM5Ubs9O1
Module: E:\rd\dse\xapian-core-1.0.2\.libs\xapian.lib(backends\flint\flint_io.cc)
0001:0001e8d4  __Z13flint_io_readiPcjj
0001:0001eb90  __Z14flint_io_writeiPKcj
0001:0001ecea* __ZN6Xapian13DatabaseErrorC1ERKSsS2_i$w$z28N7qVWRM5LRCO13
0001:0001ecc8* __ZN6Xapian13DatabaseErrorD1Ev$w$z28N7qVWRM5LRCO13
0001:0001edc4* __ZTIN6Xapian13DatabaseErrorE$w$z28N7qVWRM5LRCO13
0001:0001ed1a  __ZN6Xapian13DatabaseErrorC1ERKSsi$w$z28N7qVWRM5LRCO13
0001:0001edea* __ZN6Xapian12RuntimeErrorD2Ev$w$z28N7qVWRM5LRCO13
0001:0001edfe* __ZN6Xapian12RuntimeErrorC2ERKSsS2_PKci$w$z28N7qVWRM5LRCO13
0001:0001edd0* __ZTSN6Xapian13DatabaseErrorE$w$z28N7qVWRM5LRCO13
0001:0001ee30* __ZTIN6Xapian12RuntimeErrorE$w$z28N7qVWRM5LRCO13
0001:0001ee54* __ZN6Xapian5ErrorD2Ev$w$z28N7qVWRM5LRCO13
0001:0001ee84* __ZN6Xapian5ErrorC2ERKSsS2_PKci$w$z28N7qVWRM5LRCO13
0001:0001ee3c* __ZTSN6Xapian12RuntimeErrorE$w$z28N7qVWRM5LRCO13
0001:0001ef00* __ZTIN6Xapian5ErrorE$w$z28N7qVWRM5LRCO13
0001:0001ef08* __ZTSN6Xapian5ErrorE$w$z28N7qVWRM5LRCO13
0002:00038b40* __ZN16__Atomicity_lockILi0EE17_S_atomicity_lockE$w$z28N7qVWRM5LRCO13
Module: E:\rd\dse\xapian-core-1.0.2\.libs\xapian.lib(matcher\msetcmp.cc)
0001:0001ef20  __Z20get_msetcmp_functionN6Xapian7Enquire8Internal12sort_settingEbb
0001:0001ef4e  __Z20msetcmp_by_relevanceILb0EEbRKN6Xapian8Internal8MSetItemES4_$w$zwbJQaCXRM5MTMG81
0001:0001efac  __Z20msetcmp_by_relevanceILb1EEbRKN6Xapian8Internal8MSetItemES4_$w$zwbJQaCXRM5MTMG81
0001:0001f00a  __Z16msetcmp_by_valueILb0ELb0EEbRKN6Xapian8Internal8MSetItemES4_$w$zwbJQaCXRM5MTMG81
0001:0001f09c  __Z16msetcmp_by_valueILb1ELb0EEbRKN6Xapian8Internal8MSetItemES4_$w$zwbJQaCXRM5MTMG81
0001:0001f10a  __Z16msetcmp_by_valueILb0ELb1EEbRKN6Xapian8Internal8MSetItemES4_$w$zwbJQaCXRM5MTMG81
0001:0001f19c  __Z16msetcmp_by_valueILb1ELb1EEbRKN6Xapian8Internal8MSetItemES4_$w$zwbJQaCXRM5MTMG81
0001:0001f20a  __Z31msetcmp_by_value_then_relevanceILb0ELb0EEbRKN6Xapian8Internal8MSetItemES4_$w$zwbJQaCXRM5MTMG81
0001:0001f2dc  __Z31msetcmp_by_value_then_relevanceILb1ELb0EEbRKN6Xapian8Internal8MSetItemES4_$w$zwbJQaCXRM5MTMG81
0001:0001f384  __Z31msetcmp_by_value_then_relevanceILb0ELb1EEbRKN6Xapian8Internal8MSetItemES4_$w$zwbJQaCXRM5MTMG81
0001:0001f456  __Z31msetcmp_by_value_then_relevanceILb1ELb1EEbRKN6Xapian8Internal8MSetItemES4_$w$zwbJQaCXRM5MTMG81
0001:0001f4fe  __Z31msetcmp_by_relevance_then_valueILb1ELb1EEbRKN6Xapian8Internal8MSetItemES4_$w$zwbJQaCXRM5MTMG81
0001:0001f5a6  __Z31msetcmp_by_relevance_then_valueILb0ELb1EEbRKN6Xapian8Internal8MSetItemES4_$w$zwbJQaCXRM5MTMG81
0001:0001f678  __Z31msetcmp_by_relevance_then_valueILb1ELb0EEbRKN6Xapian8Internal8MSetItemES4_$w$zwbJQaCXRM5MTMG81
0001:0001f720  __Z31msetcmp_by_relevance_then_valueILb0ELb0EEbRKN6Xapian8Internal8MSetItemES4_$w$zwbJQaCXRM5MTMG81
0001:0001f7f2  __Z14msetcmp_by_didILb0ELb1EEbRKN6Xapian8Internal8MSetItemES4_$w$zwbJQaCXRM5MTMG81
0001:0001f80a  __Z14msetcmp_by_didILb1ELb1EEbRKN6Xapian8Internal8MSetItemES4_$w$zwbJQaCXRM5MTMG81
0001:0001f84e* __ZStgtIcSt11char_traitsIcESaIcEEbRKSbIT_T0_T1_ES8_$w$zwbJQaCXRM5MTMG81
0001:0001f87c* __ZStltIcSt11char_traitsIcESaIcEEbRKSbIT_T0_T1_ES8_$w$zwbJQaCXRM5MTMG81
0001:0001f89a  __Z14msetcmp_by_didILb0ELb0EEbRKN6Xapian8Internal8MSetItemES4_$w$zwbJQaCXRM5MTMG81
0001:0001f8b2  __Z14msetcmp_by_didILb1ELb0EEbRKN6Xapian8Internal8MSetItemES4_$w$zwbJQaCXRM5MTMG81
0001:0001f8e0* __ZNSt15basic_streambufIcSt11char_traitsIcEE13_S_pback_sizeE$w$zwbJQaCXRM5MTMG81
0002:00038b50* __ZN16__Atomicity_lockILi0EE17_S_atomicity_lockE$w$zwbJQaCXRM5MTMG81
Module: E:\rd\dse\xapian-core-1.0.2\.libs\xapian.lib(backends\flint\flint_spelling.cc)
0001:0001f8f2  __ZN18FlintSpellingTable13merge_changesEv
0001:0001ff8a  __ZN18FlintSpellingTable12add_fragmentE8fragmentRKSs
0001:000201d8  __ZN18FlintSpellingTable8add_wordERKSsj
0001:000207f0  __ZN18FlintSpellingTable15remove_fragmentE8fragmentRKSs
0001:00020866  __ZN18FlintSpellingTable11remove_wordERKSsj
0001:00020e48  __ZN18FlintSpellingTable13open_termlistERKSs
0001:00021c18  __ZNK18FlintSpellingTable18get_word_frequencyERKSs
0001:00021f1e  __ZN21FlintSpellingTermListD2Ev
0001:00021f6e  __ZN21FlintSpellingTermListD1Ev
0001:00021fbe  __ZN21FlintSpellingTermListD0Ev
0001:0002200e  __ZNK21FlintSpellingTermList15get_approx_sizeEv
0001:0002205e  __ZNK21FlintSpellingTermList16accumulate_statsERN6Xapian8Internal11ExpandStatsE
0001:000221a4  __ZNK21FlintSpellingTermList12get_termnameEv
0001:000221ca  __ZNK21FlintSpellingTermList7get_wdfEv
0001:000221d4  __ZNK21FlintSpellingTermList12get_termfreqEv
0001:000221de  __ZNK21FlintSpellingTermList19get_collection_freqEv
0001:000221fe  __ZN21FlintSpellingTermList4nextEv
0001:000225de  __ZNK21FlintSpellingTermList6at_endEv
0001:00022634  __ZNK21FlintSpellingTermList18positionlist_countEv
0001:000227b6  __ZNK21FlintSpellingTermList18positionlist_beginEv
0001:00023b9c  __ZNSt17_Rb_tree_iteratorISt4pairIK8fragmentSt3setISsSt4lessISsESaISsEEERKS8_PS9_EC1Ev$w$rIfHmn0XRM5Tq8Yy4
0001:00023bb0  __ZNSt3mapI8fragmentSt3setISsSt4lessISsESaISsEES2_IS0_ESaISt4pairIKS0_S5_EEE5beginEv$w$rIfHmn0XRM5Tq8Yy4
0001:00023c2e  __ZNSt17_Rb_tree_iteratorISt4pairIK8fragmentSt3setISsSt4lessISsESaISsEEERKS8_PS9_EC1ERKS_IS8_RS8_PS8_E$w$rIfHmn0XRM5Tq8Yy4
0001:00023c4c  __ZNSt3mapI8fragmentSt3setISsSt4lessISsESaISsEES2_IS0_ESaISt4pairIKS0_S5_EEE3endEv$w$rIfHmn0XRM5Tq8Yy4
0001:00023c98  __ZStneISt4pairIK8fragmentSt3setISsSt4lessISsESaISsEEEEbRKSt17_Rb_tree_iteratorIT_RKSA_PSB_ERKS9_ISA_RSA_PSA_E$w$rIfHmn0XRM5Tq8Yy4
0001:00023cc4  __ZNKSt17_Rb_tree_iteratorISt4pairIK8fragmentSt3setISsSt4lessISsESaISsEEERKS8_PS9_EptEv$w$rIfHmn0XRM5Tq8Yy4
0001:00023404  __ZNK8fragmentcvSsEv$w$rIfHmn0XRM5Tq8Yy4
0001:00022910  __ZNKSt3setISsSt4lessISsESaISsEE5beginEv$w$rIfHmn0XRM5Tq8Yy4
0001:00023a24  __ZN28PrefixCompressedStringWriterC1ERSs$w$rIfHmn0XRM5Tq8Yy4
0001:000238e2  __ZN26PrefixCompressedStringItorC1ERKSs$w$rIfHmn0XRM5Tq8Yy4
0001:000239fe  __ZNK26PrefixCompressedStringItor6at_endEv$w$rIfHmn0XRM5Tq8Yy4
0001:00023962  __ZNK26PrefixCompressedStringItordeEv$w$rIfHmn0XRM5Tq8Yy4
0001:0002292a  __ZNKSt17_Rb_tree_iteratorISsRKSsPS0_EdeEv$w$rIfHmn0XRM5Tq8Yy4
0001:000200e4* __ZStltIcSt11char_traitsIcESaIcEEbRKSbIT_T0_T1_ES8_$w$rIfHmn0XRM5Tq8Yy4
0001:00023a40  __ZN28PrefixCompressedStringWriter6appendERKSs$w$rIfHmn0XRM5Tq8Yy4
0001:000236d4  __ZN26PrefixCompressedStringItorppEv$w$rIfHmn0XRM5Tq8Yy4
0001:00022938* __ZStgtIcSt11char_traitsIcESaIcEEbRKSbIT_T0_T1_ES8_$w$rIfHmn0XRM5Tq8Yy4
0001:00022966  __ZNSt17_Rb_tree_iteratorISsRKSsPS0_EppEi$w$rIfHmn0XRM5Tq8Yy4
0001:00022984* __ZNKSt3setISsSt4lessISsESaISsEE3endEv$w$rIfHmn0XRM5Tq8Yy4
0001:0002299e* __ZSteqISsRKSsPS0_EbRKSt17_Rb_tree_iteratorIT_T0_T1_ES9_$w$rIfHmn0XRM5Tq8Yy4
0001:000229b4  __ZNSt17_Rb_tree_iteratorISsRKSsPS0_EppEv$w$rIfHmn0XRM5Tq8Yy4
0001:0002396e  __ZN26PrefixCompressedStringItorppEi$w$rIfHmn0XRM5Tq8Yy4
0001:0002369a  __ZN26PrefixCompressedStringItorD1Ev$w$rIfHmn0XRM5Tq8Yy4
0001:000229ca  __ZStneISsRKSsPS0_EbRKSt17_Rb_tree_iteratorIT_T0_T1_ES9_$w$rIfHmn0XRM5Tq8Yy4
0001:00023a10  __ZN28PrefixCompressedStringWriterD1Ev$w$rIfHmn0XRM5Tq8Yy4
0001:00023cae  __ZNSt17_Rb_tree_iteratorISt4pairIK8fragmentSt3setISsSt4lessISsESaISsEEERKS8_PS9_EppEv$w$rIfHmn0XRM5Tq8Yy4
0001:000228fc* __ZNSt3mapI8fragmentSt3setISsSt4lessISsESaISsEES2_IS0_ESaISt4pairIKS0_S5_EEE5clearEv$w$rIfHmn0XRM5Tq8Yy4
0001:00021bf0* __ZNSt17_Rb_tree_iteratorISt4pairIKSsjERKS2_PS3_EC1Ev$w$rIfHmn0XRM5Tq8Yy4
0001:000229e0  __ZNSt3mapISsjSt4lessISsESaISt4pairIKSsjEEE5beginEv$w$rIfHmn0XRM5Tq8Yy4
0001:00022a06  __ZNSt17_Rb_tree_iteratorISt4pairIKSsjERKS2_PS3_EC1ERKS_IS2_RS2_PS2_E$w$rIfHmn0XRM5Tq8Yy4
0001:00020102* __ZNSt3mapISsjSt4lessISsESaISt4pairIKSsjEEE3endEv$w$rIfHmn0XRM5Tq8Yy4
0001:00022a24  __ZStneISt4pairIKSsjEEbRKSt17_Rb_tree_iteratorIT_RKS4_PS5_ERKS3_IS4_RS4_PS4_E$w$rIfHmn0XRM5Tq8Yy4
0001:00021c04* __ZNKSt17_Rb_tree_iteratorISt4pairIKSsjERKS2_PS3_EptEv$w$rIfHmn0XRM5Tq8Yy4
0001:00020128* __ZStplIcSt11char_traitsIcESaIcEESbIT_T0_T1_EPKS3_RKS6_$w$rIfHmn0XRM5Tq8Yy4
0001:00022a50  __Z14pack_uint_lastIjESsT_$w$rIfHmn0XRM5Tq8Yy4
0001:00022a3a* __ZNSt17_Rb_tree_iteratorISt4pairIKSsjERKS2_PS3_EppEv$w$rIfHmn0XRM5Tq8Yy4
0001:0002355c* __ZNSt3mapISsjSt4lessISsESaISt4pairIKSsjEEE5clearEv$w$rIfHmn0XRM5Tq8Yy4
0001:00023ce6  __ZNSt3mapI8fragmentSt3setISsSt4lessISsESaISsEES2_IS0_ESaISt4pairIKS0_S5_EEE4findERS8_$w$rIfHmn0XRM5Tq8Yy4
0001:00022ab0  __ZSteqISt4pairIK8fragmentSt3setISsSt4lessISsESaISsEEERS8_PS8_EbRKSt17_Rb_tree_iteratorIT_T0_T1_ESH_$w$rIfHmn0XRM5Tq8Yy4
0001:00022ac6* __ZNSt3setISsSt4lessISsESaISsEEC1Ev$w$rIfHmn0XRM5Tq8Yy4
0001:00022b24  __ZSt9make_pairI8fragmentSt3setISsSt4lessISsESaISsEEESt4pairIT_T0_ES7_S8_$w$rIfHmn0XRM5Tq8Yy4
0001:00022b4e  __ZNSt4pairIK8fragmentSt3setISsSt4lessISsESaISsEEEC1IS0_S6_EERKS_IT_T0_E$w$rIfHmn0XRM5Tq8Yy4
0001:00022b78  __ZNSt3mapI8fragmentSt3setISsSt4lessISsESaISsEES2_IS0_ESaISt4pairIKS0_S5_EEE6insertERKS9_$w$rIfHmn0XRM5Tq8Yy4
0001:000234ae* __ZNSt4pairIK8fragmentSt3setISsSt4lessISsESaISsEEED1Ev$w$rIfHmn0XRM5Tq8Yy4
0001:00023f5c  __ZNSt4pairI8fragmentSt3setISsSt4lessISsESaISsEEED1Ev$w$rIfHmn0XRM5Tq8Yy4
0001:0002349a* __ZNSt3setISsSt4lessISsESaISsEED1Ev$w$rIfHmn0XRM5Tq8Yy4
0001:00022ba4  __ZNKSt17_Rb_tree_iteratorISt4pairIK8fragmentSt3setISsSt4lessISsESaISsEEERS8_PS8_EptEv$w$rIfHmn0XRM5Tq8Yy4
0001:00022bb8  __ZNSt3setISsSt4lessISsESaISsEE6insertERKSs$w$rIfHmn0XRM5Tq8Yy4
0001:00023fda* __ZNSt8_Rb_treeISsSt4pairIKSsjESt10_Select1stIS2_ESt4lessISsESaIS2_EE3endEv$w$rIfHmn0XRM5Tq8Yy4
0001:000232ac* __ZNSt11char_traitsIcE6lengthEPKc$w$rIfHmn0XRM5Tq8Yy4
0001:00022c10* __ZNSs6appendIPKcEERSsT_S3_$w$rIfHmn0XRM5Tq8Yy4
0001:00023f72* __ZNSt3mapISsjSt4lessISsESaISt4pairIKSsjEEE4findERS3_$w$rIfHmn0XRM5Tq8Yy4
0001:00024128* __ZStneISt4pairIKSsjERS2_PS2_EbRKSt17_Rb_tree_iteratorIT_T0_T1_ESB_$w$rIfHmn0XRM5Tq8Yy4
0001:0002413e  __ZNKSt17_Rb_tree_iteratorISt4pairIKSsjERS2_PS2_EptEv$w$rIfHmn0XRM5Tq8Yy4
0001:00022c5c  __Z16unpack_uint_lastIjEbPPKcS1_PT_$w$rIfHmn0XRM5Tq8Yy4
0001:0002333e* __ZN6Xapian20DatabaseCorruptErrorC1ERKSsS2_i$w$rIfHmn0XRM5Tq8Yy4
0001:00023316* __ZN6Xapian20DatabaseCorruptErrorD1Ev$w$rIfHmn0XRM5Tq8Yy4
0001:00026368* __ZTIN6Xapian20DatabaseCorruptErrorE$w$rIfHmn0XRM5Tq8Yy4
0001:00022cd4* __ZNSt3mapISsjSt4lessISsESaISt4pairIKSsjEEEixERS3_$w$rIfHmn0XRM5Tq8Yy4
0001:000233f2  __ZN8fragmentC1Ev$w$rIfHmn0XRM5Tq8Yy4
0001:000233f8  __ZN8fragmentixEj$w$rIfHmn0XRM5Tq8Yy4
0001:00022e0c  __ZStneISt4pairIK8fragmentSt3setISsSt4lessISsESaISsEEERS8_PS8_EbRKSt17_Rb_tree_iteratorIT_T0_T1_ESH_$w$rIfHmn0XRM5Tq8Yy4
0001:00022e22  __ZNSt3setISsSt4lessISsESaISsEE5eraseERKSs$w$rIfHmn0XRM5Tq8Yy4
0001:00023534* __ZNKSt3mapISsjSt4lessISsESaISt4pairIKSsjEEE5emptyEv$w$rIfHmn0XRM5Tq8Yy4
0001:00022e3c* __ZNSaIPN6Xapian12TermIterator8InternalEEC1Ev$w$rIfHmn0XRM5Tq8Yy4
0001:00022e48* __ZNSt6vectorIPN6Xapian12TermIterator8InternalESaIS3_EEC1ERKS4_$w$rIfHmn0XRM5Tq8Yy4
0001:00022e62  __ZNSt14priority_queueIPN6Xapian12TermIterator8InternalESt6vectorIS3_SaIS3_EE25TermListGreaterApproxSizeEC1ERKS7_RKS6_$w$rIfHmn0XRM5Tq8Yy4
0001:00024174* __ZNSt6vectorIPN6Xapian12TermIterator8InternalESaIS3_EED1Ev$w$rIfHmn0XRM5Tq8Yy4
0001:00022e42* __ZNSaIPN6Xapian12TermIterator8InternalEED1Ev$w$rIfHmn0XRM5Tq8Yy4
0001:000235e0  __ZN21FlintSpellingTermListC1ERKSs$w$rIfHmn0XRM5Tq8Yy4
0001:00022ef6  __ZNSt14priority_queueIPN6Xapian12TermIterator8InternalESt6vectorIS3_SaIS3_EE25TermListGreaterApproxSizeE4pushERKS3_$w$rIfHmn0XRM5Tq8Yy4
0001:00022f82  __ZNKSt14priority_queueIPN6Xapian12TermIterator8InternalESt6vectorIS3_SaIS3_EE25TermListGreaterApproxSizeE5emptyEv$w$rIfHmn0XRM5Tq8Yy4
0001:00024160  __ZNSt14priority_queueIPN6Xapian12TermIterator8InternalESt6vectorIS3_SaIS3_EE25TermListGreaterApproxSizeED1Ev$w$rIfHmn0XRM5Tq8Yy4
0001:00022f98  __ZNKSt14priority_queueIPN6Xapian12TermIterator8InternalESt6vectorIS3_SaIS3_EE25TermListGreaterApproxSizeE4sizeEv$w$rIfHmn0XRM5Tq8Yy4
0001:00022fac  __ZNKSt14priority_queueIPN6Xapian12TermIterator8InternalESt6vectorIS3_SaIS3_EE25TermListGreaterApproxSizeE3topEv$w$rIfHmn0XRM5Tq8Yy4
0001:00022fde  __ZNSt14priority_queueIPN6Xapian12TermIterator8InternalESt6vectorIS3_SaIS3_EE25TermListGreaterApproxSizeE3popEv$w$rIfHmn0XRM5Tq8Yy4
0001:00023650* __ZN10OrTermListC1EPN6Xapian12TermIterator8InternalES3_$w$rIfHmn0XRM5Tq8Yy4
0001:0002336e* __ZNSt22_Rb_tree_base_iteratorC2Ev$w$rIfHmn0XRM5Tq8Yy4
0001:0002437c* __ZNKSt17_Rb_tree_iteratorISt4pairIKSsjERKS2_PS3_EdeEv$w$rIfHmn0XRM5Tq8Yy4
0001:00024230* __ZNKSt3mapISsjSt4lessISsESaISt4pairIKSsjEEE4findERS3_$w$rIfHmn0XRM5Tq8Yy4
0001:0002434c* __ZNKSt3mapISsjSt4lessISsESaISt4pairIKSsjEEE3endEv$w$rIfHmn0XRM5Tq8Yy4
0001:00024366* __ZStneISt4pairIKSsjERKS2_PS3_EbRKSt17_Rb_tree_iteratorIT_T0_T1_ESC_$w$rIfHmn0XRM5Tq8Yy4
0001:00023270  __ZTV21FlintSpellingTermList$w$rIfHmn0XRM5Tq8Yy4
0001:000232e6* __ZN6Xapian18UnimplementedErrorC1ERKSsS2_i$w$rIfHmn0XRM5Tq8Yy4
0001:000232c0* __ZN6Xapian18UnimplementedErrorD1Ev$w$rIfHmn0XRM5Tq8Yy4
0001:00026374* __ZTIN6Xapian18UnimplementedErrorE$w$rIfHmn0XRM5Tq8Yy4
0001:000234c4* __ZNSt8_Rb_treeI8fragmentSt4pairIKS0_St3setISsSt4lessISsESaISsEEESt10_Select1stIS8_ES4_IS0_ESaIS8_EE5clearEv$w$rIfHmn0XRM5Tq8Yy4
0001:00024418  __ZNKSt8_Rb_treeISsSsSt9_IdentityISsESt4lessISsESaISsEE5beginEv$w$rIfHmn0XRM5Tq8Yy4
0001:00023374* __ZNSt22_Rb_tree_base_iterator12_M_incrementEv$w$rIfHmn0XRM5Tq8Yy4
0001:0002446a* __ZNKSt8_Rb_treeISsSsSt9_IdentityISsESt4lessISsESaISsEE3endEv$w$rIfHmn0XRM5Tq8Yy4
0001:0002448a* __ZNSt8_Rb_treeISsSt4pairIKSsjESt10_Select1stIS2_ESt4lessISsESaIS2_EE5beginEv$w$rIfHmn0XRM5Tq8Yy4
0001:00023062* __ZNSaISsEC1Ev$w$rIfHmn0XRM5Tq8Yy4
0001:000244e6* __ZNSt8_Rb_treeISsSsSt9_IdentityISsESt4lessISsESaISsEEC1ERKS3_RKS4_$w$rIfHmn0XRM5Tq8Yy4
0001:00023068* __ZNSaISsED1Ev$w$rIfHmn0XRM5Tq8Yy4
0001:00024814  __ZNSt4pairI8fragmentSt3setISsSt4lessISsESaISsEEEC1ERKS0_RKS5_$w$rIfHmn0XRM5Tq8Yy4
0001:00023f42  __ZNSt3setISsSt4lessISsESaISsEEC1ERKS3_$w$rIfHmn0XRM5Tq8Yy4
0001:0002483c  __ZNSt8_Rb_treeI8fragmentSt4pairIKS0_St3setISsSt4lessISsESaISsEEESt10_Select1stIS8_ES4_IS0_ESaIS8_EE13insert_uniqueERKS8_$w$rIfHmn0XRM5Tq8Yy4
0001:00024a1c  __ZNKSt17_Rb_tree_iteratorISt4pairIK8fragmentSt3setISsSt4lessISsESaISsEEERS8_PS8_EdeEv$w$rIfHmn0XRM5Tq8Yy4
0001:00024a36* __ZNSt8_Rb_treeISsSsSt9_IdentityISsESt4lessISsESaISsEE13insert_uniqueERKSs$w$rIfHmn0XRM5Tq8Yy4
0001:0002306e  __ZNSt17_Rb_tree_iteratorISsRKSsPS0_EC1ERKS_ISsRSsPSsE$w$rIfHmn0XRM5Tq8Yy4
0001:0002308c  __ZNSt4pairISt17_Rb_tree_iteratorISsRKSsPS1_EbEC1ERKS4_RKb$w$rIfHmn0XRM5Tq8Yy4
0001:00024c16* __ZNSt3mapISsjSt4lessISsESaISt4pairIKSsjEEE11lower_boundERS3_$w$rIfHmn0XRM5Tq8Yy4
0001:00024000* __ZSteqISt4pairIKSsjERS2_PS2_EbRKSt17_Rb_tree_iteratorIT_T0_T1_ESB_$w$rIfHmn0XRM5Tq8Yy4
0001:00024152* __ZNKSt17_Rb_tree_iteratorISt4pairIKSsjERS2_PS2_EdeEv$w$rIfHmn0XRM5Tq8Yy4
0001:00024cd6* __ZNKSt3mapISsjSt4lessISsESaISt4pairIKSsjEEE8key_compEv$w$rIfHmn0XRM5Tq8Yy4
0001:00023f9e* __ZNKSt4lessISsEclERKSsS2_$w$rIfHmn0XRM5Tq8Yy4
0001:00024cfc* __ZNSt4pairIKSsjEC1ERS0_RKj$w$rIfHmn0XRM5Tq8Yy4
0001:00023fbc* __ZNSt17_Rb_tree_iteratorISt4pairIKSsjERS2_PS2_EC1ERKS5_$w$rIfHmn0XRM5Tq8Yy4
0001:000230a8* __ZNSt3mapISsjSt4lessISsESaISt4pairIKSsjEEE6insertESt17_Rb_tree_iteratorIS4_RS4_PS4_ERKS4_$w$rIfHmn0XRM5Tq8Yy4
0001:00023486* __ZNSt4pairIKSsjED1Ev$w$rIfHmn0XRM5Tq8Yy4
0001:00024d22  __ZNSt8_Rb_treeISsSsSt9_IdentityISsESt4lessISsESaISsEE5eraseERKSs$w$rIfHmn0XRM5Tq8Yy4
0001:00024dca* __ZNSt12_Vector_baseIPN6Xapian12TermIterator8InternalESaIS3_EEC2ERKS4_$w$rIfHmn0XRM5Tq8Yy4
0001:00024e06  __ZNSt6vectorIPN6Xapian12TermIterator8InternalESaIS3_EEC1ERKS5_$w$rIfHmn0XRM5Tq8Yy4
0001:00022ed6* __ZNSt6vectorIPN6Xapian12TermIterator8InternalESaIS3_EE3endEv$w$rIfHmn0XRM5Tq8Yy4
0001:00022fc0* __ZNSt6vectorIPN6Xapian12TermIterator8InternalESaIS3_EE5beginEv$w$rIfHmn0XRM5Tq8Yy4
0001:000230ee  __ZSt9make_heapIN9__gnu_cxx17__normal_iteratorIPPN6Xapian12TermIterator8InternalESt6vectorIS5_SaIS5_EEEE25TermListGreaterApproxSizeEvT_SC_T0_$w$rIfHmn0XRM5Tq8Yy4
0001:00025120* __ZN9__gnu_cxx17__normal_iteratorIPPN6Xapian12TermIterator8InternalESt6vectorIS4_SaIS4_EEEC1ERKS5_$w$rIfHmn0XRM5Tq8Yy4
0001:00025096* __ZNSt6vectorIPN6Xapian12TermIterator8InternalESaIS3_EE9push_backERKS3_$w$rIfHmn0XRM5Tq8Yy4
0001:0002318e  __ZSt9push_heapIN9__gnu_cxx17__normal_iteratorIPPN6Xapian12TermIterator8InternalESt6vectorIS5_SaIS5_EEEE25TermListGreaterApproxSizeEvT_SC_T0_$w$rIfHmn0XRM5Tq8Yy4
0001:000231fc  __ZNSt6vectorIPN6Xapian12TermIterator8InternalESaIS3_EE5clearEv$w$rIfHmn0XRM5Tq8Yy4
0001:00025384  __ZNKSt6vectorIPN6Xapian12TermIterator8InternalESaIS3_EE5emptyEv$w$rIfHmn0XRM5Tq8Yy4
0001:00024eb2* __ZNKSt6vectorIPN6Xapian12TermIterator8InternalESaIS3_EE4sizeEv$w$rIfHmn0XRM5Tq8Yy4
0001:000253f4  __ZNKSt6vectorIPN6Xapian12TermIterator8InternalESaIS3_EE5frontEv$w$rIfHmn0XRM5Tq8Yy4
0001:00025420  __ZSt8pop_heapIN9__gnu_cxx17__normal_iteratorIPPN6Xapian12TermIterator8InternalESt6vectorIS5_SaIS5_EEEE25TermListGreaterApproxSizeEvT_SC_T0_$w$rIfHmn0XRM5Tq8Yy4
0001:0002323a  __ZNSt6vectorIPN6Xapian12TermIterator8InternalESaIS3_EE8pop_backEv$w$rIfHmn0XRM5Tq8Yy4
0001:00025a9e* __ZNSt8_Rb_treeISsSt4pairIKSsjESt10_Select1stIS2_ESt4lessISsESaIS2_EE13insert_uniqueESt17_Rb_tree_iteratorIS2_RS2_PS2_ERKS2_$w$rIfHmn0XRM5Tq8Yy4
0001:00025548  __ZN9__gnu_cxxmiIPPN6Xapian12TermIterator8InternalES5_St6vectorIS4_SaIS4_EEEENS_17__normal_iteratorIT_T1_E15difference_typeERKSC_RKNS9_IT0_SB_EE$w$rIfHmn0XRM5Tq8Yy4
0001:00025576  __ZNK9__gnu_cxx17__normal_iteratorIPPN6Xapian12TermIterator8InternalESt6vectorIS4_SaIS4_EEEplERKi$w$rIfHmn0XRM5Tq8Yy4
0001:0002513e* __ZNK9__gnu_cxx17__normal_iteratorIPPN6Xapian12TermIterator8InternalESt6vectorIS4_SaIS4_EEEdeEv$w$rIfHmn0XRM5Tq8Yy4
0001:000255a8  __ZSt13__adjust_heapIN9__gnu_cxx17__normal_iteratorIPPN6Xapian12TermIterator8InternalESt6vectorIS5_SaIS5_EEEEiS5_25TermListGreaterApproxSizeEvT_T0_SD_T1_T2_$w$rIfHmn0XRM5Tq8Yy4
0001:000254b2  __ZNK9__gnu_cxx17__normal_iteratorIPPN6Xapian12TermIterator8InternalESt6vectorIS4_SaIS4_EEEmiERKi$w$rIfHmn0XRM5Tq8Yy4
0001:00025ecc  __ZSt11__push_heapIN9__gnu_cxx17__normal_iteratorIPPN6Xapian12TermIterator8InternalESt6vectorIS5_SaIS5_EEEEiS5_25TermListGreaterApproxSizeEvT_T0_SD_T1_T2_$w$rIfHmn0XRM5Tq8Yy4
0001:00025fca  __ZNSt6vectorIPN6Xapian12TermIterator8InternalESaIS3_EE5eraseEN9__gnu_cxx17__normal_iteratorIPS3_S5_EES9_$w$rIfHmn0XRM5Tq8Yy4
0001:00026052  __ZSt8_DestroyIPN6Xapian12TermIterator8InternalEEvPT_$w$rIfHmn0XRM5Tq8Yy4
0001:0002635c  __ZTI21FlintSpellingTermList$w$rIfHmn0XRM5Tq8Yy4
0001:0002645c* __ZN6Xapian10LogicErrorD2Ev$w$rIfHmn0XRM5Tq8Yy4
0001:00026470* __ZN6Xapian10LogicErrorC2ERKSsS2_PKci$w$rIfHmn0XRM5Tq8Yy4
0001:000264a0* __ZN6Xapian13DatabaseErrorD2Ev$w$rIfHmn0XRM5Tq8Yy4
0001:000264b4* __ZN6Xapian13DatabaseErrorC2ERKSsS2_PKci$w$rIfHmn0XRM5Tq8Yy4
0001:00023e32* __ZNSt8_Rb_treeISsSsSt9_IdentityISsESt4lessISsESaISsEED1Ev$w$rIfHmn0XRM5Tq8Yy4
0001:00023d12* __ZNKSt8_Rb_treeI8fragmentSt4pairIKS0_St3setISsSt4lessISsESaISsEEESt10_Select1stIS8_ES4_IS0_ESaIS8_EE7_M_rootEv$w$rIfHmn0XRM5Tq8Yy4
0001:00024396* __ZNSt8_Rb_treeI8fragmentSt4pairIKS0_St3setISsSt4lessISsESaISsEEESt10_Select1stIS8_ES4_IS0_ESaIS8_EE8_M_eraseEPSt13_Rb_tree_nodeIS8_E$w$rIfHmn0XRM5Tq8Yy4
0001:00023c04* __ZNKSt8_Rb_treeI8fragmentSt4pairIKS0_St3setISsSt4lessISsESaISsEEESt10_Select1stIS8_ES4_IS0_ESaIS8_EE11_M_leftmostEv$w$rIfHmn0XRM5Tq8Yy4
0001:000243ee* __ZNKSt8_Rb_treeI8fragmentSt4pairIKS0_St3setISsSt4lessISsESaISsEEESt10_Select1stIS8_ES4_IS0_ESaIS8_EE12_M_rightmostEv$w$rIfHmn0XRM5Tq8Yy4
0001:0002354a* __ZNKSt8_Rb_treeISsSt4pairIKSsjESt10_Select1stIS2_ESt4lessISsESaIS2_EE5emptyEv$w$rIfHmn0XRM5Tq8Yy4
0001:00023570* __ZNSt8_Rb_treeISsSt4pairIKSsjESt10_Select1stIS2_ESt4lessISsESaIS2_EE5clearEv$w$rIfHmn0XRM5Tq8Yy4
0001:000267e4* __ZNKSt8_Rb_treeISsSt4pairIKSsjESt10_Select1stIS2_ESt4lessISsESaIS2_EE7_M_rootEv$w$rIfHmn0XRM5Tq8Yy4
0001:0002680a* __ZNSt8_Rb_treeISsSt4pairIKSsjESt10_Select1stIS2_ESt4lessISsESaIS2_EE8_M_eraseEPSt13_Rb_tree_nodeIS2_E$w$rIfHmn0XRM5Tq8Yy4
0001:000243fc* __ZNKSt8_Rb_treeISsSt4pairIKSsjESt10_Select1stIS2_ESt4lessISsESaIS2_EE11_M_leftmostEv$w$rIfHmn0XRM5Tq8Yy4
0001:0002440a* __ZNKSt8_Rb_treeISsSt4pairIKSsjESt10_Select1stIS2_ESt4lessISsESaIS2_EE12_M_rightmostEv$w$rIfHmn0XRM5Tq8Yy4
0001:0002643c* __ZN6Xapian12TermIterator8InternalC2Ev$w$rIfHmn0XRM5Tq8Yy4
0001:00026862  __ZN26PrefixCompressedStringItorC1EPKhjRKSs$w$rIfHmn0XRM5Tq8Yy4
0001:00026416* __ZSt3minIjERKT_S2_S2_$w$rIfHmn0XRM5Tq8Yy4
0001:00023bd6  __ZNSt8_Rb_treeI8fragmentSt4pairIKS0_St3setISsSt4lessISsESaISsEEESt10_Select1stIS8_ES4_IS0_ESaIS8_EE5beginEv$w$rIfHmn0XRM5Tq8Yy4
0001:00023c12  __ZNSt17_Rb_tree_iteratorISt4pairIK8fragmentSt3setISsSt4lessISsESaISsEEERS8_PS8_EC1EPSt13_Rb_tree_nodeIS8_E$w$rIfHmn0XRM5Tq8Yy4
0001:00023c72  __ZNSt8_Rb_treeI8fragmentSt4pairIKS0_St3setISsSt4lessISsESaISsEEESt10_Select1stIS8_ES4_IS0_ESaIS8_EE3endEv$w$rIfHmn0XRM5Tq8Yy4
0001:00023cd8  __ZNKSt17_Rb_tree_iteratorISt4pairIK8fragmentSt3setISsSt4lessISsESaISsEEERKS8_PS9_EdeEv$w$rIfHmn0XRM5Tq8Yy4
0001:00023d20  __ZNSt8_Rb_treeI8fragmentSt4pairIKS0_St3setISsSt4lessISsESaISsEEESt10_Select1stIS8_ES4_IS0_ESaIS8_EE4findERS2_$w$rIfHmn0XRM5Tq8Yy4
0001:000268ae  __ZNSt8_Rb_treeI8fragmentSt4pairIKS0_St3setISsSt4lessISsESaISsEEESt10_Select1stIS8_ES4_IS0_ESaIS8_EE6_S_keyEPSt13_Rb_tree_nodeIS8_E$w$rIfHmn0XRM5Tq8Yy4
0001:000268e4  __ZNKSt4lessI8fragmentEclERKS0_S3_$w$rIfHmn0XRM5Tq8Yy4
0001:000244b8* __ZNSt8_Rb_treeI8fragmentSt4pairIKS0_St3setISsSt4lessISsESaISsEEESt10_Select1stIS8_ES4_IS0_ESaIS8_EE7_S_leftEPSt13_Rb_tree_nodeIS8_E$w$rIfHmn0XRM5Tq8Yy4
0001:0002438a* __ZNSt8_Rb_treeI8fragmentSt4pairIKS0_St3setISsSt4lessISsESaISsEEESt10_Select1stIS8_ES4_IS0_ESaIS8_EE8_S_rightEPSt13_Rb_tree_nodeIS8_E$w$rIfHmn0XRM5Tq8Yy4
0001:000244c4  __ZNSt8_Rb_treeI8fragmentSt4pairIKS0_St3setISsSt4lessISsESaISsEEESt10_Select1stIS8_ES4_IS0_ESaIS8_EE6_S_keyEPSt18_Rb_tree_node_base$w$rIfHmn0XRM5Tq8Yy4
0001:00026890  __ZNSt17_Rb_tree_iteratorISt4pairIK8fragmentSt3setISsSt4lessISsESaISsEEERS8_PS8_EC1ERKSB_$w$rIfHmn0XRM5Tq8Yy4
0001:00023ed2* __ZNSt8_Rb_treeISsSsSt9_IdentityISsESt4lessISsESaISsEE5clearEv$w$rIfHmn0XRM5Tq8Yy4
0001:00023e76* __ZNSt13_Rb_tree_baseISsSaISsEED2Ev$w$rIfHmn0XRM5Tq8Yy4
0001:00023e92* __ZNSt19_Rb_tree_alloc_baseISsSaISsELb1EE11_M_put_nodeEPSt13_Rb_tree_nodeISsE$w$rIfHmn0XRM5Tq8Yy4
0001:00023eae* __ZNSt14__simple_allocISt13_Rb_tree_nodeISsESt24__default_alloc_templateILb1ELi0EEE10deallocateEPS1_j$w$rIfHmn0XRM5Tq8Yy4
0001:000245e6* __ZNKSt8_Rb_treeISsSsSt9_IdentityISsESt4lessISsESaISsEE7_M_rootEv$w$rIfHmn0XRM5Tq8Yy4
0001:000245f4* __ZNSt8_Rb_treeISsSsSt9_IdentityISsESt4lessISsESaISsEE8_M_eraseEPSt13_Rb_tree_nodeISsE$w$rIfHmn0XRM5Tq8Yy4
0001:00024440* __ZNKSt8_Rb_treeISsSsSt9_IdentityISsESt4lessISsESaISsEE11_M_leftmostEv$w$rIfHmn0XRM5Tq8Yy4
0001:0002464c* __ZNKSt8_Rb_treeISsSsSt9_IdentityISsESt4lessISsESaISsEE12_M_rightmostEv$w$rIfHmn0XRM5Tq8Yy4
0001:0002465a  __ZNSt8_Rb_treeISsSsSt9_IdentityISsESt4lessISsESaISsEEC1ERKS5_$w$rIfHmn0XRM5Tq8Yy4
0001:00024016* __ZNSt8_Rb_treeISsSt4pairIKSsjESt10_Select1stIS2_ESt4lessISsESaIS2_EE4findERS1_$w$rIfHmn0XRM5Tq8Yy4
0001:00026938* __ZNSt17_Rb_tree_iteratorISt4pairIKSsjERS2_PS2_EC1EPSt13_Rb_tree_nodeIS2_E$w$rIfHmn0XRM5Tq8Yy4
0001:00026902* __ZNSt8_Rb_treeISsSt4pairIKSsjESt10_Select1stIS2_ESt4lessISsESaIS2_EE6_S_keyEPSt13_Rb_tree_nodeIS2_E$w$rIfHmn0XRM5Tq8Yy4
0001:000267fe* __ZNSt8_Rb_treeISsSt4pairIKSsjESt10_Select1stIS2_ESt4lessISsESaIS2_EE7_S_leftEPSt13_Rb_tree_nodeIS2_E$w$rIfHmn0XRM5Tq8Yy4
0001:000267f2* __ZNSt8_Rb_treeISsSt4pairIKSsjESt10_Select1stIS2_ESt4lessISsESaIS2_EE8_S_rightEPSt13_Rb_tree_nodeIS2_E$w$rIfHmn0XRM5Tq8Yy4
0001:00026954* __ZNSt8_Rb_treeISsSt4pairIKSsjESt10_Select1stIS2_ESt4lessISsESaIS2_EE6_S_keyEPSt18_Rb_tree_node_base$w$rIfHmn0XRM5Tq8Yy4
0001:00024210* __ZSt8_DestroyIPPN6Xapian12TermIterator8InternalEEvT_S5_$w$rIfHmn0XRM5Tq8Yy4
0001:0002419e* __ZNSt12_Vector_baseIPN6Xapian12TermIterator8InternalESaIS3_EED2Ev$w$rIfHmn0XRM5Tq8Yy4
0001:000241ce* __ZNSt18_Vector_alloc_baseIPN6Xapian12TermIterator8InternalESaIS3_ELb1EE13_M_deallocateEPS3_j$w$rIfHmn0XRM5Tq8Yy4
0001:000241e8* __ZNSt14__simple_allocIPN6Xapian12TermIterator8InternalESt24__default_alloc_templateILb1ELi0EEE10deallocateEPS3_j$w$rIfHmn0XRM5Tq8Yy4
0001:00025090* __ZSt13__destroy_auxIPPN6Xapian12TermIterator8InternalEEvT_S5_11__true_type$w$rIfHmn0XRM5Tq8Yy4
0001:00024250* __ZNKSt8_Rb_treeISsSt4pairIKSsjESt10_Select1stIS2_ESt4lessISsESaIS2_EE4findERS1_$w$rIfHmn0XRM5Tq8Yy4
0001:000269b4* __ZNSt17_Rb_tree_iteratorISt4pairIKSsjERKS2_PS3_EC1EPSt13_Rb_tree_nodeIS2_E$w$rIfHmn0XRM5Tq8Yy4
0001:000269d0* __ZNKSt8_Rb_treeISsSt4pairIKSsjESt10_Select1stIS2_ESt4lessISsESaIS2_EE3endEv$w$rIfHmn0XRM5Tq8Yy4
0001:000269f0* __ZSteqISt4pairIKSsjERKS2_PS3_EbRKSt17_Rb_tree_iteratorIT_T0_T1_ESC_$w$rIfHmn0XRM5Tq8Yy4
0001:00025722* __ZNSt8_Rb_treeI8fragmentSt4pairIKS0_St3setISsSt4lessISsESaISsEEESt10_Select1stIS8_ES4_IS0_ESaIS8_EE12destroy_nodeEPSt13_Rb_tree_nodeIS8_E$w$rIfHmn0XRM5Tq8Yy4
0001:0002444e* __ZNSt17_Rb_tree_iteratorISsRKSsPS0_EC1EPSt13_Rb_tree_nodeISsE$w$rIfHmn0XRM5Tq8Yy4
0001:000268d0  __ZNSt8_Rb_treeI8fragmentSt4pairIKS0_St3setISsSt4lessISsESaISsEEESt10_Select1stIS8_ES4_IS0_ESaIS8_EE8_S_valueEPSt13_Rb_tree_nodeIS8_E$w$rIfHmn0XRM5Tq8Yy4
0001:000268dc  __ZNKSt10_Select1stISt4pairIK8fragmentSt3setISsSt4lessISsESaISsEEEEclERS8_$w$rIfHmn0XRM5Tq8Yy4
0001:00024516* __ZNSt13_Rb_tree_baseISsSaISsEEC2ERKS0_$w$rIfHmn0XRM5Tq8Yy4
0001:00024592* __ZNSt8_Rb_treeISsSsSt9_IdentityISsESt4lessISsESaISsEE19_M_empty_initializeEv$w$rIfHmn0XRM5Tq8Yy4
0001:00024546* __ZNSt19_Rb_tree_alloc_baseISsSaISsELb1EEC2ERKS0_$w$rIfHmn0XRM5Tq8Yy4
0001:00024554* __ZNSt19_Rb_tree_alloc_baseISsSaISsELb1EE11_M_get_nodeEv$w$rIfHmn0XRM5Tq8Yy4
0001:00024568* __ZNSt14__simple_allocISt13_Rb_tree_nodeISsESt24__default_alloc_templateILb1ELi0EEE8allocateEj$w$rIfHmn0XRM5Tq8Yy4
0001:000247e4* __ZNSt8_Rb_treeISsSsSt9_IdentityISsESt4lessISsESaISsEE8_S_colorEPSt13_Rb_tree_nodeISsE$w$rIfHmn0XRM5Tq8Yy4
0001:00026a6c* __ZNSt8_Rb_treeISsSsSt9_IdentityISsESt4lessISsESaISsEE8_S_rightEPSt13_Rb_tree_nodeISsE$w$rIfHmn0XRM5Tq8Yy4
0001:00024a2a* __ZNSt8_Rb_treeISsSsSt9_IdentityISsESt4lessISsESaISsEE7_S_leftEPSt13_Rb_tree_nodeISsE$w$rIfHmn0XRM5Tq8Yy4
0001:0002574a* __ZNSt8_Rb_treeISsSsSt9_IdentityISsESt4lessISsESaISsEE12destroy_nodeEPSt13_Rb_tree_nodeISsE$w$rIfHmn0XRM5Tq8Yy4
0001:000247a2  __ZNKSt8_Rb_treeISsSsSt9_IdentityISsESt4lessISsESaISsEE13get_allocatorEv$w$rIfHmn0XRM5Tq8Yy4
0001:00025772  __ZNSt8_Rb_treeISsSsSt9_IdentityISsESt4lessISsESaISsEE7_M_copyEPSt13_Rb_tree_nodeISsES8_$w$rIfHmn0XRM5Tq8Yy4
0001:000247ec  __ZNSt8_Rb_treeISsSsSt9_IdentityISsESt4lessISsESaISsEE10_S_minimumEPSt13_Rb_tree_nodeISsE$w$rIfHmn0XRM5Tq8Yy4
0001:00024800  __ZNSt8_Rb_treeISsSsSt9_IdentityISsESt4lessISsESaISsEE10_S_maximumEPSt13_Rb_tree_nodeISsE$w$rIfHmn0XRM5Tq8Yy4
0001:000247c8  __ZNKSt19_Rb_tree_alloc_baseISsSaISsELb1EE13get_allocatorEv$w$rIfHmn0XRM5Tq8Yy4
0001:000264e4* __ZNSt18_Rb_tree_node_base10_S_minimumEPS_$w$rIfHmn0XRM5Tq8Yy4
0001:00026504* __ZNSt18_Rb_tree_node_base10_S_maximumEPS_$w$rIfHmn0XRM5Tq8Yy4
0001:00026a78  __ZNKSt10_Select1stISt4pairIK8fragmentSt3setISsSt4lessISsESaISsEEEEclERKS8_$w$rIfHmn0XRM5Tq8Yy4
0001:000258b6  __ZNSt8_Rb_treeI8fragmentSt4pairIKS0_St3setISsSt4lessISsESaISsEEESt10_Select1stIS8_ES4_IS0_ESaIS8_EE9_M_insertEPSt18_Rb_tree_node_baseSF_RKS8_$w$rIfHmn0XRM5Tq8Yy4
0001:00026a80  __ZNSt4pairISt17_Rb_tree_iteratorIS_IK8fragmentSt3setISsSt4lessISsESaISsEEERS8_PS8_EbEC1ERKSB_RKb$w$rIfHmn0XRM5Tq8Yy4
0001:00025a50  __ZNSt17_Rb_tree_iteratorISt4pairIK8fragmentSt3setISsSt4lessISsESaISsEEERS8_PS8_EmmEv$w$rIfHmn0XRM5Tq8Yy4
0001:00026aae* __ZNSt8_Rb_treeISsSsSt9_IdentityISsESt4lessISsESaISsEE6_S_keyEPSt13_Rb_tree_nodeISsE$w$rIfHmn0XRM5Tq8Yy4
0001:00026aa6* __ZNKSt9_IdentityISsEclERKSs$w$rIfHmn0XRM5Tq8Yy4
0001:00026ae4* __ZNSt17_Rb_tree_iteratorISsRSsPSsEC1EPSt13_Rb_tree_nodeISsE$w$rIfHmn0XRM5Tq8Yy4
0001:00026b1e* __ZNSt8_Rb_treeISsSsSt9_IdentityISsESt4lessISsESaISsEE5beginEv$w$rIfHmn0XRM5Tq8Yy4
0001:00026b4c* __ZSteqISsRSsPSsEbRKSt17_Rb_tree_iteratorIT_T0_T1_ES8_$w$rIfHmn0XRM5Tq8Yy4
0001:00026b62* __ZNSt8_Rb_treeISsSsSt9_IdentityISsESt4lessISsESaISsEE9_M_insertEPSt18_Rb_tree_node_baseS7_RKSs$w$rIfHmn0XRM5Tq8Yy4
0001:00026cfc* __ZNSt4pairISt17_Rb_tree_iteratorISsRSsPSsEbEC1ERKS3_RKb$w$rIfHmn0XRM5Tq8Yy4
0001:00025a66* __ZNSt17_Rb_tree_iteratorISsRSsPSsEmmEv$w$rIfHmn0XRM5Tq8Yy4
0001:00025a7c* __ZNSt8_Rb_treeISsSsSt9_IdentityISsESt4lessISsESaISsEE6_S_keyEPSt18_Rb_tree_node_base$w$rIfHmn0XRM5Tq8Yy4
0001:00024c42* __ZNSt8_Rb_treeISsSt4pairIKSsjESt10_Select1stIS2_ESt4lessISsESaIS2_EE11lower_boundERS1_$w$rIfHmn0XRM5Tq8Yy4
0001:00024cf0* __ZNKSt8_Rb_treeISsSt4pairIKSsjESt10_Select1stIS2_ESt4lessISsESaIS2_EE8key_compEv$w$rIfHmn0XRM5Tq8Yy4
0001:00026d22  __ZNSt8_Rb_treeISsSsSt9_IdentityISsESt4lessISsESaISsEE11equal_rangeERKSs$w$rIfHmn0XRM5Tq8Yy4
0001:00026b00* __ZNSt17_Rb_tree_iteratorISsRSsPSsEC1ERKS2_$w$rIfHmn0XRM5Tq8Yy4
0001:00026edc  __ZSt8distanceISt17_Rb_tree_iteratorISsRSsPSsEENSt15iterator_traitsIT_E15difference_typeES5_S5_$w$rIfHmn0XRM5Tq8Yy4
0001:00026fa8  __ZNSt8_Rb_treeISsSsSt9_IdentityISsESt4lessISsESaISsEE5eraseESt17_Rb_tree_iteratorISsRSsPSsES9_$w$rIfHmn0XRM5Tq8Yy4
0001:00024de4* __ZNSt18_Vector_alloc_baseIPN6Xapian12TermIterator8InternalESaIS3_ELb1EEC2ERKS4_$w$rIfHmn0XRM5Tq8Yy4
0001:00024f8e  __ZNKSt6vectorIPN6Xapian12TermIterator8InternalESaIS3_EE13get_allocatorEv$w$rIfHmn0XRM5Tq8Yy4
0001:00024fd0  __ZNSt12_Vector_baseIPN6Xapian12TermIterator8InternalESaIS3_EEC2EjRKS4_$w$rIfHmn0XRM5Tq8Yy4
0001:00024f32* __ZNKSt6vectorIPN6Xapian12TermIterator8InternalESaIS3_EE3endEv$w$rIfHmn0XRM5Tq8Yy4
0001:00024eee* __ZNKSt6vectorIPN6Xapian12TermIterator8InternalESaIS3_EE5beginEv$w$rIfHmn0XRM5Tq8Yy4
0001:0002506a  __ZSt18uninitialized_copyIN9__gnu_cxx17__normal_iteratorIPKPN6Xapian12TermIterator8InternalESt6vectorIS5_SaIS5_EEEEPS5_ET0_T_SE_SD_$w$rIfHmn0XRM5Tq8Yy4
0001:00024f58* __ZN9__gnu_cxxmiIPKPN6Xapian12TermIterator8InternalES6_St6vectorIS4_SaIS4_EEEENS_17__normal_iteratorIT_T1_E15difference_typeERKSD_RKNSA_IT0_SC_EE$w$rIfHmn0XRM5Tq8Yy4
0001:00024f14* __ZN9__gnu_cxx17__normal_iteratorIPKPN6Xapian12TermIterator8InternalESt6vectorIS4_SaIS4_EEEC1ERKS6_$w$rIfHmn0XRM5Tq8Yy4
0001:0002706a* __ZNSt8iteratorISt26random_access_iterator_tagPN6Xapian12TermIterator8InternalEiPKS4_RS5_EC2Ev$w$rIfHmn0XRM5Tq8Yy4
0001:00024f86* __ZNK9__gnu_cxx17__normal_iteratorIPKPN6Xapian12TermIterator8InternalESt6vectorIS4_SaIS4_EEE4baseEv$w$rIfHmn0XRM5Tq8Yy4
0001:00024fb4  __ZNKSt18_Vector_alloc_baseIPN6Xapian12TermIterator8InternalESaIS3_ELb1EE13get_allocatorEv$w$rIfHmn0XRM5Tq8Yy4
0001:00025028* __ZNSt18_Vector_alloc_baseIPN6Xapian12TermIterator8InternalESaIS3_ELb1EE11_M_allocateEj$w$rIfHmn0XRM5Tq8Yy4
0001:0002503c* __ZNSt14__simple_allocIPN6Xapian12TermIterator8InternalESt24__default_alloc_templateILb1ELi0EEE8allocateEj$w$rIfHmn0XRM5Tq8Yy4
0001:00025d6c  __ZSt24__uninitialized_copy_auxIN9__gnu_cxx17__normal_iteratorIPKPN6Xapian12TermIterator8InternalESt6vectorIS5_SaIS5_EEEEPS5_ET0_T_SE_SD_11__true_type$w$rIfHmn0XRM5Tq8Yy4
0001:000250f2* __ZSt10_ConstructIPN6Xapian12TermIterator8InternalES3_EvPT_RKT0_$w$rIfHmn0XRM5Tq8Yy4
0001:00025148* __ZNSt6vectorIPN6Xapian12TermIterator8InternalESaIS3_EE13_M_insert_auxEN9__gnu_cxx17__normal_iteratorIPS3_S5_EERKS3_$w$rIfHmn0XRM5Tq8Yy4
0001:00026408* __ZnwjPv$w$rIfHmn0XRM5Tq8Yy4
0001:00027070* __ZNSt8iteratorISt26random_access_iterator_tagPN6Xapian12TermIterator8InternalEiPS4_RS4_EC2Ev$w$rIfHmn0XRM5Tq8Yy4
0001:00027076* __ZSt13copy_backwardIN9__gnu_cxx17__normal_iteratorIPPN6Xapian12TermIterator8InternalESt6vectorIS5_SaIS5_EEEESA_ET0_T_SC_SB_$w$rIfHmn0XRM5Tq8Yy4
0001:00025e72* __ZSt18uninitialized_copyIN9__gnu_cxx17__normal_iteratorIPPN6Xapian12TermIterator8InternalESt6vectorIS5_SaIS5_EEEESA_ET0_T_SC_SB_$w$rIfHmn0XRM5Tq8Yy4
0001:000270ec* __ZNK9__gnu_cxx17__normal_iteratorIPPN6Xapian12TermIterator8InternalESt6vectorIS4_SaIS4_EEE4baseEv$w$rIfHmn0XRM5Tq8Yy4
0001:00025e9e* __ZN9__gnu_cxx17__normal_iteratorIPPN6Xapian12TermIterator8InternalESt6vectorIS4_SaIS4_EEEppEv$w$rIfHmn0XRM5Tq8Yy4
0001:00025eac* __ZSt8_DestroyIN9__gnu_cxx17__normal_iteratorIPPN6Xapian12TermIterator8InternalESt6vectorIS5_SaIS5_EEEEEvT_SB_$w$rIfHmn0XRM5Tq8Yy4
0001:000253c2  __ZN9__gnu_cxxeqIPKPN6Xapian12TermIterator8InternalESt6vectorIS4_SaIS4_EEEEbRKNS_17__normal_iteratorIT_T0_EESF_$w$rIfHmn0XRM5Tq8Yy4
0001:00025416  __ZNK9__gnu_cxx17__normal_iteratorIPKPN6Xapian12TermIterator8InternalESt6vectorIS4_SaIS4_EEEdeEv$w$rIfHmn0XRM5Tq8Yy4
0001:000254e8  __ZSt10__pop_heapIN9__gnu_cxx17__normal_iteratorIPPN6Xapian12TermIterator8InternalESt6vectorIS5_SaIS5_EEEES5_25TermListGreaterApproxSizeEvT_SC_SC_T0_T1_$w$rIfHmn0XRM5Tq8Yy4
0001:00026976  __ZN25TermListGreaterApproxSizeclEPKN6Xapian12TermIterator8InternalES4_$w$rIfHmn0XRM5Tq8Yy4
0001:000271b0* __ZSt8_DestroyISt4pairIK8fragmentSt3setISsSt4lessISsESaISsEEEEvPT_$w$rIfHmn0XRM5Tq8Yy4
0001:0002677a* __ZNSt19_Rb_tree_alloc_baseISt4pairIK8fragmentSt3setISsSt4lessISsESaISsEEESaIS8_ELb1EE11_M_put_nodeEPSt13_Rb_tree_nodeIS8_E$w$rIfHmn0XRM5Tq8Yy4
0001:000271c4* __ZSt8_DestroyISsEvPT_$w$rIfHmn0XRM5Tq8Yy4
0001:000271d8  __ZNSt8_Rb_treeISsSsSt9_IdentityISsESt4lessISsESaISsEE13_M_clone_nodeEPSt13_Rb_tree_nodeISsE$w$rIfHmn0XRM5Tq8Yy4
0001:00026058  __ZNSt8_Rb_treeI8fragmentSt4pairIKS0_St3setISsSt4lessISsESaISsEEESt10_Select1stIS8_ES4_IS0_ESaIS8_EE14_M_create_nodeERKS8_$w$rIfHmn0XRM5Tq8Yy4
0001:000260cc  __ZNSt8_Rb_treeI8fragmentSt4pairIKS0_St3setISsSt4lessISsESaISsEEESt10_Select1stIS8_ES4_IS0_ESaIS8_EE9_S_parentEPSt13_Rb_tree_nodeIS8_E$w$rIfHmn0XRM5Tq8Yy4
0001:000265c2* __ZSt18_Rb_tree_rebalancePSt18_Rb_tree_node_baseRS0_$w$rIfHmn0XRM5Tq8Yy4
0001:00026524* __ZNSt22_Rb_tree_base_iterator12_M_decrementEv$w$rIfHmn0XRM5Tq8Yy4
0001:00026ad0* __ZNSt8_Rb_treeISsSsSt9_IdentityISsESt4lessISsESaISsEE8_S_valueEPSt13_Rb_tree_nodeISsE$w$rIfHmn0XRM5Tq8Yy4
0001:00026adc* __ZNKSt9_IdentityISsEclERSs$w$rIfHmn0XRM5Tq8Yy4
0001:0002722e* __ZNKSt8_Rb_treeISsSt4pairIKSsjESt10_Select1stIS2_ESt4lessISsESaIS2_EE4sizeEv$w$rIfHmn0XRM5Tq8Yy4
0001:00027226* __ZNKSt10_Select1stISt4pairIKSsjEEclERKS2_$w$rIfHmn0XRM5Tq8Yy4
0001:0002723a* __ZNSt8_Rb_treeISsSt4pairIKSsjESt10_Select1stIS2_ESt4lessISsESaIS2_EE9_M_insertEPSt18_Rb_tree_node_baseSA_RKS2_$w$rIfHmn0XRM5Tq8Yy4
0001:000260d8* __ZNSt8_Rb_treeISsSt4pairIKSsjESt10_Select1stIS2_ESt4lessISsESaIS2_EE13insert_uniqueERKS2_$w$rIfHmn0XRM5Tq8Yy4
0001:000262b8* __ZNSt17_Rb_tree_iteratorISt4pairIKSsjERS2_PS2_EmmEv$w$rIfHmn0XRM5Tq8Yy4
0001:000262ce* __ZNSt8_Rb_treeISsSt4pairIKSsjESt10_Select1stIS2_ESt4lessISsESaIS2_EE8_S_rightEPSt18_Rb_tree_node_base$w$rIfHmn0XRM5Tq8Yy4
0001:00025d8e  __ZSt4copyIN9__gnu_cxx17__normal_iteratorIPKPN6Xapian12TermIterator8InternalESt6vectorIS5_SaIS5_EEEEPS5_ET0_T_SE_SD_$w$rIfHmn0XRM5Tq8Yy4
0001:00025db4  __ZSt10__copy_ni1IN9__gnu_cxx17__normal_iteratorIPKPN6Xapian12TermIterator8InternalESt6vectorIS5_SaIS5_EEEEPS5_ET0_T_SE_SD_11__true_type$w$rIfHmn0XRM5Tq8Yy4
0001:00025df8  __ZSt10__copy_ni2IPKPN6Xapian12TermIterator8InternalEPS3_ET0_T_S8_S7_12__false_type$w$rIfHmn0XRM5Tq8Yy4
0001:00025e1e  __ZSt11__copy_aux2IPN6Xapian12TermIterator8InternalEEPT_PKS4_S7_S5_11__true_type$w$rIfHmn0XRM5Tq8Yy4
0001:00025e40* __ZSt14__copy_trivialIPN6Xapian12TermIterator8InternalEEPT_PKS4_S7_S5_$w$rIfHmn0XRM5Tq8Yy4
0001:00027458* __ZSt24__uninitialized_copy_auxIN9__gnu_cxx17__normal_iteratorIPPN6Xapian12TermIterator8InternalESt6vectorIS5_SaIS5_EEEESA_ET0_T_SC_SB_11__true_type$w$rIfHmn0XRM5Tq8Yy4
0001:00027560* __ZSt13__destroy_auxIN9__gnu_cxx17__normal_iteratorIPPN6Xapian12TermIterator8InternalESt6vectorIS5_SaIS5_EEEEEvT_SB_11__true_type$w$rIfHmn0XRM5Tq8Yy4
0001:00027480* __ZSt4copyIN9__gnu_cxx17__normal_iteratorIPPN6Xapian12TermIterator8InternalESt6vectorIS5_SaIS5_EEEESA_ET0_T_SC_SB_$w$rIfHmn0XRM5Tq8Yy4
0001:00026a06* __ZNSt19_Rb_tree_alloc_baseISt4pairIK8fragmentSt3setISsSt4lessISsESaISsEEESaIS8_ELb1EE11_M_get_nodeEv$w$rIfHmn0XRM5Tq8Yy4
0001:000262da  __ZSt10_ConstructISt4pairIK8fragmentSt3setISsSt4lessISsESaISsEEES8_EvPT_RKT0_$w$rIfHmn0XRM5Tq8Yy4
0001:00027572* __ZNSt4pairISt17_Rb_tree_iteratorIS_IKSsjERS2_PS2_EbEC1ERKS5_RKb$w$rIfHmn0XRM5Tq8Yy4
0001:000267ba  __ZNSt4pairIK8fragmentSt3setISsSt4lessISsESaISsEEEC1ERKS7_$w$rIfHmn0XRM5Tq8Yy4
0001:00026410* __ZdlPvS_$w$rIfHmn0XRM5Tq8Yy4
0001:000263d0  __ZTS21FlintSpellingTermList$w$rIfHmn0XRM5Tq8Yy4
0001:000275b0* __ZTIN6Xapian12TermIterator8InternalE$w$rIfHmn0XRM5Tq8Yy4
0001:000263b0* __ZTSN6Xapian20DatabaseCorruptErrorE$w$rIfHmn0XRM5Tq8Yy4
0001:000275dc* __ZTIN6Xapian13DatabaseErrorE$w$rIfHmn0XRM5Tq8Yy4
0001:00026380* __ZTSN6Xapian18UnimplementedErrorE$w$rIfHmn0XRM5Tq8Yy4
0001:000275d0* __ZTIN6Xapian10LogicErrorE$w$rIfHmn0XRM5Tq8Yy4
0001:00026404* __ZNSt15basic_streambufIcSt11char_traitsIcEE13_S_pback_sizeE$w$rIfHmn0XRM5Tq8Yy4
0001:00027652* __ZN6Xapian8Internal10RefCntBaseC2Ev$w$rIfHmn0XRM5Tq8Yy4
0001:00027660* __ZN6Xapian5ErrorD2Ev$w$rIfHmn0XRM5Tq8Yy4
0001:00027690* __ZN6Xapian5ErrorC2ERKSsS2_PKci$w$rIfHmn0XRM5Tq8Yy4
0001:0002770c* __ZN6Xapian12RuntimeErrorD2Ev$w$rIfHmn0XRM5Tq8Yy4
0001:00027720* __ZN6Xapian12RuntimeErrorC2ERKSsS2_PKci$w$rIfHmn0XRM5Tq8Yy4
0001:00027750* __ZSt20_Rb_tree_rotate_leftPSt18_Rb_tree_node_baseRS0_$w$rIfHmn0XRM5Tq8Yy4
0001:000277dc* __ZSt21_Rb_tree_rotate_rightPSt18_Rb_tree_node_baseRS0_$w$rIfHmn0XRM5Tq8Yy4
0001:00026796* __ZNSt14__simple_allocISt13_Rb_tree_nodeISt4pairIK8fragmentSt3setISsSt4lessISsESaISsEEEESt24__default_alloc_templateILb1ELi0EEE10deallocateEPSA_j$w$rIfHmn0XRM5Tq8Yy4
0001:00026a44* __ZNSt8_Rb_treeISsSt4pairIKSsjESt10_Select1stIS2_ESt4lessISsESaIS2_EE12destroy_nodeEPSt13_Rb_tree_nodeIS2_E$w$rIfHmn0XRM5Tq8Yy4
0001:00027ccc  __ZltRK8fragmentS1_$w$rIfHmn0XRM5Tq8Yy4
0001:00026924* __ZNSt8_Rb_treeISsSt4pairIKSsjESt10_Select1stIS2_ESt4lessISsESaIS2_EE8_S_valueEPSt13_Rb_tree_nodeIS2_E$w$rIfHmn0XRM5Tq8Yy4
0001:00026930* __ZNKSt10_Select1stISt4pairIKSsjEEclERS2_$w$rIfHmn0XRM5Tq8Yy4
0001:00026a1a* __ZNSt14__simple_allocISt13_Rb_tree_nodeISt4pairIK8fragmentSt3setISsSt4lessISsESaISsEEEESt24__default_alloc_templateILb1ELi0EEE8allocateEj$w$rIfHmn0XRM5Tq8Yy4
0001:00027d38* __ZSt8_DestroyISt4pairIKSsjEEvPT_$w$rIfHmn0XRM5Tq8Yy4
0001:00027cf2* __ZNSt19_Rb_tree_alloc_baseISt4pairIKSsjESaIS2_ELb1EE11_M_put_nodeEPSt13_Rb_tree_nodeIS2_E$w$rIfHmn0XRM5Tq8Yy4
0001:00027d4c* __ZNSt8_Rb_treeISsSsSt9_IdentityISsESt4lessISsESaISsEE14_M_create_nodeERKSs$w$rIfHmn0XRM5Tq8Yy4
0001:0002721a* __ZNSt8_Rb_treeISsSsSt9_IdentityISsESt4lessISsESaISsEE9_S_parentEPSt13_Rb_tree_nodeISsE$w$rIfHmn0XRM5Tq8Yy4
0001:00026e1a  __ZNSt8_Rb_treeISsSsSt9_IdentityISsESt4lessISsESaISsEE11upper_boundERKSs$w$rIfHmn0XRM5Tq8Yy4
0001:00026d86  __ZNSt8_Rb_treeISsSsSt9_IdentityISsESt4lessISsESaISsEE11lower_boundERKSs$w$rIfHmn0XRM5Tq8Yy4
0001:00026eac  __ZNSt4pairISt17_Rb_tree_iteratorISsRSsPSsES3_EC1ERKS3_S6_$w$rIfHmn0XRM5Tq8Yy4
0001:00026f32  __ZSt19__iterator_categoryISt17_Rb_tree_iteratorISsRSsPSsEENSt15iterator_traitsIT_E17iterator_categoryERKS5_$w$rIfHmn0XRM5Tq8Yy4
0001:00026f3e  __ZSt10__distanceISt17_Rb_tree_iteratorISsRSsPSsEENSt15iterator_traitsIT_E15difference_typeES5_S5_St18input_iterator_tag$w$rIfHmn0XRM5Tq8Yy4
0001:00026f7c  __ZStneISsRSsPSsEbRKSt17_Rb_tree_iteratorIT_T0_T1_ES8_$w$rIfHmn0XRM5Tq8Yy4
0001:00026f92  __ZNSt17_Rb_tree_iteratorISsRSsPSsEppEv$w$rIfHmn0XRM5Tq8Yy4
0001:00027e3c  __ZNSt8_Rb_treeISsSsSt9_IdentityISsESt4lessISsESaISsEE3endEv$w$rIfHmn0XRM5Tq8Yy4
0001:000273d4  __ZNSt17_Rb_tree_iteratorISsRSsPSsEppEi$w$rIfHmn0XRM5Tq8Yy4
0001:00027402  __ZNSt8_Rb_treeISsSsSt9_IdentityISsESt4lessISsESaISsEE5eraseESt17_Rb_tree_iteratorISsRSsPSsE$w$rIfHmn0XRM5Tq8Yy4
0001:000270a2* __ZSt37__copy_backward_input_normal_iteratorIN9__gnu_cxx17__normal_iteratorIPPN6Xapian12TermIterator8InternalESt6vectorIS5_SaIS5_EEEESA_ET0_T_SC_SB_11__true_type$w$rIfHmn0XRM5Tq8Yy4
0001:000270f4* __ZSt38__copy_backward_output_normal_iteratorIPPN6Xapian12TermIterator8InternalEN9__gnu_cxx17__normal_iteratorIS4_St6vectorIS3_SaIS3_EEEEET0_T_SC_SB_11__true_type$w$rIfHmn0XRM5Tq8Yy4
0001:00027138* __ZSt19__copy_backward_auxIPPN6Xapian12TermIterator8InternalES4_ET0_T_S6_S5_$w$rIfHmn0XRM5Tq8Yy4
0001:0002715a* __ZNSt24__copy_backward_dispatchIPPN6Xapian12TermIterator8InternalES4_11__true_typeE4copyEPKS3_S8_S4_$w$rIfHmn0XRM5Tq8Yy4
0001:00027e62* __ZNSt8_Rb_treeISsSt4pairIKSsjESt10_Select1stIS2_ESt4lessISsESaIS2_EE14_M_create_nodeERKS2_$w$rIfHmn0XRM5Tq8Yy4
0001:00027566* __ZNSt8_Rb_treeISsSt4pairIKSsjESt10_Select1stIS2_ESt4lessISsESaIS2_EE9_S_parentEPSt13_Rb_tree_nodeIS2_E$w$rIfHmn0XRM5Tq8Yy4
0001:00027868* __ZSt28_Rb_tree_rebalance_for_erasePSt18_Rb_tree_node_baseRS0_S1_S1_$w$rIfHmn0XRM5Tq8Yy4
0001:000274ac* __ZSt10__copy_ni1IN9__gnu_cxx17__normal_iteratorIPPN6Xapian12TermIterator8InternalESt6vectorIS5_SaIS5_EEEESA_ET0_T_SC_SB_11__true_type$w$rIfHmn0XRM5Tq8Yy4
0001:000274f6* __ZSt10__copy_ni2IPPN6Xapian12TermIterator8InternalEN9__gnu_cxx17__normal_iteratorIS4_St6vectorIS3_SaIS3_EEEEET0_T_SC_SB_11__true_type$w$rIfHmn0XRM5Tq8Yy4
0001:0002753e* __ZSt11__copy_aux2IPN6Xapian12TermIterator8InternalEEPT_S5_S5_S5_11__true_type$w$rIfHmn0XRM5Tq8Yy4
0001:00027630* __ZTSN6Xapian12TermIterator8InternalE$w$rIfHmn0XRM5Tq8Yy4
0001:00027f68* __ZTIN6Xapian8Internal10RefCntBaseE$w$rIfHmn0XRM5Tq8Yy4
0001:00027601* __ZTSN6Xapian10LogicErrorE$w$rIfHmn0XRM5Tq8Yy4
0001:00027f60* __ZTIN6Xapian5ErrorE$w$rIfHmn0XRM5Tq8Yy4
0001:000275e8* __ZTSN6Xapian13DatabaseErrorE$w$rIfHmn0XRM5Tq8Yy4
0001:00027f54* __ZTIN6Xapian12RuntimeErrorE$w$rIfHmn0XRM5Tq8Yy4
0001:00027fb8* __ZSt4swapISt14_Rb_tree_colorEvRT_S2_$w$rIfHmn0XRM5Tq8Yy4
0001:00027d0e* __ZNSt14__simple_allocISt13_Rb_tree_nodeISt4pairIKSsjEESt24__default_alloc_templateILb1ELi0EEE10deallocateEPS4_j$w$rIfHmn0XRM5Tq8Yy4
0001:00027dc0* __ZSt10_ConstructISsSsEvPT_RKT0_$w$rIfHmn0XRM5Tq8Yy4
0001:00028000* __ZNSt19_Rb_tree_alloc_baseISt4pairIKSsjESaIS2_ELb1EE11_M_get_nodeEv$w$rIfHmn0XRM5Tq8Yy4
0001:00027ed6* __ZSt10_ConstructISt4pairIKSsjES2_EvPT_RKT0_$w$rIfHmn0XRM5Tq8Yy4
0001:00027fda* __ZNSt4pairIKSsjEC1ERKS1_$w$rIfHmn0XRM5Tq8Yy4
0001:00027f9f* __ZTSN6Xapian12RuntimeErrorE$w$rIfHmn0XRM5Tq8Yy4
0001:00027f8f* __ZTSN6Xapian5ErrorE$w$rIfHmn0XRM5Tq8Yy4
0001:00027f70* __ZTSN6Xapian8Internal10RefCntBaseE$w$rIfHmn0XRM5Tq8Yy4
0001:00028014* __ZNSt14__simple_allocISt13_Rb_tree_nodeISt4pairIKSsjEESt24__default_alloc_templateILb1ELi0EEE8allocateEj$w$rIfHmn0XRM5Tq8Yy4
0002:00038b60* __ZN16__Atomicity_lockILi0EE17_S_atomicity_lockE$w$rIfHmn0XRM5Tq8Yy4
Module: E:\rd\dse\xapian-core-1.0.2\.libs\xapian.lib(common\serialise-double.cc)
0001:000280d8  __Z16serialise_doubled
0001:00028568  __Z18unserialise_doublePPKcS0_
0001:00028b50  __ZN6Xapian12NetworkErrorC1ERKSsS2_i$w$jWuKE6dXRM5LWxpB4
0001:00028b30  __ZN6Xapian12NetworkErrorD1Ev$w$jWuKE6dXRM5LWxpB4
0001:00028b80  __ZTIN6Xapian12NetworkErrorE$w$jWuKE6dXRM5LWxpB4
0001:00028b0a* __ZSt3minIiERKT_S2_S2_$w$jWuKE6dXRM5LWxpB4
0001:00028baa* __ZN6Xapian12RuntimeErrorD2Ev$w$jWuKE6dXRM5LWxpB4
0001:00028bbe* __ZN6Xapian12RuntimeErrorC2ERKSsS2_PKci$w$jWuKE6dXRM5LWxpB4
0001:00028b8c  __ZTSN6Xapian12NetworkErrorE$w$jWuKE6dXRM5LWxpB4
0001:00028bf0* __ZTIN6Xapian12RuntimeErrorE$w$jWuKE6dXRM5LWxpB4
0001:00028c14* __ZN6Xapian5ErrorD2Ev$w$jWuKE6dXRM5LWxpB4
0001:00028c44* __ZN6Xapian5ErrorC2ERKSsS2_PKci$w$jWuKE6dXRM5LWxpB4
0001:00028bfc* __ZTSN6Xapian12RuntimeErrorE$w$jWuKE6dXRM5LWxpB4
0001:00028cc0* __ZTIN6Xapian5ErrorE$w$jWuKE6dXRM5LWxpB4
0001:00028cc8* __ZTSN6Xapian5ErrorE$w$jWuKE6dXRM5LWxpB4
0002:00038b70* __ZN16__Atomicity_lockILi0EE17_S_atomicity_lockE$w$jWuKE6dXRM5LWxpB4
Module: E:\rd\dse\xapian-core-1.0.2\.libs\xapian.lib(backends\flint\flint_record.cc)
0001:00028cf8  __ZNK16FlintRecordTable10get_recordEj
0001:00028f28  __ZNK16FlintRecordTable12get_doccountEv
0001:00028f3c  __ZN16FlintRecordTable14replace_recordERKSsj
0001:00029004  __ZN16FlintRecordTable13delete_recordEj
0001:0002936e  __Z18flint_docid_to_keyj$w$TChbHdZWRM5q74pb4
0001:000291be* __ZStplIcSt11char_traitsIcESaIcEESbIT_T0_T1_EPKS3_RKS6_$w$TChbHdZWRM5q74pb4
0001:00029316* __ZStplIcSt11char_traitsIcESaIcEESbIT_T0_T1_ERKS6_PKS3_$w$TChbHdZWRM5q74pb4
0001:000292da  __ZN6Xapian16DocNotFoundErrorC1ERKSsS2_i$w$TChbHdZWRM5q74pb4
0001:000292b6  __ZN6Xapian16DocNotFoundErrorD1Ev$w$TChbHdZWRM5q74pb4
0001:00029398* __ZTIN6Xapian16DocNotFoundErrorE$w$TChbHdZWRM5q74pb4
0001:0002930a* __ZNK10FlintTable15get_entry_countEv$w$TChbHdZWRM5q74pb4
0001:000292a2* __ZNSt11char_traitsIcE6lengthEPKc$w$TChbHdZWRM5q74pb4
0001:00029256* __ZNSs6appendIPKcEERSsT_S3_$w$TChbHdZWRM5q74pb4
0001:000293ca* __ZN6Xapian12RuntimeErrorD2Ev$w$TChbHdZWRM5q74pb4
0001:000293de* __ZN6Xapian12RuntimeErrorC2ERKSsS2_PKci$w$TChbHdZWRM5q74pb4
0001:0002940e* __Z25pack_uint_preserving_sortIjESsT_$w$TChbHdZWRM5q74pb4
0001:000293a4* __ZTSN6Xapian16DocNotFoundErrorE$w$TChbHdZWRM5q74pb4
0001:000294b4* __ZTIN6Xapian12RuntimeErrorE$w$TChbHdZWRM5q74pb4
0001:000294d8* __ZN6Xapian5ErrorD2Ev$w$TChbHdZWRM5q74pb4
0001:00029508* __ZN6Xapian5ErrorC2ERKSsS2_PKci$w$TChbHdZWRM5q74pb4
0001:000294c0* __ZTSN6Xapian12RuntimeErrorE$w$TChbHdZWRM5q74pb4
0001:00029584* __ZTIN6Xapian5ErrorE$w$TChbHdZWRM5q74pb4
0001:0002958c* __ZTSN6Xapian5ErrorE$w$TChbHdZWRM5q74pb4
0002:00038ba0* __ZN16__Atomicity_lockILi0EE17_S_atomicity_lockE$w$TChbHdZWRM5q74pb4
Module: E:\rd\dse\xapian-core-1.0.2\.libs\xapian.lib(matcher\andnotpostlist.cc)
0001:000295a0  __ZN14AndNotPostList21advance_to_next_matchEdPN6Xapian15PostingIterator8InternalE
0001:0002973c  __ZN14AndNotPostListC2EPN6Xapian15PostingIterator8InternalES3_P10MultiMatchj
0001:0002978a  __ZN14AndNotPostListC1EPN6Xapian15PostingIterator8InternalES3_P10MultiMatchj
0001:000297d8  __ZN14AndNotPostList4nextEd
0001:0002981c  __ZN14AndNotPostList16sync_and_skip_toEjdjj
0001:0002985c  __ZN14AndNotPostList7skip_toEjd
0001:000298c0  __ZNK14AndNotPostList16get_termfreq_maxEv
0001:000298e0  __ZNK14AndNotPostList16get_termfreq_minEv
0001:00029940  __ZNK14AndNotPostList16get_termfreq_estEv
0001:000299da  __ZNK14AndNotPostList9get_docidEv
0001:000299e6  __ZNK14AndNotPostList10get_weightEv
0001:00029a06  __ZNK14AndNotPostList13get_maxweightEv
0001:00029a26  __ZN14AndNotPostList16recalc_maxweightEv
0001:00029a46  __ZNK14AndNotPostList6at_endEv
0001:00029a66  __ZNK14AndNotPostList15get_descriptionEv
0001:00029bfa  __ZNK14AndNotPostList13get_doclengthEv
0001:00029f30* __ZN14BranchPostList12handle_pruneERPN6Xapian15PostingIterator8InternalES3_$w$XiMUR2uXRM5bIrEw4
0001:00029faa  __Z19next_handling_pruneRPN6Xapian15PostingIterator8InternalEdP10MultiMatch$w$XiMUR2uXRM5bIrEw4
0001:0002a028* __Z22skip_to_handling_pruneRPN6Xapian15PostingIterator8InternalEjdP10MultiMatch$w$XiMUR2uXRM5bIrEw4
0001:00029f72  __ZN14BranchPostListC2EPN6Xapian15PostingIterator8InternalES3_P10MultiMatch$w$XiMUR2uXRM5bIrEw4
0001:00029dc0  __ZTV14AndNotPostList$w$XiMUR2uXRM5bIrEw4
0001:00029c1a* __ZStplIcSt11char_traitsIcESaIcEESbIT_T0_T1_EPKS3_RKS6_$w$XiMUR2uXRM5bIrEw4
0001:00029cb2* __ZStplIcSt11char_traitsIcESaIcEESbIT_T0_T1_ERKS6_PKS3_$w$XiMUR2uXRM5bIrEw4
0001:00029d0a* __ZStplIcSt11char_traitsIcESaIcEESbIT_T0_T1_ERKS6_S8_$w$XiMUR2uXRM5bIrEw4
0001:00029e28* __ZNSt11char_traitsIcE6lengthEPKc$w$XiMUR2uXRM5bIrEw4
0001:00029d62* __ZNSs6appendIPKcEERSsT_S3_$w$XiMUR2uXRM5bIrEw4
0001:0002a120  __ZTI14AndNotPostList$w$XiMUR2uXRM5bIrEw4
0001:0002a0ae  __ZN14AndNotPostListD1Ev$w$XiMUR2uXRM5bIrEw4
0001:0002a0e2  __ZN14AndNotPostListD0Ev$w$XiMUR2uXRM5bIrEw4
0001:00029f26* __ZNK6Xapian15PostingIterator8Internal16get_collapse_keyEv$w$XiMUR2uXRM5bIrEw4
0001:00029e10* __ZTV13StatsGatherer$w$XiMUR2uXRM5bIrEw4
0001:0002a118* __ZTI13StatsGatherer$w$XiMUR2uXRM5bIrEw4
0001:00029e3c* __ZN13StatsGathererD1Ev$w$XiMUR2uXRM5bIrEw4
0001:00029eaa* __ZN13StatsGathererD0Ev$w$XiMUR2uXRM5bIrEw4
0001:00029f18* __ZN13StatsGatherer16set_global_statsEj$w$XiMUR2uXRM5bIrEw4
0001:0002a170* __ZN5StatsD1Ev$w$XiMUR2uXRM5bIrEw4
0001:0002a1be* __ZNSt3setIPN6Xapian6Weight8InternalESt4lessIS3_ESaIS3_EED1Ev$w$XiMUR2uXRM5bIrEw4
0001:0002a2e2* __ZN6Xapian15PostingIterator8InternalC2Ev$w$XiMUR2uXRM5bIrEw4
0001:0002a13d* __ZTS13StatsGatherer$w$XiMUR2uXRM5bIrEw4
0001:0002a12c  __ZTS14AndNotPostList$w$XiMUR2uXRM5bIrEw4
0001:0002a3b8* __ZTI14BranchPostList$w$XiMUR2uXRM5bIrEw4
0001:0002a16c* __ZNSt15basic_streambufIcSt11char_traitsIcEE13_S_pback_sizeE$w$XiMUR2uXRM5bIrEw4
0001:0002a43e* __ZNSt3mapISsjSt4lessISsESaISt4pairIKSsjEEED1Ev$w$XiMUR2uXRM5bIrEw4
0001:0002a1d2* __ZNSt8_Rb_treeIPN6Xapian6Weight8InternalES3_St9_IdentityIS3_ESt4lessIS3_ESaIS3_EED1Ev$w$XiMUR2uXRM5bIrEw4
0001:0002a272* __ZNSt8_Rb_treeIPN6Xapian6Weight8InternalES3_St9_IdentityIS3_ESt4lessIS3_ESaIS3_EE5clearEv$w$XiMUR2uXRM5bIrEw4
0001:0002a216* __ZNSt13_Rb_tree_baseIPN6Xapian6Weight8InternalESaIS3_EED2Ev$w$XiMUR2uXRM5bIrEw4
0001:0002a232* __ZNSt19_Rb_tree_alloc_baseIPN6Xapian6Weight8InternalESaIS3_ELb1EE11_M_put_nodeEPSt13_Rb_tree_nodeIS3_E$w$XiMUR2uXRM5bIrEw4
0001:0002a24e* __ZNSt14__simple_allocISt13_Rb_tree_nodeIPN6Xapian6Weight8InternalEESt24__default_alloc_templateILb1ELi0EEE10deallocateEPS5_j$w$XiMUR2uXRM5bIrEw4
0001:0002a302* __ZNKSt8_Rb_treeIPN6Xapian6Weight8InternalES3_St9_IdentityIS3_ESt4lessIS3_ESaIS3_EE7_M_rootEv$w$XiMUR2uXRM5bIrEw4
0001:0002a310* __ZNSt8_Rb_treeIPN6Xapian6Weight8InternalES3_St9_IdentityIS3_ESt4lessIS3_ESaIS3_EE8_M_eraseEPSt13_Rb_tree_nodeIS3_E$w$XiMUR2uXRM5bIrEw4
0001:0002a368* __ZNKSt8_Rb_treeIPN6Xapian6Weight8InternalES3_St9_IdentityIS3_ESt4lessIS3_ESaIS3_EE11_M_leftmostEv$w$XiMUR2uXRM5bIrEw4
0001:0002a376* __ZNKSt8_Rb_treeIPN6Xapian6Weight8InternalES3_St9_IdentityIS3_ESt4lessIS3_ESaIS3_EE12_M_rightmostEv$w$XiMUR2uXRM5bIrEw4
0001:0002a430* __ZN6Xapian8Internal10RefCntBaseC2Ev$w$XiMUR2uXRM5bIrEw4
0001:0002a3e0* __ZTVN6Xapian15PostingIterator8InternalE$w$XiMUR2uXRM5bIrEw4
0001:0002a742* __ZNSt8_Rb_treeIPN6Xapian6Weight8InternalES3_St9_IdentityIS3_ESt4lessIS3_ESaIS3_EE8_S_rightEPSt13_Rb_tree_nodeIS3_E$w$XiMUR2uXRM5bIrEw4
0001:0002a384* __ZNSt8_Rb_treeIPN6Xapian6Weight8InternalES3_St9_IdentityIS3_ESt4lessIS3_ESaIS3_EE7_S_leftEPSt13_Rb_tree_nodeIS3_E$w$XiMUR2uXRM5bIrEw4
0001:0002a390* __ZNSt8_Rb_treeIPN6Xapian6Weight8InternalES3_St9_IdentityIS3_ESt4lessIS3_ESaIS3_EE12destroy_nodeEPSt13_Rb_tree_nodeIS3_E$w$XiMUR2uXRM5bIrEw4
0001:0002a776* __ZSt8_DestroyIPN6Xapian6Weight8InternalEEvPT_$w$XiMUR2uXRM5bIrEw4
0001:0002a3c4* __ZTS14BranchPostList$w$XiMUR2uXRM5bIrEw4
0001:0002a780* __ZTIN6Xapian15PostingIterator8InternalE$w$XiMUR2uXRM5bIrEw4
0001:0002a522* __ZN6Xapian15PostingIterator8InternalD1Ev$w$XiMUR2uXRM5bIrEw4
0001:0002a54a* __ZN6Xapian15PostingIterator8InternalD0Ev$w$XiMUR2uXRM5bIrEw4
0001:0002a596* __ZNK6Xapian15PostingIterator8Internal7get_wdfEv$w$XiMUR2uXRM5bIrEw4
0001:0002a452* __ZNSt8_Rb_treeISsSt4pairIKSsjESt10_Select1stIS2_ESt4lessISsESaIS2_EED1Ev$w$XiMUR2uXRM5bIrEw4
0001:0002a496* __ZNSt8_Rb_treeISsSt4pairIKSsjESt10_Select1stIS2_ESt4lessISsESaIS2_EE5clearEv$w$XiMUR2uXRM5bIrEw4
0001:0002a81a* __ZNSt13_Rb_tree_baseISt4pairIKSsjESaIS2_EED2Ev$w$XiMUR2uXRM5bIrEw4
0001:0002a514* __ZNKSt8_Rb_treeISsSt4pairIKSsjESt10_Select1stIS2_ESt4lessISsESaIS2_EE7_M_rootEv$w$XiMUR2uXRM5bIrEw4
0001:0002a6ea* __ZNSt8_Rb_treeISsSt4pairIKSsjESt10_Select1stIS2_ESt4lessISsESaIS2_EE8_M_eraseEPSt13_Rb_tree_nodeIS2_E$w$XiMUR2uXRM5bIrEw4
0001:0002a506* __ZNKSt8_Rb_treeISsSt4pairIKSsjESt10_Select1stIS2_ESt4lessISsESaIS2_EE11_M_leftmostEv$w$XiMUR2uXRM5bIrEw4
0001:0002a6dc* __ZNKSt8_Rb_treeISsSt4pairIKSsjESt10_Select1stIS2_ESt4lessISsESaIS2_EE12_M_rightmostEv$w$XiMUR2uXRM5bIrEw4
0001:0002a7ea* __ZN6Xapian18UnimplementedErrorC1ERKSsS2_i$w$XiMUR2uXRM5bIrEw4
0001:0002a7c4* __ZN6Xapian18UnimplementedErrorD1Ev$w$XiMUR2uXRM5bIrEw4
0001:0002a8a8* __ZTIN6Xapian18UnimplementedErrorE$w$XiMUR2uXRM5bIrEw4
0001:0002a888* __ZNSt8_Rb_treeISsSt4pairIKSsjESt10_Select1stIS2_ESt4lessISsESaIS2_EE8_S_rightEPSt13_Rb_tree_nodeIS2_E$w$XiMUR2uXRM5bIrEw4
0001:0002a87c* __ZNSt8_Rb_treeISsSt4pairIKSsjESt10_Select1stIS2_ESt4lessISsESaIS2_EE7_S_leftEPSt13_Rb_tree_nodeIS2_E$w$XiMUR2uXRM5bIrEw4
0001:0002a74e* __ZNSt8_Rb_treeISsSt4pairIKSsjESt10_Select1stIS2_ESt4lessISsESaIS2_EE12destroy_nodeEPSt13_Rb_tree_nodeIS2_E$w$XiMUR2uXRM5bIrEw4
0001:0002a894* __ZSt8_DestroyISt4pairIKSsjEEvPT_$w$XiMUR2uXRM5bIrEw4
0001:0002a836* __ZNSt19_Rb_tree_alloc_baseISt4pairIKSsjESaIS2_ELb1EE11_M_put_nodeEPSt13_Rb_tree_nodeIS2_E$w$XiMUR2uXRM5bIrEw4
0001:0002a7a0* __ZTSN6Xapian15PostingIterator8InternalE$w$XiMUR2uXRM5bIrEw4
0001:0002a8b4* __ZTIN6Xapian8Internal10RefCntBaseE$w$XiMUR2uXRM5bIrEw4
0001:0002a8fa* __ZN6Xapian10LogicErrorD2Ev$w$XiMUR2uXRM5bIrEw4
0001:0002a90e* __ZN6Xapian10LogicErrorC2ERKSsS2_PKci$w$XiMUR2uXRM5bIrEw4
0001:0002a852* __ZNSt14__simple_allocISt13_Rb_tree_nodeISt4pairIKSsjEESt24__default_alloc_templateILb1ELi0EEE10deallocateEPS4_j$w$XiMUR2uXRM5bIrEw4
0001:0002a93e* __ZNSt4pairIKSsjED1Ev$w$XiMUR2uXRM5bIrEw4
0001:0002a8db* __ZTSN6Xapian18UnimplementedErrorE$w$XiMUR2uXRM5bIrEw4
0001:0002a954* __ZTIN6Xapian10LogicErrorE$w$XiMUR2uXRM5bIrEw4
0001:0002a8bc* __ZTSN6Xapian8Internal10RefCntBaseE$w$XiMUR2uXRM5bIrEw4
0001:0002a976* __ZN6Xapian5ErrorD2Ev$w$XiMUR2uXRM5bIrEw4
0001:0002a9a6* __ZN6Xapian5ErrorC2ERKSsS2_PKci$w$XiMUR2uXRM5bIrEw4
0001:0002a960* __ZTSN6Xapian10LogicErrorE$w$XiMUR2uXRM5bIrEw4
0001:0002aa24* __ZTIN6Xapian5ErrorE$w$XiMUR2uXRM5bIrEw4
0001:0002aa2c* __ZTSN6Xapian5ErrorE$w$XiMUR2uXRM5bIrEw4
0002:00038bb0* __ZN16__Atomicity_lockILi0EE17_S_atomicity_lockE$w$XiMUR2uXRM5bIrEw4
Module: E:\rd\dse\xapian-core-1.0.2\.libs\xapian.lib(api\editdistance.cc)
0001:0002abda  __Z22edit_distance_unsignedPKjiS0_i
0001:0002ada2  __ZSt4swapIPKjEvRT_S3_$w$HAR8LiyWRM5wOhyV2
0001:0002adc4  __ZSt4swapIiEvRT_S1_$w$HAR8LiyWRM5wOhyV2
0001:0002ae24  __ZN11edist_stateIjEC1EPKjiS2_i$w$HAR8LiyWRM5wOhyV2
0001:0002ac5c  __ZN11edist_stateIjE15edist_calc_f_kpEii$w$HAR8LiyWRM5wOhyV2
0001:0002ac22  __ZNK11edist_stateIjE8get_f_kpEii$w$HAR8LiyWRM5wOhyV2
0001:0002ac02  __ZN11edist_stateIjED1Ev$w$HAR8LiyWRM5wOhyV2
0001:0002afa6  __ZNK11edist_stateIjE10calc_indexEii$w$HAR8LiyWRM5wOhyV2
0001:0002afc2  __ZN11edist_stateIjE13is_transposedEii$w$HAR8LiyWRM5wOhyV2
0001:0002ade6  __ZN11edist_stateIjE8set_f_kpEiii$w$HAR8LiyWRM5wOhyV2
0001:0002b074  __ZN9edist_seqIjEC1EPKji$w$HAR8LiyWRM5wOhyV2
0002:00038bc0  __ZN16__Atomicity_lockILi0EE17_S_atomicity_lockE$w$HAR8LiyWRM5wOhyV2
Module: E:\rd\dse\xapian-core-1.0.2\.libs\xapian.lib(matcher\andmaybepostlist.cc)
0001:0002b090  __ZN16AndMaybePostList23process_next_or_skip_toEdPN6Xapian15PostingIterator8InternalE
0001:0002b1b8  __ZN16AndMaybePostList4nextEd
0001:0002b2f8  __ZN16AndMaybePostList7skip_toEjd
0001:0002b466  __ZNK16AndMaybePostList16get_termfreq_maxEv
0001:0002b486  __ZNK16AndMaybePostList16get_termfreq_minEv
0001:0002b4a6  __ZNK16AndMaybePostList16get_termfreq_estEv
0001:0002b4c6  __ZNK16AndMaybePostList9get_docidEv
0001:0002b4d2  __ZNK16AndMaybePostList10get_weightEv
0001:0002b54a  __ZNK16AndMaybePostList13get_maxweightEv
0001:0002b55c  __ZN16AndMaybePostList16recalc_maxweightEv
0001:0002b5b0  __ZNK16AndMaybePostList6at_endEv
0001:0002b5d2  __ZNK16AndMaybePostList15get_descriptionEv
0001:0002b766  __ZNK16AndMaybePostList13get_doclengthEv
0001:0002bac0  __ZN14BranchPostList12handle_pruneERPN6Xapian15PostingIterator8InternalES3_$w$PyIFh8tXRM5Cdibk4
0001:0002bb02  __Z22skip_to_handling_pruneRPN6Xapian15PostingIterator8InternalEjdP10MultiMatch$w$PyIFh8tXRM5Cdibk4
0001:0002b786* __ZSt3maxIjERKT_S2_S2_$w$PyIFh8tXRM5Cdibk4
0001:0002b7ac* __ZStplIcSt11char_traitsIcESaIcEESbIT_T0_T1_EPKS3_RKS6_$w$PyIFh8tXRM5Cdibk4
0001:0002b844* __ZStplIcSt11char_traitsIcESaIcEESbIT_T0_T1_ERKS6_PKS3_$w$PyIFh8tXRM5Cdibk4
0001:0002b89c* __ZStplIcSt11char_traitsIcESaIcEESbIT_T0_T1_ERKS6_S8_$w$PyIFh8tXRM5Cdibk4
0001:0002b9b8* __ZNSt11char_traitsIcE6lengthEPKc$w$PyIFh8tXRM5Cdibk4
0001:0002b8f4* __ZNSs6appendIPKcEERSsT_S3_$w$PyIFh8tXRM5Cdibk4
0001:0002b950  __ZTV16AndMaybePostList$w$PyIFh8tXRM5Cdibk4
0001:0002bbf8  __ZTI16AndMaybePostList$w$PyIFh8tXRM5Cdibk4
0001:0002bb88  __ZN16AndMaybePostListD1Ev$w$PyIFh8tXRM5Cdibk4
0001:0002bbbc  __ZN16AndMaybePostListD0Ev$w$PyIFh8tXRM5Cdibk4
0001:0002bab6* __ZNK6Xapian15PostingIterator8Internal16get_collapse_keyEv$w$PyIFh8tXRM5Cdibk4
0001:0002b9a0* __ZTV13StatsGatherer$w$PyIFh8tXRM5Cdibk4
0001:0002bbf0* __ZTI13StatsGatherer$w$PyIFh8tXRM5Cdibk4
0001:0002b9cc* __ZN13StatsGathererD1Ev$w$PyIFh8tXRM5Cdibk4
0001:0002ba3a* __ZN13StatsGathererD0Ev$w$PyIFh8tXRM5Cdibk4
0001:0002baa8* __ZN13StatsGatherer16set_global_statsEj$w$PyIFh8tXRM5Cdibk4
0001:0002bc48* __ZN5StatsD1Ev$w$PyIFh8tXRM5Cdibk4
0001:0002bc96* __ZNSt3setIPN6Xapian6Weight8InternalESt4lessIS3_ESaIS3_EED1Ev$w$PyIFh8tXRM5Cdibk4
0001:0002bc17* __ZTS13StatsGatherer$w$PyIFh8tXRM5Cdibk4
0001:0002bc04  __ZTS16AndMaybePostList$w$PyIFh8tXRM5Cdibk4
0001:0002be70  __ZTI14BranchPostList$w$PyIFh8tXRM5Cdibk4
0001:0002bc44* __ZNSt15basic_streambufIcSt11char_traitsIcEE13_S_pback_sizeE$w$PyIFh8tXRM5Cdibk4
0001:0002be8e* __ZNSt3mapISsjSt4lessISsESaISt4pairIKSsjEEED1Ev$w$PyIFh8tXRM5Cdibk4
0001:0002bcaa* __ZNSt8_Rb_treeIPN6Xapian6Weight8InternalES3_St9_IdentityIS3_ESt4lessIS3_ESaIS3_EED1Ev$w$PyIFh8tXRM5Cdibk4
0001:0002bd4a* __ZNSt8_Rb_treeIPN6Xapian6Weight8InternalES3_St9_IdentityIS3_ESt4lessIS3_ESaIS3_EE5clearEv$w$PyIFh8tXRM5Cdibk4
0001:0002bcee* __ZNSt13_Rb_tree_baseIPN6Xapian6Weight8InternalESaIS3_EED2Ev$w$PyIFh8tXRM5Cdibk4
0001:0002bd0a* __ZNSt19_Rb_tree_alloc_baseIPN6Xapian6Weight8InternalESaIS3_ELb1EE11_M_put_nodeEPSt13_Rb_tree_nodeIS3_E$w$PyIFh8tXRM5Cdibk4
0001:0002bd26* __ZNSt14__simple_allocISt13_Rb_tree_nodeIPN6Xapian6Weight8InternalEESt24__default_alloc_templateILb1ELi0EEE10deallocateEPS5_j$w$PyIFh8tXRM5Cdibk4
0001:0002bdba* __ZNKSt8_Rb_treeIPN6Xapian6Weight8InternalES3_St9_IdentityIS3_ESt4lessIS3_ESaIS3_EE7_M_rootEv$w$PyIFh8tXRM5Cdibk4
0001:0002bdc8* __ZNSt8_Rb_treeIPN6Xapian6Weight8InternalES3_St9_IdentityIS3_ESt4lessIS3_ESaIS3_EE8_M_eraseEPSt13_Rb_tree_nodeIS3_E$w$PyIFh8tXRM5Cdibk4
0001:0002be20* __ZNKSt8_Rb_treeIPN6Xapian6Weight8InternalES3_St9_IdentityIS3_ESt4lessIS3_ESaIS3_EE11_M_leftmostEv$w$PyIFh8tXRM5Cdibk4
0001:0002be2e* __ZNKSt8_Rb_treeIPN6Xapian6Weight8InternalES3_St9_IdentityIS3_ESt4lessIS3_ESaIS3_EE12_M_rightmostEv$w$PyIFh8tXRM5Cdibk4
0001:0002bfd8* __ZNSt8_Rb_treeIPN6Xapian6Weight8InternalES3_St9_IdentityIS3_ESt4lessIS3_ESaIS3_EE8_S_rightEPSt13_Rb_tree_nodeIS3_E$w$PyIFh8tXRM5Cdibk4
0001:0002be3c* __ZNSt8_Rb_treeIPN6Xapian6Weight8InternalES3_St9_IdentityIS3_ESt4lessIS3_ESaIS3_EE7_S_leftEPSt13_Rb_tree_nodeIS3_E$w$PyIFh8tXRM5Cdibk4
0001:0002be48* __ZNSt8_Rb_treeIPN6Xapian6Weight8InternalES3_St9_IdentityIS3_ESt4lessIS3_ESaIS3_EE12destroy_nodeEPSt13_Rb_tree_nodeIS3_E$w$PyIFh8tXRM5Cdibk4
0001:0002c00c* __ZSt8_DestroyIPN6Xapian6Weight8InternalEEvPT_$w$PyIFh8tXRM5Cdibk4
0001:0002be7c  __ZTS14BranchPostList$w$PyIFh8tXRM5Cdibk4
0001:0002c030* __ZTIN6Xapian15PostingIterator8InternalE$w$PyIFh8tXRM5Cdibk4
0001:0002bea2* __ZNSt8_Rb_treeISsSt4pairIKSsjESt10_Select1stIS2_ESt4lessISsESaIS2_EED1Ev$w$PyIFh8tXRM5Cdibk4
0001:0002bee6* __ZNSt8_Rb_treeISsSt4pairIKSsjESt10_Select1stIS2_ESt4lessISsESaIS2_EE5clearEv$w$PyIFh8tXRM5Cdibk4
0001:0002c074* __ZNSt13_Rb_tree_baseISt4pairIKSsjESaIS2_EED2Ev$w$PyIFh8tXRM5Cdibk4
0001:0002bf64* __ZNKSt8_Rb_treeISsSt4pairIKSsjESt10_Select1stIS2_ESt4lessISsESaIS2_EE7_M_rootEv$w$PyIFh8tXRM5Cdibk4
0001:0002bf80* __ZNSt8_Rb_treeISsSt4pairIKSsjESt10_Select1stIS2_ESt4lessISsESaIS2_EE8_M_eraseEPSt13_Rb_tree_nodeIS2_E$w$PyIFh8tXRM5Cdibk4
0001:0002bf56* __ZNKSt8_Rb_treeISsSt4pairIKSsjESt10_Select1stIS2_ESt4lessISsESaIS2_EE11_M_leftmostEv$w$PyIFh8tXRM5Cdibk4
0001:0002bf72* __ZNKSt8_Rb_treeISsSt4pairIKSsjESt10_Select1stIS2_ESt4lessISsESaIS2_EE12_M_rightmostEv$w$PyIFh8tXRM5Cdibk4
0001:0002c0e2* __ZNSt8_Rb_treeISsSt4pairIKSsjESt10_Select1stIS2_ESt4lessISsESaIS2_EE8_S_rightEPSt13_Rb_tree_nodeIS2_E$w$PyIFh8tXRM5Cdibk4
0001:0002c0d6* __ZNSt8_Rb_treeISsSt4pairIKSsjESt10_Select1stIS2_ESt4lessISsESaIS2_EE7_S_leftEPSt13_Rb_tree_nodeIS2_E$w$PyIFh8tXRM5Cdibk4
0001:0002bfe4* __ZNSt8_Rb_treeISsSt4pairIKSsjESt10_Select1stIS2_ESt4lessISsESaIS2_EE12destroy_nodeEPSt13_Rb_tree_nodeIS2_E$w$PyIFh8tXRM5Cdibk4
0001:0002c0ee* __ZSt8_DestroyISt4pairIKSsjEEvPT_$w$PyIFh8tXRM5Cdibk4
0001:0002c090* __ZNSt19_Rb_tree_alloc_baseISt4pairIKSsjESaIS2_ELb1EE11_M_put_nodeEPSt13_Rb_tree_nodeIS2_E$w$PyIFh8tXRM5Cdibk4
0001:0002c050* __ZTSN6Xapian15PostingIterator8InternalE$w$PyIFh8tXRM5Cdibk4
0001:0002c104* __ZTIN6Xapian8Internal10RefCntBaseE$w$PyIFh8tXRM5Cdibk4
0001:0002c0ac* __ZNSt14__simple_allocISt13_Rb_tree_nodeISt4pairIKSsjEESt24__default_alloc_templateILb1ELi0EEE10deallocateEPS4_j$w$PyIFh8tXRM5Cdibk4
0001:0002c12c* __ZNSt4pairIKSsjED1Ev$w$PyIFh8tXRM5Cdibk4
0001:0002c10c* __ZTSN6Xapian8Internal10RefCntBaseE$w$PyIFh8tXRM5Cdibk4
0002:00038bd0* __ZN16__Atomicity_lockILi0EE17_S_atomicity_lockE$w$PyIFh8tXRM5Cdibk4
Module: E:\rd\dse\xapian-core-1.0.2\.libs\xapian.lib(backends\flint\flint_alldocspostlist.cc)
0001:0002c152  __ZN20FlintAllDocsPostListC2EN6Xapian8Internal9RefCntPtrIKNS0_8Database8InternalEEEPK10FlintTablej
0001:0002c2aa  __ZN20FlintAllDocsPostListC1EN6Xapian8Internal9RefCntPtrIKNS0_8Database8InternalEEEPK10FlintTablej
0001:0002c402  __ZN20FlintAllDocsPostListD2Ev
0001:0002c492  __ZN20FlintAllDocsPostListD1Ev
0001:0002c522  __ZN20FlintAllDocsPostListD0Ev
0001:0002c620  __ZN20FlintAllDocsPostList4nextEd
0001:0002c9e8  __ZN20FlintAllDocsPostList7skip_toEjd
0001:0002ce96  __ZNK20FlintAllDocsPostList15get_descriptionEv
0001:0002d434  __ZN12LeafPostListC2Ev$w$f0czKjQWRM5BymuG0
0001:0002d150  __ZTV20FlintAllDocsPostList$w$f0czKjQWRM5BymuG0
0001:0002cf08  __ZN6Xapian8Internal9RefCntPtrIKNS_8Database8InternalEEC1ERKS5_$w$f0czKjQWRM5BymuG0
0001:0002cf74  __ZN7AutoPtrI11FlintCursorEC1EPS0_$w$f0czKjQWRM5BymuG0
0001:0002c5b2  __ZNK7AutoPtrI11FlintCursorEptEv$w$f0czKjQWRM5BymuG0
0001:0002cf82  __ZN7AutoPtrI11FlintCursorED1Ev$w$f0czKjQWRM5BymuG0
0001:0002cf2a* __ZN6Xapian8Internal9RefCntPtrIKNS_8Database8InternalEED1Ev$w$f0czKjQWRM5BymuG0
0001:0002d462* __ZN12LeafPostListD2Ev$w$f0czKjQWRM5BymuG0
0001:0002daa4  __ZNK11FlintCursor9after_endEv$w$f0czKjQWRM5BymuG0
0001:0002cfae  __Z27unpack_uint_preserving_sortIjEbPPKcS1_PT_$w$f0czKjQWRM5BymuG0
0001:0002d244  __ZN6Xapian20DatabaseCorruptErrorC1ERKSsS2_i$w$f0czKjQWRM5BymuG0
0001:0002d21c  __ZN6Xapian20DatabaseCorruptErrorD1Ev$w$f0czKjQWRM5BymuG0
0001:0002dacc  __ZTIN6Xapian20DatabaseCorruptErrorE$w$f0czKjQWRM5BymuG0
0001:0002d292* __ZN6Xapian10RangeErrorC1ERKSsS2_i$w$f0czKjQWRM5BymuG0
0001:0002d274* __ZN6Xapian10RangeErrorD1Ev$w$f0czKjQWRM5BymuG0
0001:0002dad8* __ZTIN6Xapian10RangeErrorE$w$f0czKjQWRM5BymuG0
0001:0002d9fe  __Z25pack_uint_preserving_sortIjESsT_$w$f0czKjQWRM5BymuG0
0001:0002d054* __ZStplIcSt11char_traitsIcESaIcEESbIT_T0_T1_EPKS3_RKS6_$w$f0czKjQWRM5BymuG0
0001:0002d208* __ZNSt11char_traitsIcE6lengthEPKc$w$f0czKjQWRM5BymuG0
0001:0002d0ec* __ZNSs6appendIPKcEERSsT_S3_$w$f0czKjQWRM5BymuG0
0001:0002dabc  __ZTI20FlintAllDocsPostList$w$f0czKjQWRM5BymuG0
0001:0002d5ea* __ZNK12LeafPostList16get_termfreq_minEv$w$f0czKjQWRM5BymuG0
0001:0002d604* __ZNK12LeafPostList16get_termfreq_estEv$w$f0czKjQWRM5BymuG0
0001:0002d5d0* __ZNK12LeafPostList16get_termfreq_maxEv$w$f0czKjQWRM5BymuG0
0001:0002d6b0* __ZNK12LeafPostList13get_maxweightEv$w$f0czKjQWRM5BymuG0
0001:0002d6f0  __ZNK20FlintAllDocsPostList9get_docidEv$w$f0czKjQWRM5BymuG0
0001:0002d64c* __ZNK12LeafPostList10get_weightEv$w$f0czKjQWRM5BymuG0
0001:0002d2c2* __ZNK6Xapian15PostingIterator8Internal16get_collapse_keyEv$w$f0czKjQWRM5BymuG0
0001:0002d6fc  __ZNK20FlintAllDocsPostList13get_doclengthEv$w$f0czKjQWRM5BymuG0
0001:0002d6d0* __ZN12LeafPostList16recalc_maxweightEv$w$f0czKjQWRM5BymuG0
0001:0002d72a  __ZNK20FlintAllDocsPostList7get_wdfEv$w$f0czKjQWRM5BymuG0
0001:0002d766  __ZN20FlintAllDocsPostList18read_position_listEv$w$f0czKjQWRM5BymuG0
0001:0002d8ac  __ZNK20FlintAllDocsPostList18open_position_listEv$w$f0czKjQWRM5BymuG0
0001:0002d9f2  __ZNK20FlintAllDocsPostList6at_endEv$w$f0czKjQWRM5BymuG0
0001:0002d6e4  __ZNK20FlintAllDocsPostList12get_termfreqEv$w$f0czKjQWRM5BymuG0
0001:0002d61e* __ZN12LeafPostList14set_termweightEPKN6Xapian6WeightE$w$f0czKjQWRM5BymuG0
0001:0002d1b0* __ZTV12LeafPostList$w$f0czKjQWRM5BymuG0
0001:0002dab0* __ZTI12LeafPostList$w$f0czKjQWRM5BymuG0
0001:0002d4dc* __ZN12LeafPostListD1Ev$w$f0czKjQWRM5BymuG0
0001:0002d556* __ZN12LeafPostListD0Ev$w$f0czKjQWRM5BymuG0
0001:0002d2ee* __ZNK6Xapian15PostingIterator8Internal7get_wdfEv$w$f0czKjQWRM5BymuG0
0001:0002dc6c* __ZN6Xapian13DatabaseErrorD2Ev$w$f0czKjQWRM5BymuG0
0001:0002dc80* __ZN6Xapian13DatabaseErrorC2ERKSsS2_PKci$w$f0czKjQWRM5BymuG0
0001:0002db78* __ZN6Xapian12RuntimeErrorD2Ev$w$f0czKjQWRM5BymuG0
0001:0002db8c* __ZN6Xapian12RuntimeErrorC2ERKSsS2_PKci$w$f0czKjQWRM5BymuG0
0001:0002dc3c* __ZN6Xapian18UnimplementedErrorC1ERKSsS2_i$w$f0czKjQWRM5BymuG0
0001:0002dc16* __ZN6Xapian18UnimplementedErrorD1Ev$w$f0czKjQWRM5BymuG0
0001:0002dd30* __ZTIN6Xapian18UnimplementedErrorE$w$f0czKjQWRM5BymuG0
0001:0002dcb0  __ZN6Xapian15PostingIterator8InternalC2Ev$w$f0czKjQWRM5BymuG0
0001:0002dcd0* __ZN6Xapian15PostingIterator8InternalD2Ev$w$f0czKjQWRM5BymuG0
0001:0002dcf8* __ZNK6Xapian8Internal9RefCntPtrIKNS_8Database8InternalEEptEv$w$f0czKjQWRM5BymuG0
0001:0002dbe6* __ZN6Xapian21InvalidOperationErrorC1ERKSsS2_i$w$f0czKjQWRM5BymuG0
0001:0002dbbc* __ZN6Xapian21InvalidOperationErrorD1Ev$w$f0czKjQWRM5BymuG0
0001:0002dd3c* __ZTIN6Xapian21InvalidOperationErrorE$w$f0czKjQWRM5BymuG0
0001:0002db47* __ZTS12LeafPostList$w$f0czKjQWRM5BymuG0
0001:0002dd10* __ZTIN6Xapian15PostingIterator8InternalE$w$f0czKjQWRM5BymuG0
0001:0002db30  __ZTS20FlintAllDocsPostList$w$f0czKjQWRM5BymuG0
0001:0002db10  __ZTSN6Xapian20DatabaseCorruptErrorE$w$f0czKjQWRM5BymuG0
0001:0002dd54* __ZTIN6Xapian13DatabaseErrorE$w$f0czKjQWRM5BymuG0
0001:0002dae4* __ZTSN6Xapian10RangeErrorE$w$f0czKjQWRM5BymuG0
0001:0002dd48* __ZTIN6Xapian12RuntimeErrorE$w$f0czKjQWRM5BymuG0
0001:0002db74* __ZNSt15basic_streambufIcSt11char_traitsIcEE13_S_pback_sizeE$w$f0czKjQWRM5BymuG0
0001:0002de8e* __ZN6Xapian5ErrorD2Ev$w$f0czKjQWRM5BymuG0
0001:0002debe* __ZN6Xapian5ErrorC2ERKSsS2_PKci$w$f0czKjQWRM5BymuG0
0001:0002df3a* __ZN6Xapian10LogicErrorD2Ev$w$f0czKjQWRM5BymuG0
0001:0002df4e* __ZN6Xapian10LogicErrorC2ERKSsS2_PKci$w$f0czKjQWRM5BymuG0
0001:0002de80* __ZN6Xapian8Internal10RefCntBaseC2Ev$w$f0czKjQWRM5BymuG0
0001:0002de30* __ZTVN6Xapian15PostingIterator8InternalE$w$f0czKjQWRM5BymuG0
0001:0002ddf0* __ZTSN6Xapian15PostingIterator8InternalE$w$f0czKjQWRM5BymuG0
0001:0002dfe4* __ZTIN6Xapian8Internal10RefCntBaseE$w$f0czKjQWRM5BymuG0
0001:0002ddd1* __ZTSN6Xapian18UnimplementedErrorE$w$f0czKjQWRM5BymuG0
0001:0002dfd8* __ZTIN6Xapian10LogicErrorE$w$f0czKjQWRM5BymuG0
0001:0002ddb0* __ZTSN6Xapian21InvalidOperationErrorE$w$f0czKjQWRM5BymuG0
0001:0002dd79* __ZTSN6Xapian12RuntimeErrorE$w$f0czKjQWRM5BymuG0
0001:0002dfd0* __ZTIN6Xapian5ErrorE$w$f0czKjQWRM5BymuG0
0001:0002dd60* __ZTSN6Xapian13DatabaseErrorE$w$f0czKjQWRM5BymuG0
0001:0002df7e* __ZN6Xapian15PostingIterator8InternalD1Ev$w$f0czKjQWRM5BymuG0
0001:0002dfa6* __ZN6Xapian15PostingIterator8InternalD0Ev$w$f0czKjQWRM5BymuG0
0001:0002e021* __ZTSN6Xapian5ErrorE$w$f0czKjQWRM5BymuG0
0001:0002e00b* __ZTSN6Xapian10LogicErrorE$w$f0czKjQWRM5BymuG0
0001:0002dfec* __ZTSN6Xapian8Internal10RefCntBaseE$w$f0czKjQWRM5BymuG0
0002:00038be0* __ZN16__Atomicity_lockILi0EE17_S_atomicity_lockE$w$f0czKjQWRM5BymuG0
Module: E:\rd\dse\xapian-core-1.0.2\.libs\xapian.lib(backends\flint\flint_alltermslist.cc)
0001:0002e050  __ZNK17FlintAllTermsList26read_termfreq_and_collfreqEv
0001:0002e0c0  __ZN17FlintAllTermsListD2Ev
0001:0002e1b4  __ZN17FlintAllTermsListD1Ev
0001:0002e2a8  __ZN17FlintAllTermsListD0Ev
0001:0002e39c  __ZNK17FlintAllTermsList15get_approx_sizeEv
0001:0002e3a8  __ZNK17FlintAllTermsList12get_termnameEv
0001:0002e3ce  __ZNK17FlintAllTermsList12get_termfreqEv
0001:0002e3f0  __ZNK17FlintAllTermsList19get_collection_freqEv
0001:0002e43c  __ZN17FlintAllTermsList4nextEv
0001:0002e66e  __ZN17FlintAllTermsList7skip_toERKSs
0001:0002e780  __ZNK17FlintAllTermsList6at_endEv
0001:0002e7f0  __ZTV17FlintAllTermsList$w$PEd877RWRM531lGm0
0001:0002e79a* __ZN6Xapian8Internal9RefCntPtrIKNS_8Database8InternalEED1Ev$w$PEd877RWRM531lGm0
0001:0002ec66* __ZNK11FlintCursor9after_endEv$w$PEd877RWRM531lGm0
0001:0002ed14  __Z29unpack_string_preserving_sortPPKcS0_RSs$w$PEd877RWRM531lGm0
0001:0002e8b0* __ZN6Xapian20DatabaseCorruptErrorC1ERKSsS2_i$w$PEd877RWRM531lGm0
0001:0002e888* __ZN6Xapian20DatabaseCorruptErrorD1Ev$w$PEd877RWRM531lGm0
0001:0002ef20* __ZTIN6Xapian20DatabaseCorruptErrorE$w$PEd877RWRM531lGm0
0001:0002ee60* __Z10startswithRKSsS0_$w$PEd877RWRM531lGm0
0001:0002ec5a  __ZN11FlintCursor6to_endEv$w$PEd877RWRM531lGm0
0001:0002ec76  __Z27pack_string_preserving_sortSs$w$PEd877RWRM531lGm0
0001:0002ef14  __ZTI17FlintAllTermsList$w$PEd877RWRM531lGm0
0001:0002e830* __ZTV12LeafPostList$w$PEd877RWRM531lGm0
0001:0002ef04* __ZTI12LeafPostList$w$PEd877RWRM531lGm0
0001:0002ea52* __ZN12LeafPostListD1Ev$w$PEd877RWRM531lGm0
0001:0002eacc* __ZN12LeafPostListD0Ev$w$PEd877RWRM531lGm0
0001:0002eb60* __ZNK12LeafPostList16get_termfreq_minEv$w$PEd877RWRM531lGm0
0001:0002eb7a* __ZNK12LeafPostList16get_termfreq_estEv$w$PEd877RWRM531lGm0
0001:0002eb46* __ZNK12LeafPostList16get_termfreq_maxEv$w$PEd877RWRM531lGm0
0001:0002ec26* __ZNK12LeafPostList13get_maxweightEv$w$PEd877RWRM531lGm0
0001:0002ebc2* __ZNK12LeafPostList10get_weightEv$w$PEd877RWRM531lGm0
0001:0002e8e0* __ZNK6Xapian15PostingIterator8Internal16get_collapse_keyEv$w$PEd877RWRM531lGm0
0001:0002ec46* __ZN12LeafPostList16recalc_maxweightEv$w$PEd877RWRM531lGm0
0001:0002e90c* __ZNK6Xapian15PostingIterator8Internal7get_wdfEv$w$PEd877RWRM531lGm0
0001:0002eb94* __ZN12LeafPostList14set_termweightEPKN6Xapian6WeightE$w$PEd877RWRM531lGm0
0001:0002efea* __ZN6Xapian13DatabaseErrorD2Ev$w$PEd877RWRM531lGm0
0001:0002effe* __ZN6Xapian13DatabaseErrorC2ERKSsS2_PKci$w$PEd877RWRM531lGm0
0001:0002efba* __ZN6Xapian18UnimplementedErrorC1ERKSsS2_i$w$PEd877RWRM531lGm0
0001:0002ef94* __ZN6Xapian18UnimplementedErrorD1Ev$w$PEd877RWRM531lGm0
0001:0002f0f0* __ZTIN6Xapian18UnimplementedErrorE$w$PEd877RWRM531lGm0
0001:0002f02e* __ZN6Xapian15PostingIterator8InternalD2Ev$w$PEd877RWRM531lGm0
0001:0002ee9c  __ZStplIcSt11char_traitsIcESaIcEESbIT_T0_T1_ERKS6_S3_$w$PEd877RWRM531lGm0
0001:0002f056* __Z10startswithRKSsPKcj$w$PEd877RWRM531lGm0
0001:0002ef64* __ZTS12LeafPostList$w$PEd877RWRM531lGm0
0001:0002f0d0* __ZTIN6Xapian15PostingIterator8InternalE$w$PEd877RWRM531lGm0
0001:0002ef50  __ZTS17FlintAllTermsList$w$PEd877RWRM531lGm0
0001:0002f0a8* __ZTI12AllTermsList$w$PEd877RWRM531lGm0
0001:0002ef30* __ZTSN6Xapian20DatabaseCorruptErrorE$w$PEd877RWRM531lGm0
0001:0002f0fc* __ZTIN6Xapian13DatabaseErrorE$w$PEd877RWRM531lGm0
0001:0002ef90* __ZNSt15basic_streambufIcSt11char_traitsIcEE13_S_pback_sizeE$w$PEd877RWRM531lGm0
0001:0002f1e0* __ZN6Xapian10LogicErrorD2Ev$w$PEd877RWRM531lGm0
0001:0002f1f4* __ZN6Xapian10LogicErrorC2ERKSsS2_PKci$w$PEd877RWRM531lGm0
0001:0002f224* __ZN6Xapian12RuntimeErrorD2Ev$w$PEd877RWRM531lGm0
0001:0002f238* __ZN6Xapian12RuntimeErrorC2ERKSsS2_PKci$w$PEd877RWRM531lGm0
0001:0002f190* __ZTVN6Xapian15PostingIterator8InternalE$w$PEd877RWRM531lGm0
0001:0002f174* __ZTS12AllTermsList$w$PEd877RWRM531lGm0
0001:0002f2d0* __ZTIN6Xapian12TermIterator8InternalE$w$PEd877RWRM531lGm0
0001:0002f150* __ZTSN6Xapian15PostingIterator8InternalE$w$PEd877RWRM531lGm0
0001:0002f308* __ZTIN6Xapian8Internal10RefCntBaseE$w$PEd877RWRM531lGm0
0001:0002f121* __ZTSN6Xapian18UnimplementedErrorE$w$PEd877RWRM531lGm0
0001:0002f2fc* __ZTIN6Xapian10LogicErrorE$w$PEd877RWRM531lGm0
0001:0002f108* __ZTSN6Xapian13DatabaseErrorE$w$PEd877RWRM531lGm0
0001:0002f2f0* __ZTIN6Xapian12RuntimeErrorE$w$PEd877RWRM531lGm0
0001:0002f268* __ZN6Xapian15PostingIterator8InternalD1Ev$w$PEd877RWRM531lGm0
0001:0002f290* __ZN6Xapian15PostingIterator8InternalD0Ev$w$PEd877RWRM531lGm0
0001:0002f392* __ZN6Xapian5ErrorD2Ev$w$PEd877RWRM531lGm0
0001:0002f3c2* __ZN6Xapian5ErrorC2ERKSsS2_PKci$w$PEd877RWRM531lGm0
0001:0002f370* __ZTSN6Xapian12TermIterator8InternalE$w$PEd877RWRM531lGm0
0001:0002f345* __ZTSN6Xapian12RuntimeErrorE$w$PEd877RWRM531lGm0
0001:0002f440* __ZTIN6Xapian5ErrorE$w$PEd877RWRM531lGm0
0001:0002f32f* __ZTSN6Xapian10LogicErrorE$w$PEd877RWRM531lGm0
0001:0002f310* __ZTSN6Xapian8Internal10RefCntBaseE$w$PEd877RWRM531lGm0
0001:0002f448* __ZTSN6Xapian5ErrorE$w$PEd877RWRM531lGm0
0002:00038bf0* __ZN16__Atomicity_lockILi0EE17_S_atomicity_lockE$w$PEd877RWRM531lGm0
Module: E:\rd\dse\xapian-core-1.0.2\.libs\xapian.lib(backends\flint\flint_database.cc)
0001:0002f528  __ZN13FlintDatabaseC2ERKSsij
0001:00031430  __ZN13FlintDatabase15database_existsEv
0001:00031798  __ZN13FlintDatabase22open_tables_consistentEv
0001:00031e6e  __ZN13FlintDatabase23get_database_write_lockEv
0001:000314b4  __ZN13FlintDatabase22create_and_open_tablesEj
0001:00031d20  __ZNK13FlintDatabase24get_next_revision_numberEv
0001:00031d42  __ZN13FlintDatabase19set_revision_numberEj
0001:000301ca  __ZN13FlintDatabaseC1ERKSsij
0001:00030e6c  __ZN13FlintDatabaseD2Ev
0001:00031058  __ZN13FlintDatabaseD1Ev
0001:00031244  __ZN13FlintDatabaseD0Ev
0001:00031be6  __ZN13FlintDatabase11open_tablesEj
0001:00031d0a  __ZNK13FlintDatabase19get_revision_numberEv
0001:00031dea  __ZN13FlintDatabase6reopenEv
0001:0003206a  __ZN13FlintDatabase5applyEv
0001:000322e2  __ZN13FlintDatabase6cancelEv
0001:00032358  __ZNK13FlintDatabase12get_doccountEv
0001:00032370  __ZNK13FlintDatabase13get_lastdocidEv
0001:0003239c  __ZNK13FlintDatabase12get_avlengthEv
0001:00032412  __ZNK13FlintDatabase13get_doclengthEj
0001:000324e2  __ZNK13FlintDatabase12get_termfreqERKSs
0001:00032500  __ZNK13FlintDatabase19get_collection_freqERKSs
0001:0003251e  __ZNK13FlintDatabase11term_existsERKSs
0001:000325c8  __ZNK13FlintDatabase13has_positionsEv
0001:000325f4  __ZNK13FlintDatabase14open_post_listERKSs
0001:00032884  __ZNK13FlintDatabase14open_term_listEj
0001:0003298c  __ZNK13FlintDatabase13open_documentEjb
0001:00032ad6  __ZNK13FlintDatabase18open_position_listEjRKSs
0001:00032e7c  __ZNK13FlintDatabase13open_alltermsERKSs
0001:00032f66  __ZNK13FlintDatabase22open_spelling_termlistERKSs
0001:00032f86  __ZNK13FlintDatabase22open_spelling_wordlistEv
0001:0003308a  __ZNK13FlintDatabase22get_spelling_frequencyERKSs
0001:000330aa  __ZNK13FlintDatabase21open_synonym_termlistERKSs
0001:000330ca  __ZNK13FlintDatabase20open_synonym_keylistERKSs
0001:00033206  __ZN21FlintWritableDatabaseC2ERKSsii
0001:0003338e  __ZN21FlintWritableDatabaseC1ERKSsii
0001:00033516  __ZN21FlintWritableDatabaseD2Ev
0001:0003361e  __ZN21FlintWritableDatabaseD1Ev
0001:00033726  __ZN21FlintWritableDatabaseD0Ev
0001:00033850  __ZN21FlintWritableDatabase5flushEv
0001:000339f0  __ZNK21FlintWritableDatabase14do_flush_constEv
0001:00033b14  __ZN21FlintWritableDatabase12add_documentERKN6Xapian8DocumentE
0001:00033c96  __ZN21FlintWritableDatabase13add_document_EjRKN6Xapian8DocumentE
0001:000346be  __ZN21FlintWritableDatabase15delete_documentEj
0001:00034f68  __ZN21FlintWritableDatabase16replace_documentEjRKN6Xapian8DocumentE
0001:000367aa  __ZNK21FlintWritableDatabase12get_doccountEv
0001:000367c0  __ZNK21FlintWritableDatabase13get_lastdocidEv
0001:000367dc  __ZNK21FlintWritableDatabase12get_avlengthEv
0001:00036848  __ZNK21FlintWritableDatabase13get_doclengthEj
0001:000368ec  __ZNK21FlintWritableDatabase12get_termfreqERKSs
0001:00036992  __ZNK21FlintWritableDatabase19get_collection_freqERKSs
0001:00036a38  __ZNK21FlintWritableDatabase11term_existsERKSs
0001:00036a6c  __ZNK21FlintWritableDatabase13has_positionsEv
0001:00036af0  __ZNK21FlintWritableDatabase14open_post_listERKSs
0001:00036f04  __ZNK21FlintWritableDatabase14open_term_listEj
0001:0003700c  __ZNK21FlintWritableDatabase13open_documentEjb
0001:00037112  __ZNK21FlintWritableDatabase18open_position_listEjRKSs
0001:000374ea  __ZNK21FlintWritableDatabase13open_alltermsERKSs
0001:0003773c  __ZN21FlintWritableDatabase6cancelEv
0001:000377c2  __ZNK21FlintWritableDatabase12add_spellingERKSsj
0001:000377e8  __ZNK21FlintWritableDatabase15remove_spellingERKSsj
0001:0003780e  __ZNK21FlintWritableDatabase22open_spelling_termlistERKSs
0001:0003782e  __ZNK21FlintWritableDatabase22open_spelling_wordlistEv
0001:00037942  __ZNK21FlintWritableDatabase22get_spelling_frequencyERKSs
0001:00037962  __ZNK21FlintWritableDatabase21open_synonym_termlistERKSs
0001:00037982  __ZNK21FlintWritableDatabase20open_synonym_keylistERKSs
0001:00037ab8  __ZNK21FlintWritableDatabase11add_synonymERKSsS1_
0001:00037ade  __ZNK21FlintWritableDatabase14remove_synonymERKSsS1_
0001:00037b04  __ZNK21FlintWritableDatabase14clear_synonymsERKSs
0002:00038c00  __ZN21FlintWritableDatabase15flush_thresholdE
0001:000386f0  __ZTV13FlintDatabase$w$ncu2MQTWRM5G8Iuq2
0001:00039c38  __ZN12FlintVersionC1ERKSs$w$ncu2MQTWRM5G8Iuq2
0001:0003934c  __ZN18FlintPostListTableC1ESsb$w$ncu2MQTWRM5G8Iuq2
0001:00038e2a  __ZN22FlintPositionListTableC1ESsb$w$ncu2MQTWRM5G8Iuq2
0001:00039a6e  __ZN18FlintTermListTableC1ESsb$w$ncu2MQTWRM5G8Iuq2
0001:00039b94  __ZN15FlintValueTableC1ESsb$w$ncu2MQTWRM5G8Iuq2
0001:00039714  __ZN17FlintSynonymTableC1ESsb$w$ncu2MQTWRM5G8Iuq2
0001:000394f6  __ZN18FlintSpellingTableC1ESsb$w$ncu2MQTWRM5G8Iuq2
0001:000393ee  __ZN16FlintRecordTableC1ESsb$w$ncu2MQTWRM5G8Iuq2
0001:00038dc8* __ZStplIcSt11char_traitsIcESaIcEESbIT_T0_T1_ERKS6_PKS3_$w$ncu2MQTWRM5G8Iuq2
0001:00039c8c  __ZN9FlintLockC1ERKSs$w$ncu2MQTWRM5G8Iuq2
0001:00037b3e* __ZStplIcSt11char_traitsIcESaIcEESbIT_T0_T1_EPKS3_RKS6_$w$ncu2MQTWRM5G8Iuq2
0001:00038b68* __ZN6Xapian20DatabaseOpeningErrorC1ERKSsS2_i$w$ncu2MQTWRM5G8Iuq2
0001:00038b40* __ZN6Xapian20DatabaseOpeningErrorD1Ev$w$ncu2MQTWRM5G8Iuq2
0001:0003c82c* __ZTIN6Xapian20DatabaseOpeningErrorE$w$ncu2MQTWRM5G8Iuq2
0001:00038cb4  __Z4statRKSsP4stat$w$ncu2MQTWRM5G8Iuq2
0001:00038c90  __Z5mkdirRKSsi$w$ncu2MQTWRM5G8Iuq2
0001:00038b98  __ZN6Xapian20DatabaseOpeningErrorC1ERKSsi$w$ncu2MQTWRM5G8Iuq2
0001:00038a60  __ZN6Xapian19DatabaseCreateErrorC1ERKSsS2_i$w$ncu2MQTWRM5G8Iuq2
0001:00038a38  __ZN6Xapian19DatabaseCreateErrorD1Ev$w$ncu2MQTWRM5G8Iuq2
0001:0003c838  __ZTIN6Xapian19DatabaseCreateErrorE$w$ncu2MQTWRM5G8Iuq2
0001:00038cf0  __ZNK10FlintTable24get_open_revision_numberEv$w$ncu2MQTWRM5G8Iuq2
0001:00038ce4  __ZNK10FlintTable26get_latest_revision_numberEv$w$ncu2MQTWRM5G8Iuq2
0001:00039cb0  __ZN9FlintLockD1Ev$w$ncu2MQTWRM5G8Iuq2
0001:000393d2  __ZN16FlintRecordTableD1Ev$w$ncu2MQTWRM5G8Iuq2
0001:00039474  __ZN18FlintSpellingTableD1Ev$w$ncu2MQTWRM5G8Iuq2
0001:00039696  __ZN17FlintSynonymTableD1Ev$w$ncu2MQTWRM5G8Iuq2
0001:00039b78  __ZN15FlintValueTableD1Ev$w$ncu2MQTWRM5G8Iuq2
0001:00039a50  __ZN18FlintTermListTableD1Ev$w$ncu2MQTWRM5G8Iuq2
0001:00038db4  __ZN22FlintPositionListTableD1Ev$w$ncu2MQTWRM5G8Iuq2
0001:0003932e  __ZN18FlintPostListTableD1Ev$w$ncu2MQTWRM5G8Iuq2
0001:00039c1a  __ZN12FlintVersionD1Ev$w$ncu2MQTWRM5G8Iuq2
0001:0003982e  __ZN17FlintSynonymTable15create_and_openEj$w$ncu2MQTWRM5G8Iuq2
0001:00039616  __ZN18FlintSpellingTable15create_and_openEj$w$ncu2MQTWRM5G8Iuq2
0001:00038cd8  __ZNK10FlintTable14get_block_sizeEv$w$ncu2MQTWRM5G8Iuq2
0001:00038a08* __ZN6Xapian20DatabaseCorruptErrorC1ERKSsS2_i$w$ncu2MQTWRM5G8Iuq2
0001:000389e0* __ZN6Xapian20DatabaseCorruptErrorD1Ev$w$ncu2MQTWRM5G8Iuq2
0001:0003c844* __ZTIN6Xapian20DatabaseCorruptErrorE$w$ncu2MQTWRM5G8Iuq2
0001:00038b10  __ZN6Xapian21DatabaseModifiedErrorC1ERKSsS2_i$w$ncu2MQTWRM5G8Iuq2
0001:00038ae6  __ZN6Xapian21DatabaseModifiedErrorD1Ev$w$ncu2MQTWRM5G8Iuq2
0001:0003c850  __ZTIN6Xapian21DatabaseModifiedErrorE$w$ncu2MQTWRM5G8Iuq2
0001:00039854  __ZN17FlintSynonymTable6commitEj$w$ncu2MQTWRM5G8Iuq2
0001:0003963c  __ZN18FlintSpellingTable6commitEj$w$ncu2MQTWRM5G8Iuq2
0001:00038ab6  __ZN6Xapian17DatabaseLockErrorC1ERKSsS2_i$w$ncu2MQTWRM5G8Iuq2
0001:00038a90  __ZN6Xapian17DatabaseLockErrorD1Ev$w$ncu2MQTWRM5G8Iuq2
0001:0003c85c  __ZTIN6Xapian17DatabaseLockErrorE$w$ncu2MQTWRM5G8Iuq2
0001:00038d06  __ZNK10FlintTable11is_modifiedEv$w$ncu2MQTWRM5G8Iuq2
0001:000397f0  __ZNK17FlintSynonymTable11is_modifiedEv$w$ncu2MQTWRM5G8Iuq2
0001:000395d8  __ZNK18FlintSpellingTable11is_modifiedEv$w$ncu2MQTWRM5G8Iuq2
0001:000388d6  __ZNK6Xapian5Error7get_msgEv$w$ncu2MQTWRM5G8Iuq2
0001:000389b0  __ZN6Xapian13DatabaseErrorC1ERKSsS2_i$w$ncu2MQTWRM5G8Iuq2
0001:0003898e  __ZN6Xapian13DatabaseErrorD1Ev$w$ncu2MQTWRM5G8Iuq2
0001:0003c868* __ZTIN6Xapian13DatabaseErrorE$w$ncu2MQTWRM5G8Iuq2
0001:0003c874* __ZTIN6Xapian5ErrorE$w$ncu2MQTWRM5G8Iuq2
0001:0003987a  __ZN17FlintSynonymTable6cancelEv$w$ncu2MQTWRM5G8Iuq2
0001:00039662  __ZN18FlintSpellingTable6cancelEv$w$ncu2MQTWRM5G8Iuq2
0001:0003a348  __ZN6Xapian8Internal9RefCntPtrIKNS_8Database8InternalEEC1EPS4_$w$ncu2MQTWRM5G8Iuq2
0001:00039898* __ZN6Xapian8Internal9RefCntPtrIKNS_8Database8InternalEED1Ev$w$ncu2MQTWRM5G8Iuq2
0001:00039af4  __ZN13FlintTermListD1Ev$w$ncu2MQTWRM5G8Iuq2
0001:00038d16* __Z27pack_string_preserving_sortSs$w$ncu2MQTWRM5G8Iuq2
0001:00038cfa  __ZNK10FlintTable15get_entry_countEv$w$ncu2MQTWRM5G8Iuq2
0001:0003a368  __ZN6Xapian8Internal9RefCntPtrIK13FlintDatabaseEC1EPS3_$w$ncu2MQTWRM5G8Iuq2
0001:00037bd6  __ZN6Xapian8Internal9RefCntPtrIKNS_8Database8InternalEEC1IK13FlintDatabaseEERKNS1_IT_EE$w$ncu2MQTWRM5G8Iuq2
0001:00039d6a  __ZN25ContiguousAllDocsPostListC1EN6Xapian8Internal9RefCntPtrIKNS0_8Database8InternalEEEj$w$ncu2MQTWRM5G8Iuq2
0001:0003a388  __ZN6Xapian8Internal9RefCntPtrIK13FlintDatabaseED1Ev$w$ncu2MQTWRM5G8Iuq2
0001:00038f16  __ZN17FlintPositionListC1Ev$w$ncu2MQTWRM5G8Iuq2
0001:00037c06  __ZN7AutoPtrI17FlintPositionListEC1EPS0_$w$ncu2MQTWRM5G8Iuq2
0001:00037c3a  __ZNK7AutoPtrI17FlintPositionListEptEv$w$ncu2MQTWRM5G8Iuq2
0001:00037c44* __ZN7AutoPtrIN6Xapian12TermIterator8InternalEEC1EPS2_$w$ncu2MQTWRM5G8Iuq2
0001:00037c78* __ZNK7AutoPtrIN6Xapian12TermIterator8InternalEEptEv$w$ncu2MQTWRM5G8Iuq2
0001:00037c82  __ZStneIcSt11char_traitsIcESaIcEEbRKSbIT_T0_T1_ES8_$w$ncu2MQTWRM5G8Iuq2
0001:00038c60* __ZN6Xapian10RangeErrorC1ERKSsS2_i$w$ncu2MQTWRM5G8Iuq2
0001:00038c42* __ZN6Xapian10RangeErrorD1Ev$w$ncu2MQTWRM5G8Iuq2
0001:0003c87c* __ZTIN6Xapian10RangeErrorE$w$ncu2MQTWRM5G8Iuq2
0001:00037c52* __ZN7AutoPtrIN6Xapian12TermIterator8InternalEED1Ev$w$ncu2MQTWRM5G8Iuq2
0001:00037cb0  __ZN7AutoPtrI17FlintPositionListE7releaseEv$w$ncu2MQTWRM5G8Iuq2
0001:00037c14  __ZN7AutoPtrI17FlintPositionListED1Ev$w$ncu2MQTWRM5G8Iuq2
0001:00039fc2  __ZN17FlintAllTermsListC1EN6Xapian8Internal9RefCntPtrIKNS0_8Database8InternalEEEPK18FlintPostListTableRKSs$w$ncu2MQTWRM5G8Iuq2
0001:0003a208  __ZN22FlintSpellingWordsListC1EN6Xapian8Internal9RefCntPtrIKNS0_8Database8InternalEEEP11FlintCursor$w$ncu2MQTWRM5G8Iuq2
0001:000398e2  __ZN20FlintSynonymTermListC1EN6Xapian8Internal9RefCntPtrIKNS0_8Database8InternalEEEP11FlintCursorjRKSs$w$ncu2MQTWRM5G8Iuq2
0001:00038650  __ZTV21FlintWritableDatabase$w$ncu2MQTWRM5G8Iuq2
0001:00037ccc  __ZNSt3mapISsSt4pairIiiESt4lessISsESaIS0_IKSsS1_EEEC1Ev$w$ncu2MQTWRM5G8Iuq2
0001:00037d2a  __ZNSt3mapIjjSt4lessIjESaISt4pairIKjjEEEC1Ev$w$ncu2MQTWRM5G8Iuq2
0001:00037d88  __ZNSt3mapISsS_IjSt4pairIcjESt4lessIjESaIS0_IKjS1_EEES2_ISsESaIS0_IKSsS7_EEEC1Ev$w$ncu2MQTWRM5G8Iuq2
0001:00039d1c  __ZNSt3mapISsS_IjSt4pairIcjESt4lessIjESaIS0_IKjS1_EEES2_ISsESaIS0_IKSsS7_EEED1Ev$w$ncu2MQTWRM5G8Iuq2
0001:00039d08  __ZNSt3mapIjjSt4lessIjESaISt4pairIKjjEEED1Ev$w$ncu2MQTWRM5G8Iuq2
0001:00039cf4  __ZNSt3mapISsSt4pairIiiESt4lessISsESaIS0_IKSsS1_EEED1Ev$w$ncu2MQTWRM5G8Iuq2
0001:00038884* __ZNK6Xapian8Database8Internal18transaction_activeEv$w$ncu2MQTWRM5G8Iuq2
0001:00038908* __ZN6Xapian21InvalidOperationErrorC1ERKSsS2_i$w$ncu2MQTWRM5G8Iuq2
0001:000388de* __ZN6Xapian21InvalidOperationErrorD1Ev$w$ncu2MQTWRM5G8Iuq2
0001:0003c820* __ZTIN6Xapian21InvalidOperationErrorE$w$ncu2MQTWRM5G8Iuq2
0001:00037de6  __ZNSt3mapISsSt4pairIiiESt4lessISsESaIS0_IKSsS1_EEE5clearEv$w$ncu2MQTWRM5G8Iuq2
0001:00037dfa  __ZNSt3mapIjjSt4lessIjESaISt4pairIKjjEEE5clearEv$w$ncu2MQTWRM5G8Iuq2
0001:00037e0e  __ZNSt3mapISsS_IjSt4pairIcjESt4lessIjESaIS0_IKjS1_EEES2_ISsESaIS0_IKSsS7_EEE5clearEv$w$ncu2MQTWRM5G8Iuq2
0001:00039d54  __ZN6XapianneERKNS_13ValueIteratorES2_$w$ncu2MQTWRM5G8Iuq2
0001:00039d46  __ZN6Xapian13ValueIteratorppEv$w$ncu2MQTWRM5G8Iuq2
0001:00039d30  __ZN6Xapian13ValueIteratorD1Ev$w$ncu2MQTWRM5G8Iuq2
0001:00038860  __ZNK6Xapian8Document12termlist_endEv$w$ncu2MQTWRM5G8Iuq2
0001:00038840* __ZN6XapianneERKNS_12TermIteratorES2_$w$ncu2MQTWRM5G8Iuq2
0001:00037e22  __ZNSt17_Rb_tree_iteratorISt4pairIKSsS0_IiiEERS3_PS3_EC1Ev$w$ncu2MQTWRM5G8Iuq2
0001:00037e4c  __ZNSt3mapISsSt4pairIiiESt4lessISsESaIS0_IKSsS1_EEE4findERS4_$w$ncu2MQTWRM5G8Iuq2
0001:00037e78  __ZNSt3mapISsSt4pairIiiESt4lessISsESaIS0_IKSsS1_EEE3endEv$w$ncu2MQTWRM5G8Iuq2
0001:00037e36  __ZSteqISt4pairIKSsS0_IiiEERS3_PS3_EbRKSt17_Rb_tree_iteratorIT_T0_T1_ESC_$w$ncu2MQTWRM5G8Iuq2
0001:00037e9e  __ZSt9make_pairIiiESt4pairIT_T0_ES1_S2_$w$ncu2MQTWRM5G8Iuq2
0001:00037ec6  __ZSt9make_pairISsSt4pairIiiEES0_IT_T0_ES2_S3_$w$ncu2MQTWRM5G8Iuq2
0001:00037efc  __ZNSt4pairIKSsS_IiiEEC1ISsS1_EERKS_IT_T0_E$w$ncu2MQTWRM5G8Iuq2
0001:00037f2c  __ZNSt3mapISsSt4pairIiiESt4lessISsESaIS0_IKSsS1_EEE6insertERKS5_$w$ncu2MQTWRM5G8Iuq2
0001:0003a472  __ZNSt4pairIKSsS_IiiEED1Ev$w$ncu2MQTWRM5G8Iuq2
0001:0003a764  __ZNSt4pairISsS_IiiEED1Ev$w$ncu2MQTWRM5G8Iuq2
0001:00037f58  __ZNKSt17_Rb_tree_iteratorISt4pairIKSsS0_IiiEERS3_PS3_EptEv$w$ncu2MQTWRM5G8Iuq2
0001:00037f6c  __ZNSt17_Rb_tree_iteratorISt4pairIKSsSt3mapIjS0_IcjESt4lessIjESaIS0_IKjS3_EEEERSA_PSA_EC1Ev$w$ncu2MQTWRM5G8Iuq2
0001:00037f96  __ZNSt3mapISsS_IjSt4pairIcjESt4lessIjESaIS0_IKjS1_EEES2_ISsESaIS0_IKSsS7_EEE4findERS9_$w$ncu2MQTWRM5G8Iuq2
0001:00037fc2  __ZNSt3mapISsS_IjSt4pairIcjESt4lessIjESaIS0_IKjS1_EEES2_ISsESaIS0_IKSsS7_EEE3endEv$w$ncu2MQTWRM5G8Iuq2
0001:00037f80  __ZSteqISt4pairIKSsSt3mapIjS0_IcjESt4lessIjESaIS0_IKjS3_EEEERSA_PSA_EbRKSt17_Rb_tree_iteratorIT_T0_T1_ESJ_$w$ncu2MQTWRM5G8Iuq2
0001:00037fe8  __ZNSt3mapIjSt4pairIcjESt4lessIjESaIS0_IKjS1_EEEC1Ev$w$ncu2MQTWRM5G8Iuq2
0001:00037b24  __ZNSt3mapIjSt4pairIcjESt4lessIjESaIS0_IKjS1_EEEC1ERKS7_$w$ncu2MQTWRM5G8Iuq2
0001:00038046  __ZSt9make_pairISsSt3mapIjSt4pairIcjESt4lessIjESaIS1_IKjS2_EEEES1_IT_T0_ES9_SA_$w$ncu2MQTWRM5G8Iuq2
0001:00038070  __ZNSt4pairIKSsSt3mapIjS_IcjESt4lessIjESaIS_IKjS2_EEEEC1ISsS8_EERKS_IT_T0_E$w$ncu2MQTWRM5G8Iuq2
0001:000380c8  __ZNSt3mapISsS_IjSt4pairIcjESt4lessIjESaIS0_IKjS1_EEES2_ISsESaIS0_IKSsS7_EEE6insertERKSA_$w$ncu2MQTWRM5G8Iuq2
0001:0003a6ac  __ZNSt4pairIKSsSt3mapIjS_IcjESt4lessIjESaIS_IKjS2_EEEED1Ev$w$ncu2MQTWRM5G8Iuq2
0001:0003a778  __ZNSt4pairISsSt3mapIjS_IcjESt4lessIjESaIS_IKjS1_EEEED1Ev$w$ncu2MQTWRM5G8Iuq2
0001:00039db4  __ZNSt3mapIjSt4pairIcjESt4lessIjESaIS0_IKjS1_EEED1Ev$w$ncu2MQTWRM5G8Iuq2
0001:00038108  __ZSt9make_pairIcjESt4pairIT_T0_ES1_S2_$w$ncu2MQTWRM5G8Iuq2
0001:00038136  __ZSt9make_pairIjSt4pairIcjEES0_IT_T0_ES2_S3_$w$ncu2MQTWRM5G8Iuq2
0001:0003816c  __ZNSt4pairIKjS_IcjEEC1IjS1_EERKS_IT_T0_E$w$ncu2MQTWRM5G8Iuq2
0001:000380f4  __ZNKSt17_Rb_tree_iteratorISt4pairIKSsSt3mapIjS0_IcjESt4lessIjESaIS0_IKjS3_EEEERSA_PSA_EptEv$w$ncu2MQTWRM5G8Iuq2
0001:000381a8  __ZNSt3mapIjSt4pairIcjESt4lessIjESaIS0_IKjS1_EEE6insertERKS5_$w$ncu2MQTWRM5G8Iuq2
0001:0003881c* __ZNK6Xapian12TermIterator16positionlist_endEv$w$ncu2MQTWRM5G8Iuq2
0001:000387fc* __ZN6XapianneERKNS_16PositionIteratorES2_$w$ncu2MQTWRM5G8Iuq2
0001:000381d4  __ZNSt3mapIjjSt4lessIjESaISt4pairIKjjEEEixERS3_$w$ncu2MQTWRM5G8Iuq2
0001:00036a86  __ZN6Xapian8Internal9RefCntPtrIK21FlintWritableDatabaseEC1EPS3_$w$ncu2MQTWRM5G8Iuq2
0001:000382d8  __ZN6Xapian8Internal9RefCntPtrIKNS_8Database8InternalEEC1IK21FlintWritableDatabaseEERKNS1_IT_EE$w$ncu2MQTWRM5G8Iuq2
0001:00038eb0  __ZN22FlintPositionListTable19delete_positionlistEjRKSs$w$ncu2MQTWRM5G8Iuq2
0001:00038308  __ZNSt17_Rb_tree_iteratorISt4pairIKjS0_IcjEERS3_PS3_EC1Ev$w$ncu2MQTWRM5G8Iuq2
0001:0003831c  __ZNSt3mapIjSt4pairIcjESt4lessIjESaIS0_IKjS1_EEE4findERS4_$w$ncu2MQTWRM5G8Iuq2
0001:00038348  __ZNSt3mapIjSt4pairIcjESt4lessIjESaIS0_IKjS1_EEE3endEv$w$ncu2MQTWRM5G8Iuq2
0001:00038192  __ZSteqISt4pairIKjS0_IcjEERS3_PS3_EbRKSt17_Rb_tree_iteratorIT_T0_T1_ESC_$w$ncu2MQTWRM5G8Iuq2
0001:0003836e  __ZNKSt17_Rb_tree_iteratorISt4pairIKjS0_IcjEERS3_PS3_EptEv$w$ncu2MQTWRM5G8Iuq2
0001:00038382  __ZNSt3mapIjjSt4lessIjESaISt4pairIKjjEEE5eraseERS3_$w$ncu2MQTWRM5G8Iuq2
0001:00036aa6  __ZN6Xapian8Internal9RefCntPtrIK21FlintWritableDatabaseED1Ev$w$ncu2MQTWRM5G8Iuq2
0001:0003839c* __ZNSaISt4pairISsjEEC1Ev$w$ncu2MQTWRM5G8Iuq2
0001:000383a8  __ZNSt4listISt4pairISsjESaIS1_EEC1ERKS2_$w$ncu2MQTWRM5G8Iuq2
0001:000383a2* __ZNSaISt4pairISsjEED1Ev$w$ncu2MQTWRM5G8Iuq2
0001:000383d6* __ZSt9make_pairISsjESt4pairIT_T0_ES1_S2_$w$ncu2MQTWRM5G8Iuq2
0001:00038426  __ZNSt4listISt4pairISsjESaIS1_EE9push_backERKS1_$w$ncu2MQTWRM5G8Iuq2
0001:0003a7c0* __ZNSt4pairISsjED1Ev$w$ncu2MQTWRM5G8Iuq2
0001:0003846a  __ZNSt14_List_iteratorISt4pairISsjERKS1_PS2_EC1Ev$w$ncu2MQTWRM5G8Iuq2
0001:0003847e  __ZNSt4listISt4pairISsjESaIS1_EE5beginEv$w$ncu2MQTWRM5G8Iuq2
0001:000384a6  __ZNSt14_List_iteratorISt4pairISsjERKS1_PS2_EC1ERKS_IS1_RS1_PS1_E$w$ncu2MQTWRM5G8Iuq2
0001:00038400  __ZNSt4listISt4pairISsjESaIS1_EE3endEv$w$ncu2MQTWRM5G8Iuq2
0001:0003a332  __ZNKSt19_List_iterator_baseneERKS_$w$ncu2MQTWRM5G8Iuq2
0001:000384d8  __ZNKSt14_List_iteratorISt4pairISsjERKS1_PS2_EptEv$w$ncu2MQTWRM5G8Iuq2
0001:000384c2  __ZNSt14_List_iteratorISt4pairISsjERKS1_PS2_EppEv$w$ncu2MQTWRM5G8Iuq2
0001:000383c2  __ZNSt4listISt4pairISsjESaIS1_EED1Ev$w$ncu2MQTWRM5G8Iuq2
0001:000384ec  __ZStneISt4pairIKjS0_IcjEERS3_PS3_EbRKSt17_Rb_tree_iteratorIT_T0_T1_ESC_$w$ncu2MQTWRM5G8Iuq2
0001:0003c888  __ZTIN6Xapian16DocNotFoundErrorE$w$ncu2MQTWRM5G8Iuq2
0001:0003a7d4  __ZNSt3mapIjjSt4lessIjESaISt4pairIKjjEEE4findERS3_$w$ncu2MQTWRM5G8Iuq2
0001:0003a96a  __ZNSt17_Rb_tree_iteratorISt4pairIKjjERKS2_PS3_EC1ERKS_IS2_RS2_PS2_E$w$ncu2MQTWRM5G8Iuq2
0001:0003a988  __ZNSt3mapIjjSt4lessIjESaISt4pairIKjjEEE3endEv$w$ncu2MQTWRM5G8Iuq2
0001:0003a9ae  __ZStneISt4pairIKjjEEbRKSt17_Rb_tree_iteratorIT_RKS4_PS5_ERKS3_IS4_RS4_PS4_E$w$ncu2MQTWRM5G8Iuq2
0001:0003a9c4  __ZNKSt17_Rb_tree_iteratorISt4pairIKjjERKS2_PS3_EptEv$w$ncu2MQTWRM5G8Iuq2
0001:00038502  __ZNSt17_Rb_tree_iteratorISt4pairIKSsS0_IiiEERKS3_PS4_EC1Ev$w$ncu2MQTWRM5G8Iuq2
0001:00038516  __ZNSt17_Rb_tree_iteratorISt4pairIKSsS0_IiiEERKS3_PS4_EC1ERKS_IS3_RS3_PS3_E$w$ncu2MQTWRM5G8Iuq2
0001:00038534  __ZStneISt4pairIKSsS0_IiiEEEbRKSt17_Rb_tree_iteratorIT_RKS5_PS6_ERKS4_IS5_RS5_PS5_E$w$ncu2MQTWRM5G8Iuq2
0001:0003854a  __ZNKSt17_Rb_tree_iteratorISt4pairIKSsS0_IiiEERKS3_PS4_EptEv$w$ncu2MQTWRM5G8Iuq2
0001:0003855e  __ZNSt17_Rb_tree_iteratorISt4pairIKSsSt3mapIjS0_IcjESt4lessIjESaIS0_IKjS3_EEEERKSA_PSB_EC1Ev$w$ncu2MQTWRM5G8Iuq2
0001:00038572  __ZNSt17_Rb_tree_iteratorISt4pairIKSsSt3mapIjS0_IcjESt4lessIjESaIS0_IKjS3_EEEERKSA_PSB_EC1ERKS_ISA_RSA_PSA_E$w$ncu2MQTWRM5G8Iuq2
0001:00038590  __ZStneISt4pairIKSsSt3mapIjS0_IcjESt4lessIjESaIS0_IKjS3_EEEEEbRKSt17_Rb_tree_iteratorIT_RKSC_PSD_ERKSB_ISC_RSC_PSC_E$w$ncu2MQTWRM5G8Iuq2
0001:000385a6  __ZNKSt17_Rb_tree_iteratorISt4pairIKSsSt3mapIjS0_IcjESt4lessIjESaIS0_IKjS3_EEEERKSA_PSB_EptEv$w$ncu2MQTWRM5G8Iuq2
0001:00039ed8  __ZN21FlintModifiedPostListC1EN6Xapian8Internal9RefCntPtrIKNS0_8Database8InternalEEEPK10FlintTableS9_RKSsRKSt3mapIjSt4pairIcjESt4lessIjESaISD_IKjSE_EEE$w$ncu2MQTWRM5G8Iuq2
0001:0003895e* __ZN6Xapian18UnimplementedErrorC1ERKSsS2_i$w$ncu2MQTWRM5G8Iuq2
0001:00038938* __ZN6Xapian18UnimplementedErrorD1Ev$w$ncu2MQTWRM5G8Iuq2
0001:0003c7ec* __ZTIN6Xapian18UnimplementedErrorE$w$ncu2MQTWRM5G8Iuq2
0001:0003aa60  __ZNSt8_Rb_treeIjSt4pairIKjS0_IcjEESt10_Select1stIS3_ESt4lessIjESaIS3_EEC1ERKS9_$w$ncu2MQTWRM5G8Iuq2
0001:000387e8* __ZNSt11char_traitsIcE6lengthEPKc$w$ncu2MQTWRM5G8Iuq2
0001:000385c6* __ZNSs6appendIPKcEERSsT_S3_$w$ncu2MQTWRM5G8Iuq2
0001:0003ad5e  __ZNK6Xapian8Internal9RefCntPtrIK13FlintDatabaseE3getEv$w$ncu2MQTWRM5G8Iuq2
0001:00038612  __ZNSaISt4pairIKSsS_IiiEEEC1Ev$w$ncu2MQTWRM5G8Iuq2
0001:0003ad68  __ZNSt8_Rb_treeISsSt4pairIKSsS0_IiiEESt10_Select1stIS3_ESt4lessISsESaIS3_EEC1ERKS7_RKS8_$w$ncu2MQTWRM5G8Iuq2
0001:00038618  __ZNSaISt4pairIKSsS_IiiEEED1Ev$w$ncu2MQTWRM5G8Iuq2
0001:0003861e  __ZNSaISt4pairIKjjEEC1Ev$w$ncu2MQTWRM5G8Iuq2
0001:0003aeea  __ZNSt8_Rb_treeIjSt4pairIKjjESt10_Select1stIS2_ESt4lessIjESaIS2_EEC1ERKS6_RKS7_$w$ncu2MQTWRM5G8Iuq2
0001:00038624  __ZNSaISt4pairIKjjEED1Ev$w$ncu2MQTWRM5G8Iuq2
0001:0003862a  __ZNSaISt4pairIKSsSt3mapIjS_IcjESt4lessIjESaIS_IKjS2_EEEEEC1Ev$w$ncu2MQTWRM5G8Iuq2
0001:0003b064  __ZNSt8_Rb_treeISsSt4pairIKSsSt3mapIjS0_IcjESt4lessIjESaIS0_IKjS3_EEEESt10_Select1stISA_ES4_ISsESaISA_EEC1ERKSD_RKSE_$w$ncu2MQTWRM5G8Iuq2
0001:00038630  __ZNSaISt4pairIKSsSt3mapIjS_IcjESt4lessIjESaIS_IKjS2_EEEEED1Ev$w$ncu2MQTWRM5G8Iuq2
0001:0003a486  __ZNSt8_Rb_treeISsSt4pairIKSsS0_IiiEESt10_Select1stIS3_ESt4lessISsESaIS3_EE5clearEv$w$ncu2MQTWRM5G8Iuq2
0001:0003a59c  __ZNSt8_Rb_treeIjSt4pairIKjjESt10_Select1stIS2_ESt4lessIjESaIS2_EE5clearEv$w$ncu2MQTWRM5G8Iuq2
0001:0003a6f4  __ZNSt8_Rb_treeISsSt4pairIKSsSt3mapIjS0_IcjESt4lessIjESaIS0_IKjS3_EEEESt10_Select1stISA_ES4_ISsESaISA_EE5clearEv$w$ncu2MQTWRM5G8Iuq2
0001:00038fae* __ZNSt22_Rb_tree_base_iteratorC2Ev$w$ncu2MQTWRM5G8Iuq2
0001:0003b218  __ZNSt8_Rb_treeISsSt4pairIKSsS0_IiiEESt10_Select1stIS3_ESt4lessISsESaIS3_EE4findERS1_$w$ncu2MQTWRM5G8Iuq2
0001:0003b1f2  __ZNSt8_Rb_treeISsSt4pairIKSsS0_IiiEESt10_Select1stIS3_ESt4lessISsESaIS3_EE3endEv$w$ncu2MQTWRM5G8Iuq2
0001:0003b32a  __ZNSt4pairIiiEC1ERKiS2_$w$ncu2MQTWRM5G8Iuq2
0001:0003b344  __ZNSt4pairISsS_IiiEEC1ERKSsRKS0_$w$ncu2MQTWRM5G8Iuq2
0001:0003b372  __ZNSt8_Rb_treeISsSt4pairIKSsS0_IiiEESt10_Select1stIS3_ESt4lessISsESaIS3_EE13insert_uniqueERKS3_$w$ncu2MQTWRM5G8Iuq2
0001:0003b552  __ZNKSt17_Rb_tree_iteratorISt4pairIKSsS0_IiiEERS3_PS3_EdeEv$w$ncu2MQTWRM5G8Iuq2
0001:0003b592  __ZNSt8_Rb_treeISsSt4pairIKSsSt3mapIjS0_IcjESt4lessIjESaIS0_IKjS3_EEEESt10_Select1stISA_ES4_ISsESaISA_EE4findERS1_$w$ncu2MQTWRM5G8Iuq2
0001:0003b56c  __ZNSt8_Rb_treeISsSt4pairIKSsSt3mapIjS0_IcjESt4lessIjESaIS0_IKjS3_EEEESt10_Select1stISA_ES4_ISsESaISA_EE3endEv$w$ncu2MQTWRM5G8Iuq2
0001:000385ba  __ZNSaISt4pairIKjS_IcjEEEC1Ev$w$ncu2MQTWRM5G8Iuq2
0001:0003b6a4  __ZNSt8_Rb_treeIjSt4pairIKjS0_IcjEESt10_Select1stIS3_ESt4lessIjESaIS3_EEC1ERKS7_RKS8_$w$ncu2MQTWRM5G8Iuq2
0001:000385c0  __ZNSaISt4pairIKjS_IcjEEED1Ev$w$ncu2MQTWRM5G8Iuq2
0001:0003b6d4  __ZNSt4pairISsSt3mapIjS_IcjESt4lessIjESaIS_IKjS1_EEEEC1ERKSsRKS7_$w$ncu2MQTWRM5G8Iuq2
0001:0003b72a  __ZNSt8_Rb_treeISsSt4pairIKSsSt3mapIjS0_IcjESt4lessIjESaIS0_IKjS3_EEEESt10_Select1stISA_ES4_ISsESaISA_EE13insert_uniqueERKSA_$w$ncu2MQTWRM5G8Iuq2
0001:0003b90a  __ZNKSt17_Rb_tree_iteratorISt4pairIKSsSt3mapIjS0_IcjESt4lessIjESaIS0_IKjS3_EEEERSA_PSA_EdeEv$w$ncu2MQTWRM5G8Iuq2
0001:0003b918  __ZNSt4pairIcjEC1ERKcRKj$w$ncu2MQTWRM5G8Iuq2
0001:0003b934  __ZNSt4pairIjS_IcjEEC1ERKjRKS0_$w$ncu2MQTWRM5G8Iuq2
0001:0003b962  __ZNSt8_Rb_treeIjSt4pairIKjS0_IcjEESt10_Select1stIS3_ESt4lessIjESaIS3_EE13insert_uniqueERKS3_$w$ncu2MQTWRM5G8Iuq2
0001:0003bb42  __ZNSt3mapIjjSt4lessIjESaISt4pairIKjjEEE11lower_boundERS3_$w$ncu2MQTWRM5G8Iuq2
0001:0003a842  __ZSteqISt4pairIKjjERS2_PS2_EbRKSt17_Rb_tree_iteratorIT_T0_T1_ESB_$w$ncu2MQTWRM5G8Iuq2
0001:0003bc02  __ZNKSt17_Rb_tree_iteratorISt4pairIKjjERS2_PS2_EdeEv$w$ncu2MQTWRM5G8Iuq2
0001:0003bc10  __ZNKSt3mapIjjSt4lessIjESaISt4pairIKjjEEE8key_compEv$w$ncu2MQTWRM5G8Iuq2
0001:0003a80e* __ZNKSt4lessIjEclERKjS2_$w$ncu2MQTWRM5G8Iuq2
0001:0003bc36  __ZNSt4pairIKjjEC1ERS0_S2_$w$ncu2MQTWRM5G8Iuq2
0001:0003a824  __ZNSt17_Rb_tree_iteratorISt4pairIKjjERS2_PS2_EC1ERKS5_$w$ncu2MQTWRM5G8Iuq2
0001:0003bc50  __ZNSt3mapIjjSt4lessIjESaISt4pairIKjjEEE6insertESt17_Rb_tree_iteratorIS4_RS4_PS4_ERKS4_$w$ncu2MQTWRM5G8Iuq2
0001:0003bf64  __ZNK6Xapian8Internal9RefCntPtrIK21FlintWritableDatabaseE3getEv$w$ncu2MQTWRM5G8Iuq2
0001:0003bfb6  __ZNSt8_Rb_treeIjSt4pairIKjS0_IcjEESt10_Select1stIS3_ESt4lessIjESaIS3_EE4findERS1_$w$ncu2MQTWRM5G8Iuq2
0001:0003bf6e  __ZNSt8_Rb_treeIjSt4pairIKjS0_IcjEESt10_Select1stIS3_ESt4lessIjESaIS3_EE3endEv$w$ncu2MQTWRM5G8Iuq2
0001:0003c0c8  __ZNKSt17_Rb_tree_iteratorISt4pairIKjS0_IcjEERS3_PS3_EdeEv$w$ncu2MQTWRM5G8Iuq2
0001:0003c0d6  __ZNSt8_Rb_treeIjSt4pairIKjjESt10_Select1stIS2_ESt4lessIjESaIS2_EE5eraseERS1_$w$ncu2MQTWRM5G8Iuq2
0001:0003c17e  __ZNSt10_List_baseISt4pairISsjESaIS1_EEC2ERKS2_$w$ncu2MQTWRM5G8Iuq2
0001:0003c20a  __ZNSt10_List_baseISt4pairISsjESaIS1_EED2Ev$w$ncu2MQTWRM5G8Iuq2
0001:0003c2da* __ZNSt4pairISsjEC1ERKSsRKj$w$ncu2MQTWRM5G8Iuq2
0001:0003c300  __ZNSt14_List_iteratorISt4pairISsjERS1_PS1_EC1EPSt10_List_nodeIS1_E$w$ncu2MQTWRM5G8Iuq2
0001:0003c31a  __ZNSt4listISt4pairISsjESaIS1_EE6insertESt14_List_iteratorIS1_RS1_PS1_ERKS1_$w$ncu2MQTWRM5G8Iuq2
0001:0003a31a  __ZNSt19_List_iterator_baseC2Ev$w$ncu2MQTWRM5G8Iuq2
0001:0003a30c  __ZNSt19_List_iterator_baseC2EPSt15_List_node_base$w$ncu2MQTWRM5G8Iuq2
0001:0003a320  __ZNSt19_List_iterator_base7_M_incrEv$w$ncu2MQTWRM5G8Iuq2
0001:0003c37c  __ZNKSt14_List_iteratorISt4pairISsjERKS1_PS2_EdeEv$w$ncu2MQTWRM5G8Iuq2
0001:0003c38a  __ZNKSt17_Rb_tree_iteratorISt4pairIKSsS0_IiiEERKS3_PS4_EdeEv$w$ncu2MQTWRM5G8Iuq2
0001:0003c398  __ZNKSt17_Rb_tree_iteratorISt4pairIKSsSt3mapIjS0_IcjESt4lessIjESaIS0_IKjS3_EEEERKSA_PSB_EdeEv$w$ncu2MQTWRM5G8Iuq2
0001:0003c814  __ZTI21FlintWritableDatabase$w$ncu2MQTWRM5G8Iuq2
0001:00038896* __ZN6Xapian8Database8Internal6reopenEv$w$ncu2MQTWRM5G8Iuq2
0001:0003889c* __ZNK6Xapian8Database8Internal16request_documentEj$w$ncu2MQTWRM5G8Iuq2
0001:000388a2* __ZNK6Xapian8Database8Internal16collect_documentEj$w$ncu2MQTWRM5G8Iuq2
0001:000388cc* __ZN6Xapian8Database8Internal17as_remotedatabaseEv$w$ncu2MQTWRM5G8Iuq2
0001:0003c808  __ZTI13FlintDatabase$w$ncu2MQTWRM5G8Iuq2
0001:00038790* __ZTV12LeafPostList$w$ncu2MQTWRM5G8Iuq2
0001:0003c7f8* __ZTI12LeafPostList$w$ncu2MQTWRM5G8Iuq2
0001:00039126* __ZN12LeafPostListD1Ev$w$ncu2MQTWRM5G8Iuq2
0001:000391a0* __ZN12LeafPostListD0Ev$w$ncu2MQTWRM5G8Iuq2
0001:00039234* __ZNK12LeafPostList16get_termfreq_minEv$w$ncu2MQTWRM5G8Iuq2
0001:0003924e* __ZNK12LeafPostList16get_termfreq_estEv$w$ncu2MQTWRM5G8Iuq2
0001:0003921a* __ZNK12LeafPostList16get_termfreq_maxEv$w$ncu2MQTWRM5G8Iuq2
0001:000392fa* __ZNK12LeafPostList13get_maxweightEv$w$ncu2MQTWRM5G8Iuq2
0001:00039296* __ZNK12LeafPostList10get_weightEv$w$ncu2MQTWRM5G8Iuq2
0001:00038fb4* __ZNK6Xapian15PostingIterator8Internal16get_collapse_keyEv$w$ncu2MQTWRM5G8Iuq2
0001:0003931a* __ZN12LeafPostList16recalc_maxweightEv$w$ncu2MQTWRM5G8Iuq2
0001:00038fe0* __ZNK6Xapian15PostingIterator8Internal7get_wdfEv$w$ncu2MQTWRM5G8Iuq2
0001:00039268* __ZN12LeafPostList14set_termweightEPKN6Xapian6WeightE$w$ncu2MQTWRM5G8Iuq2
0001:0003ca48* __ZN6XapianeqERKNS_16PositionIteratorES2_$w$ncu2MQTWRM5G8Iuq2
0001:0003ca78* __ZN6XapianeqERKNS_12TermIteratorES2_$w$ncu2MQTWRM5G8Iuq2
0001:0003caa8* __ZN6Xapian10LogicErrorD2Ev$w$ncu2MQTWRM5G8Iuq2
0001:0003cabc* __ZN6Xapian10LogicErrorC2ERKSsS2_PKci$w$ncu2MQTWRM5G8Iuq2
0001:0003caec* __ZN6Xapian12RuntimeErrorD2Ev$w$ncu2MQTWRM5G8Iuq2
0001:0003cb00* __ZN6Xapian12RuntimeErrorC2ERKSsS2_PKci$w$ncu2MQTWRM5G8Iuq2
0001:0003cb30* __ZN6Xapian13DatabaseErrorD2Ev$w$ncu2MQTWRM5G8Iuq2
0001:0003cb44* __ZN6Xapian13DatabaseErrorC2ERKSsS2_PKci$w$ncu2MQTWRM5G8Iuq2
0001:0003a9e6* __ZStplIcSt11char_traitsIcESaIcEESbIT_T0_T1_ERKS6_S3_$w$ncu2MQTWRM5G8Iuq2
0001:0003cbbc  __ZN22FlintPositionListTable8make_keyEjRKSs$w$ncu2MQTWRM5G8Iuq2
0001:0003cb74  __ZN6Xapian16PositionIterator8InternalC2Ev$w$ncu2MQTWRM5G8Iuq2
0001:0003cc2a* __ZNSaIjEC1Ev$w$ncu2MQTWRM5G8Iuq2
0001:0003cc36* __ZNSt6vectorIjSaIjEEC1ERKS0_$w$ncu2MQTWRM5G8Iuq2
0001:0003cc30* __ZNSaIjED1Ev$w$ncu2MQTWRM5G8Iuq2
0001:0003cc50  __ZN9__gnu_cxx17__normal_iteratorIPKjSt6vectorIjSaIjEEEC1Ev$w$ncu2MQTWRM5G8Iuq2
0001:0003cb94  __ZN6Xapian16PositionIterator8InternalD2Ev$w$ncu2MQTWRM5G8Iuq2
0001:0003cd4a* __ZN6Xapian15PostingIterator8InternalD2Ev$w$ncu2MQTWRM5G8Iuq2
0001:0003cdb4  __ZNSt3mapI8fragmentSt3setISsSt4lessISsESaISsEES2_IS0_ESaISt4pairIKS0_S5_EEED1Ev$w$ncu2MQTWRM5G8Iuq2
0001:0003cda0* __ZNSt3mapISsjSt4lessISsESaISt4pairIKSsjEEED1Ev$w$ncu2MQTWRM5G8Iuq2
0001:0003cdc8* __ZNSt3mapISsjSt4lessISsESaISt4pairIKSsjEEEC1Ev$w$ncu2MQTWRM5G8Iuq2
0001:0003cf3c  __ZNSt3mapI8fragmentSt3setISsSt4lessISsESaISsEES2_IS0_ESaISt4pairIKS0_S5_EEEC1Ev$w$ncu2MQTWRM5G8Iuq2
0001:0003d0be  __ZNKSt3mapISsjSt4lessISsESaISt4pairIKSsjEEE5emptyEv$w$ncu2MQTWRM5G8Iuq2
0001:0003d0e6  __ZNSt3mapISsjSt4lessISsESaISt4pairIKSsjEEE5clearEv$w$ncu2MQTWRM5G8Iuq2
0001:0003aa4c  __ZNSt3mapI8fragmentSt3setISsSt4lessISsESaISsEES2_IS0_ESaISt4pairIKS0_S5_EEE5clearEv$w$ncu2MQTWRM5G8Iuq2
0001:0003d03a* __ZNSt3setISsSt4lessISsESaISsEED1Ev$w$ncu2MQTWRM5G8Iuq2
0001:0003d198  __ZNSt3setISsSt4lessISsESaISsEEC1Ev$w$ncu2MQTWRM5G8Iuq2
0001:0003d306  __ZN17FlintSynonymTable15discard_changesEv$w$ncu2MQTWRM5G8Iuq2
0001:0003d17c  __ZN12AllTermsListC2Ev$w$ncu2MQTWRM5G8Iuq2
0001:0003d336* __ZN6Xapian8Internal9RefCntPtrIKNS_8Database8InternalEEC1ERKS5_$w$ncu2MQTWRM5G8Iuq2
0001:0003a3d2  __ZNSt8_Rb_treeISsSt4pairIKSsS0_IiiEESt10_Select1stIS3_ESt4lessISsESaIS3_EED1Ev$w$ncu2MQTWRM5G8Iuq2
0001:0003a4f6  __ZNSt8_Rb_treeIjSt4pairIKjjESt10_Select1stIS2_ESt4lessIjESaIS2_EED1Ev$w$ncu2MQTWRM5G8Iuq2
0001:0003a60c  __ZNSt8_Rb_treeISsSt4pairIKSsSt3mapIjS0_IcjESt4lessIjESaIS0_IKjS3_EEEESt10_Select1stISA_ES4_ISsESaISA_EED1Ev$w$ncu2MQTWRM5G8Iuq2
0001:0003cd72* __ZN12LeafPostListC2Ev$w$ncu2MQTWRM5G8Iuq2
0001:00039dc8  __ZNSt8_Rb_treeIjSt4pairIKjS0_IcjEESt10_Select1stIS3_ESt4lessIjESaIS3_EED1Ev$w$ncu2MQTWRM5G8Iuq2
0001:00039e68  __ZNSt8_Rb_treeIjSt4pairIKjS0_IcjEESt10_Select1stIS3_ESt4lessIjESaIS3_EE5clearEv$w$ncu2MQTWRM5G8Iuq2
0001:00039e0c  __ZNSt13_Rb_tree_baseISt4pairIKjS0_IcjEESaIS3_EED2Ev$w$ncu2MQTWRM5G8Iuq2
0001:00039e28  __ZNSt19_Rb_tree_alloc_baseISt4pairIKjS0_IcjEESaIS3_ELb1EE11_M_put_nodeEPSt13_Rb_tree_nodeIS3_E$w$ncu2MQTWRM5G8Iuq2
0001:00039e44  __ZNSt14__simple_allocISt13_Rb_tree_nodeISt4pairIKjS1_IcjEEESt24__default_alloc_templateILb1ELi0EEE10deallocateEPS5_j$w$ncu2MQTWRM5G8Iuq2
0001:0003ac66  __ZNKSt8_Rb_treeIjSt4pairIKjS0_IcjEESt10_Select1stIS3_ESt4lessIjESaIS3_EE7_M_rootEv$w$ncu2MQTWRM5G8Iuq2
0001:0003ad06  __ZNSt8_Rb_treeIjSt4pairIKjS0_IcjEESt10_Select1stIS3_ESt4lessIjESaIS3_EE8_M_eraseEPSt13_Rb_tree_nodeIS3_E$w$ncu2MQTWRM5G8Iuq2
0001:0003d3ac  __ZNKSt8_Rb_treeIjSt4pairIKjS0_IcjEESt10_Select1stIS3_ESt4lessIjESaIS3_EE11_M_leftmostEv$w$ncu2MQTWRM5G8Iuq2
0001:0003acf8  __ZNKSt8_Rb_treeIjSt4pairIKjS0_IcjEESt10_Select1stIS3_ESt4lessIjESaIS3_EE12_M_rightmostEv$w$ncu2MQTWRM5G8Iuq2
0001:0003d358  __ZNSt3mapIjSt4pairIcjESt4lessIjESaIS0_IKjS1_EEE5beginEv$w$ncu2MQTWRM5G8Iuq2
0001:0003d3f4  __ZNSt17_Rb_tree_iteratorISt4pairIKjS0_IcjEERKS3_PS4_EC1ERKS_IS3_RS3_PS3_E$w$ncu2MQTWRM5G8Iuq2
0001:0003a416  __ZNSt13_Rb_tree_baseISt4pairIKSsS0_IiiEESaIS3_EED2Ev$w$ncu2MQTWRM5G8Iuq2
0001:0003a432  __ZNSt19_Rb_tree_alloc_baseISt4pairIKSsS0_IiiEESaIS3_ELb1EE11_M_put_nodeEPSt13_Rb_tree_nodeIS3_E$w$ncu2MQTWRM5G8Iuq2
0001:0003a44e  __ZNSt14__simple_allocISt13_Rb_tree_nodeISt4pairIKSsS1_IiiEEESt24__default_alloc_templateILb1ELi0EEE10deallocateEPS5_j$w$ncu2MQTWRM5G8Iuq2
0001:0003ae68  __ZNKSt8_Rb_treeISsSt4pairIKSsS0_IiiEESt10_Select1stIS3_ESt4lessISsESaIS3_EE7_M_rootEv$w$ncu2MQTWRM5G8Iuq2
0001:0003ae76  __ZNSt8_Rb_treeISsSt4pairIKSsS0_IiiEESt10_Select1stIS3_ESt4lessISsESaIS3_EE8_M_eraseEPSt13_Rb_tree_nodeIS3_E$w$ncu2MQTWRM5G8Iuq2
0001:0003aece  __ZNKSt8_Rb_treeISsSt4pairIKSsS0_IiiEESt10_Select1stIS3_ESt4lessISsESaIS3_EE11_M_leftmostEv$w$ncu2MQTWRM5G8Iuq2
0001:0003aedc  __ZNKSt8_Rb_treeISsSt4pairIKSsS0_IiiEESt10_Select1stIS3_ESt4lessISsESaIS3_EE12_M_rightmostEv$w$ncu2MQTWRM5G8Iuq2
0001:0003a53a  __ZNSt13_Rb_tree_baseISt4pairIKjjESaIS2_EED2Ev$w$ncu2MQTWRM5G8Iuq2
0001:0003a556  __ZNSt19_Rb_tree_alloc_baseISt4pairIKjjESaIS2_ELb1EE11_M_put_nodeEPSt13_Rb_tree_nodeIS2_E$w$ncu2MQTWRM5G8Iuq2
0001:0003a572  __ZNSt14__simple_allocISt13_Rb_tree_nodeISt4pairIKjjEESt24__default_alloc_templateILb1ELi0EEE10deallocateEPS4_j$w$ncu2MQTWRM5G8Iuq2
0001:0003a800  __ZNKSt8_Rb_treeIjSt4pairIKjjESt10_Select1stIS2_ESt4lessIjESaIS2_EE7_M_rootEv$w$ncu2MQTWRM5G8Iuq2
0001:0003aff0  __ZNSt8_Rb_treeIjSt4pairIKjjESt10_Select1stIS2_ESt4lessIjESaIS2_EE8_M_eraseEPSt13_Rb_tree_nodeIS2_E$w$ncu2MQTWRM5G8Iuq2
0001:0003b048  __ZNKSt8_Rb_treeIjSt4pairIKjjESt10_Select1stIS2_ESt4lessIjESaIS2_EE11_M_leftmostEv$w$ncu2MQTWRM5G8Iuq2
0001:0003b056  __ZNKSt8_Rb_treeIjSt4pairIKjjESt10_Select1stIS2_ESt4lessIjESaIS2_EE12_M_rightmostEv$w$ncu2MQTWRM5G8Iuq2
0001:0003a650  __ZNSt13_Rb_tree_baseISt4pairIKSsSt3mapIjS0_IcjESt4lessIjESaIS0_IKjS3_EEEESaISA_EED2Ev$w$ncu2MQTWRM5G8Iuq2
0001:0003a66c  __ZNSt19_Rb_tree_alloc_baseISt4pairIKSsSt3mapIjS0_IcjESt4lessIjESaIS0_IKjS3_EEEESaISA_ELb1EE11_M_put_nodeEPSt13_Rb_tree_nodeISA_E$w$ncu2MQTWRM5G8Iuq2
0001:0003a688  __ZNSt14__simple_allocISt13_Rb_tree_nodeISt4pairIKSsSt3mapIjS1_IcjESt4lessIjESaIS1_IKjS4_EEEEESt24__default_alloc_templateILb1ELi0EEE10deallocateEPSC_j$w$ncu2MQTWRM5G8Iuq2
0001:0003b164  __ZNKSt8_Rb_treeISsSt4pairIKSsSt3mapIjS0_IcjESt4lessIjESaIS0_IKjS3_EEEESt10_Select1stISA_ES4_ISsESaISA_EE7_M_rootEv$w$ncu2MQTWRM5G8Iuq2
0001:0003b172  __ZNSt8_Rb_treeISsSt4pairIKSsSt3mapIjS0_IcjESt4lessIjESaIS0_IKjS3_EEEESt10_Select1stISA_ES4_ISsESaISA_EE8_M_eraseEPSt13_Rb_tree_nodeISA_E$w$ncu2MQTWRM5G8Iuq2
0001:0003b1ca  __ZNKSt8_Rb_treeISsSt4pairIKSsSt3mapIjS0_IcjESt4lessIjESaIS0_IKjS3_EEEESt10_Select1stISA_ES4_ISsESaISA_EE11_M_leftmostEv$w$ncu2MQTWRM5G8Iuq2
0001:0003b1d8  __ZNKSt8_Rb_treeISsSt4pairIKSsSt3mapIjS0_IcjESt4lessIjESaIS0_IKjS3_EEEESt10_Select1stISA_ES4_ISsESaISA_EE12_M_rightmostEv$w$ncu2MQTWRM5G8Iuq2
0001:0003a858  __ZNSt8_Rb_treeIjSt4pairIKjjESt10_Select1stIS2_ESt4lessIjESaIS2_EE4findERS1_$w$ncu2MQTWRM5G8Iuq2
0001:0003d412  __ZNSt8_Rb_treeIjSt4pairIKjjESt10_Select1stIS2_ESt4lessIjESaIS2_EE6_S_keyEPSt13_Rb_tree_nodeIS2_E$w$ncu2MQTWRM5G8Iuq2
0001:0003d448  __ZNSt8_Rb_treeIjSt4pairIKjjESt10_Select1stIS2_ESt4lessIjESaIS2_EE7_S_leftEPSt13_Rb_tree_nodeIS2_E$w$ncu2MQTWRM5G8Iuq2
0001:0003d454  __ZNSt8_Rb_treeIjSt4pairIKjjESt10_Select1stIS2_ESt4lessIjESaIS2_EE8_S_rightEPSt13_Rb_tree_nodeIS2_E$w$ncu2MQTWRM5G8Iuq2
0001:0003d460  __ZNSt17_Rb_tree_iteratorISt4pairIKjjERS2_PS2_EC1EPSt13_Rb_tree_nodeIS2_E$w$ncu2MQTWRM5G8Iuq2
0001:0003d47c  __ZNSt8_Rb_treeIjSt4pairIKjjESt10_Select1stIS2_ESt4lessIjESaIS2_EE3endEv$w$ncu2MQTWRM5G8Iuq2
0001:0003d4a2  __ZNSt8_Rb_treeIjSt4pairIKjjESt10_Select1stIS2_ESt4lessIjESaIS2_EE6_S_keyEPSt18_Rb_tree_node_base$w$ncu2MQTWRM5G8Iuq2
0001:0003a9d8  __ZNKSt17_Rb_tree_iteratorISt4pairIKjjERKS2_PS3_EdeEv$w$ncu2MQTWRM5G8Iuq2
0001:0003d04e  __ZNSt8_Rb_treeI8fragmentSt4pairIKS0_St3setISsSt4lessISsESaISsEEESt10_Select1stIS8_ES4_IS0_ESaIS8_EE5clearEv$w$ncu2MQTWRM5G8Iuq2
0001:0003aba8  __ZNKSt8_Rb_treeIjSt4pairIKjS0_IcjEESt10_Select1stIS3_ESt4lessIjESaIS3_EE13get_allocatorEv$w$ncu2MQTWRM5G8Iuq2
0001:0003abea  __ZNSt13_Rb_tree_baseISt4pairIKjS0_IcjEESaIS3_EEC2ERKS4_$w$ncu2MQTWRM5G8Iuq2
0001:0003ac74  __ZNSt8_Rb_treeIjSt4pairIKjS0_IcjEESt10_Select1stIS3_ESt4lessIjESaIS3_EE19_M_empty_initializeEv$w$ncu2MQTWRM5G8Iuq2
0001:0003acc8  __ZNSt8_Rb_treeIjSt4pairIKjS0_IcjEESt10_Select1stIS3_ESt4lessIjESaIS3_EE8_S_colorEPSt13_Rb_tree_nodeIS3_E$w$ncu2MQTWRM5G8Iuq2
0001:0003c3a6  __ZNSt8_Rb_treeIjSt4pairIKjS0_IcjEESt10_Select1stIS3_ESt4lessIjESaIS3_EE7_M_copyEPSt13_Rb_tree_nodeIS3_ESC_$w$ncu2MQTWRM5G8Iuq2
0001:0003acd0  __ZNSt8_Rb_treeIjSt4pairIKjS0_IcjEESt10_Select1stIS3_ESt4lessIjESaIS3_EE10_S_minimumEPSt13_Rb_tree_nodeIS3_E$w$ncu2MQTWRM5G8Iuq2
0001:0003ace4  __ZNSt8_Rb_treeIjSt4pairIKjS0_IcjEESt10_Select1stIS3_ESt4lessIjESaIS3_EE10_S_maximumEPSt13_Rb_tree_nodeIS3_E$w$ncu2MQTWRM5G8Iuq2
0001:0003abce  __ZNKSt19_Rb_tree_alloc_baseISt4pairIKjS0_IcjEESaIS3_ELb1EE13get_allocatorEv$w$ncu2MQTWRM5G8Iuq2
0001:0003ac1a  __ZNSt19_Rb_tree_alloc_baseISt4pairIKjS0_IcjEESaIS3_ELb1EEC2ERKS4_$w$ncu2MQTWRM5G8Iuq2
0001:0003ac28  __ZNSt19_Rb_tree_alloc_baseISt4pairIKjS0_IcjEESaIS3_ELb1EE11_M_get_nodeEv$w$ncu2MQTWRM5G8Iuq2
0001:0003ac3c  __ZNSt14__simple_allocISt13_Rb_tree_nodeISt4pairIKjS1_IcjEEESt24__default_alloc_templateILb1ELi0EEE8allocateEj$w$ncu2MQTWRM5G8Iuq2
0001:0003cc6c* __ZNSt18_Rb_tree_node_base10_S_minimumEPS_$w$ncu2MQTWRM5G8Iuq2
0001:0003cc8c* __ZNSt18_Rb_tree_node_base10_S_maximumEPS_$w$ncu2MQTWRM5G8Iuq2
0001:0003d9ce  __ZNSt8_Rb_treeIjSt4pairIKjS0_IcjEESt10_Select1stIS3_ESt4lessIjESaIS3_EE8_S_rightEPSt13_Rb_tree_nodeIS3_E$w$ncu2MQTWRM5G8Iuq2
0001:0003b956  __ZNSt8_Rb_treeIjSt4pairIKjS0_IcjEESt10_Select1stIS3_ESt4lessIjESaIS3_EE7_S_leftEPSt13_Rb_tree_nodeIS3_E$w$ncu2MQTWRM5G8Iuq2
0001:0003c4ea  __ZNSt8_Rb_treeIjSt4pairIKjS0_IcjEESt10_Select1stIS3_ESt4lessIjESaIS3_EE12destroy_nodeEPSt13_Rb_tree_nodeIS3_E$w$ncu2MQTWRM5G8Iuq2
0001:0003ad98  __ZNSt13_Rb_tree_baseISt4pairIKSsS0_IiiEESaIS3_EEC2ERKS4_$w$ncu2MQTWRM5G8Iuq2
0001:0003ae14  __ZNSt8_Rb_treeISsSt4pairIKSsS0_IiiEESt10_Select1stIS3_ESt4lessISsESaIS3_EE19_M_empty_initializeEv$w$ncu2MQTWRM5G8Iuq2
0001:0003adc8  __ZNSt19_Rb_tree_alloc_baseISt4pairIKSsS0_IiiEESaIS3_ELb1EEC2ERKS4_$w$ncu2MQTWRM5G8Iuq2
0001:0003add6  __ZNSt19_Rb_tree_alloc_baseISt4pairIKSsS0_IiiEESaIS3_ELb1EE11_M_get_nodeEv$w$ncu2MQTWRM5G8Iuq2
0001:0003adea  __ZNSt14__simple_allocISt13_Rb_tree_nodeISt4pairIKSsS1_IiiEEESt24__default_alloc_templateILb1ELi0EEE8allocateEj$w$ncu2MQTWRM5G8Iuq2
0001:0003c512  __ZNSt8_Rb_treeISsSt4pairIKSsS0_IiiEESt10_Select1stIS3_ESt4lessISsESaIS3_EE8_S_colorEPSt13_Rb_tree_nodeIS3_E$w$ncu2MQTWRM5G8Iuq2
0001:0003d9da  __ZNSt8_Rb_treeISsSt4pairIKSsS0_IiiEESt10_Select1stIS3_ESt4lessISsESaIS3_EE8_S_rightEPSt13_Rb_tree_nodeIS3_E$w$ncu2MQTWRM5G8Iuq2
0001:0003b1e6  __ZNSt8_Rb_treeISsSt4pairIKSsS0_IiiEESt10_Select1stIS3_ESt4lessISsESaIS3_EE7_S_leftEPSt13_Rb_tree_nodeIS3_E$w$ncu2MQTWRM5G8Iuq2
0001:0003c51a  __ZNSt8_Rb_treeISsSt4pairIKSsS0_IiiEESt10_Select1stIS3_ESt4lessISsESaIS3_EE12destroy_nodeEPSt13_Rb_tree_nodeIS3_E$w$ncu2MQTWRM5G8Iuq2
0001:0003af1a  __ZNSt13_Rb_tree_baseISt4pairIKjjESaIS2_EEC2ERKS3_$w$ncu2MQTWRM5G8Iuq2
0001:0003af9c  __ZNSt8_Rb_treeIjSt4pairIKjjESt10_Select1stIS2_ESt4lessIjESaIS2_EE19_M_empty_initializeEv$w$ncu2MQTWRM5G8Iuq2
0001:0003af4a  __ZNSt19_Rb_tree_alloc_baseISt4pairIKjjESaIS2_ELb1EEC2ERKS3_$w$ncu2MQTWRM5G8Iuq2
0001:0003af58  __ZNSt19_Rb_tree_alloc_baseISt4pairIKjjESaIS2_ELb1EE11_M_get_nodeEv$w$ncu2MQTWRM5G8Iuq2
0001:0003af6c  __ZNSt14__simple_allocISt13_Rb_tree_nodeISt4pairIKjjEESt24__default_alloc_templateILb1ELi0EEE8allocateEj$w$ncu2MQTWRM5G8Iuq2
0001:0003c542  __ZNSt8_Rb_treeIjSt4pairIKjjESt10_Select1stIS2_ESt4lessIjESaIS2_EE8_S_colorEPSt13_Rb_tree_nodeIS2_E$w$ncu2MQTWRM5G8Iuq2
0001:0003c54a  __ZNSt8_Rb_treeIjSt4pairIKjjESt10_Select1stIS2_ESt4lessIjESaIS2_EE12destroy_nodeEPSt13_Rb_tree_nodeIS2_E$w$ncu2MQTWRM5G8Iuq2
0001:0003b094  __ZNSt13_Rb_tree_baseISt4pairIKSsSt3mapIjS0_IcjESt4lessIjESaIS0_IKjS3_EEEESaISA_EEC2ERKSB_$w$ncu2MQTWRM5G8Iuq2
0001:0003b110  __ZNSt8_Rb_treeISsSt4pairIKSsSt3mapIjS0_IcjESt4lessIjESaIS0_IKjS3_EEEESt10_Select1stISA_ES4_ISsESaISA_EE19_M_empty_initializeEv$w$ncu2MQTWRM5G8Iuq2
0001:0003b0c4  __ZNSt19_Rb_tree_alloc_baseISt4pairIKSsSt3mapIjS0_IcjESt4lessIjESaIS0_IKjS3_EEEESaISA_ELb1EEC2ERKSB_$w$ncu2MQTWRM5G8Iuq2
0001:0003b0d2  __ZNSt19_Rb_tree_alloc_baseISt4pairIKSsSt3mapIjS0_IcjESt4lessIjESaIS0_IKjS3_EEEESaISA_ELb1EE11_M_get_nodeEv$w$ncu2MQTWRM5G8Iuq2
0001:0003b0e6  __ZNSt14__simple_allocISt13_Rb_tree_nodeISt4pairIKSsSt3mapIjS1_IcjESt4lessIjESaIS1_IKjS4_EEEEESt24__default_alloc_templateILb1ELi0EEE8allocateEj$w$ncu2MQTWRM5G8Iuq2
0001:0003c572  __ZNSt8_Rb_treeISsSt4pairIKSsSt3mapIjS0_IcjESt4lessIjESaIS0_IKjS3_EEEESt10_Select1stISA_ES4_ISsESaISA_EE8_S_colorEPSt13_Rb_tree_nodeISA_E$w$ncu2MQTWRM5G8Iuq2
0001:0003d9e6  __ZNSt8_Rb_treeISsSt4pairIKSsSt3mapIjS0_IcjESt4lessIjESaIS0_IKjS3_EEEESt10_Select1stISA_ES4_ISsESaISA_EE8_S_rightEPSt13_Rb_tree_nodeISA_E$w$ncu2MQTWRM5G8Iuq2
0001:0003b560  __ZNSt8_Rb_treeISsSt4pairIKSsSt3mapIjS0_IcjESt4lessIjESaIS0_IKjS3_EEEESt10_Select1stISA_ES4_ISsESaISA_EE7_S_leftEPSt13_Rb_tree_nodeISA_E$w$ncu2MQTWRM5G8Iuq2
0001:0003c57a  __ZNSt8_Rb_treeISsSt4pairIKSsSt3mapIjS0_IcjESt4lessIjESaIS0_IKjS3_EEEESt10_Select1stISA_ES4_ISsESaISA_EE12destroy_nodeEPSt13_Rb_tree_nodeISA_E$w$ncu2MQTWRM5G8Iuq2
0001:0003da64  __ZNSt17_Rb_tree_iteratorISt4pairIKSsS0_IiiEERS3_PS3_EC1EPSt13_Rb_tree_nodeIS3_E$w$ncu2MQTWRM5G8Iuq2
0001:0003d9f2  __ZNSt8_Rb_treeISsSt4pairIKSsS0_IiiEESt10_Select1stIS3_ESt4lessISsESaIS3_EE6_S_keyEPSt13_Rb_tree_nodeIS3_E$w$ncu2MQTWRM5G8Iuq2
0001:0003da28* __ZNKSt4lessISsEclERKSsS2_$w$ncu2MQTWRM5G8Iuq2
0001:0003da9e  __ZNSt8_Rb_treeISsSt4pairIKSsS0_IiiEESt10_Select1stIS3_ESt4lessISsESaIS3_EE6_S_keyEPSt18_Rb_tree_node_base$w$ncu2MQTWRM5G8Iuq2
0001:0003da80  __ZNSt17_Rb_tree_iteratorISt4pairIKSsS0_IiiEERS3_PS3_EC1ERKS6_$w$ncu2MQTWRM5G8Iuq2
0001:0003dac0  __ZNKSt10_Select1stISt4pairIKSsS0_IiiEEEclERKS3_$w$ncu2MQTWRM5G8Iuq2
0001:0003dac8  __ZNSt8_Rb_treeISsSt4pairIKSsS0_IiiEESt10_Select1stIS3_ESt4lessISsESaIS3_EE5beginEv$w$ncu2MQTWRM5G8Iuq2
0001:0003daf6  __ZNSt8_Rb_treeISsSt4pairIKSsS0_IiiEESt10_Select1stIS3_ESt4lessISsESaIS3_EE9_M_insertEPSt18_Rb_tree_node_baseSB_RKS3_$w$ncu2MQTWRM5G8Iuq2
0001:0003dc90  __ZNSt4pairISt17_Rb_tree_iteratorIS_IKSsS_IiiEERS3_PS3_EbEC1ERKS6_RKb$w$ncu2MQTWRM5G8Iuq2
0001:0003c5a2  __ZNSt17_Rb_tree_iteratorISt4pairIKSsS0_IiiEERS3_PS3_EmmEv$w$ncu2MQTWRM5G8Iuq2
0001:0003dcec  __ZNSt17_Rb_tree_iteratorISt4pairIKSsSt3mapIjS0_IcjESt4lessIjESaIS0_IKjS3_EEEERSA_PSA_EC1EPSt13_Rb_tree_nodeISA_E$w$ncu2MQTWRM5G8Iuq2
0001:0003dcb6  __ZNSt8_Rb_treeISsSt4pairIKSsSt3mapIjS0_IcjESt4lessIjESaIS0_IKjS3_EEEESt10_Select1stISA_ES4_ISsESaISA_EE6_S_keyEPSt13_Rb_tree_nodeISA_E$w$ncu2MQTWRM5G8Iuq2
0001:0003dd26  __ZNSt8_Rb_treeISsSt4pairIKSsSt3mapIjS0_IcjESt4lessIjESaIS0_IKjS3_EEEESt10_Select1stISA_ES4_ISsESaISA_EE6_S_keyEPSt18_Rb_tree_node_base$w$ncu2MQTWRM5G8Iuq2
0001:0003dd08  __ZNSt17_Rb_tree_iteratorISt4pairIKSsSt3mapIjS0_IcjESt4lessIjESaIS0_IKjS3_EEEERSA_PSA_EC1ERKSD_$w$ncu2MQTWRM5G8Iuq2
0001:0003dd48  __ZNKSt10_Select1stISt4pairIKSsSt3mapIjS0_IcjESt4lessIjESaIS0_IKjS3_EEEEEclERKSA_$w$ncu2MQTWRM5G8Iuq2
0001:0003dd50  __ZNSt8_Rb_treeISsSt4pairIKSsSt3mapIjS0_IcjESt4lessIjESaIS0_IKjS3_EEEESt10_Select1stISA_ES4_ISsESaISA_EE5beginEv$w$ncu2MQTWRM5G8Iuq2
0001:0003dd7e  __ZNSt8_Rb_treeISsSt4pairIKSsSt3mapIjS0_IcjESt4lessIjESaIS0_IKjS3_EEEESt10_Select1stISA_ES4_ISsESaISA_EE9_M_insertEPSt18_Rb_tree_node_baseSH_RKSA_$w$ncu2MQTWRM5G8Iuq2
0001:0003df18  __ZNSt4pairISt17_Rb_tree_iteratorIS_IKSsSt3mapIjS_IcjESt4lessIjESaIS_IKjS3_EEEERSA_PSA_EbEC1ERKSD_RKb$w$ncu2MQTWRM5G8Iuq2
0001:0003c5b8  __ZNSt17_Rb_tree_iteratorISt4pairIKSsSt3mapIjS0_IcjESt4lessIjESaIS0_IKjS3_EEEERSA_PSA_EmmEv$w$ncu2MQTWRM5G8Iuq2
0001:0003df46  __ZNSt8_Rb_treeIjSt4pairIKjS0_IcjEESt10_Select1stIS3_ESt4lessIjESaIS3_EE6_S_keyEPSt13_Rb_tree_nodeIS3_E$w$ncu2MQTWRM5G8Iuq2
0001:0003df3e  __ZNKSt10_Select1stISt4pairIKjS0_IcjEEEclERKS3_$w$ncu2MQTWRM5G8Iuq2
0001:0003d3ba  __ZNSt17_Rb_tree_iteratorISt4pairIKjS0_IcjEERS3_PS3_EC1EPSt13_Rb_tree_nodeIS3_E$w$ncu2MQTWRM5G8Iuq2
0001:0003d37e  __ZNSt8_Rb_treeIjSt4pairIKjS0_IcjEESt10_Select1stIS3_ESt4lessIjESaIS3_EE5beginEv$w$ncu2MQTWRM5G8Iuq2
0001:0003df7c  __ZNSt8_Rb_treeIjSt4pairIKjS0_IcjEESt10_Select1stIS3_ESt4lessIjESaIS3_EE9_M_insertEPSt18_Rb_tree_node_baseSB_RKS3_$w$ncu2MQTWRM5G8Iuq2
0001:0003e116  __ZNSt4pairISt17_Rb_tree_iteratorIS_IKjS_IcjEERS3_PS3_EbEC1ERKS6_RKb$w$ncu2MQTWRM5G8Iuq2
0001:0003c5ce  __ZNSt17_Rb_tree_iteratorISt4pairIKjS0_IcjEERS3_PS3_EmmEv$w$ncu2MQTWRM5G8Iuq2
0001:0003bf94  __ZNSt8_Rb_treeIjSt4pairIKjS0_IcjEESt10_Select1stIS3_ESt4lessIjESaIS3_EE6_S_keyEPSt18_Rb_tree_node_base$w$ncu2MQTWRM5G8Iuq2
0001:0003bb6e  __ZNSt8_Rb_treeIjSt4pairIKjjESt10_Select1stIS2_ESt4lessIjESaIS2_EE11lower_boundERS1_$w$ncu2MQTWRM5G8Iuq2
0001:0003bc2a  __ZNKSt8_Rb_treeIjSt4pairIKjjESt10_Select1stIS2_ESt4lessIjESaIS2_EE8key_compEv$w$ncu2MQTWRM5G8Iuq2
0001:0003bc96  __ZNSt8_Rb_treeIjSt4pairIKjjESt10_Select1stIS2_ESt4lessIjESaIS2_EE13insert_uniqueESt17_Rb_tree_iteratorIS2_RS2_PS2_ERKS2_$w$ncu2MQTWRM5G8Iuq2
0001:0003e144  __ZNKSt8_Rb_treeIjSt4pairIKjjESt10_Select1stIS2_ESt4lessIjESaIS2_EE4sizeEv$w$ncu2MQTWRM5G8Iuq2
0001:0003e13c  __ZNKSt10_Select1stISt4pairIKjjEEclERKS2_$w$ncu2MQTWRM5G8Iuq2
0001:0003e150  __ZNSt8_Rb_treeIjSt4pairIKjjESt10_Select1stIS2_ESt4lessIjESaIS2_EE9_M_insertEPSt18_Rb_tree_node_baseSA_RKS2_$w$ncu2MQTWRM5G8Iuq2
0001:0003c5e4  __ZNSt8_Rb_treeIjSt4pairIKjjESt10_Select1stIS2_ESt4lessIjESaIS2_EE13insert_uniqueERKS2_$w$ncu2MQTWRM5G8Iuq2
0001:0003c7c4  __ZNSt17_Rb_tree_iteratorISt4pairIKjjERS2_PS2_EmmEv$w$ncu2MQTWRM5G8Iuq2
0001:0003c7da  __ZNSt8_Rb_treeIjSt4pairIKjjESt10_Select1stIS2_ESt4lessIjESaIS2_EE8_S_rightEPSt18_Rb_tree_node_base$w$ncu2MQTWRM5G8Iuq2
0001:0003df68  __ZNSt8_Rb_treeIjSt4pairIKjS0_IcjEESt10_Select1stIS3_ESt4lessIjESaIS3_EE8_S_valueEPSt13_Rb_tree_nodeIS3_E$w$ncu2MQTWRM5G8Iuq2
0001:0003df74  __ZNKSt10_Select1stISt4pairIKjS0_IcjEEEclERS3_$w$ncu2MQTWRM5G8Iuq2
0001:0003d3d6  __ZNSt17_Rb_tree_iteratorISt4pairIKjS0_IcjEERS3_PS3_EC1ERKS6_$w$ncu2MQTWRM5G8Iuq2
0001:0003e2ea  __ZNSt8_Rb_treeIjSt4pairIKjjESt10_Select1stIS2_ESt4lessIjESaIS2_EE11equal_rangeERS1_$w$ncu2MQTWRM5G8Iuq2
0001:0003e410  __ZSt8distanceISt17_Rb_tree_iteratorISt4pairIKjjERS3_PS3_EENSt15iterator_traitsIT_E15difference_typeES8_S8_$w$ncu2MQTWRM5G8Iuq2
0001:0003e50a  __ZNSt8_Rb_treeIjSt4pairIKjjESt10_Select1stIS2_ESt4lessIjESaIS2_EE5eraseESt17_Rb_tree_iteratorIS2_RS2_PS2_ESC_$w$ncu2MQTWRM5G8Iuq2
0001:0003c1c6  __ZNSt16_List_alloc_baseISt4pairISsjESaIS1_ELb1EEC2ERKS2_$w$ncu2MQTWRM5G8Iuq2
0001:0003c1cc  __ZNSt16_List_alloc_baseISt4pairISsjESaIS1_ELb1EE11_M_get_nodeEv$w$ncu2MQTWRM5G8Iuq2
0001:0003c1e0  __ZNSt14__simple_allocISt10_List_nodeISt4pairISsjEESt24__default_alloc_templateILb1ELi0EEE8allocateEj$w$ncu2MQTWRM5G8Iuq2
0001:0003c272  __ZNSt10_List_baseISt4pairISsjESaIS1_EE7__clearEv$w$ncu2MQTWRM5G8Iuq2
0001:0003c232  __ZNSt16_List_alloc_baseISt4pairISsjESaIS1_ELb1EE11_M_put_nodeEPSt10_List_nodeIS1_E$w$ncu2MQTWRM5G8Iuq2
0001:0003c24e  __ZNSt14__simple_allocISt10_List_nodeISt4pairISsjEESt24__default_alloc_templateILb1ELi0EEE10deallocateEPS3_j$w$ncu2MQTWRM5G8Iuq2
0001:0003e5cc* __ZSt8_DestroyISt4pairISsjEEvPT_$w$ncu2MQTWRM5G8Iuq2
0001:0003e5e0  __ZNSt4listISt4pairISsjESaIS1_EE14_M_create_nodeERKS1_$w$ncu2MQTWRM5G8Iuq2
0001:0003e750  __ZNSt8_Rb_treeIjSt4pairIKjS0_IcjEESt10_Select1stIS3_ESt4lessIjESaIS3_EE13_M_clone_nodeEPSt13_Rb_tree_nodeIS3_E$w$ncu2MQTWRM5G8Iuq2
0001:0003e792  __ZSt8_DestroyISt4pairIKjS0_IcjEEEvPT_$w$ncu2MQTWRM5G8Iuq2
0001:0003e798  __ZSt8_DestroyISt4pairIKSsS0_IiiEEEvPT_$w$ncu2MQTWRM5G8Iuq2
0001:0003e7ac  __ZSt8_DestroyISt4pairIKjjEEvPT_$w$ncu2MQTWRM5G8Iuq2
0001:0003e7b2  __ZSt8_DestroyISt4pairIKSsSt3mapIjS0_IcjESt4lessIjESaIS0_IKjS3_EEEEEvPT_$w$ncu2MQTWRM5G8Iuq2
0001:0003ccac* __ZNSt22_Rb_tree_base_iterator12_M_decrementEv$w$ncu2MQTWRM5G8Iuq2
0001:0003e4dc  __ZNSt8_Rb_treeIjSt4pairIKjjESt10_Select1stIS2_ESt4lessIjESaIS2_EE5beginEv$w$ncu2MQTWRM5G8Iuq2
0001:0003e7f6  __ZNSt4pairISt17_Rb_tree_iteratorIS_IKjjERS2_PS2_EbEC1ERKS5_RKb$w$ncu2MQTWRM5G8Iuq2
0001:0003ca08* __ZTSN6Xapian18UnimplementedErrorE$w$ncu2MQTWRM5G8Iuq2
0001:0003e8fc* __ZTIN6Xapian10LogicErrorE$w$ncu2MQTWRM5G8Iuq2
0001:0003c9f9* __ZTS12LeafPostList$w$ncu2MQTWRM5G8Iuq2
0001:0003e8d0* __ZTIN6Xapian15PostingIterator8InternalE$w$ncu2MQTWRM5G8Iuq2
0001:0003c9e9  __ZTS13FlintDatabase$w$ncu2MQTWRM5G8Iuq2
0001:0003e8b0* __ZTIN6Xapian8Database8InternalE$w$ncu2MQTWRM5G8Iuq2
0001:0003c9d1  __ZTS21FlintWritableDatabase$w$ncu2MQTWRM5G8Iuq2
0001:0003c9b0* __ZTSN6Xapian21InvalidOperationErrorE$w$ncu2MQTWRM5G8Iuq2
0001:0003c990* __ZTSN6Xapian20DatabaseOpeningErrorE$w$ncu2MQTWRM5G8Iuq2
0001:0003c970  __ZTSN6Xapian19DatabaseCreateErrorE$w$ncu2MQTWRM5G8Iuq2
0001:0003c950* __ZTSN6Xapian20DatabaseCorruptErrorE$w$ncu2MQTWRM5G8Iuq2
0001:0003c910  __ZTSN6Xapian21DatabaseModifiedErrorE$w$ncu2MQTWRM5G8Iuq2
0001:0003c8ef  __ZTSN6Xapian17DatabaseLockErrorE$w$ncu2MQTWRM5G8Iuq2
0001:0003c8d6* __ZTSN6Xapian13DatabaseErrorE$w$ncu2MQTWRM5G8Iuq2
0001:0003e8f0* __ZTIN6Xapian12RuntimeErrorE$w$ncu2MQTWRM5G8Iuq2
0001:0003c8c6* __ZTSN6Xapian5ErrorE$w$ncu2MQTWRM5G8Iuq2
0001:0003c8b0* __ZTSN6Xapian10RangeErrorE$w$ncu2MQTWRM5G8Iuq2
0001:0003c894  __ZTSN6Xapian16DocNotFoundErrorE$w$ncu2MQTWRM5G8Iuq2
0001:0003ca44* __ZNSt15basic_streambufIcSt11char_traitsIcEE13_S_pback_sizeE$w$ncu2MQTWRM5G8Iuq2
0001:0003ea30* __ZNK6Xapian8Internal9RefCntPtrINS_16PositionIterator8InternalEE3getEv$w$ncu2MQTWRM5G8Iuq2
0001:0003ea3a* __ZNK6Xapian8Internal9RefCntPtrINS_12TermIterator8InternalEE3getEv$w$ncu2MQTWRM5G8Iuq2
0001:0003ea44* __ZN6Xapian5ErrorD2Ev$w$ncu2MQTWRM5G8Iuq2
0001:0003ea74* __ZN6Xapian5ErrorC2ERKSsS2_PKci$w$ncu2MQTWRM5G8Iuq2
0001:0003ea22* __ZN6Xapian8Internal10RefCntBaseC2Ev$w$ncu2MQTWRM5G8Iuq2
0001:0003e9f0  __ZTVN6Xapian16PositionIterator8InternalE$w$ncu2MQTWRM5G8Iuq2
0001:0003eaf0* __Z25pack_uint_preserving_sortIjESsT_$w$ncu2MQTWRM5G8Iuq2
0001:0003d4c4* __ZStplIcSt11char_traitsIcESaIcEESbIT_T0_T1_ERKS6_S8_$w$ncu2MQTWRM5G8Iuq2
0001:0003d51c* __ZNSt12_Vector_baseIjSaIjEEC2ERKS0_$w$ncu2MQTWRM5G8Iuq2
0001:0003ebe6* __ZNSt8iteratorISt26random_access_iterator_tagjiPKjRS1_EC2Ev$w$ncu2MQTWRM5G8Iuq2
0001:0003e990* __ZTVN6Xapian15PostingIterator8InternalE$w$ncu2MQTWRM5G8Iuq2
0001:0003f286* __ZN6Xapian15PostingIterator8InternalC2Ev$w$ncu2MQTWRM5G8Iuq2
0001:0003ce26* __ZNSt8_Rb_treeISsSt4pairIKSsjESt10_Select1stIS2_ESt4lessISsESaIS2_EED1Ev$w$ncu2MQTWRM5G8Iuq2
0001:0003cf9a  __ZNSt8_Rb_treeI8fragmentSt4pairIKS0_St3setISsSt4lessISsESaISsEEESt10_Select1stIS8_ES4_IS0_ESaIS8_EED1Ev$w$ncu2MQTWRM5G8Iuq2
0001:0003d558* __ZNSaISt4pairIKSsjEEC1Ev$w$ncu2MQTWRM5G8Iuq2
0001:0003d564* __ZNSt8_Rb_treeISsSt4pairIKSsjESt10_Select1stIS2_ESt4lessISsESaIS2_EEC1ERKS6_RKS7_$w$ncu2MQTWRM5G8Iuq2
0001:0003d55e* __ZNSaISt4pairIKSsjEED1Ev$w$ncu2MQTWRM5G8Iuq2
0001:0003cecc* __ZNSt8_Rb_treeISsSt4pairIKSsjESt10_Select1stIS2_ESt4lessISsESaIS2_EE5clearEv$w$ncu2MQTWRM5G8Iuq2
0001:0003ce6a* __ZNSt13_Rb_tree_baseISt4pairIKSsjESaIS2_EED2Ev$w$ncu2MQTWRM5G8Iuq2
0001:0003ce86* __ZNSt19_Rb_tree_alloc_baseISt4pairIKSsjESaIS2_ELb1EE11_M_put_nodeEPSt13_Rb_tree_nodeIS2_E$w$ncu2MQTWRM5G8Iuq2
0001:0003cea2* __ZNSt14__simple_allocISt13_Rb_tree_nodeISt4pairIKSsjEESt24__default_alloc_templateILb1ELi0EEE10deallocateEPS4_j$w$ncu2MQTWRM5G8Iuq2
0001:0003d0fa* __ZNKSt8_Rb_treeISsSt4pairIKSsjESt10_Select1stIS2_ESt4lessISsESaIS2_EE7_M_rootEv$w$ncu2MQTWRM5G8Iuq2
0001:0003d108* __ZNSt8_Rb_treeISsSt4pairIKSsjESt10_Select1stIS2_ESt4lessISsESaIS2_EE8_M_eraseEPSt13_Rb_tree_nodeIS2_E$w$ncu2MQTWRM5G8Iuq2
0001:0003d160* __ZNKSt8_Rb_treeISsSt4pairIKSsjESt10_Select1stIS2_ESt4lessISsESaIS2_EE11_M_leftmostEv$w$ncu2MQTWRM5G8Iuq2
0001:0003d16e* __ZNKSt8_Rb_treeISsSt4pairIKSsjESt10_Select1stIS2_ESt4lessISsESaIS2_EE12_M_rightmostEv$w$ncu2MQTWRM5G8Iuq2
0001:0003d66a  __ZNSaISt4pairIK8fragmentSt3setISsSt4lessISsESaISsEEEEC1Ev$w$ncu2MQTWRM5G8Iuq2
0001:0003d676  __ZNSt8_Rb_treeI8fragmentSt4pairIKS0_St3setISsSt4lessISsESaISsEEESt10_Select1stIS8_ES4_IS0_ESaIS8_EEC1ERKSB_RKSC_$w$ncu2MQTWRM5G8Iuq2
0001:0003d670  __ZNSaISt4pairIK8fragmentSt3setISsSt4lessISsESaISsEEEED1Ev$w$ncu2MQTWRM5G8Iuq2
0001:0003cfde  __ZNSt13_Rb_tree_baseISt4pairIK8fragmentSt3setISsSt4lessISsESaISsEEESaIS8_EED2Ev$w$ncu2MQTWRM5G8Iuq2
0001:0003cffa  __ZNSt19_Rb_tree_alloc_baseISt4pairIK8fragmentSt3setISsSt4lessISsESaISsEEESaIS8_ELb1EE11_M_put_nodeEPSt13_Rb_tree_nodeIS8_E$w$ncu2MQTWRM5G8Iuq2
0001:0003d016  __ZNSt14__simple_allocISt13_Rb_tree_nodeISt4pairIK8fragmentSt3setISsSt4lessISsESaISsEEEESt24__default_alloc_templateILb1ELi0EEE10deallocateEPSA_j$w$ncu2MQTWRM5G8Iuq2
0001:0003d1f6* __ZNSt8_Rb_treeISsSsSt9_IdentityISsESt4lessISsESaISsEED1Ev$w$ncu2MQTWRM5G8Iuq2
0001:0003d776  __ZNKSt8_Rb_treeI8fragmentSt4pairIKS0_St3setISsSt4lessISsESaISsEEESt10_Select1stIS8_ES4_IS0_ESaIS8_EE7_M_rootEv$w$ncu2MQTWRM5G8Iuq2
0001:0003d784  __ZNSt8_Rb_treeI8fragmentSt4pairIKS0_St3setISsSt4lessISsESaISsEEESt10_Select1stIS8_ES4_IS0_ESaIS8_EE8_M_eraseEPSt13_Rb_tree_nodeIS8_E$w$ncu2MQTWRM5G8Iuq2
0001:0003d7dc  __ZNKSt8_Rb_treeI8fragmentSt4pairIKS0_St3setISsSt4lessISsESaISsEEESt10_Select1stIS8_ES4_IS0_ESaIS8_EE11_M_leftmostEv$w$ncu2MQTWRM5G8Iuq2
0001:0003d7ea  __ZNKSt8_Rb_treeI8fragmentSt4pairIKS0_St3setISsSt4lessISsESaISsEEESt10_Select1stIS8_ES4_IS0_ESaIS8_EE12_M_rightmostEv$w$ncu2MQTWRM5G8Iuq2
0001:0003d0d4  __ZNKSt8_Rb_treeISsSt4pairIKSsjESt10_Select1stIS2_ESt4lessISsESaIS2_EE5emptyEv$w$ncu2MQTWRM5G8Iuq2
0001:0003f316* __ZNSt8_Rb_treeISsSt4pairIKSsjESt10_Select1stIS2_ESt4lessISsESaIS2_EE8_S_rightEPSt13_Rb_tree_nodeIS2_E$w$ncu2MQTWRM5G8Iuq2
0001:0003d7f8* __ZNSt8_Rb_treeISsSt4pairIKSsjESt10_Select1stIS2_ESt4lessISsESaIS2_EE7_S_leftEPSt13_Rb_tree_nodeIS2_E$w$ncu2MQTWRM5G8Iuq2
0001:0003d804* __ZNSt8_Rb_treeISsSt4pairIKSsjESt10_Select1stIS2_ESt4lessISsESaIS2_EE12destroy_nodeEPSt13_Rb_tree_nodeIS2_E$w$ncu2MQTWRM5G8Iuq2
0001:0003f2f6* __ZN6Xapian12TermIterator8InternalC2Ev$w$ncu2MQTWRM5G8Iuq2
0001:0003d82c* __ZNSaISsEC1Ev$w$ncu2MQTWRM5G8Iuq2
0001:0003d838* __ZNSt8_Rb_treeISsSsSt9_IdentityISsESt4lessISsESaISsEEC1ERKS3_RKS4_$w$ncu2MQTWRM5G8Iuq2
0001:0003d832* __ZNSaISsED1Ev$w$ncu2MQTWRM5G8Iuq2
0001:0003d296* __ZNSt8_Rb_treeISsSsSt9_IdentityISsESt4lessISsESaISsEE5clearEv$w$ncu2MQTWRM5G8Iuq2
0001:0003d23a* __ZNSt13_Rb_tree_baseISsSaISsEED2Ev$w$ncu2MQTWRM5G8Iuq2
0001:0003d256* __ZNSt19_Rb_tree_alloc_baseISsSaISsELb1EE11_M_put_nodeEPSt13_Rb_tree_nodeISsE$w$ncu2MQTWRM5G8Iuq2
0001:0003d272* __ZNSt14__simple_allocISt13_Rb_tree_nodeISsESt24__default_alloc_templateILb1ELi0EEE10deallocateEPS1_j$w$ncu2MQTWRM5G8Iuq2
0001:0003d938* __ZNKSt8_Rb_treeISsSsSt9_IdentityISsESt4lessISsESaISsEE7_M_rootEv$w$ncu2MQTWRM5G8Iuq2
0001:0003d946* __ZNSt8_Rb_treeISsSsSt9_IdentityISsESt4lessISsESaISsEE8_M_eraseEPSt13_Rb_tree_nodeISsE$w$ncu2MQTWRM5G8Iuq2
0001:0003d99e* __ZNKSt8_Rb_treeISsSsSt9_IdentityISsESt4lessISsESaISsEE11_M_leftmostEv$w$ncu2MQTWRM5G8Iuq2
0001:0003d9ac* __ZNKSt8_Rb_treeISsSsSt9_IdentityISsESt4lessISsESaISsEE12_M_rightmostEv$w$ncu2MQTWRM5G8Iuq2
0001:0003d9ba  __ZNSt3setISsSt4lessISsESaISsEE5clearEv$w$ncu2MQTWRM5G8Iuq2
0001:0003d434  __ZNSt8_Rb_treeIjSt4pairIKjjESt10_Select1stIS2_ESt4lessIjESaIS2_EE8_S_valueEPSt13_Rb_tree_nodeIS2_E$w$ncu2MQTWRM5G8Iuq2
0001:0003d440  __ZNKSt10_Select1stISt4pairIKjjEEclERS2_$w$ncu2MQTWRM5G8Iuq2
0001:0003d536* __ZNSt18_Vector_alloc_baseIjSaIjELb1EEC2ERKS0_$w$ncu2MQTWRM5G8Iuq2
0001:0003d594* __ZNSt13_Rb_tree_baseISt4pairIKSsjESaIS2_EEC2ERKS3_$w$ncu2MQTWRM5G8Iuq2
0001:0003d616* __ZNSt8_Rb_treeISsSt4pairIKSsjESt10_Select1stIS2_ESt4lessISsESaIS2_EE19_M_empty_initializeEv$w$ncu2MQTWRM5G8Iuq2
0001:0003d5c4* __ZNSt19_Rb_tree_alloc_baseISt4pairIKSsjESaIS2_ELb1EEC2ERKS3_$w$ncu2MQTWRM5G8Iuq2
0001:0003d5d2* __ZNSt19_Rb_tree_alloc_baseISt4pairIKSsjESaIS2_ELb1EE11_M_get_nodeEv$w$ncu2MQTWRM5G8Iuq2
0001:0003d5e6* __ZNSt14__simple_allocISt13_Rb_tree_nodeISt4pairIKSsjEESt24__default_alloc_templateILb1ELi0EEE8allocateEj$w$ncu2MQTWRM5G8Iuq2
0001:0003e6d0* __ZNSt8_Rb_treeISsSt4pairIKSsjESt10_Select1stIS2_ESt4lessISsESaIS2_EE8_S_colorEPSt13_Rb_tree_nodeIS2_E$w$ncu2MQTWRM5G8Iuq2
0001:0003d6a6  __ZNSt13_Rb_tree_baseISt4pairIK8fragmentSt3setISsSt4lessISsESaISsEEESaIS8_EEC2ERKS9_$w$ncu2MQTWRM5G8Iuq2
0001:0003d722  __ZNSt8_Rb_treeI8fragmentSt4pairIKS0_St3setISsSt4lessISsESaISsEEESt10_Select1stIS8_ES4_IS0_ESaIS8_EE19_M_empty_initializeEv$w$ncu2MQTWRM5G8Iuq2
0001:0003d6d6  __ZNSt19_Rb_tree_alloc_baseISt4pairIK8fragmentSt3setISsSt4lessISsESaISsEEESaIS8_ELb1EEC2ERKS9_$w$ncu2MQTWRM5G8Iuq2
0001:0003d6e4  __ZNSt19_Rb_tree_alloc_baseISt4pairIK8fragmentSt3setISsSt4lessISsESaISsEEESaIS8_ELb1EE11_M_get_nodeEv$w$ncu2MQTWRM5G8Iuq2
0001:0003d6f8  __ZNSt14__simple_allocISt13_Rb_tree_nodeISt4pairIK8fragmentSt3setISsSt4lessISsESaISsEEEESt24__default_alloc_templateILb1ELi0EEE8allocateEj$w$ncu2MQTWRM5G8Iuq2
0001:0003e6d8  __ZNSt8_Rb_treeI8fragmentSt4pairIKS0_St3setISsSt4lessISsESaISsEEESt10_Select1stIS8_ES4_IS0_ESaIS8_EE8_S_colorEPSt13_Rb_tree_nodeIS8_E$w$ncu2MQTWRM5G8Iuq2
0001:0003f348  __ZNSt8_Rb_treeI8fragmentSt4pairIKS0_St3setISsSt4lessISsESaISsEEESt10_Select1stIS8_ES4_IS0_ESaIS8_EE8_S_rightEPSt13_Rb_tree_nodeIS8_E$w$ncu2MQTWRM5G8Iuq2
0001:0003e6e0  __ZNSt8_Rb_treeI8fragmentSt4pairIKS0_St3setISsSt4lessISsESaISsEEESt10_Select1stIS8_ES4_IS0_ESaIS8_EE7_S_leftEPSt13_Rb_tree_nodeIS8_E$w$ncu2MQTWRM5G8Iuq2
0001:0003e6ec  __ZNSt8_Rb_treeI8fragmentSt4pairIKS0_St3setISsSt4lessISsESaISsEEESt10_Select1stIS8_ES4_IS0_ESaIS8_EE12destroy_nodeEPSt13_Rb_tree_nodeIS8_E$w$ncu2MQTWRM5G8Iuq2
0001:0003f354* __ZSt8_DestroyISt4pairIKSsjEEvPT_$w$ncu2MQTWRM5G8Iuq2
0001:0003d868* __ZNSt13_Rb_tree_baseISsSaISsEEC2ERKS0_$w$ncu2MQTWRM5G8Iuq2
0001:0003d8e4* __ZNSt8_Rb_treeISsSsSt9_IdentityISsESt4lessISsESaISsEE19_M_empty_initializeEv$w$ncu2MQTWRM5G8Iuq2
0001:0003d898* __ZNSt19_Rb_tree_alloc_baseISsSaISsELb1EEC2ERKS0_$w$ncu2MQTWRM5G8Iuq2
0001:0003d8a6* __ZNSt19_Rb_tree_alloc_baseISsSaISsELb1EE11_M_get_nodeEv$w$ncu2MQTWRM5G8Iuq2
0001:0003d8ba* __ZNSt14__simple_allocISt13_Rb_tree_nodeISsESt24__default_alloc_templateILb1ELi0EEE8allocateEj$w$ncu2MQTWRM5G8Iuq2
0001:0003e714* __ZNSt8_Rb_treeISsSsSt9_IdentityISsESt4lessISsESaISsEE8_S_colorEPSt13_Rb_tree_nodeISsE$w$ncu2MQTWRM5G8Iuq2
0001:0003f368* __ZNSt8_Rb_treeISsSsSt9_IdentityISsESt4lessISsESaISsEE8_S_rightEPSt13_Rb_tree_nodeISsE$w$ncu2MQTWRM5G8Iuq2
0001:0003e71c* __ZNSt8_Rb_treeISsSsSt9_IdentityISsESt4lessISsESaISsEE7_S_leftEPSt13_Rb_tree_nodeISsE$w$ncu2MQTWRM5G8Iuq2
0001:0003e728* __ZNSt8_Rb_treeISsSsSt9_IdentityISsESt4lessISsESaISsEE12destroy_nodeEPSt13_Rb_tree_nodeISsE$w$ncu2MQTWRM5G8Iuq2
0001:0003da14  __ZNSt8_Rb_treeISsSt4pairIKSsS0_IiiEESt10_Select1stIS3_ESt4lessISsESaIS3_EE8_S_valueEPSt13_Rb_tree_nodeIS3_E$w$ncu2MQTWRM5G8Iuq2
0001:0003da20  __ZNKSt10_Select1stISt4pairIKSsS0_IiiEEEclERS3_$w$ncu2MQTWRM5G8Iuq2
0001:0003da46* __ZStltIcSt11char_traitsIcESaIcEEbRKSbIT_T0_T1_ES8_$w$ncu2MQTWRM5G8Iuq2
0001:0003f374  __ZNSt8_Rb_treeISsSt4pairIKSsS0_IiiEESt10_Select1stIS3_ESt4lessISsESaIS3_EE14_M_create_nodeERKS3_$w$ncu2MQTWRM5G8Iuq2
0001:0003e7c6  __ZNSt8_Rb_treeISsSt4pairIKSsS0_IiiEESt10_Select1stIS3_ESt4lessISsESaIS3_EE9_S_parentEPSt13_Rb_tree_nodeIS3_E$w$ncu2MQTWRM5G8Iuq2
0001:0003ec6a* __ZSt18_Rb_tree_rebalancePSt18_Rb_tree_node_baseRS0_$w$ncu2MQTWRM5G8Iuq2
0001:0003dcd8  __ZNSt8_Rb_treeISsSt4pairIKSsSt3mapIjS0_IcjESt4lessIjESaIS0_IKjS3_EEEESt10_Select1stISA_ES4_ISsESaISA_EE8_S_valueEPSt13_Rb_tree_nodeISA_E$w$ncu2MQTWRM5G8Iuq2
0001:0003dce4  __ZNKSt10_Select1stISt4pairIKSsSt3mapIjS0_IcjESt4lessIjESaIS0_IKjS3_EEEEEclERSA_$w$ncu2MQTWRM5G8Iuq2
0001:0003f464  __ZNSt8_Rb_treeISsSt4pairIKSsSt3mapIjS0_IcjESt4lessIjESaIS0_IKjS3_EEEESt10_Select1stISA_ES4_ISsESaISA_EE14_M_create_nodeERKSA_$w$ncu2MQTWRM5G8Iuq2
0001:0003e7d2  __ZNSt8_Rb_treeISsSt4pairIKSsSt3mapIjS0_IcjESt4lessIjESaIS0_IKjS3_EEEESt10_Select1stISA_ES4_ISsESaISA_EE9_S_parentEPSt13_Rb_tree_nodeISA_E$w$ncu2MQTWRM5G8Iuq2
0001:0003e7de  __ZNSt8_Rb_treeIjSt4pairIKjS0_IcjEESt10_Select1stIS3_ESt4lessIjESaIS3_EE9_S_parentEPSt13_Rb_tree_nodeIS3_E$w$ncu2MQTWRM5G8Iuq2
0001:0003e7ea  __ZNSt8_Rb_treeIjSt4pairIKjjESt10_Select1stIS2_ESt4lessIjESaIS2_EE9_S_parentEPSt13_Rb_tree_nodeIS2_E$w$ncu2MQTWRM5G8Iuq2
0001:0003e34e  __ZNSt8_Rb_treeIjSt4pairIKjjESt10_Select1stIS2_ESt4lessIjESaIS2_EE11upper_boundERS1_$w$ncu2MQTWRM5G8Iuq2
0001:0003e3e0  __ZNSt4pairISt17_Rb_tree_iteratorIS_IKjjERS2_PS2_ES5_EC1ERKS5_S8_$w$ncu2MQTWRM5G8Iuq2
0001:0003e466  __ZSt19__iterator_categoryISt17_Rb_tree_iteratorISt4pairIKjjERS3_PS3_EENSt15iterator_traitsIT_E17iterator_categoryERKS8_$w$ncu2MQTWRM5G8Iuq2
0001:0003e472  __ZSt10__distanceISt17_Rb_tree_iteratorISt4pairIKjjERS3_PS3_EENSt15iterator_traitsIT_E15difference_typeES8_S8_St18input_iterator_tag$w$ncu2MQTWRM5G8Iuq2
0001:0003e4b0  __ZStneISt4pairIKjjERS2_PS2_EbRKSt17_Rb_tree_iteratorIT_T0_T1_ESB_$w$ncu2MQTWRM5G8Iuq2
0001:0003e4c6  __ZNSt17_Rb_tree_iteratorISt4pairIKjjERS2_PS2_EppEv$w$ncu2MQTWRM5G8Iuq2
0001:0003ebec* __ZNSt22_Rb_tree_base_iterator12_M_incrementEv$w$ncu2MQTWRM5G8Iuq2
0001:0003e81c  __ZNSt17_Rb_tree_iteratorISt4pairIKjjERS2_PS2_EppEi$w$ncu2MQTWRM5G8Iuq2
0001:0003e84a  __ZNSt8_Rb_treeIjSt4pairIKjjESt10_Select1stIS2_ESt4lessIjESaIS2_EE5eraseESt17_Rb_tree_iteratorIS2_RS2_PS2_E$w$ncu2MQTWRM5G8Iuq2
0001:0003e654* __ZSt10_ConstructISt4pairISsjES1_EvPT_RKT0_$w$ncu2MQTWRM5G8Iuq2
0001:0003ea14* __ZnwjPv$w$ncu2MQTWRM5G8Iuq2
0001:0003f322* __ZNSt4pairISsjEC1ERKS0_$w$ncu2MQTWRM5G8Iuq2
0001:0003ea1c* __ZdlPvS_$w$ncu2MQTWRM5G8Iuq2
0001:0003ee22* __ZSt28_Rb_tree_rebalance_for_erasePSt18_Rb_tree_node_baseRS0_S1_S1_$w$ncu2MQTWRM5G8Iuq2
0001:0003e974* __ZTSN6Xapian8Database8InternalE$w$ncu2MQTWRM5G8Iuq2
0001:0003e950* __ZTSN6Xapian15PostingIterator8InternalE$w$ncu2MQTWRM5G8Iuq2
0001:0003e91e* __ZTSN6Xapian12RuntimeErrorE$w$ncu2MQTWRM5G8Iuq2
0001:0003e908* __ZTSN6Xapian10LogicErrorE$w$ncu2MQTWRM5G8Iuq2
0001:0003f2a6* __ZN6Xapian15PostingIterator8InternalD1Ev$w$ncu2MQTWRM5G8Iuq2
0001:0003f2ce* __ZN6Xapian15PostingIterator8InternalD0Ev$w$ncu2MQTWRM5G8Iuq2
0001:0003eb96  __ZN6Xapian16PositionIterator8InternalD1Ev$w$ncu2MQTWRM5G8Iuq2
0001:0003ebbe  __ZN6Xapian16PositionIterator8InternalD0Ev$w$ncu2MQTWRM5G8Iuq2
0001:0003f3e8  __ZSt10_ConstructISt4pairIKSsS0_IiiEES3_EvPT_RKT0_$w$ncu2MQTWRM5G8Iuq2
0001:0003f554  __ZNSt8_Rb_treeIjSt4pairIKjS0_IcjEESt10_Select1stIS3_ESt4lessIjESaIS3_EE14_M_create_nodeERKS3_$w$ncu2MQTWRM5G8Iuq2
0001:0003f5c2  __ZNSt8_Rb_treeIjSt4pairIKjjESt10_Select1stIS2_ESt4lessIjESaIS2_EE14_M_create_nodeERKS2_$w$ncu2MQTWRM5G8Iuq2
0001:0003f624  __ZSt8_DestroyISt4pairIK8fragmentSt3setISsSt4lessISsESaISsEEEEvPT_$w$ncu2MQTWRM5G8Iuq2
0001:0003f638* __ZSt8_DestroyISsEvPT_$w$ncu2MQTWRM5G8Iuq2
0001:0003f670* __ZTIN6Xapian8Internal10RefCntBaseE$w$ncu2MQTWRM5G8Iuq2
0001:0003f650  __ZTIN6Xapian16PositionIterator8InternalE$w$ncu2MQTWRM5G8Iuq2
0001:0003f6d6* __ZSt20_Rb_tree_rotate_leftPSt18_Rb_tree_node_baseRS0_$w$ncu2MQTWRM5G8Iuq2
0001:0003f762* __ZSt21_Rb_tree_rotate_rightPSt18_Rb_tree_node_baseRS0_$w$ncu2MQTWRM5G8Iuq2
0001:0003f7ee* __ZSt4swapISt14_Rb_tree_colorEvRT_S2_$w$ncu2MQTWRM5G8Iuq2
0001:0003f810* __ZNSt4pairIKSsjED1Ev$w$ncu2MQTWRM5G8Iuq2
0001:0003f83a  __ZNSt4pairIKSsS_IiiEEC1ERKS2_$w$ncu2MQTWRM5G8Iuq2
0001:0003f4d8  __ZSt10_ConstructISt4pairIKSsSt3mapIjS0_IcjESt4lessIjESaIS0_IKjS3_EEEESA_EvPT_RKT0_$w$ncu2MQTWRM5G8Iuq2
0001:0003f86a  __ZNSt4pairIKSsSt3mapIjS_IcjESt4lessIjESaIS_IKjS2_EEEEC1ERKS9_$w$ncu2MQTWRM5G8Iuq2
0001:0003f582  __ZSt10_ConstructISt4pairIKjS0_IcjEES3_EvPT_RKT0_$w$ncu2MQTWRM5G8Iuq2
0001:0003f5f0  __ZSt10_ConstructISt4pairIKjjES2_EvPT_RKT0_$w$ncu2MQTWRM5G8Iuq2
0001:0003f824  __ZNSt4pairIK8fragmentSt3setISsSt4lessISsESaISsEEED1Ev$w$ncu2MQTWRM5G8Iuq2
0001:0003f6b0  __ZTSN6Xapian16PositionIterator8InternalE$w$ncu2MQTWRM5G8Iuq2
0001:0003f678* __ZTSN6Xapian8Internal10RefCntBaseE$w$ncu2MQTWRM5G8Iuq2
0002:00038c04* __ZN16__Atomicity_lockILi0EE17_S_atomicity_lockE$w$ncu2MQTWRM5G8Iuq2
Module: E:\rd\dse\xapian-core-1.0.2\.libs\xapian.lib(languages\danish.cc)
0001:0003f8d0  __ZN6Xapian18InternalStemDanish14r_mark_regionsEv
0001:0003fa08  __ZN6Xapian18InternalStemDanish13r_main_suffixEv
0001:0003fbda  __ZN6Xapian18InternalStemDanish16r_consonant_pairEv
0001:0003fd92  __ZN6Xapian18InternalStemDanish14r_other_suffixEv
0001:0004002c  __ZN6Xapian18InternalStemDanish10r_undoubleEv
0001:0004016c  __ZN6Xapian18InternalStemDanish4stemEv
0001:000402fa  __ZN6Xapian18InternalStemDanishC2Ev
0001:0004036c  __ZN6Xapian18InternalStemDanishC1Ev
0001:000403de  __ZN6Xapian18InternalStemDanishD2Ev
0001:00040420  __ZN6Xapian18InternalStemDanishD1Ev
0001:00040462  __ZN6Xapian18InternalStemDanishD0Ev
0001:000404aa  __ZNK6Xapian18InternalStemDanish15get_descriptionEv
0001:00040512  __ZN6Xapian4Stem8Internal9slice_delEv$w$V52KEzgXRM5F153M3
0001:000404ec  __ZN6Xapian4Stem8Internal6eq_v_bEPKh$w$V52KEzgXRM5F153M3
0001:000404b8  __ZTVN6Xapian18InternalStemDanishE$w$V52KEzgXRM5F153M3
0001:000404d0  __Z6lose_sPh$w$V52KEzgXRM5F153M3
0001:00040538  __ZTIN6Xapian18InternalStemDanishE$w$V52KEzgXRM5F153M3
0001:000408cc  __ZTSN6Xapian18InternalStemDanishE$w$V52KEzgXRM5F153M3
0001:000408f0  __ZTIN6Xapian4Stem8InternalE$w$V52KEzgXRM5F153M3
0001:00040910  __ZTSN6Xapian4Stem8InternalE$w$V52KEzgXRM5F153M3
0001:00040928* __ZTIN6Xapian8Internal10RefCntBaseE$w$V52KEzgXRM5F153M3
0001:00040930* __ZTSN6Xapian8Internal10RefCntBaseE$w$V52KEzgXRM5F153M3
0002:00038c10* __ZN16__Atomicity_lockILi0EE17_S_atomicity_lockE$w$V52KEzgXRM5F153M3
Module: E:\rd\dse\xapian-core-1.0.2\.libs\xapian.lib(backends\flint\flint_table.cc)
0001:00040b1a  __ZNK10FlintTable10read_blockEmPh
0001:00040ce4  __ZNK10FlintTable11write_blockEmPKh
0001:00040ffa  __ZNK10FlintTable15set_overwrittenEv
0001:0004128a  __ZNK10FlintTable15block_to_cursorEP7Cursor_im
0001:000413ce  __ZN10FlintTable5alterEv
0001:00041514  __ZN10FlintTable13find_in_blockEPKh4Key_bi
0001:0004712e  __ZNK4Key_ltES_
0001:0004168c  __ZNK10FlintTable4findEP7Cursor_
0001:000471e8  __ZNK4Key_eqES_
0001:000417e4  __ZN10FlintTable7compactEPh
0001:0004192c  __ZN10FlintTable10split_rootEm
0001:0004200c  __ZN10FlintTable8add_itemE8Item_wr_i
0001:00041bb2  __ZN10FlintTable9enter_keyEi4Key_S0_
0001:00041de4  __ZN10FlintTable9mid_pointEPh
0001:00041eb0  __ZN10FlintTable17add_item_to_blockEPh8Item_wr_i
0001:00042360  __ZN10FlintTable11delete_itemEib
0001:0004263e  __ZN10FlintTable6add_ktEb
0001:000428e6  __ZN10FlintTable9delete_ktEv
0001:00042982  __ZNK10FlintTable8form_keyERKSs
0001:00042a2c  __ZN10FlintTable3addERKSsSsb
0001:00045ab2  __ZN10FlintTable15create_and_openEj
0001:00043652  __ZN10FlintTable3delERKSs
0001:00043726  __ZNK10FlintTable15get_exact_entryERKSsRSs
0001:000437c2  __ZNK10FlintTable8find_tagERKSsPSs
0001:0004376c  __ZNK10FlintTable10key_existsERKSs
0001:000438d0  __ZNK10FlintTable8read_tagEP7Cursor_PSsb
0001:000442b8  __ZN10FlintTable19set_full_compactionEb
0001:000442e0  __ZNK10FlintTable10cursor_getEv
0001:00044372  __ZN10FlintTable10basic_openEbj
0001:00044b42  __ZN10FlintTable9read_rootEv
0001:00044d5c  __ZN10FlintTable16do_open_to_writeEbjb
0001:00046f16  __ZNK10FlintTable12prev_defaultEP7Cursor_i
0001:0004700a  __ZNK10FlintTable12next_defaultEP7Cursor_i
0001:000452ec  __ZN10FlintTableC2ESsbib
0001:0004547a  __ZN10FlintTableC1ESsbib
0001:00045614  __ZNK10FlintTable6existsEv
0001:00045960  __ZN10FlintTable5eraseEv
0001:00045cfe  __ZN10FlintTable5closeEv
0001:00045a7c  __ZN10FlintTable14set_block_sizeEj
0001:00045c1e  __ZN10FlintTableD2Ev
0001:00045c8e  __ZN10FlintTableD1Ev
0001:00045e62  __ZN10FlintTable6commitEj
0001:000463fa  __ZN10FlintTable6cancelEv
0001:00046716  __ZN10FlintTable15do_open_to_readEbj
0001:00046cd6  __ZNK10FlintTable19prev_for_sequentialEP7Cursor_i
0001:00046dee  __ZNK10FlintTable19next_for_sequentialEP7Cursor_i
0001:00046bde  __ZN10FlintTable4openEv
0001:00046c3a  __ZN10FlintTable4openEj
0001:0004764c  __Z6unlinkRKSs$w$7e3s9Q2XRM5BoWMn2
0001:0004756a* __ZN6Xapian20DatabaseCorruptErrorC1ERKSsS2_i$w$7e3s9Q2XRM5BoWMn2
0001:00047542* __ZN6Xapian20DatabaseCorruptErrorD1Ev$w$7e3s9Q2XRM5BoWMn2
0001:00047e18* __ZTIN6Xapian20DatabaseCorruptErrorE$w$7e3s9Q2XRM5BoWMn2
0001:00047512* __ZN6Xapian13DatabaseErrorC1ERKSsS2_i$w$7e3s9Q2XRM5BoWMn2
0001:000474f0* __ZN6Xapian13DatabaseErrorD1Ev$w$7e3s9Q2XRM5BoWMn2
0001:00047e24* __ZTIN6Xapian13DatabaseErrorE$w$7e3s9Q2XRM5BoWMn2
0001:00047d0c* __ZStplIcSt11char_traitsIcESaIcEESbIT_T0_T1_ERKS6_PKS3_$w$7e3s9Q2XRM5BoWMn2
0001:00047254* __ZStplIcSt11char_traitsIcESaIcEESbIT_T0_T1_ERKS6_S3_$w$7e3s9Q2XRM5BoWMn2
0001:000475c4* __ZN6Xapian21DatabaseModifiedErrorC1ERKSsS2_i$w$7e3s9Q2XRM5BoWMn2
0001:0004759a* __ZN6Xapian21DatabaseModifiedErrorD1Ev$w$7e3s9Q2XRM5BoWMn2
0001:00047e30* __ZTIN6Xapian21DatabaseModifiedErrorE$w$7e3s9Q2XRM5BoWMn2
0001:000476d0  __Z7getint4PKhi$w$7e3s9Q2XRM5BoWMn2
0001:00047714  __Z7setint4Phii$w$7e3s9Q2XRM5BoWMn2
0001:000478da  __ZN8Item_wr_C1EPhi$w$7e3s9Q2XRM5BoWMn2
0001:00047a80  __ZN8Item_wr_18set_block_given_byEm$w$7e3s9Q2XRM5BoWMn2
0001:0004768a* __Z7getint2PKhi$w$7e3s9Q2XRM5BoWMn2
0001:000478b8* __ZN5Item_C1EPKhi$w$7e3s9Q2XRM5BoWMn2
0001:00047d64* __ZNK10Item_base_IPKhE3keyEv$w$7e3s9Q2XRM5BoWMn2
0001:00047882  __ZNK4Key_leES_$w$7e3s9Q2XRM5BoWMn2
0001:00047d86  __ZNK10Item_base_IPhE3keyEv$w$7e3s9Q2XRM5BoWMn2
0001:000472ba  __ZNK10Item_base_IPKhE14block_given_byEv$w$7e3s9Q2XRM5BoWMn2
0001:00047da8  __ZNK10Item_base_IPKhE4sizeEv$w$7e3s9Q2XRM5BoWMn2
0001:00047dca  __ZNK10Item_base_IPKhE11get_addressEv$w$7e3s9Q2XRM5BoWMn2
0001:000476ac  __Z7setint2Phii$w$7e3s9Q2XRM5BoWMn2
0001:00047676  __Z7setint1Phii$w$7e3s9Q2XRM5BoWMn2
0001:000478fc  __ZN8Item_wr_C1EPh$w$7e3s9Q2XRM5BoWMn2
0001:00047aae  __ZN8Item_wr_13form_null_keyEm$w$7e3s9Q2XRM5BoWMn2
0001:00047862* __ZNK4Key_6lengthEv$w$7e3s9Q2XRM5BoWMn2
0001:00047dd4  __ZSt3minIiERKT_S2_S2_$w$7e3s9Q2XRM5BoWMn2
0001:000478a4  __ZNK4Key_ixEj$w$7e3s9Q2XRM5BoWMn2
0001:00047986  __ZN8Item_wr_17set_key_and_blockE4Key_im$w$7e3s9Q2XRM5BoWMn2
0001:00047858  __ZNK4Key_11get_addressEv$w$7e3s9Q2XRM5BoWMn2
0001:00047a5e  __ZNK10Item_base_IPhE4sizeEv$w$7e3s9Q2XRM5BoWMn2
0001:00047dfa  __ZNK10Item_base_IPhE11get_addressEv$w$7e3s9Q2XRM5BoWMn2
0001:00043842  __ZNK10Item_base_IPKhE13components_ofEv$w$7e3s9Q2XRM5BoWMn2
0001:00047af8  __ZN8Item_wr_8form_keyERKSs$w$7e3s9Q2XRM5BoWMn2
0001:000472e2* __ZStplIcSt11char_traitsIcESaIcEESbIT_T0_T1_EPKS3_RKS6_$w$7e3s9Q2XRM5BoWMn2
0001:000474c0* __ZN6Xapian20InvalidArgumentErrorC1ERKSsS2_i$w$7e3s9Q2XRM5BoWMn2
0001:00047498* __ZN6Xapian20InvalidArgumentErrorD1Ev$w$7e3s9Q2XRM5BoWMn2
0001:00047e3c* __ZTIN6Xapian20InvalidArgumentErrorE$w$7e3s9Q2XRM5BoWMn2
0001:00047468  __ZNSt9bad_allocC1Ev$w$7e3s9Q2XRM5BoWMn2
0001:00047e04  __ZTISt9bad_alloc$w$7e3s9Q2XRM5BoWMn2
0001:0004794e  __ZN8Item_wr_17set_components_ofEi$w$7e3s9Q2XRM5BoWMn2
0001:00047b76  __ZN8Item_wr_7set_tagEiPKcib$w$7e3s9Q2XRM5BoWMn2
0001:00047916  __ZN8Item_wr_16set_component_ofEi$w$7e3s9Q2XRM5BoWMn2
0001:00047668* __Z7getint1PKhi$w$7e3s9Q2XRM5BoWMn2
0001:0004737a  __ZNK10Item_base_IPKhE12append_chunkEPSs$w$7e3s9Q2XRM5BoWMn2
0001:000473cc  __ZNK10Item_base_IPKhE14get_compressedEv$w$7e3s9Q2XRM5BoWMn2
0001:00047c6c* __ZNK10FlintTable4nextEP7Cursor_i$w$7e3s9Q2XRM5BoWMn2
0001:000473dc* __ZSt4swapIcSt11char_traitsIcESaIcEEvRSbIT_T0_T1_ES7_$w$7e3s9Q2XRM5BoWMn2
0001:0004761c* __ZN6Xapian20DatabaseOpeningErrorC1ERKSsS2_i$w$7e3s9Q2XRM5BoWMn2
0001:000475f4* __ZN6Xapian20DatabaseOpeningErrorD1Ev$w$7e3s9Q2XRM5BoWMn2
0001:00047e48* __ZTIN6Xapian20DatabaseOpeningErrorE$w$7e3s9Q2XRM5BoWMn2
0001:0004775a  __ZNK15FlintTable_base12get_revisionEv$w$7e3s9Q2XRM5BoWMn2
0001:00047764  __ZNK15FlintTable_base14get_block_sizeEv$w$7e3s9Q2XRM5BoWMn2
0001:00047770  __ZNK15FlintTable_base8get_rootEv$w$7e3s9Q2XRM5BoWMn2
0001:0004777c  __ZNK15FlintTable_base9get_levelEv$w$7e3s9Q2XRM5BoWMn2
0001:00047788  __ZNK15FlintTable_base14get_item_countEv$w$7e3s9Q2XRM5BoWMn2
0001:000477a0  __ZNK15FlintTable_base17get_have_fakerootEv$w$7e3s9Q2XRM5BoWMn2
0001:000477ac  __ZNK15FlintTable_base14get_sequentialEv$w$7e3s9Q2XRM5BoWMn2
0001:00047c22  __ZN10FlintTable17set_max_item_sizeEj$w$7e3s9Q2XRM5BoWMn2
0001:00047bce  __ZN8Item_wr_14fake_root_itemEv$w$7e3s9Q2XRM5BoWMn2
0001:0004782e* __ZN7Cursor_C1Ev$w$7e3s9Q2XRM5BoWMn2
0001:000477c6  __ZN15FlintTable_base14set_block_sizeEm$w$7e3s9Q2XRM5BoWMn2
0001:000477fe  __ZN15FlintTable_base17set_have_fakerootEb$w$7e3s9Q2XRM5BoWMn2
0001:00047816  __ZN15FlintTable_base14set_sequentialEb$w$7e3s9Q2XRM5BoWMn2
0001:00047442* __Z13flint_io_synci$w$7e3s9Q2XRM5BoWMn2
0001:000477b8  __ZN15FlintTable_base12set_revisionEm$w$7e3s9Q2XRM5BoWMn2
0001:000477d4  __ZN15FlintTable_base8set_rootEm$w$7e3s9Q2XRM5BoWMn2
0001:000477e2  __ZN15FlintTable_base9set_levelEm$w$7e3s9Q2XRM5BoWMn2
0001:000477f0  __ZN15FlintTable_base14set_item_countEm$w$7e3s9Q2XRM5BoWMn2
0001:00047794  __ZNK15FlintTable_base14get_last_blockEv$w$7e3s9Q2XRM5BoWMn2
0001:00047484* __ZNSt11char_traitsIcE6lengthEPKc$w$7e3s9Q2XRM5BoWMn2
0001:000473f6* __ZNSs6appendIPKcEERSsT_S3_$w$7e3s9Q2XRM5BoWMn2
0001:00047f2a  __ZNSt9exceptionC2Ev$w$7e3s9Q2XRM5BoWMn2
0001:00047f5e* __ZN6Xapian10LogicErrorD2Ev$w$7e3s9Q2XRM5BoWMn2
0001:00047f72* __ZN6Xapian10LogicErrorC2ERKSsS2_PKci$w$7e3s9Q2XRM5BoWMn2
0001:00047fa2* __ZN6Xapian12RuntimeErrorD2Ev$w$7e3s9Q2XRM5BoWMn2
0001:00047fb6* __ZN6Xapian12RuntimeErrorC2ERKSsS2_PKci$w$7e3s9Q2XRM5BoWMn2
0001:00047fe6* __ZN6Xapian13DatabaseErrorD2Ev$w$7e3s9Q2XRM5BoWMn2
0001:00047ffa* __ZN6Xapian13DatabaseErrorC2ERKSsS2_PKci$w$7e3s9Q2XRM5BoWMn2
0001:00048038* __ZN10Item_base_IPKhEC2ES1_i$w$7e3s9Q2XRM5BoWMn2
0001:00048084  __ZN10Item_base_IPhEC2ES0_i$w$7e3s9Q2XRM5BoWMn2
0001:000480ac  __ZN10Item_base_IPhEC2ES0_$w$7e3s9Q2XRM5BoWMn2
0001:00048060  __ZN8Item_wr_11set_key_lenEi$w$7e3s9Q2XRM5BoWMn2
0001:000480ba  __ZN8Item_wr_8set_sizeEi$w$7e3s9Q2XRM5BoWMn2
0001:00047f38* __ZSt3minIjERKT_S2_S2_$w$7e3s9Q2XRM5BoWMn2
0001:0004802a* __ZN4Key_C1EPKh$w$7e3s9Q2XRM5BoWMn2
0001:00047f10  __ZTSSt9bad_alloc$w$7e3s9Q2XRM5BoWMn2
0001:000480e0  __ZTISt9exception$w$7e3s9Q2XRM5BoWMn2
0001:00047ef0* __ZTSN6Xapian20DatabaseCorruptErrorE$w$7e3s9Q2XRM5BoWMn2
0001:00047ed1* __ZTSN6Xapian13DatabaseErrorE$w$7e3s9Q2XRM5BoWMn2
0001:000480f4* __ZTIN6Xapian12RuntimeErrorE$w$7e3s9Q2XRM5BoWMn2
0001:00047eb0* __ZTSN6Xapian21DatabaseModifiedErrorE$w$7e3s9Q2XRM5BoWMn2
0001:00047e90* __ZTSN6Xapian20InvalidArgumentErrorE$w$7e3s9Q2XRM5BoWMn2
0001:000480e8* __ZTIN6Xapian10LogicErrorE$w$7e3s9Q2XRM5BoWMn2
0001:00047e70* __ZTSN6Xapian20DatabaseOpeningErrorE$w$7e3s9Q2XRM5BoWMn2
0001:0004813c* __ZN6Xapian5ErrorD2Ev$w$7e3s9Q2XRM5BoWMn2
0001:0004816c* __ZN6Xapian5ErrorC2ERKSsS2_PKci$w$7e3s9Q2XRM5BoWMn2
0001:0004812e  __ZTSSt9exception$w$7e3s9Q2XRM5BoWMn2
0001:00048118* __ZTSN6Xapian10LogicErrorE$w$7e3s9Q2XRM5BoWMn2
0001:000481e8* __ZTIN6Xapian5ErrorE$w$7e3s9Q2XRM5BoWMn2
0001:00048100* __ZTSN6Xapian12RuntimeErrorE$w$7e3s9Q2XRM5BoWMn2
0001:000481f0* __ZTSN6Xapian5ErrorE$w$7e3s9Q2XRM5BoWMn2
0002:00038c20* __ZN16__Atomicity_lockILi0EE17_S_atomicity_lockE$w$7e3s9Q2XRM5BoWMn2
Module: E:\rd\dse\xapian-core-1.0.2\.libs\xapian.lib(backends\flint\flint_cursor.cc)
0001:00048210  __ZN11FlintCursorC2EP10FlintTable
0001:000483b8  __ZN11FlintCursorC1EP10FlintTable
0001:00048560  __ZN11FlintCursorD2Ev
0001:000485e4  __ZN11FlintCursorD1Ev
0001:00048668  __ZN11FlintCursor4prevEv
0001:00048882  __ZN11FlintCursor10find_entryERKSs
0001:00048b80  __ZNK11FlintCursor7get_keyEPSs
0001:0004879c  __ZN11FlintCursor4nextEv
0001:00048bcc  __ZN11FlintCursor8read_tagEb
0001:00048c5e  __ZN11FlintCursor3delEv
0001:00048ccc  __ZN7Cursor_C1Ev$w$RBlPGjSWRM5VVtfM1
0001:00048dce  __ZNK10FlintTable4prevEP7Cursor_i$w$RBlPGjSWRM5VVtfM1
0001:00048dac  __ZN5Item_C1EPKhi$w$RBlPGjSWRM5VVtfM1
0001:00048c9e  __ZNK10Item_base_IPKhE12component_ofEv$w$RBlPGjSWRM5VVtfM1
0001:00048e2c  __ZNK10FlintTable4nextEP7Cursor_i$w$RBlPGjSWRM5VVtfM1
0001:00048d1e* __ZN6Xapian20DatabaseCorruptErrorC1ERKSsS2_i$w$RBlPGjSWRM5VVtfM1
0001:00048cf6* __ZN6Xapian20DatabaseCorruptErrorD1Ev$w$RBlPGjSWRM5VVtfM1
0001:00048ec0* __ZTIN6Xapian20DatabaseCorruptErrorE$w$RBlPGjSWRM5VVtfM1
0001:00048e98  __ZNK10Item_base_IPKhE3keyEv$w$RBlPGjSWRM5VVtfM1
0001:00048d7e  __ZNK4Key_4readEPSs$w$RBlPGjSWRM5VVtfM1
0001:00048d4e  __Z7getint1PKhi$w$RBlPGjSWRM5VVtfM1
0001:00048d5c  __Z7getint2PKhi$w$RBlPGjSWRM5VVtfM1
0001:00048ef6* __ZN6Xapian13DatabaseErrorD2Ev$w$RBlPGjSWRM5VVtfM1
0001:00048f0a* __ZN6Xapian13DatabaseErrorC2ERKSsS2_PKci$w$RBlPGjSWRM5VVtfM1
0001:00048f48  __ZNK4Key_6lengthEv$w$RBlPGjSWRM5VVtfM1
0001:00048f68  __ZN10Item_base_IPKhEC2ES1_i$w$RBlPGjSWRM5VVtfM1
0001:00048f3a  __ZN4Key_C1EPKh$w$RBlPGjSWRM5VVtfM1
0001:00048ed0* __ZTSN6Xapian20DatabaseCorruptErrorE$w$RBlPGjSWRM5VVtfM1
0001:00048f90* __ZTIN6Xapian13DatabaseErrorE$w$RBlPGjSWRM5VVtfM1
0001:00048fb6* __ZN6Xapian12RuntimeErrorD2Ev$w$RBlPGjSWRM5VVtfM1
0001:00048fca* __ZN6Xapian12RuntimeErrorC2ERKSsS2_PKci$w$RBlPGjSWRM5VVtfM1
0001:00048f9c* __ZTSN6Xapian13DatabaseErrorE$w$RBlPGjSWRM5VVtfM1
0001:00048ffc* __ZTIN6Xapian12RuntimeErrorE$w$RBlPGjSWRM5VVtfM1
0001:00049020* __ZN6Xapian5ErrorD2Ev$w$RBlPGjSWRM5VVtfM1
0001:00049050* __ZN6Xapian5ErrorC2ERKSsS2_PKci$w$RBlPGjSWRM5VVtfM1
0001:00049008* __ZTSN6Xapian12RuntimeErrorE$w$RBlPGjSWRM5VVtfM1
0001:000490cc* __ZTIN6Xapian5ErrorE$w$RBlPGjSWRM5VVtfM1
0001:000490d4* __ZTSN6Xapian5ErrorE$w$RBlPGjSWRM5VVtfM1
0002:00038c30* __ZN16__Atomicity_lockILi0EE17_S_atomicity_lockE$w$RBlPGjSWRM5VVtfM1
Module: E:\rd\dse\xapian-core-1.0.2\.libs\xapian.lib(unicode\utf8itor.cc)
0001:000490f0  __ZN6Xapian7Unicode16nonascii_to_utf8EjPc
0001:000491c8  __ZN6Xapian12Utf8IteratorC2EPKc
0001:000491f2  __ZN6Xapian12Utf8IteratorC1EPKc
0001:0004921c  __ZNK6Xapian12Utf8Iterator25calculate_sequence_lengthEv
0001:0004939e  __ZNK6Xapian12Utf8IteratordeEv
0001:00049498* __ZN6Xapian12Utf8Iterator6assignEPKcj$w$Nv31lvQXRM57RPt83
0001:000494ce  __Z8bad_conth$w$Nv31lvQXRM57RPt83
0002:00038c40* __ZN16__Atomicity_lockILi0EE17_S_atomicity_lockE$w$Nv31lvQXRM57RPt83
Module: E:\rd\dse\xapian-core-1.0.2\.libs\xapian.lib(languages\steminternal.cc)
0001:00049500  __Z8create_sv
0001:00049574  __Z9skip_utf8PKhiiii
0001:000496d8  __ZN6Xapian4Stem8InternalC2Ev
0001:0004973a  __ZN6Xapian4Stem8InternalC1Ev
0001:0004979c  __ZN6Xapian4Stem8InternalD2Ev
0001:000497d2  __ZN6Xapian4Stem8InternalD1Ev
0001:00049808  __ZN6Xapian4Stem8InternalD0Ev
0001:00049854  __ZN6Xapian4Stem8InternalclERKSs
0001:0004a2fc  __ZN6Xapian4Stem8Internal9replace_sEiiiPKh
0001:00049a6e  __ZN6Xapian4Stem8Internal8get_utf8EPi
0001:00049b5e  __ZN6Xapian4Stem8Internal10get_b_utf8EPi
0001:00049c42  __ZN6Xapian4Stem8Internal13in_grouping_UEPKhiii
0001:00049ccc  __ZN6Xapian4Stem8Internal15in_grouping_b_UEPKhiii
0001:00049d58  __ZN6Xapian4Stem8Internal14out_grouping_UEPKhiii
0001:00049de2  __ZN6Xapian4Stem8Internal16out_grouping_b_UEPKhiii
0001:00049e6e  __ZN6Xapian4Stem8Internal4eq_sEiPKh
0001:00049ed4  __ZN6Xapian4Stem8Internal6eq_s_bEiPKh
0001:00049f3e  __ZN6Xapian4Stem8Internal10find_amongEPK5amongiPKhPKPFiPS1_E
0001:0004a114  __ZN6Xapian4Stem8Internal12find_among_bEPK5amongiPKhPKPFiPS1_E
0001:0004a40c  __ZN6Xapian4Stem8Internal11slice_checkEv
0001:0004a44e  __ZN6Xapian4Stem8Internal12slice_from_sEiPKh
0001:0004a4a6  __ZN6Xapian4Stem8Internal8insert_sEiiiPKh
0001:0004a50c  __ZN6Xapian4Stem8Internal8slice_toEPh
0001:0004a596  __ZN6Xapian4Stem8Internal9assign_toEPh
0001:0004a610* __ZNSt9bad_allocC1Ev$w$jMb7QesXRM56Y3f44
0001:0004a6a8* __ZTISt9bad_alloc$w$jMb7QesXRM56Y3f44
0001:0004a67e* __ZN6Xapian8Internal10RefCntBaseC2Ev$w$jMb7QesXRM56Y3f44
0001:0004a5f8  __ZTVN6Xapian4Stem8InternalE$w$jMb7QesXRM56Y3f44
0001:0004a68c* __Z6lose_sPh$w$jMb7QesXRM56Y3f44
0001:0004a64e* __ZN6Xapian13InternalErrorC1ERKSsS2_i$w$jMb7QesXRM56Y3f44
0001:0004a62c* __ZN6Xapian13InternalErrorD1Ev$w$jMb7QesXRM56Y3f44
0001:0004a6e0* __ZTIN6Xapian13InternalErrorE$w$jMb7QesXRM56Y3f44
0001:0004a6c0* __ZTIN6Xapian4Stem8InternalE$w$jMb7QesXRM56Y3f44
0001:0004a730* __ZNSt9exceptionC2Ev$w$jMb7QesXRM56Y3f44
0001:0004a73e* __ZN6Xapian12RuntimeErrorD2Ev$w$jMb7QesXRM56Y3f44
0001:0004a752* __ZN6Xapian12RuntimeErrorC2ERKSsS2_PKci$w$jMb7QesXRM56Y3f44
0001:0004a71d* __ZTSSt9bad_alloc$w$jMb7QesXRM56Y3f44
0001:0004a784* __ZTISt9exception$w$jMb7QesXRM56Y3f44
0001:0004a705* __ZTSN6Xapian4Stem8InternalE$w$jMb7QesXRM56Y3f44
0001:0004a798* __ZTIN6Xapian8Internal10RefCntBaseE$w$jMb7QesXRM56Y3f44
0001:0004a6ec* __ZTSN6Xapian13InternalErrorE$w$jMb7QesXRM56Y3f44
0001:0004a78c* __ZTIN6Xapian12RuntimeErrorE$w$jMb7QesXRM56Y3f44
0001:0004a7e4* __ZN6Xapian5ErrorD2Ev$w$jMb7QesXRM56Y3f44
0001:0004a814* __ZN6Xapian5ErrorC2ERKSsS2_PKci$w$jMb7QesXRM56Y3f44
0001:0004a7d7* __ZTSSt9exception$w$jMb7QesXRM56Y3f44
0001:0004a7bf* __ZTSN6Xapian12RuntimeErrorE$w$jMb7QesXRM56Y3f44
0001:0004a890* __ZTIN6Xapian5ErrorE$w$jMb7QesXRM56Y3f44
0001:0004a7a0* __ZTSN6Xapian8Internal10RefCntBaseE$w$jMb7QesXRM56Y3f44
0001:0004a898* __ZTSN6Xapian5ErrorE$w$jMb7QesXRM56Y3f44
0002:00038c50* __ZN16__Atomicity_lockILi0EE17_S_atomicity_lockE$w$jMb7QesXRM56Y3f44
Module: E:\rd\dse\xapian-core-1.0.2\.libs\xapian.lib(api\matchspy.cc)
0001:0004a8c0  __ZNK6Xapian8MatchSpyclERKNS_8DocumentE
0001:0004a9e0  __ZN6Xapian8MatchSpy20score_categorisationEjd
0001:0004abb0  __ZN6Xapian8MatchSpy20build_numeric_rangesEjj
0001:0004c2ce  __ZNSt17_Rb_tree_iteratorISt4pairIKjSt3mapISsjSt4lessISsESaIS0_IKSsjEEEERS9_PS9_EC1Ev$w$f04J5dBWRM54MJeD1
0001:0004c2e2  __ZNSt3mapIjS_ISsjSt4lessISsESaISt4pairIKSsjEEES0_IjESaIS2_IKjS6_EEE5beginEv$w$f04J5dBWRM54MJeD1
0001:0004bf8a  __ZNSt3mapIjS_ISsjSt4lessISsESaISt4pairIKSsjEEES0_IjESaIS2_IKjS6_EEE3endEv$w$f04J5dBWRM54MJeD1
0001:0004c344  __ZStneISt4pairIKjSt3mapISsjSt4lessISsESaIS0_IKSsjEEEERS9_PS9_EbRKSt17_Rb_tree_iteratorIT_T0_T1_ESI_$w$f04J5dBWRM54MJeD1
0001:0004c370  __ZNKSt17_Rb_tree_iteratorISt4pairIKjSt3mapISsjSt4lessISsESaIS0_IKSsjEEEERS9_PS9_EptEv$w$f04J5dBWRM54MJeD1
0001:0004b4ae  __ZNSt3mapISsjSt4lessISsESaISt4pairIKSsjEEEixERS3_$w$f04J5dBWRM54MJeD1
0001:0004c35a  __ZNSt17_Rb_tree_iteratorISt4pairIKjSt3mapISsjSt4lessISsESaIS0_IKSsjEEEERS9_PS9_EppEv$w$f04J5dBWRM54MJeD1
0001:0004bcec  __ZNSt3mapIjS_ISsjSt4lessISsESaISt4pairIKSsjEEES0_IjESaIS2_IKjS6_EEEixERS8_$w$f04J5dBWRM54MJeD1
0001:0004b5e6  __ZNKSt3mapISsjSt4lessISsESaISt4pairIKSsjEEE4sizeEv$w$f04J5dBWRM54MJeD1
0001:0004b5fa  __ZNSt17_Rb_tree_iteratorISt4pairIKSsjERKS2_PS3_EC1Ev$w$f04J5dBWRM54MJeD1
0001:0004b60e  __ZNKSt3mapISsjSt4lessISsESaISt4pairIKSsjEEE5beginEv$w$f04J5dBWRM54MJeD1
0001:0004b628  __ZNKSt3mapISsjSt4lessISsESaISt4pairIKSsjEEE3endEv$w$f04J5dBWRM54MJeD1
0001:0004b642  __ZStneISt4pairIKSsjERKS2_PS3_EbRKSt17_Rb_tree_iteratorIT_T0_T1_ESC_$w$f04J5dBWRM54MJeD1
0001:0004b66e  __ZNKSt17_Rb_tree_iteratorISt4pairIKSsjERKS2_PS3_EptEv$w$f04J5dBWRM54MJeD1
0001:0004c384  __ZN6Xapian4sqrdEd$w$f04J5dBWRM54MJeD1
0001:0004b658  __ZNSt17_Rb_tree_iteratorISt4pairIKSsjERKS2_PS3_EppEv$w$f04J5dBWRM54MJeD1
0001:0004b682  __ZNSt3mapIdjSt4lessIdESaISt4pairIKdjEEEC1Ev$w$f04J5dBWRM54MJeD1
0001:0004b706  __ZNSt3mapIdjSt4lessIdESaISt4pairIKdjEEEixERS3_$w$f04J5dBWRM54MJeD1
0001:0004c422  __ZNSt3mapIdjSt4lessIdESaISt4pairIKdjEEED1Ev$w$f04J5dBWRM54MJeD1
0001:0004b80e  __ZSt3maxIdERKT_S2_S2_$w$f04J5dBWRM54MJeD1
0001:0004b83a  __ZNSt6vectorIN6Xapian9bucketvalESaIS1_EEC1Ej$w$f04J5dBWRM54MJeD1
0001:0004b970  __ZNSt17_Rb_tree_iteratorISt4pairIKdjERKS2_PS3_EC1Ev$w$f04J5dBWRM54MJeD1
0001:0004b984  __ZNSt3mapIdjSt4lessIdESaISt4pairIKdjEEE5beginEv$w$f04J5dBWRM54MJeD1
0001:0004b9aa  __ZNSt17_Rb_tree_iteratorISt4pairIKdjERKS2_PS3_EC1ERKS_IS2_RS2_PS2_E$w$f04J5dBWRM54MJeD1
0001:0004b6e0  __ZNSt3mapIdjSt4lessIdESaISt4pairIKdjEEE3endEv$w$f04J5dBWRM54MJeD1
0001:0004b9c8  __ZStneISt4pairIKdjEEbRKSt17_Rb_tree_iteratorIT_RKS4_PS5_ERKS3_IS4_RS4_PS4_E$w$f04J5dBWRM54MJeD1
0001:0004b9f4  __ZNKSt17_Rb_tree_iteratorISt4pairIKdjERKS2_PS3_EptEv$w$f04J5dBWRM54MJeD1
0001:0004ba08  __ZNSt6vectorIN6Xapian9bucketvalESaIS1_EEixEj$w$f04J5dBWRM54MJeD1
0001:0004c3ce  __ZN6Xapian9bucketval6updateEjd$w$f04J5dBWRM54MJeD1
0001:0004b9de  __ZNSt17_Rb_tree_iteratorISt4pairIKdjERKS2_PS3_EppEv$w$f04J5dBWRM54MJeD1
0001:0004ba80  __ZNSt6vectorIN6Xapian9bucketvalESaIS1_EE6resizeEj$w$f04J5dBWRM54MJeD1
0001:0004bfec  __ZNSt3mapISsjSt4lessISsESaISt4pairIKSsjEEEC1Ev$w$f04J5dBWRM54MJeD1
0001:0004ba44  __ZNKSt6vectorIN6Xapian9bucketvalESaIS1_EE4sizeEv$w$f04J5dBWRM54MJeD1
0001:0004baac  __ZSt4swapISsjSt4lessISsESaISt4pairIKSsjEEEvRSt3mapIT_T0_T1_T2_ESC_$w$f04J5dBWRM54MJeD1
0001:0004bcd8  __ZNSt3mapISsjSt4lessISsESaISt4pairIKSsjEEED1Ev$w$f04J5dBWRM54MJeD1
0001:0004b920  __ZNSt6vectorIN6Xapian9bucketvalESaIS1_EED1Ev$w$f04J5dBWRM54MJeD1
0001:0004ca6a  __ZNSt3mapISsjSt4lessISsESaISt4pairIKSsjEEE11lower_boundERS3_$w$f04J5dBWRM54MJeD1
0001:0004cb88  __ZNSt3mapISsjSt4lessISsESaISt4pairIKSsjEEE3endEv$w$f04J5dBWRM54MJeD1
0001:0004cbd4  __ZSteqISt4pairIKSsjERS2_PS2_EbRKSt17_Rb_tree_iteratorIT_T0_T1_ESB_$w$f04J5dBWRM54MJeD1
0001:0004cb54  __ZNKSt17_Rb_tree_iteratorISt4pairIKSsjERS2_PS2_EdeEv$w$f04J5dBWRM54MJeD1
0001:0004cb62  __ZNKSt3mapISsjSt4lessISsESaISt4pairIKSsjEEE8key_compEv$w$f04J5dBWRM54MJeD1
0001:0004c292* __ZNKSt4lessISsEclERKSsS2_$w$f04J5dBWRM54MJeD1
0001:0004cbea  __ZNSt4pairIKSsjEC1ERS0_RKj$w$f04J5dBWRM54MJeD1
0001:0004caa2  __ZNSt17_Rb_tree_iteratorISt4pairIKSsjERS2_PS2_EC1ERKS5_$w$f04J5dBWRM54MJeD1
0001:0004bac6  __ZNSt3mapISsjSt4lessISsESaISt4pairIKSsjEEE6insertESt17_Rb_tree_iteratorIS4_RS4_PS4_ERKS4_$w$f04J5dBWRM54MJeD1
0001:0004c108  __ZNSt4pairIKSsjED1Ev$w$f04J5dBWRM54MJeD1
0001:0004cc10  __ZNKSt8_Rb_treeISsSt4pairIKSsjESt10_Select1stIS2_ESt4lessISsESaIS2_EE4sizeEv$w$f04J5dBWRM54MJeD1
0001:0004bb84* __ZNSt22_Rb_tree_base_iteratorC2Ev$w$f04J5dBWRM54MJeD1
0001:0004cc1c  __ZNKSt8_Rb_treeISsSt4pairIKSsjESt10_Select1stIS2_ESt4lessISsESaIS2_EE5beginEv$w$f04J5dBWRM54MJeD1
0001:0004cc60  __ZNKSt8_Rb_treeISsSt4pairIKSsjESt10_Select1stIS2_ESt4lessISsESaIS2_EE3endEv$w$f04J5dBWRM54MJeD1
0001:0004bb8a  __ZNSt22_Rb_tree_base_iterator12_M_incrementEv$w$f04J5dBWRM54MJeD1
0001:0004cc80  __ZNKSt17_Rb_tree_iteratorISt4pairIKSsjERKS2_PS3_EdeEv$w$f04J5dBWRM54MJeD1
0001:0004bb0c  __ZNSaISt4pairIKdjEEC1Ev$w$f04J5dBWRM54MJeD1
0001:0004cc8e  __ZNSt8_Rb_treeIdSt4pairIKdjESt10_Select1stIS2_ESt4lessIdESaIS2_EEC1ERKS6_RKS7_$w$f04J5dBWRM54MJeD1
0001:0004bb12  __ZNSaISt4pairIKdjEED1Ev$w$f04J5dBWRM54MJeD1
0001:0004cf4a  __ZNSt8_Rb_treeIdSt4pairIKdjESt10_Select1stIS2_ESt4lessIdESaIS2_EE3endEv$w$f04J5dBWRM54MJeD1
0001:0004ce10  __ZNSt3mapIdjSt4lessIdESaISt4pairIKdjEEE11lower_boundERS3_$w$f04J5dBWRM54MJeD1
0001:0004cf70  __ZSteqISt4pairIKdjERS2_PS2_EbRKSt17_Rb_tree_iteratorIT_T0_T1_ESB_$w$f04J5dBWRM54MJeD1
0001:0004cf16  __ZNKSt17_Rb_tree_iteratorISt4pairIKdjERS2_PS2_EdeEv$w$f04J5dBWRM54MJeD1
0001:0004cf24  __ZNKSt3mapIdjSt4lessIdESaISt4pairIKdjEEE8key_compEv$w$f04J5dBWRM54MJeD1
0001:0004ce3c  __ZNKSt4lessIdEclERKdS2_$w$f04J5dBWRM54MJeD1
0001:0004cf86  __ZNSt4pairIKdjEC1ERS0_RKj$w$f04J5dBWRM54MJeD1
0001:0004ce64  __ZNSt17_Rb_tree_iteratorISt4pairIKdjERS2_PS2_EC1ERKS5_$w$f04J5dBWRM54MJeD1
0001:0004cfa0  __ZNSt3mapIdjSt4lessIdESaISt4pairIKdjEEE6insertESt17_Rb_tree_iteratorIS4_RS4_PS4_ERKS4_$w$f04J5dBWRM54MJeD1
0001:0004bb18  __ZNSaIN6Xapian9bucketvalEEC1Ev$w$f04J5dBWRM54MJeD1
0001:0004d2b4  __ZNSt12_Vector_baseIN6Xapian9bucketvalESaIS1_EEC2EjRKS2_$w$f04J5dBWRM54MJeD1
0001:0004bb1e  __ZNSaIN6Xapian9bucketvalEED1Ev$w$f04J5dBWRM54MJeD1
0001:0004c3a8  __ZN6Xapian9bucketvalC1Ev$w$f04J5dBWRM54MJeD1
0001:0004bb24  __ZSt20uninitialized_fill_nIPN6Xapian9bucketvalEjS1_ET_S3_T0_RKT1_$w$f04J5dBWRM54MJeD1
0001:0004b8ea  __ZNSt12_Vector_baseIN6Xapian9bucketvalESaIS1_EED2Ev$w$f04J5dBWRM54MJeD1
0001:0004d366  __ZNSt18_Vector_alloc_baseIN6Xapian9bucketvalESaIS1_ELb1EE13_M_deallocateEPS1_j$w$f04J5dBWRM54MJeD1
0001:0004bb4a  __ZSt8_DestroyIPN6Xapian9bucketvalEEvT_S3_$w$f04J5dBWRM54MJeD1
0001:0004d3a4  __ZNSt8_Rb_treeIdSt4pairIKdjESt10_Select1stIS2_ESt4lessIdESaIS2_EE5beginEv$w$f04J5dBWRM54MJeD1
0001:0004d3d2  __ZNKSt17_Rb_tree_iteratorISt4pairIKdjERKS2_PS3_EdeEv$w$f04J5dBWRM54MJeD1
0001:0004d3e0  __ZNSt6vectorIN6Xapian9bucketvalESaIS1_EE5beginEv$w$f04J5dBWRM54MJeD1
0001:0004d41c  __ZNK9__gnu_cxx17__normal_iteratorIPN6Xapian9bucketvalESt6vectorIS2_SaIS2_EEEplERKi$w$f04J5dBWRM54MJeD1
0001:0004d44a  __ZNK9__gnu_cxx17__normal_iteratorIPN6Xapian9bucketvalESt6vectorIS2_SaIS2_EEEdeEv$w$f04J5dBWRM54MJeD1
0001:0004d502  __ZNKSt6vectorIN6Xapian9bucketvalESaIS1_EE5beginEv$w$f04J5dBWRM54MJeD1
0001:0004d546  __ZNKSt6vectorIN6Xapian9bucketvalESaIS1_EE3endEv$w$f04J5dBWRM54MJeD1
0001:0004d56c  __ZN9__gnu_cxxmiIPKN6Xapian9bucketvalES4_St6vectorIS2_SaIS2_EEEENS_17__normal_iteratorIT_T1_E15difference_typeERKSB_RKNS8_IT0_SA_EE$w$f04J5dBWRM54MJeD1
0001:0004d454  __ZNSt6vectorIN6Xapian9bucketvalESaIS1_EE6resizeEjRKS1_$w$f04J5dBWRM54MJeD1
0001:0004d9fa  __ZNSt3mapISsjSt4lessISsESaISt4pairIKSsjEEE4swapERS6_$w$f04J5dBWRM54MJeD1
0001:0004de26  __ZNSt8_Rb_treeISsSt4pairIKSsjESt10_Select1stIS2_ESt4lessISsESaIS2_EE13insert_uniqueESt17_Rb_tree_iteratorIS2_RS2_PS2_ERKS2_$w$f04J5dBWRM54MJeD1
0001:0004e326  __ZSt26__uninitialized_fill_n_auxIPN6Xapian9bucketvalEjS1_ET_S3_T0_RKT1_12__false_type$w$f04J5dBWRM54MJeD1
0001:0004e360  __ZSt13__destroy_auxIPN6Xapian9bucketvalEEvT_S3_12__false_type$w$f04J5dBWRM54MJeD1
0001:0004bb70  __ZTVN6Xapian8MatchSpyE$w$f04J5dBWRM54MJeD1
0001:0004e6e0  __ZTIN6Xapian8MatchSpyE$w$f04J5dBWRM54MJeD1
0001:0004bc08  __ZN6Xapian8MatchSpyD1Ev$w$f04J5dBWRM54MJeD1
0001:0004bc70  __ZN6Xapian8MatchSpyD0Ev$w$f04J5dBWRM54MJeD1
0001:0004e7e6  __ZNSt3mapIjS_ISsjSt4lessISsESaISt4pairIKSsjEEES0_IjESaIS2_IKjS6_EEED1Ev$w$f04J5dBWRM54MJeD1
0001:0004c170  __ZNSt8_Rb_treeISsSt4pairIKSsjESt10_Select1stIS2_ESt4lessISsESaIS2_EED1Ev$w$f04J5dBWRM54MJeD1
0001:0004be62  __ZNSt3mapIjS_ISsjSt4lessISsESaISt4pairIKSsjEEES0_IjESaIS2_IKjS6_EEE11lower_boundERS8_$w$f04J5dBWRM54MJeD1
0001:0004bfd6  __ZSteqISt4pairIKjSt3mapISsjSt4lessISsESaIS0_IKSsjEEEERS9_PS9_EbRKSt17_Rb_tree_iteratorIT_T0_T1_ESI_$w$f04J5dBWRM54MJeD1
0001:0004bf56  __ZNKSt17_Rb_tree_iteratorISt4pairIKjSt3mapISsjSt4lessISsESaIS0_IKSsjEEEERS9_PS9_EdeEv$w$f04J5dBWRM54MJeD1
0001:0004bf64  __ZNKSt3mapIjS_ISsjSt4lessISsESaISt4pairIKSsjEEES0_IjESaIS2_IKjS6_EEE8key_compEv$w$f04J5dBWRM54MJeD1
0001:0004be8e  __ZNKSt4lessIjEclERKjS2_$w$f04J5dBWRM54MJeD1
0001:0004c224  __ZNSt4pairIKjSt3mapISsjSt4lessISsESaIS_IKSsjEEEEC1ERS0_RKS7_$w$f04J5dBWRM54MJeD1
0001:0004bea4  __ZNSt17_Rb_tree_iteratorISt4pairIKjSt3mapISsjSt4lessISsESaIS0_IKSsjEEEERS9_PS9_EC1ERKSC_$w$f04J5dBWRM54MJeD1
0001:0004c24c  __ZNSt3mapIjS_ISsjSt4lessISsESaISt4pairIKSsjEEES0_IjESaIS2_IKjS6_EEE6insertESt17_Rb_tree_iteratorIS9_RS9_PS9_ERKS9_$w$f04J5dBWRM54MJeD1
0001:0004e89a  __ZNSt4pairIKjSt3mapISsjSt4lessISsESaIS_IKSsjEEEED1Ev$w$f04J5dBWRM54MJeD1
0001:0004bec2  __ZNSt8_Rb_treeIjSt4pairIKjSt3mapISsjSt4lessISsESaIS0_IKSsjEEEESt10_Select1stIS9_ES3_IjESaIS9_EE11lower_boundERS1_$w$f04J5dBWRM54MJeD1
0001:0004e920  __ZNKSt8_Rb_treeIjSt4pairIKjSt3mapISsjSt4lessISsESaIS0_IKSsjEEEESt10_Select1stIS9_ES3_IjESaIS9_EE7_M_rootEv$w$f04J5dBWRM54MJeD1
0001:0004e92e  __ZNSt8_Rb_treeIjSt4pairIKjSt3mapISsjSt4lessISsESaIS0_IKSsjEEEESt10_Select1stIS9_ES3_IjESaIS9_EE6_S_keyEPSt13_Rb_tree_nodeIS9_E$w$f04J5dBWRM54MJeD1
0001:0004e964  __ZNSt8_Rb_treeIjSt4pairIKjSt3mapISsjSt4lessISsESaIS0_IKSsjEEEESt10_Select1stIS9_ES3_IjESaIS9_EE7_S_leftEPSt13_Rb_tree_nodeIS9_E$w$f04J5dBWRM54MJeD1
0001:0004e970  __ZNSt8_Rb_treeIjSt4pairIKjSt3mapISsjSt4lessISsESaIS0_IKSsjEEEESt10_Select1stIS9_ES3_IjESaIS9_EE8_S_rightEPSt13_Rb_tree_nodeIS9_E$w$f04J5dBWRM54MJeD1
0001:0004e97c  __ZNSt17_Rb_tree_iteratorISt4pairIKjSt3mapISsjSt4lessISsESaIS0_IKSsjEEEERS9_PS9_EC1EPSt13_Rb_tree_nodeIS9_E$w$f04J5dBWRM54MJeD1
0001:0004bf7e  __ZNKSt8_Rb_treeIjSt4pairIKjSt3mapISsjSt4lessISsESaIS0_IKSsjEEEESt10_Select1stIS9_ES3_IjESaIS9_EE8key_compEv$w$f04J5dBWRM54MJeD1
0001:0004bfb0  __ZNSt8_Rb_treeIjSt4pairIKjSt3mapISsjSt4lessISsESaIS0_IKSsjEEEESt10_Select1stIS9_ES3_IjESaIS9_EE3endEv$w$f04J5dBWRM54MJeD1
0001:0004c04a  __ZNSaISt4pairIKSsjEEC1Ev$w$f04J5dBWRM54MJeD1
0001:0004c056  __ZNSt8_Rb_treeISsSt4pairIKSsjESt10_Select1stIS2_ESt4lessISsESaIS2_EEC1ERKS6_RKS7_$w$f04J5dBWRM54MJeD1
0001:0004c050  __ZNSaISt4pairIKSsjEED1Ev$w$f04J5dBWRM54MJeD1
0001:0004c086  __ZNSt13_Rb_tree_baseISt4pairIKSsjESaIS2_EEC2ERKS3_$w$f04J5dBWRM54MJeD1
0001:0004c11c  __ZNSt8_Rb_treeISsSt4pairIKSsjESt10_Select1stIS2_ESt4lessISsESaIS2_EE19_M_empty_initializeEv$w$f04J5dBWRM54MJeD1
0001:0004c0b6  __ZNSt19_Rb_tree_alloc_baseISt4pairIKSsjESaIS2_ELb1EEC2ERKS3_$w$f04J5dBWRM54MJeD1
0001:0004c0c4  __ZNSt19_Rb_tree_alloc_baseISt4pairIKSsjESaIS2_ELb1EE11_M_get_nodeEv$w$f04J5dBWRM54MJeD1
0001:0004c0d8  __ZNSt14__simple_allocISt13_Rb_tree_nodeISt4pairIKSsjEESt24__default_alloc_templateILb1ELi0EEE8allocateEj$w$f04J5dBWRM54MJeD1
0001:0004c546  __ZNSt8_Rb_treeISsSt4pairIKSsjESt10_Select1stIS2_ESt4lessISsESaIS2_EE8_S_colorEPSt13_Rb_tree_nodeIS2_E$w$f04J5dBWRM54MJeD1
0001:0004c54e  __ZNKSt8_Rb_treeISsSt4pairIKSsjESt10_Select1stIS2_ESt4lessISsESaIS2_EE7_M_rootEv$w$f04J5dBWRM54MJeD1
0001:0004c55c  __ZNKSt8_Rb_treeISsSt4pairIKSsjESt10_Select1stIS2_ESt4lessISsESaIS2_EE11_M_leftmostEv$w$f04J5dBWRM54MJeD1
0001:0004c56a  __ZNKSt8_Rb_treeISsSt4pairIKSsjESt10_Select1stIS2_ESt4lessISsESaIS2_EE12_M_rightmostEv$w$f04J5dBWRM54MJeD1
0001:0004c1b4  __ZNSt8_Rb_treeISsSt4pairIKSsjESt10_Select1stIS2_ESt4lessISsESaIS2_EE5clearEv$w$f04J5dBWRM54MJeD1
0001:0004e998  __ZNSt13_Rb_tree_baseISt4pairIKSsjESaIS2_EED2Ev$w$f04J5dBWRM54MJeD1
0001:0004c578  __ZNSt8_Rb_treeISsSt4pairIKSsjESt10_Select1stIS2_ESt4lessISsESaIS2_EE8_M_eraseEPSt13_Rb_tree_nodeIS2_E$w$f04J5dBWRM54MJeD1
0001:0004c5d0  __ZNSt3mapISsjSt4lessISsESaISt4pairIKSsjEEEC1ERKS6_$w$f04J5dBWRM54MJeD1
0001:0004c79c  __ZNSt8_Rb_treeIjSt4pairIKjSt3mapISsjSt4lessISsESaIS0_IKSsjEEEESt10_Select1stIS9_ES3_IjESaIS9_EE13insert_uniqueESt17_Rb_tree_iteratorIS9_RS9_PS9_ERKS9_$w$f04J5dBWRM54MJeD1
0001:0004c2b0* __ZStltIcSt11char_traitsIcESaIcEEbRKSbIT_T0_T1_ES8_$w$f04J5dBWRM54MJeD1
0001:0004c308  __ZNSt8_Rb_treeIjSt4pairIKjSt3mapISsjSt4lessISsESaIS0_IKSsjEEEESt10_Select1stIS9_ES3_IjESaIS9_EE5beginEv$w$f04J5dBWRM54MJeD1
0001:0004c336  __ZNKSt8_Rb_treeIjSt4pairIKjSt3mapISsjSt4lessISsESaIS0_IKSsjEEEESt10_Select1stIS9_ES3_IjESaIS9_EE11_M_leftmostEv$w$f04J5dBWRM54MJeD1
0001:0004c436  __ZNSt8_Rb_treeIdSt4pairIKdjESt10_Select1stIS2_ESt4lessIdESaIS2_EED1Ev$w$f04J5dBWRM54MJeD1
0001:0004c4d6  __ZNSt8_Rb_treeIdSt4pairIKdjESt10_Select1stIS2_ESt4lessIdESaIS2_EE5clearEv$w$f04J5dBWRM54MJeD1
0001:0004c47a  __ZNSt13_Rb_tree_baseISt4pairIKdjESaIS2_EED2Ev$w$f04J5dBWRM54MJeD1
0001:0004c496  __ZNSt19_Rb_tree_alloc_baseISt4pairIKdjESaIS2_ELb1EE11_M_put_nodeEPSt13_Rb_tree_nodeIS2_E$w$f04J5dBWRM54MJeD1
0001:0004c4b2  __ZNSt14__simple_allocISt13_Rb_tree_nodeISt4pairIKdjEESt24__default_alloc_templateILb1ELi0EEE10deallocateEPS4_j$w$f04J5dBWRM54MJeD1
0001:0004cd8e  __ZNKSt8_Rb_treeIdSt4pairIKdjESt10_Select1stIS2_ESt4lessIdESaIS2_EE7_M_rootEv$w$f04J5dBWRM54MJeD1
0001:0004cd9c  __ZNSt8_Rb_treeIdSt4pairIKdjESt10_Select1stIS2_ESt4lessIdESaIS2_EE8_M_eraseEPSt13_Rb_tree_nodeIS2_E$w$f04J5dBWRM54MJeD1
0001:0004cdf4  __ZNKSt8_Rb_treeIdSt4pairIKdjESt10_Select1stIS2_ESt4lessIdESaIS2_EE11_M_leftmostEv$w$f04J5dBWRM54MJeD1
0001:0004ce02  __ZNKSt8_Rb_treeIdSt4pairIKdjESt10_Select1stIS2_ESt4lessIdESaIS2_EE12_M_rightmostEv$w$f04J5dBWRM54MJeD1
0001:0004ea52  __ZNSt8_Rb_treeISsSt4pairIKSsjESt10_Select1stIS2_ESt4lessISsESaIS2_EE8_S_rightEPSt13_Rb_tree_nodeIS2_E$w$f04J5dBWRM54MJeD1
0001:0004ca96  __ZNSt8_Rb_treeISsSt4pairIKSsjESt10_Select1stIS2_ESt4lessISsESaIS2_EE7_S_leftEPSt13_Rb_tree_nodeIS2_E$w$f04J5dBWRM54MJeD1
0001:0004dab8  __ZNSt8_Rb_treeISsSt4pairIKSsjESt10_Select1stIS2_ESt4lessISsESaIS2_EE12destroy_nodeEPSt13_Rb_tree_nodeIS2_E$w$f04J5dBWRM54MJeD1
0001:0004c5ea  __ZNSt8_Rb_treeISsSt4pairIKSsjESt10_Select1stIS2_ESt4lessISsESaIS2_EEC1ERKS8_$w$f04J5dBWRM54MJeD1
0001:0004c732  __ZNKSt8_Rb_treeISsSt4pairIKSsjESt10_Select1stIS2_ESt4lessISsESaIS2_EE13get_allocatorEv$w$f04J5dBWRM54MJeD1
0001:0004dae0  __ZNSt8_Rb_treeISsSt4pairIKSsjESt10_Select1stIS2_ESt4lessISsESaIS2_EE7_M_copyEPSt13_Rb_tree_nodeIS2_ESB_$w$f04J5dBWRM54MJeD1
0001:0004c774  __ZNSt8_Rb_treeISsSt4pairIKSsjESt10_Select1stIS2_ESt4lessISsESaIS2_EE10_S_minimumEPSt13_Rb_tree_nodeIS2_E$w$f04J5dBWRM54MJeD1
0001:0004c788  __ZNSt8_Rb_treeISsSt4pairIKSsjESt10_Select1stIS2_ESt4lessISsESaIS2_EE10_S_maximumEPSt13_Rb_tree_nodeIS2_E$w$f04J5dBWRM54MJeD1
0001:0004c758  __ZNKSt19_Rb_tree_alloc_baseISt4pairIKSsjESaIS2_ELb1EE13get_allocatorEv$w$f04J5dBWRM54MJeD1
0001:0004e708  __ZNSt18_Rb_tree_node_base10_S_minimumEPS_$w$f04J5dBWRM54MJeD1
0001:0004e728  __ZNSt18_Rb_tree_node_base10_S_maximumEPS_$w$f04J5dBWRM54MJeD1
0001:0004ea88  __ZNKSt8_Rb_treeIjSt4pairIKjSt3mapISsjSt4lessISsESaIS0_IKSsjEEEESt10_Select1stIS9_ES3_IjESaIS9_EE4sizeEv$w$f04J5dBWRM54MJeD1
0001:0004ea66  __ZNSt8_Rb_treeIjSt4pairIKjSt3mapISsjSt4lessISsESaIS0_IKSsjEEEESt10_Select1stIS9_ES3_IjESaIS9_EE6_S_keyEPSt18_Rb_tree_node_base$w$f04J5dBWRM54MJeD1
0001:0004ea5e  __ZNKSt10_Select1stISt4pairIKjSt3mapISsjSt4lessISsESaIS0_IKSsjEEEEEclERKS9_$w$f04J5dBWRM54MJeD1
0001:0004ea94  __ZNSt8_Rb_treeIjSt4pairIKjSt3mapISsjSt4lessISsESaIS0_IKSsjEEEESt10_Select1stIS9_ES3_IjESaIS9_EE9_M_insertEPSt18_Rb_tree_node_baseSG_RKS9_$w$f04J5dBWRM54MJeD1
0001:0004dc24  __ZNSt8_Rb_treeIjSt4pairIKjSt3mapISsjSt4lessISsESaIS0_IKSsjEEEESt10_Select1stIS9_ES3_IjESaIS9_EE13insert_uniqueERKS9_$w$f04J5dBWRM54MJeD1
0001:0004daaa  __ZNKSt8_Rb_treeIjSt4pairIKjSt3mapISsjSt4lessISsESaIS0_IKSsjEEEESt10_Select1stIS9_ES3_IjESaIS9_EE12_M_rightmostEv$w$f04J5dBWRM54MJeD1
0001:0004de04  __ZNSt17_Rb_tree_iteratorISt4pairIKjSt3mapISsjSt4lessISsESaIS0_IKSsjEEEERS9_PS9_EmmEv$w$f04J5dBWRM54MJeD1
0001:0004de1a  __ZNSt8_Rb_treeIjSt4pairIKjSt3mapISsjSt4lessISsESaIS0_IKSsjEEEESt10_Select1stIS9_ES3_IjESaIS9_EE8_S_rightEPSt18_Rb_tree_node_base$w$f04J5dBWRM54MJeD1
0001:0004cac0  __ZNSt8_Rb_treeISsSt4pairIKSsjESt10_Select1stIS2_ESt4lessISsESaIS2_EE11lower_boundERS1_$w$f04J5dBWRM54MJeD1
0001:0004ec2e  __ZNSt8_Rb_treeISsSt4pairIKSsjESt10_Select1stIS2_ESt4lessISsESaIS2_EE6_S_keyEPSt13_Rb_tree_nodeIS2_E$w$f04J5dBWRM54MJeD1
0001:0004ec64  __ZNSt17_Rb_tree_iteratorISt4pairIKSsjERS2_PS2_EC1EPSt13_Rb_tree_nodeIS2_E$w$f04J5dBWRM54MJeD1
0001:0004cb7c  __ZNKSt8_Rb_treeISsSt4pairIKSsjESt10_Select1stIS2_ESt4lessISsESaIS2_EE8key_compEv$w$f04J5dBWRM54MJeD1
0001:0004cbae  __ZNSt8_Rb_treeISsSt4pairIKSsjESt10_Select1stIS2_ESt4lessISsESaIS2_EE3endEv$w$f04J5dBWRM54MJeD1
0001:0004cc44  __ZNSt17_Rb_tree_iteratorISt4pairIKSsjERKS2_PS3_EC1EPSt13_Rb_tree_nodeIS2_E$w$f04J5dBWRM54MJeD1
0001:0004ccbe  __ZNSt13_Rb_tree_baseISt4pairIKdjESaIS2_EEC2ERKS3_$w$f04J5dBWRM54MJeD1
0001:0004cd3a  __ZNSt8_Rb_treeIdSt4pairIKdjESt10_Select1stIS2_ESt4lessIdESaIS2_EE19_M_empty_initializeEv$w$f04J5dBWRM54MJeD1
0001:0004ccee  __ZNSt19_Rb_tree_alloc_baseISt4pairIKdjESaIS2_ELb1EEC2ERKS3_$w$f04J5dBWRM54MJeD1
0001:0004ccfc  __ZNSt19_Rb_tree_alloc_baseISt4pairIKdjESaIS2_ELb1EE11_M_get_nodeEv$w$f04J5dBWRM54MJeD1
0001:0004cd10  __ZNSt14__simple_allocISt13_Rb_tree_nodeISt4pairIKdjEESt24__default_alloc_templateILb1ELi0EEE8allocateEj$w$f04J5dBWRM54MJeD1
0001:0004e0f4  __ZNSt8_Rb_treeIdSt4pairIKdjESt10_Select1stIS2_ESt4lessIdESaIS2_EE8_S_colorEPSt13_Rb_tree_nodeIS2_E$w$f04J5dBWRM54MJeD1
0001:0004ec80  __ZNSt8_Rb_treeIdSt4pairIKdjESt10_Select1stIS2_ESt4lessIdESaIS2_EE8_S_rightEPSt13_Rb_tree_nodeIS2_E$w$f04J5dBWRM54MJeD1
0001:0004ce58  __ZNSt8_Rb_treeIdSt4pairIKdjESt10_Select1stIS2_ESt4lessIdESaIS2_EE7_S_leftEPSt13_Rb_tree_nodeIS2_E$w$f04J5dBWRM54MJeD1
0001:0004e0fc  __ZNSt8_Rb_treeIdSt4pairIKdjESt10_Select1stIS2_ESt4lessIdESaIS2_EE12destroy_nodeEPSt13_Rb_tree_nodeIS2_E$w$f04J5dBWRM54MJeD1
0001:0004ce82  __ZNSt8_Rb_treeIdSt4pairIKdjESt10_Select1stIS2_ESt4lessIdESaIS2_EE11lower_boundERS1_$w$f04J5dBWRM54MJeD1
0001:0004ec8c  __ZNSt8_Rb_treeIdSt4pairIKdjESt10_Select1stIS2_ESt4lessIdESaIS2_EE6_S_keyEPSt13_Rb_tree_nodeIS2_E$w$f04J5dBWRM54MJeD1
0001:0004ecc2  __ZNSt17_Rb_tree_iteratorISt4pairIKdjERS2_PS2_EC1EPSt13_Rb_tree_nodeIS2_E$w$f04J5dBWRM54MJeD1
0001:0004cf3e  __ZNKSt8_Rb_treeIdSt4pairIKdjESt10_Select1stIS2_ESt4lessIdESaIS2_EE8key_compEv$w$f04J5dBWRM54MJeD1
0001:0004cfe6  __ZNSt8_Rb_treeIdSt4pairIKdjESt10_Select1stIS2_ESt4lessIdESaIS2_EE13insert_uniqueESt17_Rb_tree_iteratorIS2_RS2_PS2_ERKS2_$w$f04J5dBWRM54MJeD1
0001:0004ed08  __ZNKSt8_Rb_treeIdSt4pairIKdjESt10_Select1stIS2_ESt4lessIdESaIS2_EE4sizeEv$w$f04J5dBWRM54MJeD1
0001:0004ece6  __ZNSt8_Rb_treeIdSt4pairIKdjESt10_Select1stIS2_ESt4lessIdESaIS2_EE6_S_keyEPSt18_Rb_tree_node_base$w$f04J5dBWRM54MJeD1
0001:0004ecde  __ZNKSt10_Select1stISt4pairIKdjEEclERKS2_$w$f04J5dBWRM54MJeD1
0001:0004ed14  __ZNSt8_Rb_treeIdSt4pairIKdjESt10_Select1stIS2_ESt4lessIdESaIS2_EE9_M_insertEPSt18_Rb_tree_node_baseSA_RKS2_$w$f04J5dBWRM54MJeD1
0001:0004e124  __ZNSt8_Rb_treeIdSt4pairIKdjESt10_Select1stIS2_ESt4lessIdESaIS2_EE13insert_uniqueERKS2_$w$f04J5dBWRM54MJeD1
0001:0004e304  __ZNSt17_Rb_tree_iteratorISt4pairIKdjERS2_PS2_EmmEv$w$f04J5dBWRM54MJeD1
0001:0004e31a  __ZNSt8_Rb_treeIdSt4pairIKdjESt10_Select1stIS2_ESt4lessIdESaIS2_EE8_S_rightEPSt18_Rb_tree_node_base$w$f04J5dBWRM54MJeD1
0001:0004d306  __ZNSt18_Vector_alloc_baseIN6Xapian9bucketvalESaIS1_ELb1EEC2ERKS2_$w$f04J5dBWRM54MJeD1
0001:0004d328  __ZNSt18_Vector_alloc_baseIN6Xapian9bucketvalESaIS1_ELb1EE11_M_allocateEj$w$f04J5dBWRM54MJeD1
0001:0004d33c  __ZNSt14__simple_allocIN6Xapian9bucketvalESt24__default_alloc_templateILb1ELi0EEE8allocateEj$w$f04J5dBWRM54MJeD1
0001:0004d380  __ZNSt14__simple_allocIN6Xapian9bucketvalESt24__default_alloc_templateILb1ELi0EEE10deallocateEPS1_j$w$f04J5dBWRM54MJeD1
0001:0004d3fe  __ZN9__gnu_cxx17__normal_iteratorIPN6Xapian9bucketvalESt6vectorIS2_SaIS2_EEEC1ERKS3_$w$f04J5dBWRM54MJeD1
0001:0004eeae  __ZNSt8iteratorISt26random_access_iterator_tagN6Xapian9bucketvalEiPS2_RS2_EC2Ev$w$f04J5dBWRM54MJeD1
0001:0004d5a8  __ZNSt6vectorIN6Xapian9bucketvalESaIS1_EE3endEv$w$f04J5dBWRM54MJeD1
0001:0004d5c8  __ZNSt6vectorIN6Xapian9bucketvalESaIS1_EE5eraseEN9__gnu_cxx17__normal_iteratorIPS1_S3_EES7_$w$f04J5dBWRM54MJeD1
0001:0004d648  __ZNSt6vectorIN6Xapian9bucketvalESaIS1_EE6insertEN9__gnu_cxx17__normal_iteratorIPS1_S3_EEjRKS1_$w$f04J5dBWRM54MJeD1
0001:0004d528  __ZN9__gnu_cxx17__normal_iteratorIPKN6Xapian9bucketvalESt6vectorIS2_SaIS2_EEEC1ERKS4_$w$f04J5dBWRM54MJeD1
0001:0004eeb4  __ZNSt8iteratorISt26random_access_iterator_tagN6Xapian9bucketvalEiPKS2_RS3_EC2Ev$w$f04J5dBWRM54MJeD1
0001:0004d5a0  __ZNK9__gnu_cxx17__normal_iteratorIPKN6Xapian9bucketvalESt6vectorIS2_SaIS2_EEE4baseEv$w$f04J5dBWRM54MJeD1
0001:0004eeba  __ZSt4copyIN9__gnu_cxx17__normal_iteratorIPN6Xapian9bucketvalESt6vectorIS3_SaIS3_EEEES8_ET0_T_SA_S9_$w$f04J5dBWRM54MJeD1
0001:0004f01c  __ZSt8_DestroyIN9__gnu_cxx17__normal_iteratorIPN6Xapian9bucketvalESt6vectorIS3_SaIS3_EEEEEvT_S9_$w$f04J5dBWRM54MJeD1
0001:0004f0c4  __ZN9__gnu_cxxmiIPN6Xapian9bucketvalES3_St6vectorIS2_SaIS2_EEEENS_17__normal_iteratorIT_T1_E15difference_typeERKSA_RKNS7_IT0_S9_EE$w$f04J5dBWRM54MJeD1
0001:0004d670  __ZNSt6vectorIN6Xapian9bucketvalESaIS1_EE14_M_fill_insertEN9__gnu_cxx17__normal_iteratorIPS1_S3_EEjRKS1_$w$f04J5dBWRM54MJeD1
0001:0004f0f8  __ZSt18uninitialized_copyIPN6Xapian9bucketvalES2_ET0_T_S4_S3_$w$f04J5dBWRM54MJeD1
0001:0004e384  __ZNK9__gnu_cxx17__normal_iteratorIPN6Xapian9bucketvalESt6vectorIS2_SaIS2_EEEmiERKi$w$f04J5dBWRM54MJeD1
0001:0004e3b4  __ZSt13copy_backwardIN9__gnu_cxx17__normal_iteratorIPN6Xapian9bucketvalESt6vectorIS3_SaIS3_EEEES8_ET0_T_SA_S9_$w$f04J5dBWRM54MJeD1
0001:0004e3e0  __ZSt4fillIN9__gnu_cxx17__normal_iteratorIPN6Xapian9bucketvalESt6vectorIS3_SaIS3_EEEES3_EvT_S9_RKT0_$w$f04J5dBWRM54MJeD1
0001:0004e43a  __ZSt18uninitialized_copyIN9__gnu_cxx17__normal_iteratorIPN6Xapian9bucketvalESt6vectorIS3_SaIS3_EEEES4_ET0_T_SA_S9_$w$f04J5dBWRM54MJeD1
0001:0004e460  __ZSt3maxIjERKT_S2_S2_$w$f04J5dBWRM54MJeD1
0001:0004e486  __ZSt18uninitialized_copyIN9__gnu_cxx17__normal_iteratorIPN6Xapian9bucketvalESt6vectorIS3_SaIS3_EEEES8_ET0_T_SA_S9_$w$f04J5dBWRM54MJeD1
0001:0004e4b2  __ZSt20uninitialized_fill_nIN9__gnu_cxx17__normal_iteratorIPN6Xapian9bucketvalESt6vectorIS3_SaIS3_EEEEjS3_ET_S9_T0_RKT1_$w$f04J5dBWRM54MJeD1
0001:0004ef30  __ZNK9__gnu_cxx17__normal_iteratorIPN6Xapian9bucketvalESt6vectorIS2_SaIS2_EEE4baseEv$w$f04J5dBWRM54MJeD1
0001:0004da14  __ZNSt8_Rb_treeISsSt4pairIKSsjESt10_Select1stIS2_ESt4lessISsESaIS2_EE4swapERS8_$w$f04J5dBWRM54MJeD1
0001:0004da5e  __ZSt4swapIPSt13_Rb_tree_nodeISt4pairIKSsjEEEvRT_S7_$w$f04J5dBWRM54MJeD1
0001:0004da80  __ZSt4swapIjEvRT_S1_$w$f04J5dBWRM54MJeD1
0001:0004daa2  __ZSt4swapISt4lessISsEEvRT_S3_$w$f04J5dBWRM54MJeD1
0001:0004f1d2  __ZSt8_DestroyISt4pairIKSsjEEvPT_$w$f04J5dBWRM54MJeD1
0001:0004e9b4  __ZNSt19_Rb_tree_alloc_baseISt4pairIKSsjESaIS2_ELb1EE11_M_put_nodeEPSt13_Rb_tree_nodeIS2_E$w$f04J5dBWRM54MJeD1
0001:0004f1e6  __ZNSt8_Rb_treeISsSt4pairIKSsjESt10_Select1stIS2_ESt4lessISsESaIS2_EE13_M_clone_nodeEPSt13_Rb_tree_nodeIS2_E$w$f04J5dBWRM54MJeD1
0001:0004f324  __ZNSt4pairISt17_Rb_tree_iteratorIS_IKjSt3mapISsjSt4lessISsESaIS_IKSsjEEEERS9_PS9_EbEC1ERKSC_RKb$w$f04J5dBWRM54MJeD1
0001:0004e748  __ZNSt22_Rb_tree_base_iterator12_M_decrementEv$w$f04J5dBWRM54MJeD1
0001:0004f352  __ZNSt8_Rb_treeISsSt4pairIKSsjESt10_Select1stIS2_ESt4lessISsESaIS2_EE6_S_keyEPSt18_Rb_tree_node_base$w$f04J5dBWRM54MJeD1
0001:0004f34a  __ZNKSt10_Select1stISt4pairIKSsjEEclERKS2_$w$f04J5dBWRM54MJeD1
0001:0004f374  __ZNSt8_Rb_treeISsSt4pairIKSsjESt10_Select1stIS2_ESt4lessISsESaIS2_EE9_M_insertEPSt18_Rb_tree_node_baseSA_RKS2_$w$f04J5dBWRM54MJeD1
0001:0004e4de  __ZNSt8_Rb_treeISsSt4pairIKSsjESt10_Select1stIS2_ESt4lessISsESaIS2_EE13insert_uniqueERKS2_$w$f04J5dBWRM54MJeD1
0001:0004e6be  __ZNSt17_Rb_tree_iteratorISt4pairIKSsjERS2_PS2_EmmEv$w$f04J5dBWRM54MJeD1
0001:0004e6d4  __ZNSt8_Rb_treeISsSt4pairIKSsjESt10_Select1stIS2_ESt4lessISsESaIS2_EE8_S_rightEPSt18_Rb_tree_node_base$w$f04J5dBWRM54MJeD1
0001:0004f50e  __ZSt8_DestroyISt4pairIKdjEEvPT_$w$f04J5dBWRM54MJeD1
0001:0004f520  __ZNSt4pairISt17_Rb_tree_iteratorIS_IKdjERS2_PS2_EbEC1ERKS5_RKb$w$f04J5dBWRM54MJeD1
0001:0004f11e  __ZSt10_ConstructIN6Xapian9bucketvalES1_EvPT_RKT0_$w$f04J5dBWRM54MJeD1
0001:0004f0be  __ZSt8_DestroyIN6Xapian9bucketvalEEvPT_$w$f04J5dBWRM54MJeD1
0001:0004f546  __ZSt37__copy_backward_input_normal_iteratorIN9__gnu_cxx17__normal_iteratorIPN6Xapian9bucketvalESt6vectorIS3_SaIS3_EEEES8_ET0_T_SA_S9_11__true_type$w$f04J5dBWRM54MJeD1
0001:0004f07e  __ZN9__gnu_cxxneIPN6Xapian9bucketvalESt6vectorIS2_SaIS2_EEEEbRKNS_17__normal_iteratorIT_T0_EESC_$w$f04J5dBWRM54MJeD1
0001:0004f0b0  __ZN9__gnu_cxx17__normal_iteratorIPN6Xapian9bucketvalESt6vectorIS2_SaIS2_EEEppEv$w$f04J5dBWRM54MJeD1
0001:0004f688  __ZSt24__uninitialized_copy_auxIN9__gnu_cxx17__normal_iteratorIPN6Xapian9bucketvalESt6vectorIS3_SaIS3_EEEES4_ET0_T_SA_S9_12__false_type$w$f04J5dBWRM54MJeD1
0001:0004f6de  __ZSt24__uninitialized_copy_auxIN9__gnu_cxx17__normal_iteratorIPN6Xapian9bucketvalESt6vectorIS3_SaIS3_EEEES8_ET0_T_SA_S9_12__false_type$w$f04J5dBWRM54MJeD1
0001:0004f748  __ZSt26__uninitialized_fill_n_auxIN9__gnu_cxx17__normal_iteratorIPN6Xapian9bucketvalESt6vectorIS3_SaIS3_EEEEjS3_ET_S9_T0_RKT1_12__false_type$w$f04J5dBWRM54MJeD1
0001:0004f79c  __ZNSt8_Rb_treeISsSt4pairIKSsjESt10_Select1stIS2_ESt4lessISsESaIS2_EE5beginEv$w$f04J5dBWRM54MJeD1
0001:0004f7ca  __ZNSt4pairISt17_Rb_tree_iteratorIS_IKSsjERS2_PS2_EbEC1ERKS5_RKb$w$f04J5dBWRM54MJeD1
0001:0004e6ec  __ZTSN6Xapian8MatchSpyE$w$f04J5dBWRM54MJeD1
0001:0004f7f0  __ZTIN6Xapian12MatchDeciderE$w$f04J5dBWRM54MJeD1
0001:0004e704  __ZNSt15basic_streambufIcSt11char_traitsIcEE13_S_pback_sizeE$w$f04J5dBWRM54MJeD1
0001:0004e7fa  __ZNSt8_Rb_treeIjSt4pairIKjSt3mapISsjSt4lessISsESaIS0_IKSsjEEEESt10_Select1stIS9_ES3_IjESaIS9_EED1Ev$w$f04J5dBWRM54MJeD1
0001:0004e8b0  __ZNSt8_Rb_treeIjSt4pairIKjSt3mapISsjSt4lessISsESaIS0_IKSsjEEEESt10_Select1stIS9_ES3_IjESaIS9_EE5clearEv$w$f04J5dBWRM54MJeD1
0001:0004e83e  __ZNSt13_Rb_tree_baseISt4pairIKjSt3mapISsjSt4lessISsESaIS0_IKSsjEEEESaIS9_EED2Ev$w$f04J5dBWRM54MJeD1
0001:0004e85a  __ZNSt19_Rb_tree_alloc_baseISt4pairIKjSt3mapISsjSt4lessISsESaIS0_IKSsjEEEESaIS9_ELb1EE11_M_put_nodeEPSt13_Rb_tree_nodeIS9_E$w$f04J5dBWRM54MJeD1
0001:0004e876  __ZNSt14__simple_allocISt13_Rb_tree_nodeISt4pairIKjSt3mapISsjSt4lessISsESaIS1_IKSsjEEEEESt24__default_alloc_templateILb1ELi0EEE10deallocateEPSB_j$w$f04J5dBWRM54MJeD1
0001:0004e9fa  __ZNSt8_Rb_treeIjSt4pairIKjSt3mapISsjSt4lessISsESaIS0_IKSsjEEEESt10_Select1stIS9_ES3_IjESaIS9_EE8_M_eraseEPSt13_Rb_tree_nodeIS9_E$w$f04J5dBWRM54MJeD1
0001:0004e950  __ZNSt8_Rb_treeIjSt4pairIKjSt3mapISsjSt4lessISsESaIS0_IKSsjEEEESt10_Select1stIS9_ES3_IjESaIS9_EE8_S_valueEPSt13_Rb_tree_nodeIS9_E$w$f04J5dBWRM54MJeD1
0001:0004e95c  __ZNKSt10_Select1stISt4pairIKjSt3mapISsjSt4lessISsESaIS0_IKSsjEEEEEclERS9_$w$f04J5dBWRM54MJeD1
0001:0004e9d0  __ZNSt14__simple_allocISt13_Rb_tree_nodeISt4pairIKSsjEESt24__default_alloc_templateILb1ELi0EEE10deallocateEPS4_j$w$f04J5dBWRM54MJeD1
0001:0004f1aa  __ZNSt8_Rb_treeIjSt4pairIKjSt3mapISsjSt4lessISsESaIS0_IKSsjEEEESt10_Select1stIS9_ES3_IjESaIS9_EE12destroy_nodeEPSt13_Rb_tree_nodeIS9_E$w$f04J5dBWRM54MJeD1
0001:0004f9fc  __ZNSt8_Rb_treeIjSt4pairIKjSt3mapISsjSt4lessISsESaIS0_IKSsjEEEESt10_Select1stIS9_ES3_IjESaIS9_EE14_M_create_nodeERKS9_$w$f04J5dBWRM54MJeD1
0001:0004f318  __ZNSt8_Rb_treeIjSt4pairIKjSt3mapISsjSt4lessISsESaIS0_IKSsjEEEESt10_Select1stIS9_ES3_IjESaIS9_EE9_S_parentEPSt13_Rb_tree_nodeIS9_E$w$f04J5dBWRM54MJeD1
0001:0004f81e  __ZSt18_Rb_tree_rebalancePSt18_Rb_tree_node_baseRS0_$w$f04J5dBWRM54MJeD1
0001:0004ec50  __ZNSt8_Rb_treeISsSt4pairIKSsjESt10_Select1stIS2_ESt4lessISsESaIS2_EE8_S_valueEPSt13_Rb_tree_nodeIS2_E$w$f04J5dBWRM54MJeD1
0001:0004ec5c  __ZNKSt10_Select1stISt4pairIKSsjEEclERS2_$w$f04J5dBWRM54MJeD1
0001:0004ecae  __ZNSt8_Rb_treeIdSt4pairIKdjESt10_Select1stIS2_ESt4lessIdESaIS2_EE8_S_valueEPSt13_Rb_tree_nodeIS2_E$w$f04J5dBWRM54MJeD1
0001:0004ecba  __ZNKSt10_Select1stISt4pairIKdjEEclERS2_$w$f04J5dBWRM54MJeD1
0001:0004faec  __ZNSt8_Rb_treeIdSt4pairIKdjESt10_Select1stIS2_ESt4lessIdESaIS2_EE14_M_create_nodeERKS2_$w$f04J5dBWRM54MJeD1
0001:0004f514  __ZNSt8_Rb_treeIdSt4pairIKdjESt10_Select1stIS2_ESt4lessIdESaIS2_EE9_S_parentEPSt13_Rb_tree_nodeIS2_E$w$f04J5dBWRM54MJeD1
0001:0004eee6  __ZSt10__copy_ni1IN9__gnu_cxx17__normal_iteratorIPN6Xapian9bucketvalESt6vectorIS3_SaIS3_EEEES8_ET0_T_SA_S9_11__true_type$w$f04J5dBWRM54MJeD1
0001:0004ef38  __ZSt10__copy_ni2IPN6Xapian9bucketvalEN9__gnu_cxx17__normal_iteratorIS2_St6vectorIS1_SaIS1_EEEEET0_T_SA_S9_11__true_type$w$f04J5dBWRM54MJeD1
0001:0004ef80  __ZSt11__copy_aux2IPN6Xapian9bucketvalES2_ET0_T_S4_S3_12__false_type$w$f04J5dBWRM54MJeD1
0001:0004efb4  __ZSt19__iterator_categoryIPN6Xapian9bucketvalEENSt15iterator_traitsIT_E17iterator_categoryERKS4_$w$f04J5dBWRM54MJeD1
0001:0004efc0  __ZSt6__copyIPN6Xapian9bucketvalES2_ET0_T_S4_S3_St26random_access_iterator_tag$w$f04J5dBWRM54MJeD1
0001:0004f03c  __ZSt13__destroy_auxIN9__gnu_cxx17__normal_iteratorIPN6Xapian9bucketvalESt6vectorIS3_SaIS3_EEEEEvT_S9_12__false_type$w$f04J5dBWRM54MJeD1
0001:0004f170  __ZSt24__uninitialized_copy_auxIPN6Xapian9bucketvalES2_ET0_T_S4_S3_12__false_type$w$f04J5dBWRM54MJeD1
0001:0004f810  __ZnwjPv$w$f04J5dBWRM54MJeD1
0001:0004fb5a  __ZSt8_DestroyISt4pairIKjSt3mapISsjSt4lessISsESaIS0_IKSsjEEEEEvPT_$w$f04J5dBWRM54MJeD1
0001:0004f228  __ZNSt8_Rb_treeISsSt4pairIKSsjESt10_Select1stIS2_ESt4lessISsESaIS2_EE14_M_create_nodeERKS2_$w$f04J5dBWRM54MJeD1
0001:0004f29c  __ZSt10_ConstructISt4pairIKSsjES2_EvPT_RKT0_$w$f04J5dBWRM54MJeD1
0001:0004f9d6  __ZNSt4pairIKSsjEC1ERKS1_$w$f04J5dBWRM54MJeD1
0001:0004f818  __ZdlPvS_$w$f04J5dBWRM54MJeD1
0001:0004f790  __ZNSt8_Rb_treeISsSt4pairIKSsjESt10_Select1stIS2_ESt4lessISsESaIS2_EE9_S_parentEPSt13_Rb_tree_nodeIS2_E$w$f04J5dBWRM54MJeD1
0001:0004f590  __ZSt38__copy_backward_output_normal_iteratorIPN6Xapian9bucketvalEN9__gnu_cxx17__normal_iteratorIS2_St6vectorIS1_SaIS1_EEEEET0_T_SA_S9_11__true_type$w$f04J5dBWRM54MJeD1
0001:0004f5d4  __ZSt19__copy_backward_auxIPN6Xapian9bucketvalES2_ET0_T_S4_S3_$w$f04J5dBWRM54MJeD1
0001:0004f5f6  __ZNSt24__copy_backward_dispatchIPN6Xapian9bucketvalES2_12__false_typeE4copyES2_S2_S2_$w$f04J5dBWRM54MJeD1
0001:0004f62a  __ZSt15__copy_backwardIPN6Xapian9bucketvalES2_ET0_T_S4_S3_St26random_access_iterator_tag$w$f04J5dBWRM54MJeD1
0001:0004f7f8  __ZTSN6Xapian12MatchDeciderE$w$f04J5dBWRM54MJeD1
0001:0004fb6e  __ZSt20_Rb_tree_rotate_leftPSt18_Rb_tree_node_baseRS0_$w$f04J5dBWRM54MJeD1
0001:0004fbfa  __ZSt21_Rb_tree_rotate_rightPSt18_Rb_tree_node_baseRS0_$w$f04J5dBWRM54MJeD1
0001:0004fcb0  __ZNSt19_Rb_tree_alloc_baseISt4pairIKjSt3mapISsjSt4lessISsESaIS0_IKSsjEEEESaIS9_ELb1EE11_M_get_nodeEv$w$f04J5dBWRM54MJeD1
0001:0004fa70  __ZSt10_ConstructISt4pairIKjSt3mapISsjSt4lessISsESaIS0_IKSsjEEEES9_EvPT_RKT0_$w$f04J5dBWRM54MJeD1
0001:0004fc86  __ZNSt4pairIKjSt3mapISsjSt4lessISsESaIS_IKSsjEEEEC1ERKS8_$w$f04J5dBWRM54MJeD1
0001:0004fb1a  __ZSt10_ConstructISt4pairIKdjES2_EvPT_RKT0_$w$f04J5dBWRM54MJeD1
0001:0004fcc4  __ZNSt14__simple_allocISt13_Rb_tree_nodeISt4pairIKjSt3mapISsjSt4lessISsESaIS1_IKSsjEEEEESt24__default_alloc_templateILb1ELi0EEE8allocateEj$w$f04J5dBWRM54MJeD1
0002:00038c60* __ZN16__Atomicity_lockILi0EE17_S_atomicity_lockE$w$f04J5dBWRM54MJeD1
Module: E:\rd\dse\xapian-core-1.0.2\.libs\xapian.lib(api\omdatabase.cc)
0001:0004fcf0  __ZN6Xapian8DatabaseC2Ev
0001:0004fd52  __ZN6Xapian8DatabaseC1Ev
0001:0004fdb4  __ZN6Xapian8DatabaseC2EPNS0_8InternalE
0001:0004fe84  __ZN6Xapian8DatabaseC1EPNS0_8InternalE
0001:0004ff54  __ZN6Xapian8DatabaseC2ERKS0_
0001:0004fff2  __ZN6Xapian8DatabaseC1ERKS0_
0001:000502b6  __ZN6Xapian8DatabaseaSERKS0_
0001:00050330  __ZN6Xapian8DatabaseD2Ev
0001:00050366  __ZN6Xapian8DatabaseD1Ev
0001:0005039c  __ZN6Xapian8DatabaseD0Ev
0001:00050410  __ZN6Xapian8Database6reopenEv
0001:000504b0  __ZN6Xapian8Database12add_databaseERKS0_
0001:0005067c  __ZNK6Xapian8Database14postlist_beginERKSs
0001:000508e6  __ZNK6Xapian8Database14termlist_beginEj
0001:00050b7e  __ZNK6Xapian8Database14allterms_beginEv
0001:00050c1e  __ZNK6Xapian8Database14allterms_beginERKSs
0001:00050e82  __ZNK6Xapian8Database13has_positionsEv
0001:00050f36  __ZNK6Xapian8Database18positionlist_beginEjRKSs
0001:00051280  __ZNK6Xapian8Database12get_doccountEv
0001:0005137e  __ZNK6Xapian8Database13get_lastdocidEv
0001:00051416  __ZNK6Xapian8Database12get_avlengthEv
0001:00051512  __ZNK6Xapian8Database12get_termfreqERKSs
0001:000515dc  __ZNK6Xapian8Database19get_collection_freqERKSs
0001:000516a6  __ZNK6Xapian8Database13get_doclengthEj
0001:00051884  __ZNK6Xapian8Database12get_documentEj
0001:00051a7e  __ZNK6Xapian8Database11term_existsERKSs
0001:00051b52  __ZN6Xapian8Database10keep_aliveEv
0001:00051bee  __ZNK6Xapian8Database15get_descriptionEv
0001:00051c52  __ZNK6Xapian8Database23get_spelling_suggestionERKSsj
0001:0005232c  __ZNK6Xapian8Database15spellings_beginEv
0001:000524b0  __ZNK6Xapian8Database14synonyms_beginERKSs
0001:0005263e  __ZNK6Xapian8Database18synonym_keys_beginERKSs
0001:000527cc  __ZN6Xapian16WritableDatabaseC2Ev
0001:000527e8  __ZN6Xapian16WritableDatabaseC1Ev
0001:00052804  __ZN6Xapian16WritableDatabaseC2EPNS_8Database8InternalE
0001:00052828  __ZN6Xapian16WritableDatabaseC1EPNS_8Database8InternalE
0001:0005284c  __ZN6Xapian16WritableDatabaseC2ERKS0_
0001:00052870  __ZN6Xapian16WritableDatabaseC1ERKS0_
0001:00052894  __ZN6Xapian16WritableDatabaseaSERKS0_
0001:000528ae  __ZN6Xapian16WritableDatabaseD2Ev
0001:000528e2  __ZN6Xapian16WritableDatabaseD1Ev
0001:00052916  __ZN6Xapian16WritableDatabaseD0Ev
0001:0005294a  __ZN6Xapian16WritableDatabase5flushEv
0001:0005297c  __ZN6Xapian16WritableDatabase17begin_transactionEb
0001:000529ba  __ZN6Xapian16WritableDatabase18commit_transactionEv
0001:000529e8  __ZN6Xapian16WritableDatabase18cancel_transactionEv
0001:00052a16  __ZN6Xapian16WritableDatabase12add_documentERKNS_8DocumentE
0001:00052a52  __ZN6Xapian16WritableDatabase15delete_documentEj
0001:00052bf6  __ZN6Xapian16WritableDatabase15delete_documentERKSs
0001:00052d88  __ZN6Xapian16WritableDatabase16replace_documentEjRKNS_8DocumentE
0001:00052f18  __ZN6Xapian16WritableDatabase16replace_documentERKSsRKNS_8DocumentE
0001:000530b4  __ZNK6Xapian16WritableDatabase12add_spellingERKSsj
0001:000530f6  __ZNK6Xapian16WritableDatabase15remove_spellingERKSsj
0001:00053138  __ZNK6Xapian16WritableDatabase11add_synonymERKSsS2_
0001:0005317a  __ZNK6Xapian16WritableDatabase14remove_synonymERKSsS2_
0001:000531bc  __ZNK6Xapian16WritableDatabase14clear_synonymsERKSs
0001:0005320a  __ZNK6Xapian16WritableDatabase15get_descriptionEv
0001:000538f8  __ZTVN6Xapian8DatabaseE$w$pVQE5dCWRM5w0YYj1
0001:0005326e  __ZNSaIN6Xapian8Internal9RefCntPtrINS_8Database8InternalEEEEC1Ev$w$pVQE5dCWRM5w0YYj1
0001:00053e50  __ZNSt6vectorIN6Xapian8Internal9RefCntPtrINS0_8Database8InternalEEESaIS5_EEC1ERKS6_$w$pVQE5dCWRM5w0YYj1
0001:00053274  __ZNSaIN6Xapian8Internal9RefCntPtrINS_8Database8InternalEEEED1Ev$w$pVQE5dCWRM5w0YYj1
0001:0005327a  __ZN6Xapian8Internal9RefCntPtrINS_8Database8InternalEEC1EPS3_$w$pVQE5dCWRM5w0YYj1
0001:000532e4  __ZNSt6vectorIN6Xapian8Internal9RefCntPtrINS0_8Database8InternalEEESaIS5_EE9push_backERKS5_$w$pVQE5dCWRM5w0YYj1
0001:0005329a  __ZN6Xapian8Internal9RefCntPtrINS_8Database8InternalEED1Ev$w$pVQE5dCWRM5w0YYj1
0001:000502e0  __ZNSt6vectorIN6Xapian8Internal9RefCntPtrINS0_8Database8InternalEEESaIS5_EED1Ev$w$pVQE5dCWRM5w0YYj1
0001:00050090  __ZNSt6vectorIN6Xapian8Internal9RefCntPtrINS0_8Database8InternalEEESaIS5_EEaSERKS7_$w$pVQE5dCWRM5w0YYj1
0001:00053f18  __ZNKSt6vectorIN6Xapian8Internal9RefCntPtrINS0_8Database8InternalEEESaIS5_EE4sizeEv$w$pVQE5dCWRM5w0YYj1
0001:00053ffa  __ZNKSt6vectorIN6Xapian8Internal9RefCntPtrINS0_8Database8InternalEEESaIS5_EE8capacityEv$w$pVQE5dCWRM5w0YYj1
0001:00053f9e  __ZNKSt6vectorIN6Xapian8Internal9RefCntPtrINS0_8Database8InternalEEESaIS5_EE3endEv$w$pVQE5dCWRM5w0YYj1
0001:00053f54  __ZNKSt6vectorIN6Xapian8Internal9RefCntPtrINS0_8Database8InternalEEESaIS5_EE5beginEv$w$pVQE5dCWRM5w0YYj1
0001:00054042  __ZNSt6vectorIN6Xapian8Internal9RefCntPtrINS0_8Database8InternalEEESaIS5_EE20_M_allocate_and_copyIN9__gnu_cxx17__normal_iteratorIPKS5_S7_EEEEPS5_jT_SF_$w$pVQE5dCWRM5w0YYj1
0001:00053366  __ZSt8_DestroyIPN6Xapian8Internal9RefCntPtrINS0_8Database8InternalEEEEvT_S7_$w$pVQE5dCWRM5w0YYj1
0001:00053ed6  __ZNSt18_Vector_alloc_baseIN6Xapian8Internal9RefCntPtrINS0_8Database8InternalEEESaIS5_ELb1EE13_M_deallocateEPS5_j$w$pVQE5dCWRM5w0YYj1
0001:000503d2  __ZNSt6vectorIN6Xapian8Internal9RefCntPtrINS0_8Database8InternalEEESaIS5_EE5beginEv$w$pVQE5dCWRM5w0YYj1
0001:00053386  __ZSt4copyIN9__gnu_cxx17__normal_iteratorIPKN6Xapian8Internal9RefCntPtrINS2_8Database8InternalEEESt6vectorIS7_SaIS7_EEEENS1_IPS7_SC_EEET0_T_SH_SG_$w$pVQE5dCWRM5w0YYj1
0001:000503f0  __ZNSt6vectorIN6Xapian8Internal9RefCntPtrINS0_8Database8InternalEEESaIS5_EE3endEv$w$pVQE5dCWRM5w0YYj1
0001:000533b2  __ZSt8_DestroyIN9__gnu_cxx17__normal_iteratorIPN6Xapian8Internal9RefCntPtrINS2_8Database8InternalEEESt6vectorIS7_SaIS7_EEEEEvT_SD_$w$pVQE5dCWRM5w0YYj1
0001:00051310  __ZNK9__gnu_cxx17__normal_iteratorIPKN6Xapian8Internal9RefCntPtrINS1_8Database8InternalEEESt6vectorIS6_SaIS6_EEEplERKi$w$pVQE5dCWRM5w0YYj1
0001:000533d2  __ZSt4copyIN9__gnu_cxx17__normal_iteratorIPKN6Xapian8Internal9RefCntPtrINS2_8Database8InternalEEESt6vectorIS7_SaIS7_EEEEPS7_ET0_T_SG_SF_$w$pVQE5dCWRM5w0YYj1
0001:00053340  __ZSt18uninitialized_copyIN9__gnu_cxx17__normal_iteratorIPKN6Xapian8Internal9RefCntPtrINS2_8Database8InternalEEESt6vectorIS7_SaIS7_EEEEPS7_ET0_T_SG_SF_$w$pVQE5dCWRM5w0YYj1
0001:00053ea6  __ZNSt12_Vector_baseIN6Xapian8Internal9RefCntPtrINS0_8Database8InternalEEESaIS5_EED2Ev$w$pVQE5dCWRM5w0YYj1
0001:0005412c  __ZN9__gnu_cxx17__normal_iteratorIPN6Xapian8Internal9RefCntPtrINS1_8Database8InternalEEESt6vectorIS6_SaIS6_EEEC1ERKS7_$w$pVQE5dCWRM5w0YYj1
0001:00054110  __ZN9__gnu_cxx17__normal_iteratorIPN6Xapian8Internal9RefCntPtrINS1_8Database8InternalEEESt6vectorIS6_SaIS6_EEEC1Ev$w$pVQE5dCWRM5w0YYj1
0001:0005414a  __ZN9__gnu_cxxneIPN6Xapian8Internal9RefCntPtrINS1_8Database8InternalEEESt6vectorIS6_SaIS6_EEEEbRKNS_17__normal_iteratorIT_T0_EESG_$w$pVQE5dCWRM5w0YYj1
0001:00054192  __ZNK9__gnu_cxx17__normal_iteratorIPN6Xapian8Internal9RefCntPtrINS1_8Database8InternalEEESt6vectorIS6_SaIS6_EEEdeEv$w$pVQE5dCWRM5w0YYj1
0001:0005419c  __ZNK6Xapian8Internal9RefCntPtrINS_8Database8InternalEEptEv$w$pVQE5dCWRM5w0YYj1
0001:00054184  __ZN9__gnu_cxx17__normal_iteratorIPN6Xapian8Internal9RefCntPtrINS1_8Database8InternalEEESt6vectorIS6_SaIS6_EEEppEv$w$pVQE5dCWRM5w0YYj1
0001:000539aa  __ZN6Xapian20InvalidArgumentErrorC1ERKSsS2_i$w$pVQE5dCWRM5w0YYj1
0001:00053982  __ZN6Xapian20InvalidArgumentErrorD1Ev$w$pVQE5dCWRM5w0YYj1
0001:000554f0  __ZTIN6Xapian20InvalidArgumentErrorE$w$pVQE5dCWRM5w0YYj1
0001:00050e1c  __ZN9__gnu_cxx17__normal_iteratorIPKN6Xapian8Internal9RefCntPtrINS1_8Database8InternalEEESt6vectorIS6_SaIS6_EEEC1Ev$w$pVQE5dCWRM5w0YYj1
0001:00050e38  __ZN9__gnu_cxxneIPKN6Xapian8Internal9RefCntPtrINS1_8Database8InternalEEESt6vectorIS6_SaIS6_EEEEbRKNS_17__normal_iteratorIT_T0_EESH_$w$pVQE5dCWRM5w0YYj1
0001:00050e78  __ZNK9__gnu_cxx17__normal_iteratorIPKN6Xapian8Internal9RefCntPtrINS1_8Database8InternalEEESt6vectorIS6_SaIS6_EEEdeEv$w$pVQE5dCWRM5w0YYj1
0001:00050e6a  __ZN9__gnu_cxx17__normal_iteratorIPKN6Xapian8Internal9RefCntPtrINS1_8Database8InternalEEESt6vectorIS6_SaIS6_EEEppEv$w$pVQE5dCWRM5w0YYj1
0001:000533f8  __ZNSaIP12LeafPostListEC1Ev$w$pVQE5dCWRM5w0YYj1
0001:000541a6  __ZNSt6vectorIP12LeafPostListSaIS1_EEC1ERKS2_$w$pVQE5dCWRM5w0YYj1
0001:000533fe  __ZNSaIP12LeafPostListED1Ev$w$pVQE5dCWRM5w0YYj1
0001:0005347e  __ZNSt6vectorIP12LeafPostListSaIS1_EE9push_backERKS1_$w$pVQE5dCWRM5w0YYj1
0001:000534da  __ZNSt6vectorIP12LeafPostListSaIS1_EE4backEv$w$pVQE5dCWRM5w0YYj1
0001:00053bb0  __ZN6Xapian15PostingIterator8Internal4nextEv$w$pVQE5dCWRM5w0YYj1
0001:00053518  __ZN9__gnu_cxx17__normal_iteratorIPP12LeafPostListSt6vectorIS2_SaIS2_EEEC1Ev$w$pVQE5dCWRM5w0YYj1
0001:00053534  __ZNSt6vectorIP12LeafPostListSaIS1_EE5beginEv$w$pVQE5dCWRM5w0YYj1
0001:00053454  __ZNSt6vectorIP12LeafPostListSaIS1_EE3endEv$w$pVQE5dCWRM5w0YYj1
0001:00053552  __ZN9__gnu_cxxneIPP12LeafPostListSt6vectorIS2_SaIS2_EEEEbRKNS_17__normal_iteratorIT_T0_EESC_$w$pVQE5dCWRM5w0YYj1
0001:00053474  __ZNK9__gnu_cxx17__normal_iteratorIPP12LeafPostListSt6vectorIS2_SaIS2_EEEdeEv$w$pVQE5dCWRM5w0YYj1
0001:00053584  __ZN9__gnu_cxx17__normal_iteratorIPP12LeafPostListSt6vectorIS2_SaIS2_EEEppEi$w$pVQE5dCWRM5w0YYj1
0001:00053404  __ZNSt6vectorIP12LeafPostListSaIS1_EED1Ev$w$pVQE5dCWRM5w0YYj1
0001:00051342  __ZNKSt6vectorIN6Xapian8Internal9RefCntPtrINS0_8Database8InternalEEESaIS5_EEixEj$w$pVQE5dCWRM5w0YYj1
0001:00054274  __ZNKSt6vectorIN6Xapian8Internal9RefCntPtrINS0_8Database8InternalEEESaIS5_EE5emptyEv$w$pVQE5dCWRM5w0YYj1
0001:000535ac  __ZNSaIPN6Xapian12TermIterator8InternalEEC1Ev$w$pVQE5dCWRM5w0YYj1
0001:000535b8  __ZNSt6vectorIPN6Xapian12TermIterator8InternalESaIS3_EEC1ERKS4_$w$pVQE5dCWRM5w0YYj1
0001:000535b2  __ZNSaIPN6Xapian12TermIterator8InternalEED1Ev$w$pVQE5dCWRM5w0YYj1
0001:00053622  __ZNSt6vectorIPN6Xapian12TermIterator8InternalESaIS3_EE9push_backERKS3_$w$pVQE5dCWRM5w0YYj1
0001:000535d2  __ZNSt6vectorIPN6Xapian12TermIterator8InternalESaIS3_EED1Ev$w$pVQE5dCWRM5w0YYj1
0001:00053f7a  __ZNSt8iteratorISt26random_access_iterator_tagN6Xapian8Internal9RefCntPtrINS1_8Database8InternalEEEiPKS6_RS7_EC2Ev$w$pVQE5dCWRM5w0YYj1
0001:00053ff2  __ZNK9__gnu_cxx17__normal_iteratorIPKN6Xapian8Internal9RefCntPtrINS1_8Database8InternalEEESt6vectorIS6_SaIS6_EEE4baseEv$w$pVQE5dCWRM5w0YYj1
0001:00053f80  __ZN9__gnu_cxx17__normal_iteratorIPKN6Xapian8Internal9RefCntPtrINS1_8Database8InternalEEESt6vectorIS6_SaIS6_EEEC1ERKS8_$w$pVQE5dCWRM5w0YYj1
0001:0005367e* __ZSt3maxIjERKT_S2_S2_$w$pVQE5dCWRM5w0YYj1
0001:000536a4  __ZN9__gnu_cxx17__normal_iteratorIPKN6Xapian8Internal9RefCntPtrINS1_8Database8InternalEEESt6vectorIS6_SaIS6_EEEppEi$w$pVQE5dCWRM5w0YYj1
0001:000542e4  __ZN9__gnu_cxx17__normal_iteratorIPKN6Xapian8Internal9RefCntPtrINS1_8Database8InternalEEESt6vectorIS6_SaIS6_EEEC1IPS6_EERKNS0_IT_SB_EE$w$pVQE5dCWRM5w0YYj1
0001:0005430e  __ZN9__gnu_cxxneIPKN6Xapian8Internal9RefCntPtrINS1_8Database8InternalEEEPS6_St6vectorIS6_SaIS6_EEEEbRKNS_17__normal_iteratorIT_T1_EERKNSD_IT0_SF_EE$w$pVQE5dCWRM5w0YYj1
0001:00054340  __ZN7AutoPtrIN6Xapian12TermIterator8InternalEEC1EPS2_$w$pVQE5dCWRM5w0YYj1
0001:000536cc  __ZNK7AutoPtrIN6Xapian12TermIterator8InternalEE3getEv$w$pVQE5dCWRM5w0YYj1
0001:000536d6  __ZN7AutoPtrIN6Xapian12TermIterator8InternalEE7releaseEv$w$pVQE5dCWRM5w0YYj1
0001:00053ddc  __ZN10OrTermListC1EPN6Xapian12TermIterator8InternalES3_$w$pVQE5dCWRM5w0YYj1
0001:000536f2  __ZN10AutoPtrRefIN6Xapian12TermIterator8InternalEEC1EPS2_$w$pVQE5dCWRM5w0YYj1
0001:00053700  __ZN7AutoPtrIN6Xapian12TermIterator8InternalEEaSE10AutoPtrRefIS2_E$w$pVQE5dCWRM5w0YYj1
0001:0005434e  __ZN7AutoPtrIN6Xapian12TermIterator8InternalEED1Ev$w$pVQE5dCWRM5w0YYj1
0001:00053742  __ZNSaIjEC1Ev$w$pVQE5dCWRM5w0YYj1
0001:0005374e  __ZNSt6vectorIjSaIjEEC1ERKS0_$w$pVQE5dCWRM5w0YYj1
0001:00053748  __ZNSaIjED1Ev$w$pVQE5dCWRM5w0YYj1
0001:00053a12  __ZN6Xapian12Utf8IteratorC1Ev$w$pVQE5dCWRM5w0YYj1
0001:000539da  __ZN6Xapian12Utf8IteratorC1ERKSs$w$pVQE5dCWRM5w0YYj1
0001:000537b8  __ZNSt6vectorIjSaIjEE6assignIN6Xapian12Utf8IteratorEEEvT_S5_$w$pVQE5dCWRM5w0YYj1
0001:000537fa  __ZNK7AutoPtrIN6Xapian12TermIterator8InternalEEptEv$w$pVQE5dCWRM5w0YYj1
0001:00053968  __ZSt3absl$w$pVQE5dCWRM5w0YYj1
0001:00053804  __ZNKSt6vectorIjSaIjEE4sizeEv$w$pVQE5dCWRM5w0YYj1
0001:00053840  __ZNSt6vectorIjSaIjEEixEj$w$pVQE5dCWRM5w0YYj1
0001:00053768  __ZNSt6vectorIjSaIjEED1Ev$w$pVQE5dCWRM5w0YYj1
0001:00053e26  __ZN19FreqAdderOrTermListC1EPN6Xapian12TermIterator8InternalES3_$w$pVQE5dCWRM5w0YYj1
0001:000538e0  __ZTVN6Xapian16WritableDatabaseE$w$pVQE5dCWRM5w0YYj1
0001:00054374  __ZNSt6vectorIN6Xapian8Internal9RefCntPtrINS0_8Database8InternalEEESaIS5_EEixEj$w$pVQE5dCWRM5w0YYj1
0001:000543e2  __ZSt10_ConstructIN6Xapian8Internal9RefCntPtrINS0_8Database8InternalEEES5_EvPT_RKT0_$w$pVQE5dCWRM5w0YYj1
0001:0005443a  __ZNSt6vectorIN6Xapian8Internal9RefCntPtrINS0_8Database8InternalEEESaIS5_EE13_M_insert_auxEN9__gnu_cxx17__normal_iteratorIPS5_S7_EERKS5_$w$pVQE5dCWRM5w0YYj1
0001:0005471c  __ZSt24__uninitialized_copy_auxIN9__gnu_cxx17__normal_iteratorIPKN6Xapian8Internal9RefCntPtrINS2_8Database8InternalEEESt6vectorIS7_SaIS7_EEEEPS7_ET0_T_SG_SF_12__false_type$w$pVQE5dCWRM5w0YYj1
0001:00054772  __ZSt13__destroy_auxIPN6Xapian8Internal9RefCntPtrINS0_8Database8InternalEEEEvT_S7_12__false_type$w$pVQE5dCWRM5w0YYj1
0001:000547aa  __ZSt10__copy_ni1IN9__gnu_cxx17__normal_iteratorIPKN6Xapian8Internal9RefCntPtrINS2_8Database8InternalEEESt6vectorIS7_SaIS7_EEEENS1_IPS7_SC_EEET0_T_SH_SG_11__true_type$w$pVQE5dCWRM5w0YYj1
0001:000548de  __ZSt13__destroy_auxIN9__gnu_cxx17__normal_iteratorIPN6Xapian8Internal9RefCntPtrINS2_8Database8InternalEEESt6vectorIS7_SaIS7_EEEEEvT_SD_12__false_type$w$pVQE5dCWRM5w0YYj1
0001:00054920  __ZSt10__copy_ni1IN9__gnu_cxx17__normal_iteratorIPKN6Xapian8Internal9RefCntPtrINS2_8Database8InternalEEESt6vectorIS7_SaIS7_EEEEPS7_ET0_T_SG_SF_11__true_type$w$pVQE5dCWRM5w0YYj1
0001:0005387c  __ZSt8_DestroyIPP12LeafPostListEvT_S3_$w$pVQE5dCWRM5w0YYj1
0001:000541fc  __ZNSt12_Vector_baseIP12LeafPostListSaIS1_EED2Ev$w$pVQE5dCWRM5w0YYj1
0001:000549b8  __ZN9__gnu_cxx17__normal_iteratorIPP12LeafPostListSt6vectorIS2_SaIS2_EEEC1ERKS3_$w$pVQE5dCWRM5w0YYj1
0001:0005498a  __ZSt10_ConstructIP12LeafPostListS1_EvPT_RKT0_$w$pVQE5dCWRM5w0YYj1
0001:000549de  __ZNSt6vectorIP12LeafPostListSaIS1_EE13_M_insert_auxEN9__gnu_cxx17__normal_iteratorIPS1_S3_EERKS1_$w$pVQE5dCWRM5w0YYj1
0001:00054c1a  __ZNK9__gnu_cxx17__normal_iteratorIPP12LeafPostListSt6vectorIS2_SaIS2_EEEmiERKi$w$pVQE5dCWRM5w0YYj1
0001:0005426e  __ZNSt8iteratorISt26random_access_iterator_tagP12LeafPostListiPS2_RS2_EC2Ev$w$pVQE5dCWRM5w0YYj1
0001:000549d6  __ZNK9__gnu_cxx17__normal_iteratorIPP12LeafPostListSt6vectorIS2_SaIS2_EEE4baseEv$w$pVQE5dCWRM5w0YYj1
0001:00054c50  __ZNSt12_Vector_baseIPN6Xapian12TermIterator8InternalESaIS3_EEC2ERKS4_$w$pVQE5dCWRM5w0YYj1
0001:0005389c  __ZSt8_DestroyIPPN6Xapian12TermIterator8InternalEEvT_S5_$w$pVQE5dCWRM5w0YYj1
0001:00054c8c  __ZNSt12_Vector_baseIPN6Xapian12TermIterator8InternalESaIS3_EED2Ev$w$pVQE5dCWRM5w0YYj1
0001:00054cfe  __ZSt10_ConstructIPN6Xapian12TermIterator8InternalES3_EvPT_RKT0_$w$pVQE5dCWRM5w0YYj1
0001:00054d2c  __ZNSt6vectorIPN6Xapian12TermIterator8InternalESaIS3_EE3endEv$w$pVQE5dCWRM5w0YYj1
0001:00054d6a  __ZNSt6vectorIPN6Xapian12TermIterator8InternalESaIS3_EE13_M_insert_auxEN9__gnu_cxx17__normal_iteratorIPS3_S5_EERKS3_$w$pVQE5dCWRM5w0YYj1
0001:00054fa6  __ZNSt12_Vector_baseIjSaIjEEC2ERKS0_$w$pVQE5dCWRM5w0YYj1
0001:000538bc  __ZSt8_DestroyIPjEvT_S1_$w$pVQE5dCWRM5w0YYj1
0001:00054fe2  __ZNSt12_Vector_baseIjSaIjEED2Ev$w$pVQE5dCWRM5w0YYj1
0001:00055054  __ZNSt6vectorIjSaIjEE18_M_assign_dispatchIN6Xapian12Utf8IteratorEEEvT_S5_12__false_type$w$pVQE5dCWRM5w0YYj1
0001:000551ee  __ZNKSt6vectorIjSaIjEE5beginEv$w$pVQE5dCWRM5w0YYj1
0001:00055232  __ZNKSt6vectorIjSaIjEE3endEv$w$pVQE5dCWRM5w0YYj1
0001:00055258  __ZN9__gnu_cxxmiIPKjS2_St6vectorIjSaIjEEEENS_17__normal_iteratorIT_T1_E15difference_typeERKS9_RKNS6_IT0_S8_EE$w$pVQE5dCWRM5w0YYj1
0001:00055096  __ZNSt6vectorIjSaIjEE5beginEv$w$pVQE5dCWRM5w0YYj1
0001:0005528e  __ZNK9__gnu_cxx17__normal_iteratorIPjSt6vectorIjSaIjEEEplERKi$w$pVQE5dCWRM5w0YYj1
0001:000550d2  __ZNK9__gnu_cxx17__normal_iteratorIPjSt6vectorIjSaIjEEEdeEv$w$pVQE5dCWRM5w0YYj1
0001:00055318  __ZSt13__destroy_auxIPP12LeafPostListEvT_S3_11__true_type$w$pVQE5dCWRM5w0YYj1
0001:00055378  __ZSt13__destroy_auxIPPN6Xapian12TermIterator8InternalEEvT_S5_11__true_type$w$pVQE5dCWRM5w0YYj1
0001:000553f6  __ZSt13__destroy_auxIPjEvT_S1_11__true_type$w$pVQE5dCWRM5w0YYj1
0001:000554e4  __ZTIN6Xapian16WritableDatabaseE$w$pVQE5dCWRM5w0YYj1
0001:000554dc  __ZTIN6Xapian8DatabaseE$w$pVQE5dCWRM5w0YYj1
0001:00053910  __ZTV12LeafPostList$w$pVQE5dCWRM5w0YYj1
0001:000554d0  __ZTI12LeafPostList$w$pVQE5dCWRM5w0YYj1
0001:00053bd4  __ZN12LeafPostListD1Ev$w$pVQE5dCWRM5w0YYj1
0001:00053c4e  __ZN12LeafPostListD0Ev$w$pVQE5dCWRM5w0YYj1
0001:00053ce2  __ZNK12LeafPostList16get_termfreq_minEv$w$pVQE5dCWRM5w0YYj1
0001:00053cfc  __ZNK12LeafPostList16get_termfreq_estEv$w$pVQE5dCWRM5w0YYj1
0001:00053cc8  __ZNK12LeafPostList16get_termfreq_maxEv$w$pVQE5dCWRM5w0YYj1
0001:00053da8  __ZNK12LeafPostList13get_maxweightEv$w$pVQE5dCWRM5w0YYj1
0001:00053d44  __ZNK12LeafPostList10get_weightEv$w$pVQE5dCWRM5w0YYj1
0001:00053a34  __ZNK6Xapian15PostingIterator8Internal16get_collapse_keyEv$w$pVQE5dCWRM5w0YYj1
0001:00053dc8  __ZN12LeafPostList16recalc_maxweightEv$w$pVQE5dCWRM5w0YYj1
0001:00053a60  __ZNK6Xapian15PostingIterator8Internal7get_wdfEv$w$pVQE5dCWRM5w0YYj1
0001:00053d16  __ZN12LeafPostList14set_termweightEPKN6Xapian6WeightE$w$pVQE5dCWRM5w0YYj1
0001:00055598  __ZN6Xapian10LogicErrorD2Ev$w$pVQE5dCWRM5w0YYj1
0001:000555ac  __ZN6Xapian10LogicErrorC2ERKSsS2_PKci$w$pVQE5dCWRM5w0YYj1
0001:00055632  __ZN6Xapian12Utf8Iterator6assignEPKcj$w$pVQE5dCWRM5w0YYj1
0001:00055602  __ZN6Xapian18UnimplementedErrorC1ERKSsS2_i$w$pVQE5dCWRM5w0YYj1
0001:000555dc  __ZN6Xapian18UnimplementedErrorD1Ev$w$pVQE5dCWRM5w0YYj1
0001:00056430  __ZTIN6Xapian18UnimplementedErrorE$w$pVQE5dCWRM5w0YYj1
0001:000556e4  __ZN6Xapian15PostingIterator8InternalD2Ev$w$pVQE5dCWRM5w0YYj1
0001:0005570c  __ZN6Xapian12TermIterator8InternalC2Ev$w$pVQE5dCWRM5w0YYj1
0001:0005572c  __ZN10OrTermListC2EPN6Xapian12TermIterator8InternalES3_$w$pVQE5dCWRM5w0YYj1
0001:00053e6a  __ZNSt12_Vector_baseIN6Xapian8Internal9RefCntPtrINS0_8Database8InternalEEESaIS5_EEC2ERKS6_$w$pVQE5dCWRM5w0YYj1
0001:00053e84  __ZNSt18_Vector_alloc_baseIN6Xapian8Internal9RefCntPtrINS0_8Database8InternalEEESaIS5_ELb1EEC2ERKS6_$w$pVQE5dCWRM5w0YYj1
0001:00053ef0  __ZNSt14__simple_allocIN6Xapian8Internal9RefCntPtrINS0_8Database8InternalEEESt24__default_alloc_templateILb1ELi0EEE10deallocateEPS5_j$w$pVQE5dCWRM5w0YYj1
0001:00053fc4  __ZN9__gnu_cxxmiIPKN6Xapian8Internal9RefCntPtrINS1_8Database8InternalEEES8_St6vectorIS6_SaIS6_EEEENS_17__normal_iteratorIT_T1_E15difference_typeERKSF_RKNSC_IT0_SE_EE$w$pVQE5dCWRM5w0YYj1
0001:000540ce  __ZNSt18_Vector_alloc_baseIN6Xapian8Internal9RefCntPtrINS0_8Database8InternalEEESaIS5_ELb1EE11_M_allocateEj$w$pVQE5dCWRM5w0YYj1
0001:000540e2  __ZNSt14__simple_allocIN6Xapian8Internal9RefCntPtrINS0_8Database8InternalEEESt24__default_alloc_templateILb1ELi0EEE8allocateEj$w$pVQE5dCWRM5w0YYj1
0001:00055776  __ZNSt8iteratorISt26random_access_iterator_tagN6Xapian8Internal9RefCntPtrINS1_8Database8InternalEEEiPS6_RS6_EC2Ev$w$pVQE5dCWRM5w0YYj1
0001:0005417c  __ZNK9__gnu_cxx17__normal_iteratorIPN6Xapian8Internal9RefCntPtrINS1_8Database8InternalEEESt6vectorIS6_SaIS6_EEE4baseEv$w$pVQE5dCWRM5w0YYj1
0001:000541c0  __ZNSt12_Vector_baseIP12LeafPostListSaIS1_EEC2ERKS2_$w$pVQE5dCWRM5w0YYj1
0001:000541da  __ZNSt18_Vector_alloc_baseIP12LeafPostListSaIS1_ELb1EEC2ERKS2_$w$pVQE5dCWRM5w0YYj1
0001:0005422c  __ZNSt18_Vector_alloc_baseIP12LeafPostListSaIS1_ELb1EE13_M_deallocateEPS1_j$w$pVQE5dCWRM5w0YYj1
0001:00054246  __ZNSt14__simple_allocIP12LeafPostListSt24__default_alloc_templateILb1ELi0EEE10deallocateEPS1_j$w$pVQE5dCWRM5w0YYj1
0001:000542b2  __ZN9__gnu_cxxeqIPKN6Xapian8Internal9RefCntPtrINS1_8Database8InternalEEESt6vectorIS6_SaIS6_EEEEbRKNS_17__normal_iteratorIT_T0_EESH_$w$pVQE5dCWRM5w0YYj1
0001:000543b0  __ZNK9__gnu_cxx17__normal_iteratorIPN6Xapian8Internal9RefCntPtrINS1_8Database8InternalEEESt6vectorIS6_SaIS6_EEEplERKi$w$pVQE5dCWRM5w0YYj1
0001:00055590* __ZnwjPv$w$pVQE5dCWRM5w0YYj1
0001:00054418  __ZN6Xapian8Internal9RefCntPtrINS_8Database8InternalEEC1ERKS4_$w$pVQE5dCWRM5w0YYj1
0001:000552c0  __ZSt13copy_backwardIN9__gnu_cxx17__normal_iteratorIPN6Xapian8Internal9RefCntPtrINS2_8Database8InternalEEESt6vectorIS7_SaIS7_EEEESC_ET0_T_SE_SD_$w$pVQE5dCWRM5w0YYj1
0001:000548c2  __ZN6Xapian8Internal9RefCntPtrINS_8Database8InternalEEaSERKS4_$w$pVQE5dCWRM5w0YYj1
0001:000552ec  __ZSt18uninitialized_copyIN9__gnu_cxx17__normal_iteratorIPN6Xapian8Internal9RefCntPtrINS2_8Database8InternalEEESt6vectorIS7_SaIS7_EEEESC_ET0_T_SE_SD_$w$pVQE5dCWRM5w0YYj1
0001:00054796  __ZSt8_DestroyIN6Xapian8Internal9RefCntPtrINS0_8Database8InternalEEEEvPT_$w$pVQE5dCWRM5w0YYj1
0001:000547f4  __ZSt10__copy_ni2IPKN6Xapian8Internal9RefCntPtrINS0_8Database8InternalEEEN9__gnu_cxx17__normal_iteratorIPS5_St6vectorIS5_SaIS5_EEEEET0_T_SG_SF_11__true_type$w$pVQE5dCWRM5w0YYj1
0001:0005483c  __ZSt11__copy_aux2IPKN6Xapian8Internal9RefCntPtrINS0_8Database8InternalEEEPS5_ET0_T_SA_S9_12__false_type$w$pVQE5dCWRM5w0YYj1
0001:00054870  __ZSt19__iterator_categoryIPKN6Xapian8Internal9RefCntPtrINS0_8Database8InternalEEEENSt15iterator_traitsIT_E17iterator_categoryERKS9_$w$pVQE5dCWRM5w0YYj1
0001:0005487c  __ZSt6__copyIPKN6Xapian8Internal9RefCntPtrINS0_8Database8InternalEEEPS5_ET0_T_SA_S9_St26random_access_iterator_tag$w$pVQE5dCWRM5w0YYj1
0001:0005577c  __ZN6Xapian8Internal9RefCntPtrINS_8Database8InternalEEaSEPS3_$w$pVQE5dCWRM5w0YYj1
0001:00054964  __ZSt10__copy_ni2IPKN6Xapian8Internal9RefCntPtrINS0_8Database8InternalEEEPS5_ET0_T_SA_S9_12__false_type$w$pVQE5dCWRM5w0YYj1
0001:000557e0  __ZSt13copy_backwardIN9__gnu_cxx17__normal_iteratorIPP12LeafPostListSt6vectorIS3_SaIS3_EEEES8_ET0_T_SA_S9_$w$pVQE5dCWRM5w0YYj1
0001:00055912  __ZNKSt6vectorIP12LeafPostListSaIS1_EE4sizeEv$w$pVQE5dCWRM5w0YYj1
0001:000559ee  __ZNSt18_Vector_alloc_baseIP12LeafPostListSaIS1_ELb1EE11_M_allocateEj$w$pVQE5dCWRM5w0YYj1
0001:0005531e  __ZSt18uninitialized_copyIN9__gnu_cxx17__normal_iteratorIPP12LeafPostListSt6vectorIS3_SaIS3_EEEES8_ET0_T_SA_S9_$w$pVQE5dCWRM5w0YYj1
0001:0005534a  __ZN9__gnu_cxx17__normal_iteratorIPP12LeafPostListSt6vectorIS2_SaIS2_EEEppEv$w$pVQE5dCWRM5w0YYj1
0001:00055358  __ZSt8_DestroyIN9__gnu_cxx17__normal_iteratorIPP12LeafPostListSt6vectorIS3_SaIS3_EEEEEvT_S9_$w$pVQE5dCWRM5w0YYj1
0001:00054c6a  __ZNSt18_Vector_alloc_baseIPN6Xapian12TermIterator8InternalESaIS3_ELb1EEC2ERKS4_$w$pVQE5dCWRM5w0YYj1
0001:00054cbc  __ZNSt18_Vector_alloc_baseIPN6Xapian12TermIterator8InternalESaIS3_ELb1EE13_M_deallocateEPS3_j$w$pVQE5dCWRM5w0YYj1
0001:00054cd6  __ZNSt14__simple_allocIPN6Xapian12TermIterator8InternalESt24__default_alloc_templateILb1ELi0EEE10deallocateEPS3_j$w$pVQE5dCWRM5w0YYj1
0001:00054d4c  __ZN9__gnu_cxx17__normal_iteratorIPPN6Xapian12TermIterator8InternalESt6vectorIS4_SaIS4_EEEC1ERKS5_$w$pVQE5dCWRM5w0YYj1
0001:00055a30  __ZNSt8iteratorISt26random_access_iterator_tagPN6Xapian12TermIterator8InternalEiPS4_RS4_EC2Ev$w$pVQE5dCWRM5w0YYj1
0001:00055a36  __ZSt13copy_backwardIN9__gnu_cxx17__normal_iteratorIPPN6Xapian12TermIterator8InternalESt6vectorIS5_SaIS5_EEEESA_ET0_T_SC_SB_$w$pVQE5dCWRM5w0YYj1
0001:00055b70  __ZNK9__gnu_cxx17__normal_iteratorIPPN6Xapian12TermIterator8InternalESt6vectorIS4_SaIS4_EEEdeEv$w$pVQE5dCWRM5w0YYj1
0001:00055b7a  __ZNKSt6vectorIPN6Xapian12TermIterator8InternalESaIS3_EE4sizeEv$w$pVQE5dCWRM5w0YYj1
0001:00055c56  __ZNSt18_Vector_alloc_baseIPN6Xapian12TermIterator8InternalESaIS3_ELb1EE11_M_allocateEj$w$pVQE5dCWRM5w0YYj1
0001:0005537e  __ZSt18uninitialized_copyIN9__gnu_cxx17__normal_iteratorIPPN6Xapian12TermIterator8InternalESt6vectorIS5_SaIS5_EEEESA_ET0_T_SC_SB_$w$pVQE5dCWRM5w0YYj1
0001:00055aac  __ZNK9__gnu_cxx17__normal_iteratorIPPN6Xapian12TermIterator8InternalESt6vectorIS4_SaIS4_EEE4baseEv$w$pVQE5dCWRM5w0YYj1
0001:000553aa  __ZN9__gnu_cxx17__normal_iteratorIPPN6Xapian12TermIterator8InternalESt6vectorIS4_SaIS4_EEEppEv$w$pVQE5dCWRM5w0YYj1
0001:000553d8  __ZNSt6vectorIPN6Xapian12TermIterator8InternalESaIS3_EE5beginEv$w$pVQE5dCWRM5w0YYj1
0001:000553b8  __ZSt8_DestroyIN9__gnu_cxx17__normal_iteratorIPPN6Xapian12TermIterator8InternalESt6vectorIS5_SaIS5_EEEEEvT_SB_$w$pVQE5dCWRM5w0YYj1
0001:00054fc0  __ZNSt18_Vector_alloc_baseIjSaIjELb1EEC2ERKS0_$w$pVQE5dCWRM5w0YYj1
0001:00055012  __ZNSt18_Vector_alloc_baseIjSaIjELb1EE13_M_deallocateEPjj$w$pVQE5dCWRM5w0YYj1
0001:0005502c  __ZNSt14__simple_allocIjSt24__default_alloc_templateILb1ELi0EEE10deallocateEPjj$w$pVQE5dCWRM5w0YYj1
0001:000550dc  __ZNSt6vectorIjSaIjEE13_M_assign_auxIN6Xapian12Utf8IteratorEEEvT_S5_St18input_iterator_tag$w$pVQE5dCWRM5w0YYj1
0001:000550b4  __ZN9__gnu_cxx17__normal_iteratorIPjSt6vectorIjSaIjEEEC1ERKS1_$w$pVQE5dCWRM5w0YYj1
0001:00055c98  __ZNSt8iteratorISt26random_access_iterator_tagjiPjRjEC2Ev$w$pVQE5dCWRM5w0YYj1
0001:000556ce  __ZNK6Xapian12Utf8IteratorneERKS0_$w$pVQE5dCWRM5w0YYj1
0001:00055c9e  __ZNSt6vectorIjSaIjEE3endEv$w$pVQE5dCWRM5w0YYj1
0001:00055cbe  __ZN9__gnu_cxxneIPjSt6vectorIjSaIjEEEEbRKNS_17__normal_iteratorIT_T0_EESA_$w$pVQE5dCWRM5w0YYj1
0001:00055cf8  __ZN9__gnu_cxx17__normal_iteratorIPjSt6vectorIjSaIjEEEppEv$w$pVQE5dCWRM5w0YYj1
0001:00055668  __ZN6Xapian12Utf8IteratorppEv$w$pVQE5dCWRM5w0YYj1
0001:000556b8  __ZNK6Xapian12Utf8IteratoreqERKS0_$w$pVQE5dCWRM5w0YYj1
0001:000553fc  __ZNSt6vectorIjSaIjEE5eraseEN9__gnu_cxx17__normal_iteratorIPjS1_EES5_$w$pVQE5dCWRM5w0YYj1
0001:00055484  __ZNSt6vectorIjSaIjEE6insertIN6Xapian12Utf8IteratorEEEvN9__gnu_cxx17__normal_iteratorIPjS1_EET_S9_$w$pVQE5dCWRM5w0YYj1
0001:00055214  __ZN9__gnu_cxx17__normal_iteratorIPKjSt6vectorIjSaIjEEEC1ERKS2_$w$pVQE5dCWRM5w0YYj1
0001:00055d06  __ZNSt8iteratorISt26random_access_iterator_tagjiPKjRS1_EC2Ev$w$pVQE5dCWRM5w0YYj1
0001:00055286  __ZNK9__gnu_cxx17__normal_iteratorIPKjSt6vectorIjSaIjEEE4baseEv$w$pVQE5dCWRM5w0YYj1
0001:00055d0c  __ZSt37__copy_backward_input_normal_iteratorIN9__gnu_cxx17__normal_iteratorIPN6Xapian8Internal9RefCntPtrINS2_8Database8InternalEEESt6vectorIS7_SaIS7_EEEESC_ET0_T_SE_SD_11__true_type$w$pVQE5dCWRM5w0YYj1
0001:00055e44  __ZSt24__uninitialized_copy_auxIN9__gnu_cxx17__normal_iteratorIPN6Xapian8Internal9RefCntPtrINS2_8Database8InternalEEESt6vectorIS7_SaIS7_EEEESC_ET0_T_SE_SD_12__false_type$w$pVQE5dCWRM5w0YYj1
0001:00055eae  __ZSt24__uninitialized_copy_auxIN9__gnu_cxx17__normal_iteratorIPP12LeafPostListSt6vectorIS3_SaIS3_EEEES8_ET0_T_SA_S9_11__true_type$w$pVQE5dCWRM5w0YYj1
0001:00055fe8  __ZSt13__destroy_auxIN9__gnu_cxx17__normal_iteratorIPP12LeafPostListSt6vectorIS3_SaIS3_EEEEEvT_S9_11__true_type$w$pVQE5dCWRM5w0YYj1
0001:00055fee  __ZSt24__uninitialized_copy_auxIN9__gnu_cxx17__normal_iteratorIPPN6Xapian12TermIterator8InternalESt6vectorIS5_SaIS5_EEEESA_ET0_T_SC_SB_11__true_type$w$pVQE5dCWRM5w0YYj1
0001:00056128  __ZSt13__destroy_auxIN9__gnu_cxx17__normal_iteratorIPPN6Xapian12TermIterator8InternalESt6vectorIS5_SaIS5_EEEEEvT_SB_11__true_type$w$pVQE5dCWRM5w0YYj1
0001:0005612e  __ZSt4copyIN9__gnu_cxx17__normal_iteratorIPjSt6vectorIjSaIjEEEES6_ET0_T_S8_S7_$w$pVQE5dCWRM5w0YYj1
0001:00056240  __ZSt8_DestroyIN9__gnu_cxx17__normal_iteratorIPjSt6vectorIjSaIjEEEEEvT_S7_$w$pVQE5dCWRM5w0YYj1
0001:00056266  __ZN9__gnu_cxxmiIPjS1_St6vectorIjSaIjEEEENS_17__normal_iteratorIT_T1_E15difference_typeERKS8_RKNS5_IT0_S7_EE$w$pVQE5dCWRM5w0YYj1
0001:00056294  __ZNSt6vectorIjSaIjEE18_M_insert_dispatchIN6Xapian12Utf8IteratorEEEvN9__gnu_cxx17__normal_iteratorIPjS1_EET_S9_12__false_type$w$pVQE5dCWRM5w0YYj1
0001:0005555f  __ZTS12LeafPostList$w$pVQE5dCWRM5w0YYj1
0001:00056410  __ZTIN6Xapian15PostingIterator8InternalE$w$pVQE5dCWRM5w0YYj1
0001:0005554c  __ZTSN6Xapian8DatabaseE$w$pVQE5dCWRM5w0YYj1
0001:00055530  __ZTSN6Xapian16WritableDatabaseE$w$pVQE5dCWRM5w0YYj1
0001:00055510  __ZTSN6Xapian20InvalidArgumentErrorE$w$pVQE5dCWRM5w0YYj1
0001:0005643c  __ZTIN6Xapian10LogicErrorE$w$pVQE5dCWRM5w0YYj1
0001:0005558c* __ZNSt15basic_streambufIcSt11char_traitsIcEE13_S_pback_sizeE$w$pVQE5dCWRM5w0YYj1
0001:00056520  __ZN6Xapian5ErrorD2Ev$w$pVQE5dCWRM5w0YYj1
0001:00056550  __ZN6Xapian5ErrorC2ERKSsS2_PKci$w$pVQE5dCWRM5w0YYj1
0001:000564d0  __ZTVN6Xapian15PostingIterator8InternalE$w$pVQE5dCWRM5w0YYj1
0001:000565cc  __ZN6Xapian8Internal10RefCntBaseC2Ev$w$pVQE5dCWRM5w0YYj1
0001:0005580c  __ZSt37__copy_backward_input_normal_iteratorIN9__gnu_cxx17__normal_iteratorIPP12LeafPostListSt6vectorIS3_SaIS3_EEEES8_ET0_T_SA_S9_11__true_type$w$pVQE5dCWRM5w0YYj1
0001:00055856  __ZSt38__copy_backward_output_normal_iteratorIPP12LeafPostListN9__gnu_cxx17__normal_iteratorIS2_St6vectorIS1_SaIS1_EEEEET0_T_SA_S9_11__true_type$w$pVQE5dCWRM5w0YYj1
0001:0005589a  __ZSt19__copy_backward_auxIPP12LeafPostListS2_ET0_T_S4_S3_$w$pVQE5dCWRM5w0YYj1
0001:000558bc  __ZNSt24__copy_backward_dispatchIPP12LeafPostListS2_11__true_typeE4copyEPKS1_S6_S2_$w$pVQE5dCWRM5w0YYj1
0001:0005594e  __ZNKSt6vectorIP12LeafPostListSaIS1_EE5beginEv$w$pVQE5dCWRM5w0YYj1
0001:00055992  __ZNKSt6vectorIP12LeafPostListSaIS1_EE3endEv$w$pVQE5dCWRM5w0YYj1
0001:000559b8  __ZN9__gnu_cxxmiIPKP12LeafPostListS4_St6vectorIS2_SaIS2_EEEENS_17__normal_iteratorIT_T1_E15difference_typeERKSB_RKNS8_IT0_SA_EE$w$pVQE5dCWRM5w0YYj1
0001:00055974  __ZN9__gnu_cxx17__normal_iteratorIPKP12LeafPostListSt6vectorIS2_SaIS2_EEEC1ERKS4_$w$pVQE5dCWRM5w0YYj1
0001:0005662a  __ZNSt8iteratorISt26random_access_iterator_tagP12LeafPostListiPKS2_RS3_EC2Ev$w$pVQE5dCWRM5w0YYj1
0001:000559e6  __ZNK9__gnu_cxx17__normal_iteratorIPKP12LeafPostListSt6vectorIS2_SaIS2_EEE4baseEv$w$pVQE5dCWRM5w0YYj1
0001:00055a02  __ZNSt14__simple_allocIP12LeafPostListSt24__default_alloc_templateILb1ELi0EEE8allocateEj$w$pVQE5dCWRM5w0YYj1
0001:00055a62  __ZSt37__copy_backward_input_normal_iteratorIN9__gnu_cxx17__normal_iteratorIPPN6Xapian12TermIterator8InternalESt6vectorIS5_SaIS5_EEEESA_ET0_T_SC_SB_11__true_type$w$pVQE5dCWRM5w0YYj1
0001:00055ab4  __ZSt38__copy_backward_output_normal_iteratorIPPN6Xapian12TermIterator8InternalEN9__gnu_cxx17__normal_iteratorIS4_St6vectorIS3_SaIS3_EEEEET0_T_SC_SB_11__true_type$w$pVQE5dCWRM5w0YYj1
0001:00055af8  __ZSt19__copy_backward_auxIPPN6Xapian12TermIterator8InternalES4_ET0_T_S6_S5_$w$pVQE5dCWRM5w0YYj1
0001:00055b1a  __ZNSt24__copy_backward_dispatchIPPN6Xapian12TermIterator8InternalES4_11__true_typeE4copyEPKS3_S8_S4_$w$pVQE5dCWRM5w0YYj1
0001:00055bb6  __ZNKSt6vectorIPN6Xapian12TermIterator8InternalESaIS3_EE5beginEv$w$pVQE5dCWRM5w0YYj1
0001:00055bfa  __ZNKSt6vectorIPN6Xapian12TermIterator8InternalESaIS3_EE3endEv$w$pVQE5dCWRM5w0YYj1
0001:00055c20  __ZN9__gnu_cxxmiIPKPN6Xapian12TermIterator8InternalES6_St6vectorIS4_SaIS4_EEEENS_17__normal_iteratorIT_T1_E15difference_typeERKSD_RKNSA_IT0_SC_EE$w$pVQE5dCWRM5w0YYj1
0001:00055bdc  __ZN9__gnu_cxx17__normal_iteratorIPKPN6Xapian12TermIterator8InternalESt6vectorIS4_SaIS4_EEEC1ERKS6_$w$pVQE5dCWRM5w0YYj1
0001:00056630  __ZNSt8iteratorISt26random_access_iterator_tagPN6Xapian12TermIterator8InternalEiPKS4_RS5_EC2Ev$w$pVQE5dCWRM5w0YYj1
0001:00055c4e  __ZNK9__gnu_cxx17__normal_iteratorIPKPN6Xapian12TermIterator8InternalESt6vectorIS4_SaIS4_EEE4baseEv$w$pVQE5dCWRM5w0YYj1
0001:00055c6a  __ZNSt14__simple_allocIPN6Xapian12TermIterator8InternalESt24__default_alloc_templateILb1ELi0EEE8allocateEj$w$pVQE5dCWRM5w0YYj1
0001:00055cf0  __ZNK9__gnu_cxx17__normal_iteratorIPjSt6vectorIjSaIjEEE4baseEv$w$pVQE5dCWRM5w0YYj1
0001:00055d56  __ZSt38__copy_backward_output_normal_iteratorIPN6Xapian8Internal9RefCntPtrINS0_8Database8InternalEEEN9__gnu_cxx17__normal_iteratorIS6_St6vectorIS5_SaIS5_EEEEET0_T_SE_SD_11__true_type$w$pVQE5dCWRM5w0YYj1
0001:00055d9a  __ZSt19__copy_backward_auxIPN6Xapian8Internal9RefCntPtrINS0_8Database8InternalEEES6_ET0_T_S8_S7_$w$pVQE5dCWRM5w0YYj1
0001:00055dbc  __ZNSt24__copy_backward_dispatchIPN6Xapian8Internal9RefCntPtrINS0_8Database8InternalEEES6_12__false_typeE4copyES6_S6_S6_$w$pVQE5dCWRM5w0YYj1
0001:00055df0  __ZSt19__iterator_categoryIPN6Xapian8Internal9RefCntPtrINS0_8Database8InternalEEEENSt15iterator_traitsIT_E17iterator_categoryERKS8_$w$pVQE5dCWRM5w0YYj1
0001:00055dfc  __ZSt15__copy_backwardIPN6Xapian8Internal9RefCntPtrINS0_8Database8InternalEEES6_ET0_T_S8_S7_St26random_access_iterator_tag$w$pVQE5dCWRM5w0YYj1
0001:00055ed6  __ZSt4copyIN9__gnu_cxx17__normal_iteratorIPP12LeafPostListSt6vectorIS3_SaIS3_EEEES8_ET0_T_SA_S9_$w$pVQE5dCWRM5w0YYj1
0001:00055f02  __ZSt10__copy_ni1IN9__gnu_cxx17__normal_iteratorIPP12LeafPostListSt6vectorIS3_SaIS3_EEEES8_ET0_T_SA_S9_11__true_type$w$pVQE5dCWRM5w0YYj1
0001:00055f4c  __ZSt10__copy_ni2IPP12LeafPostListN9__gnu_cxx17__normal_iteratorIS2_St6vectorIS1_SaIS1_EEEEET0_T_SA_S9_11__true_type$w$pVQE5dCWRM5w0YYj1
0001:00055f94  __ZSt11__copy_aux2IP12LeafPostListEPT_S3_S3_S3_11__true_type$w$pVQE5dCWRM5w0YYj1
0001:00055fb6  __ZSt14__copy_trivialIP12LeafPostListEPT_PKS2_S5_S3_$w$pVQE5dCWRM5w0YYj1
0001:00056016  __ZSt4copyIN9__gnu_cxx17__normal_iteratorIPPN6Xapian12TermIterator8InternalESt6vectorIS5_SaIS5_EEEESA_ET0_T_SC_SB_$w$pVQE5dCWRM5w0YYj1
0001:00056042  __ZSt10__copy_ni1IN9__gnu_cxx17__normal_iteratorIPPN6Xapian12TermIterator8InternalESt6vectorIS5_SaIS5_EEEESA_ET0_T_SC_SB_11__true_type$w$pVQE5dCWRM5w0YYj1
0001:0005608c  __ZSt10__copy_ni2IPPN6Xapian12TermIterator8InternalEN9__gnu_cxx17__normal_iteratorIS4_St6vectorIS3_SaIS3_EEEEET0_T_SC_SB_11__true_type$w$pVQE5dCWRM5w0YYj1
0001:000560d4  __ZSt11__copy_aux2IPN6Xapian12TermIterator8InternalEEPT_S5_S5_S5_11__true_type$w$pVQE5dCWRM5w0YYj1
0001:000560f6  __ZSt14__copy_trivialIPN6Xapian12TermIterator8InternalEEPT_PKS4_S7_S5_$w$pVQE5dCWRM5w0YYj1
0001:0005615a  __ZSt10__copy_ni1IN9__gnu_cxx17__normal_iteratorIPjSt6vectorIjSaIjEEEES6_ET0_T_S8_S7_11__true_type$w$pVQE5dCWRM5w0YYj1
0001:000561a4  __ZSt10__copy_ni2IPjN9__gnu_cxx17__normal_iteratorIS0_St6vectorIjSaIjEEEEET0_T_S8_S7_11__true_type$w$pVQE5dCWRM5w0YYj1
0001:000561ec  __ZSt11__copy_aux2IjEPT_S1_S1_S1_11__true_type$w$pVQE5dCWRM5w0YYj1
0001:0005620e  __ZSt14__copy_trivialIjEPT_PKS0_S3_S1_$w$pVQE5dCWRM5w0YYj1
0001:00056260  __ZSt13__destroy_auxIN9__gnu_cxx17__normal_iteratorIPjSt6vectorIjSaIjEEEEEvT_S7_11__true_type$w$pVQE5dCWRM5w0YYj1
0001:000562de  __ZNSt6vectorIjSaIjEE15_M_range_insertIN6Xapian12Utf8IteratorEEEvN9__gnu_cxx17__normal_iteratorIPjS1_EET_S9_St18input_iterator_tag$w$pVQE5dCWRM5w0YYj1
0001:00056348  __ZNSt6vectorIjSaIjEE6insertEN9__gnu_cxx17__normal_iteratorIPjS1_EERKj$w$pVQE5dCWRM5w0YYj1
0001:00056636  __ZN9__gnu_cxxeqIPjSt6vectorIjSaIjEEEEbRKNS_17__normal_iteratorIT_T0_EESA_$w$pVQE5dCWRM5w0YYj1
0001:00056668  __ZSt10_ConstructIjjEvPT_RKT0_$w$pVQE5dCWRM5w0YYj1
0001:00056696  __ZNSt6vectorIjSaIjEE13_M_insert_auxEN9__gnu_cxx17__normal_iteratorIPjS1_EERKj$w$pVQE5dCWRM5w0YYj1
0001:00056490  __ZTSN6Xapian15PostingIterator8InternalE$w$pVQE5dCWRM5w0YYj1
0001:00056908  __ZTIN6Xapian8Internal10RefCntBaseE$w$pVQE5dCWRM5w0YYj1
0001:0005645e  __ZTSN6Xapian18UnimplementedErrorE$w$pVQE5dCWRM5w0YYj1
0001:00056448  __ZTSN6Xapian10LogicErrorE$w$pVQE5dCWRM5w0YYj1
0001:00056900* __ZTIN6Xapian5ErrorE$w$pVQE5dCWRM5w0YYj1
0001:000565da  __ZN6Xapian15PostingIterator8InternalD1Ev$w$pVQE5dCWRM5w0YYj1
0001:00056602  __ZN6Xapian15PostingIterator8InternalD0Ev$w$pVQE5dCWRM5w0YYj1
0001:00056940  __ZSt13copy_backwardIN9__gnu_cxx17__normal_iteratorIPjSt6vectorIjSaIjEEEES6_ET0_T_S8_S7_$w$pVQE5dCWRM5w0YYj1
0001:00056a72  __ZNSt18_Vector_alloc_baseIjSaIjELb1EE11_M_allocateEj$w$pVQE5dCWRM5w0YYj1
0001:000568d2  __ZSt18uninitialized_copyIN9__gnu_cxx17__normal_iteratorIPjSt6vectorIjSaIjEEEES6_ET0_T_S8_S7_$w$pVQE5dCWRM5w0YYj1
0001:00056ab4  __ZSt24__uninitialized_copy_auxIN9__gnu_cxx17__normal_iteratorIPjSt6vectorIjSaIjEEEES6_ET0_T_S8_S7_11__true_type$w$pVQE5dCWRM5w0YYj1
0001:0005692f* __ZTSN6Xapian5ErrorE$w$pVQE5dCWRM5w0YYj1
0001:00056910  __ZTSN6Xapian8Internal10RefCntBaseE$w$pVQE5dCWRM5w0YYj1
0001:0005696c  __ZSt37__copy_backward_input_normal_iteratorIN9__gnu_cxx17__normal_iteratorIPjSt6vectorIjSaIjEEEES6_ET0_T_S8_S7_11__true_type$w$pVQE5dCWRM5w0YYj1
0001:000569b6  __ZSt38__copy_backward_output_normal_iteratorIPjN9__gnu_cxx17__normal_iteratorIS0_St6vectorIjSaIjEEEEET0_T_S8_S7_11__true_type$w$pVQE5dCWRM5w0YYj1
0001:000569fa  __ZSt19__copy_backward_auxIPjS0_ET0_T_S2_S1_$w$pVQE5dCWRM5w0YYj1
0001:00056a1c  __ZNSt24__copy_backward_dispatchIPjS0_11__true_typeE4copyEPKjS4_S0_$w$pVQE5dCWRM5w0YYj1
0001:00056a86  __ZNSt14__simple_allocIjSt24__default_alloc_templateILb1ELi0EEE8allocateEj$w$pVQE5dCWRM5w0YYj1
0002:00038c70* __ZN16__Atomicity_lockILi0EE17_S_atomicity_lockE$w$pVQE5dCWRM5w0YYj1
Module: E:\rd\dse\xapian-core-1.0.2\.libs\xapian.lib(matcher\multimatch.cc)
0001:00056af0  __ZN10MultiMatchC2ERKN6Xapian8DatabaseEPKNS0_5Query8InternalEjRKNS0_4RSetEjidNS0_7Enquire11docid_orderEjNSB_8Internal12sort_settingEbPNS0_12ErrorHandlerEP13StatsGathererPKNS0_6WeightE
0001:0005744e  __ZN10MultiMatchC1ERKN6Xapian8DatabaseEPKNS0_5Query8InternalEjRKNS0_4RSetEjidNS0_7Enquire11docid_orderEjNSB_8Internal12sort_settingEbPNS0_12ErrorHandlerEP13StatsGathererPKNS0_6WeightE
0001:00057dac  __ZN10MultiMatch16get_collapse_keyEPN6Xapian15PostingIterator8InternalEjjRNS0_8Internal9RefCntPtrINS0_8Document8InternalEEE
0001:00057f00  __ZN10MultiMatch21getorrecalc_maxweightEPN6Xapian15PostingIterator8InternalE
0001:00057f50  __ZN10MultiMatch8get_msetEjjjRN6Xapian4MSetEPKNS0_12MatchDeciderES5_
0001:0005a59c  __ZN10MultiMatch16recalc_maxweightEv
0001:0005de3a  __ZN7AutoPtrI13StatsGathererEC1EPS0_$w$3EnlGvEXRM5n7K4N3
0001:0005a6b8  __ZNSaIN6Xapian8Internal9RefCntPtrI8SubMatchEEEC1Ev$w$3EnlGvEXRM5n7K4N3
0001:0005a6c4  __ZNSt6vectorIN6Xapian8Internal9RefCntPtrI8SubMatchEESaIS4_EEC1ERKS5_$w$3EnlGvEXRM5n7K4N3
0001:0005a6be  __ZNSaIN6Xapian8Internal9RefCntPtrI8SubMatchEEED1Ev$w$3EnlGvEXRM5n7K4N3
0001:0005dd5e* __ZNKSt6vectorIN6Xapian8Internal9RefCntPtrINS0_8Database8InternalEEESaIS5_EE4sizeEv$w$3EnlGvEXRM5n7K4N3
0001:0005a72e  __ZNSt6vectorIbSaIbEEC1Ej$w$3EnlGvEXRM5n7K4N3
0001:0005a7d0  __ZNSaIN6Xapian4RSetEEC1Ev$w$3EnlGvEXRM5n7K4N3
0001:0005a7dc  __ZNSt6vectorIN6Xapian4RSetESaIS1_EEC1ERKS2_$w$3EnlGvEXRM5n7K4N3
0001:0005a7d6  __ZNSaIN6Xapian4RSetEED1Ev$w$3EnlGvEXRM5n7K4N3
0001:0005a846  __ZNSt6vectorIN6Xapian4RSetESaIS1_EE9push_backERKS1_$w$3EnlGvEXRM5n7K4N3
0001:0005a8b2  __ZNSt6vectorIN6Xapian4RSetESaIS1_EE7reserveEj$w$3EnlGvEXRM5n7K4N3
0001:0005d922* __ZNK6Xapian8Internal9RefCntPtrINS_4RSet8InternalEEptEv$w$3EnlGvEXRM5n7K4N3
0001:0005d7a4* __ZNK6Xapian4RSet8Internal9get_itemsEv$w$3EnlGvEXRM5n7K4N3
0001:0005a996* __ZNSt17_Rb_tree_iteratorIjRKjPS0_EC1Ev$w$3EnlGvEXRM5n7K4N3
0001:0005a9aa* __ZNKSt3setIjSt4lessIjESaIjEE5beginEv$w$3EnlGvEXRM5n7K4N3
0001:0005a9c4* __ZNKSt3setIjSt4lessIjESaIjEE3endEv$w$3EnlGvEXRM5n7K4N3
0001:0005a9de* __ZStneIjRKjPS0_EbRKSt17_Rb_tree_iteratorIT_T0_T1_ES9_$w$3EnlGvEXRM5n7K4N3
0001:0005aa0a* __ZNKSt17_Rb_tree_iteratorIjRKjPS0_EdeEv$w$3EnlGvEXRM5n7K4N3
0001:0005aa18  __ZNSt6vectorIN6Xapian4RSetESaIS1_EEixEj$w$3EnlGvEXRM5n7K4N3
0001:0005a9f4* __ZNSt17_Rb_tree_iteratorIjRKjPS0_EppEv$w$3EnlGvEXRM5n7K4N3
0001:0005aa54* __ZNKSt6vectorIN6Xapian8Internal9RefCntPtrINS0_8Database8InternalEEESaIS5_EEixEj$w$3EnlGvEXRM5n7K4N3
0001:0005aa90  __ZNK6Xapian8Internal9RefCntPtrINS_8Database8InternalEE3getEv$w$3EnlGvEXRM5n7K4N3
0001:0005aa9a  __ZN6Xapian8Internal9RefCntPtrI8SubMatchEC1Ev$w$3EnlGvEXRM5n7K4N3
0001:0005aaf2  __ZNK7AutoPtrI13StatsGathererE3getEv$w$3EnlGvEXRM5n7K4N3
0001:0005aafc  __ZN6Xapian8Internal9RefCntPtrI8SubMatchEaSEPS2_$w$3EnlGvEXRM5n7K4N3
0001:0005d92c  __ZN13EmptySubMatchC1Ev$w$3EnlGvEXRM5n7K4N3
0001:0005ab80  __ZNSt6vectorIN6Xapian8Internal9RefCntPtrI8SubMatchEESaIS4_EE9push_backERKS4_$w$3EnlGvEXRM5n7K4N3
0001:0005aaa8* __ZN6Xapian8Internal9RefCntPtrI8SubMatchED1Ev$w$3EnlGvEXRM5n7K4N3
0001:0005abdc  __ZNK7AutoPtrI13StatsGathererEptEv$w$3EnlGvEXRM5n7K4N3
0001:0005abe6* __ZNSaIbEC1Ev$w$3EnlGvEXRM5n7K4N3
0001:0005abf2* __ZNSt6vectorIbSaIbEEC1ERKS0_$w$3EnlGvEXRM5n7K4N3
0001:0005abec* __ZNSaIbED1Ev$w$3EnlGvEXRM5n7K4N3
0001:0005ac0c  __ZNKSt6vectorIN6Xapian8Internal9RefCntPtrI8SubMatchEESaIS4_EE4sizeEv$w$3EnlGvEXRM5n7K4N3
0001:0005ac6e* __ZNSt6vectorIbSaIbEE6resizeEjb$w$3EnlGvEXRM5n7K4N3
0001:0005ad3e* __ZNSt6vectorIbSaIbEEixEj$w$3EnlGvEXRM5n7K4N3
0001:0005d2f4* __ZNKSt14_Bit_referencecvbEv$w$3EnlGvEXRM5n7K4N3
0001:0005adae  __ZNSt6vectorIN6Xapian8Internal9RefCntPtrI8SubMatchEESaIS4_EEixEj$w$3EnlGvEXRM5n7K4N3
0001:0005adea  __ZNK6Xapian8Internal9RefCntPtrI8SubMatchEptEv$w$3EnlGvEXRM5n7K4N3
0001:0005d31e* __ZNSt14_Bit_referenceaSEb$w$3EnlGvEXRM5n7K4N3
0001:0005a7bc* __ZNSt6vectorIbSaIbEED1Ev$w$3EnlGvEXRM5n7K4N3
0001:0005a7f6  __ZNSt6vectorIN6Xapian4RSetESaIS1_EED1Ev$w$3EnlGvEXRM5n7K4N3
0001:0005a6de* __ZNSt6vectorIN6Xapian8Internal9RefCntPtrI8SubMatchEESaIS4_EED1Ev$w$3EnlGvEXRM5n7K4N3
0001:0005de48* __ZN7AutoPtrI13StatsGathererED1Ev$w$3EnlGvEXRM5n7K4N3
0001:00061090* __ZTIN6Xapian5ErrorE$w$3EnlGvEXRM5n7K4N3
0001:0005adf4  __ZNK6Xapian8Internal9RefCntPtrINS_8Document8InternalEE3getEv$w$3EnlGvEXRM5n7K4N3
0001:0005adfe* __ZNK6Xapian8Internal9RefCntPtrINS_8Database8InternalEEptEv$w$3EnlGvEXRM5n7K4N3
0001:0005ae08* __ZN6Xapian8Internal9RefCntPtrINS_8Document8InternalEEC1EPS3_$w$3EnlGvEXRM5n7K4N3
0001:0005ae72* __ZN6Xapian8Internal9RefCntPtrINS_8Document8InternalEEaSERKS4_$w$3EnlGvEXRM5n7K4N3
0001:0005ae28* __ZN6Xapian8Internal9RefCntPtrINS_8Document8InternalEED1Ev$w$3EnlGvEXRM5n7K4N3
0001:0005ae8e* __ZNK6Xapian8Internal9RefCntPtrINS_8Document8InternalEEptEv$w$3EnlGvEXRM5n7K4N3
0001:0005ae98  __ZN9__gnu_cxx17__normal_iteratorIPN6Xapian8Internal9RefCntPtrI8SubMatchEESt6vectorIS5_SaIS5_EEEC1Ev$w$3EnlGvEXRM5n7K4N3
0001:0005ad86  __ZNSt6vectorIN6Xapian8Internal9RefCntPtrI8SubMatchEESaIS4_EE5beginEv$w$3EnlGvEXRM5n7K4N3
0001:0005ab60  __ZNSt6vectorIN6Xapian8Internal9RefCntPtrI8SubMatchEESaIS4_EE3endEv$w$3EnlGvEXRM5n7K4N3
0001:0005aeb4  __ZN9__gnu_cxxneIPN6Xapian8Internal9RefCntPtrI8SubMatchEESt6vectorIS5_SaIS5_EEEEbRKNS_17__normal_iteratorIT_T0_EESF_$w$3EnlGvEXRM5n7K4N3
0001:0005ada4  __ZNK9__gnu_cxx17__normal_iteratorIPN6Xapian8Internal9RefCntPtrI8SubMatchEESt6vectorIS5_SaIS5_EEEdeEv$w$3EnlGvEXRM5n7K4N3
0001:0005aef4  __ZN6Xapian8Internal9RefCntPtrI8SubMatchEC1EPS2_$w$3EnlGvEXRM5n7K4N3
0001:0005af14  __ZN6Xapian8Internal9RefCntPtrI8SubMatchEaSERKS3_$w$3EnlGvEXRM5n7K4N3
0001:0005aee6  __ZN9__gnu_cxx17__normal_iteratorIPN6Xapian8Internal9RefCntPtrI8SubMatchEESt6vectorIS5_SaIS5_EEEppEv$w$3EnlGvEXRM5n7K4N3
0001:0005af30* __ZNSaIPN6Xapian15PostingIterator8InternalEEC1Ev$w$3EnlGvEXRM5n7K4N3
0001:0005af3c* __ZNSt6vectorIPN6Xapian15PostingIterator8InternalESaIS3_EEC1ERKS4_$w$3EnlGvEXRM5n7K4N3
0001:0005af36* __ZNSaIPN6Xapian15PostingIterator8InternalEED1Ev$w$3EnlGvEXRM5n7K4N3
0001:0005a5a8* __ZNSt3mapISsN6Xapian4MSet8Internal17TermFreqAndWeightESt4lessISsESaISt4pairIKSsS3_EEEC1Ev$w$3EnlGvEXRM5n7K4N3
0001:0005afa6  __ZNKSt3mapISsN6Xapian4MSet8Internal17TermFreqAndWeightESt4lessISsESaISt4pairIKSsS3_EEE5emptyEv$w$3EnlGvEXRM5n7K4N3
0001:0005db50* __ZN13EmptyPostListC1Ev$w$3EnlGvEXRM5n7K4N3
0001:0005aff8* __ZNSt6vectorIPN6Xapian15PostingIterator8InternalESaIS3_EE9push_backERKS3_$w$3EnlGvEXRM5n7K4N3
0001:0005afbc* __ZNKSt6vectorIPN6Xapian15PostingIterator8InternalESaIS3_EE4sizeEv$w$3EnlGvEXRM5n7K4N3
0001:0005b054  __ZNSt6vectorIPN6Xapian15PostingIterator8InternalESaIS3_EE5frontEv$w$3EnlGvEXRM5n7K4N3
0001:0005b076* __ZNSt6vectorIPN6Xapian15PostingIterator8InternalESaIS3_EEC1ERKS5_$w$3EnlGvEXRM5n7K4N3
0001:0005af56* __ZNSt6vectorIPN6Xapian15PostingIterator8InternalESaIS3_EED1Ev$w$3EnlGvEXRM5n7K4N3
0001:0005a606* __ZNSaIN6Xapian8Internal8MSetItemEEC1Ev$w$3EnlGvEXRM5n7K4N3
0001:0005a612* __ZNSt6vectorIN6Xapian8Internal8MSetItemESaIS2_EEC1ERKS3_$w$3EnlGvEXRM5n7K4N3
0001:0005a60c* __ZNSaIN6Xapian8Internal8MSetItemEED1Ev$w$3EnlGvEXRM5n7K4N3
0001:0005d67c  __ZN6Xapian4MSet8InternalC1EjjjjddRKSt6vectorINS_8Internal8MSetItemESaIS4_EERKSt3mapISsNS1_17TermFreqAndWeightESt4lessISsESaISt4pairIKSsSA_EEEd$w$3EnlGvEXRM5n7K4N3
0001:0005a62c* __ZNSt6vectorIN6Xapian8Internal8MSetItemESaIS2_EED1Ev$w$3EnlGvEXRM5n7K4N3
0001:0005d558* __ZNSt3mapISsN6Xapian4MSet8Internal17TermFreqAndWeightESt4lessISsESaISt4pairIKSsS3_EEED1Ev$w$3EnlGvEXRM5n7K4N3
0001:0005b148  __ZNSt6vectorIN6Xapian8Internal8MSetItemESaIS2_EE7reserveEj$w$3EnlGvEXRM5n7K4N3
0001:0005d512  __ZN6Xapian8Internal8MSetItemC1Edj$w$3EnlGvEXRM5n7K4N3
0001:0005b234  __ZNSt3mapISsSt4pairIN6Xapian8Internal8MSetItemEdESt4lessISsESaIS0_IKSsS4_EEEC1Ev$w$3EnlGvEXRM5n7K4N3
0001:0005dd30  __ZN7MSetCmpC1EPFbRKN6Xapian8Internal8MSetItemES4_E$w$3EnlGvEXRM5n7K4N3
0001:0005dcb2* __Z19next_handling_pruneRPN6Xapian15PostingIterator8InternalEdP10MultiMatch$w$3EnlGvEXRM5n7K4N3
0001:0005dd3e  __ZNK7MSetCmpclERKN6Xapian8Internal8MSetItemES4_$w$3EnlGvEXRM5n7K4N3
0001:0005d4ee* __ZN6Xapian8Internal8MSetItemD1Ev$w$3EnlGvEXRM5n7K4N3
0001:0005b292  __ZN6Xapian8Internal9RefCntPtrINS_8Document8InternalEEC1Ev$w$3EnlGvEXRM5n7K4N3
0001:0005b2a0  __ZNSt17_Rb_tree_iteratorISt4pairIKSsS0_IN6Xapian8Internal8MSetItemEdEERS6_PS6_EC1Ev$w$3EnlGvEXRM5n7K4N3
0001:0005b2e8  __ZNSt3mapISsSt4pairIN6Xapian8Internal8MSetItemEdESt4lessISsESaIS0_IKSsS4_EEE4findERS7_$w$3EnlGvEXRM5n7K4N3
0001:0005b314  __ZNSt3mapISsSt4pairIN6Xapian8Internal8MSetItemEdESt4lessISsESaIS0_IKSsS4_EEE3endEv$w$3EnlGvEXRM5n7K4N3
0001:0005b2d2  __ZSteqISt4pairIKSsS0_IN6Xapian8Internal8MSetItemEdEERS6_PS6_EbRKSt17_Rb_tree_iteratorIT_T0_T1_ESF_$w$3EnlGvEXRM5n7K4N3
0001:0005d46a  __ZN6Xapian8Internal8MSetItemC1ERKS1_$w$3EnlGvEXRM5n7K4N3
0001:0005b33a  __ZSt9make_pairIN6Xapian8Internal8MSetItemEdESt4pairIT_T0_ES4_S5_$w$3EnlGvEXRM5n7K4N3
0001:0005b36a  __ZSt9make_pairISsSt4pairIN6Xapian8Internal8MSetItemEdEES0_IT_T0_ES5_S6_$w$3EnlGvEXRM5n7K4N3
0001:0005b394  __ZNSt4pairIKSsS_IN6Xapian8Internal8MSetItemEdEEC1ISsS4_EERKS_IT_T0_E$w$3EnlGvEXRM5n7K4N3
0001:0005b3ec  __ZNSt3mapISsSt4pairIN6Xapian8Internal8MSetItemEdESt4lessISsESaIS0_IKSsS4_EEE6insertERKS8_$w$3EnlGvEXRM5n7K4N3
0001:0005df8c  __ZNSt4pairIKSsS_IN6Xapian8Internal8MSetItemEdEED1Ev$w$3EnlGvEXRM5n7K4N3
0001:0005e01e  __ZNSt4pairISsS_IN6Xapian8Internal8MSetItemEdEED1Ev$w$3EnlGvEXRM5n7K4N3
0001:0005df78  __ZNSt4pairIN6Xapian8Internal8MSetItemEdED1Ev$w$3EnlGvEXRM5n7K4N3
0001:0005b418  __ZNKSt17_Rb_tree_iteratorISt4pairIKSsS0_IN6Xapian8Internal8MSetItemEdEERS6_PS6_EptEv$w$3EnlGvEXRM5n7K4N3
0001:0005b42c  __ZN9__gnu_cxx17__normal_iteratorIPN6Xapian8Internal8MSetItemESt6vectorIS3_SaIS3_EEEC1Ev$w$3EnlGvEXRM5n7K4N3
0001:0005b448* __ZNSt6vectorIN6Xapian8Internal8MSetItemESaIS2_EE5beginEv$w$3EnlGvEXRM5n7K4N3
0001:0005b466  __ZNSt6vectorIN6Xapian8Internal8MSetItemESaIS2_EE3endEv$w$3EnlGvEXRM5n7K4N3
0001:0005b486  __ZN9__gnu_cxxneIPN6Xapian8Internal8MSetItemESt6vectorIS3_SaIS3_EEEEbRKNS_17__normal_iteratorIT_T0_EESD_$w$3EnlGvEXRM5n7K4N3
0001:0005b4c6  __ZNK9__gnu_cxx17__normal_iteratorIPN6Xapian8Internal8MSetItemESt6vectorIS3_SaIS3_EEEptEv$w$3EnlGvEXRM5n7K4N3
0001:0005b4d0* __ZNK9__gnu_cxx17__normal_iteratorIPN6Xapian8Internal8MSetItemESt6vectorIS3_SaIS3_EEEdeEv$w$3EnlGvEXRM5n7K4N3
0001:0005d40c  __ZN6Xapian8Internal8MSetItemaSERKS1_$w$3EnlGvEXRM5n7K4N3
0001:0005b4b8  __ZN9__gnu_cxx17__normal_iteratorIPN6Xapian8Internal8MSetItemESt6vectorIS3_SaIS3_EEEppEv$w$3EnlGvEXRM5n7K4N3
0001:0005df28  __ZNSt4pairIN6Xapian8Internal8MSetItemEdEaSERKS3_$w$3EnlGvEXRM5n7K4N3
0001:0005a67c* __ZNKSt6vectorIN6Xapian8Internal8MSetItemESaIS2_EE4sizeEv$w$3EnlGvEXRM5n7K4N3
0001:0005b4da  __ZNSt6vectorIN6Xapian8Internal8MSetItemESaIS2_EE9push_backERKS2_$w$3EnlGvEXRM5n7K4N3
0001:0005b56a  __ZSt9make_heapIN9__gnu_cxx17__normal_iteratorIPN6Xapian8Internal8MSetItemESt6vectorIS4_SaIS4_EEEE7MSetCmpEvT_SB_T0_$w$3EnlGvEXRM5n7K4N3
0001:0005b654  __ZSt9push_heapIN9__gnu_cxx17__normal_iteratorIPN6Xapian8Internal8MSetItemESt6vectorIS4_SaIS4_EEEE7MSetCmpEvT_SB_T0_$w$3EnlGvEXRM5n7K4N3
0001:0005b6fe  __ZSt8pop_heapIN9__gnu_cxx17__normal_iteratorIPN6Xapian8Internal8MSetItemESt6vectorIS4_SaIS4_EEEE7MSetCmpEvT_SB_T0_$w$3EnlGvEXRM5n7K4N3
0001:0005b7cc  __ZNSt6vectorIN6Xapian8Internal8MSetItemESaIS2_EE8pop_backEv$w$3EnlGvEXRM5n7K4N3
0001:0005b7ea  __ZNSt6vectorIN6Xapian8Internal8MSetItemESaIS2_EE5frontEv$w$3EnlGvEXRM5n7K4N3
0001:0005b80c* __ZNKSt6vectorIN6Xapian8Internal8MSetItemESaIS2_EE5emptyEv$w$3EnlGvEXRM5n7K4N3
0001:0005b84a  __ZN9__gnu_cxx17__normal_iteratorIPKN6Xapian8Internal8MSetItemESt6vectorIS3_SaIS3_EEEC1Ev$w$3EnlGvEXRM5n7K4N3
0001:0005b866  __ZSt11min_elementIN9__gnu_cxx17__normal_iteratorIPN6Xapian8Internal8MSetItemESt6vectorIS4_SaIS4_EEEE7MSetCmpET_SB_SB_T0_$w$3EnlGvEXRM5n7K4N3
0001:0005b8f8  __ZN9__gnu_cxx17__normal_iteratorIPKN6Xapian8Internal8MSetItemESt6vectorIS3_SaIS3_EEEC1IPS3_EERKNS0_IT_S8_EE$w$3EnlGvEXRM5n7K4N3
0001:0005b922  __ZNKSt3mapISsN6Xapian4MSet8Internal17TermFreqAndWeightESt4lessISsESaISt4pairIKSsS3_EEE4sizeEv$w$3EnlGvEXRM5n7K4N3
0001:0005b936* __ZNSt17_Rb_tree_iteratorISt4pairIKSsN6Xapian4MSet8Internal17TermFreqAndWeightEERKS6_PS7_EC1Ev$w$3EnlGvEXRM5n7K4N3
0001:0005b94a* __ZNK9__gnu_cxx17__normal_iteratorIPKN6Xapian8Internal8MSetItemESt6vectorIS3_SaIS3_EEEptEv$w$3EnlGvEXRM5n7K4N3
0001:0005d3e8* __ZNK6Xapian8Database12termlist_endEj$w$3EnlGvEXRM5n7K4N3
0001:0005d166* __ZN6XapianneERKNS_12TermIteratorES2_$w$3EnlGvEXRM5n7K4N3
0001:0005b954* __ZNSt3mapISsN6Xapian4MSet8Internal17TermFreqAndWeightESt4lessISsESaISt4pairIKSsS3_EEE4findERS7_$w$3EnlGvEXRM5n7K4N3
0001:0005b980* __ZNSt17_Rb_tree_iteratorISt4pairIKSsN6Xapian4MSet8Internal17TermFreqAndWeightEERKS6_PS7_EC1ERKS_IS6_RS6_PS6_E$w$3EnlGvEXRM5n7K4N3
0001:0005b99e* __ZNSt3mapISsN6Xapian4MSet8Internal17TermFreqAndWeightESt4lessISsESaISt4pairIKSsS3_EEE3endEv$w$3EnlGvEXRM5n7K4N3
0001:0005b9c4  __ZStneISt4pairIKSsN6Xapian4MSet8Internal17TermFreqAndWeightEEEbRKSt17_Rb_tree_iteratorIT_RKS8_PS9_ERKS7_IS8_RS8_PS8_E$w$3EnlGvEXRM5n7K4N3
0001:0005b9da* __ZNKSt17_Rb_tree_iteratorISt4pairIKSsN6Xapian4MSet8Internal17TermFreqAndWeightEERKS6_PS7_EptEv$w$3EnlGvEXRM5n7K4N3
0001:0005b9ee  __ZNSt3mapISsN6Xapian4MSet8Internal17TermFreqAndWeightESt4lessISsESaISt4pairIKSsS3_EEE5beginEv$w$3EnlGvEXRM5n7K4N3
0001:0005ba14  __ZNSt17_Rb_tree_iteratorISt4pairIKSsN6Xapian4MSet8Internal17TermFreqAndWeightEERKS6_PS7_EppEv$w$3EnlGvEXRM5n7K4N3
0001:0005ac48* __ZSt3maxIjERKT_S2_S2_$w$3EnlGvEXRM5n7K4N3
0001:0005ba2a  __ZNKSt3mapISsSt4pairIN6Xapian8Internal8MSetItemEdESt4lessISsESaIS0_IKSsS4_EEE4sizeEv$w$3EnlGvEXRM5n7K4N3
0001:0005d140* __ZSt3minIjERKT_S2_S2_$w$3EnlGvEXRM5n7K4N3
0001:0005baca  __ZNSt6vectorIN6Xapian8Internal8MSetItemESaIS2_EE5clearEv$w$3EnlGvEXRM5n7K4N3
0001:0005b536* __ZNK9__gnu_cxx17__normal_iteratorIPN6Xapian8Internal8MSetItemESt6vectorIS3_SaIS3_EEEplERKi$w$3EnlGvEXRM5n7K4N3
0001:0005bb08  __ZSt11nth_elementIN9__gnu_cxx17__normal_iteratorIPN6Xapian8Internal8MSetItemESt6vectorIS4_SaIS4_EEEE7MSetCmpEvT_SB_SB_T0_$w$3EnlGvEXRM5n7K4N3
0001:0005ba3e  __ZNSt6vectorIN6Xapian8Internal8MSetItemESaIS2_EE5eraseEN9__gnu_cxx17__normal_iteratorIPS2_S4_EES8_$w$3EnlGvEXRM5n7K4N3
0001:0005bc6a  __ZSt4sortIN9__gnu_cxx17__normal_iteratorIPN6Xapian8Internal8MSetItemESt6vectorIS4_SaIS4_EEEE7MSetCmpEvT_SB_T0_$w$3EnlGvEXRM5n7K4N3
0001:0005bcdc  __ZNKSt3mapISsSt4pairIN6Xapian8Internal8MSetItemEdESt4lessISsESaIS0_IKSsS4_EEE5emptyEv$w$3EnlGvEXRM5n7K4N3
0001:0005b2b4  __ZNSt17_Rb_tree_iteratorISt4pairIKSsS0_IN6Xapian8Internal8MSetItemEdEERS6_PS6_EC1ERKS9_$w$3EnlGvEXRM5n7K4N3
0001:0005bcf2  __ZNSt3mapISsSt4pairIN6Xapian8Internal8MSetItemEdESt4lessISsESaIS0_IKSsS4_EEE5eraseESt17_Rb_tree_iteratorIS8_RS8_PS8_E$w$3EnlGvEXRM5n7K4N3
0001:0005de74  __ZNSt3mapISsSt4pairIN6Xapian8Internal8MSetItemEdESt4lessISsESaIS0_IKSsS4_EEED1Ev$w$3EnlGvEXRM5n7K4N3
0001:0005bd1e* __ZNSaISt4pairIKSsN6Xapian4MSet8Internal17TermFreqAndWeightEEEC1Ev$w$3EnlGvEXRM5n7K4N3
0001:0005e04c* __ZNSt8_Rb_treeISsSt4pairIKSsN6Xapian4MSet8Internal17TermFreqAndWeightEESt10_Select1stIS6_ESt4lessISsESaIS6_EEC1ERKSA_RKSB_$w$3EnlGvEXRM5n7K4N3
0001:0005bd24* __ZNSaISt4pairIKSsN6Xapian4MSet8Internal17TermFreqAndWeightEEED1Ev$w$3EnlGvEXRM5n7K4N3
0001:0005e1ce* __ZNSt12_Vector_baseIN6Xapian8Internal8MSetItemESaIS2_EEC2ERKS3_$w$3EnlGvEXRM5n7K4N3
0001:0005bd2a* __ZSt8_DestroyIPN6Xapian8Internal8MSetItemEEvT_S4_$w$3EnlGvEXRM5n7K4N3
0001:0005e20a* __ZNSt12_Vector_baseIN6Xapian8Internal8MSetItemESaIS2_EED2Ev$w$3EnlGvEXRM5n7K4N3
0001:0005e28c* __ZNKSt6vectorIN6Xapian8Internal8MSetItemESaIS2_EE5beginEv$w$3EnlGvEXRM5n7K4N3
0001:0005e2d0* __ZNKSt6vectorIN6Xapian8Internal8MSetItemESaIS2_EE3endEv$w$3EnlGvEXRM5n7K4N3
0001:0005e2f6* __ZN9__gnu_cxxmiIPKN6Xapian8Internal8MSetItemES5_St6vectorIS3_SaIS3_EEEENS_17__normal_iteratorIT_T1_E15difference_typeERKSC_RKNS9_IT0_SB_EE$w$3EnlGvEXRM5n7K4N3
0001:0005e376  __ZNSt12_Vector_baseIN6Xapian8Internal9RefCntPtrI8SubMatchEESaIS4_EEC2ERKS5_$w$3EnlGvEXRM5n7K4N3
0001:0005bd4a* __ZSt8_DestroyIPN6Xapian8Internal9RefCntPtrI8SubMatchEEEvT_S6_$w$3EnlGvEXRM5n7K4N3
0001:0005e3b2* __ZNSt12_Vector_baseIN6Xapian8Internal9RefCntPtrI8SubMatchEESaIS4_EED2Ev$w$3EnlGvEXRM5n7K4N3
0001:0005e424* __ZNSt13_Bvector_baseISaIbEEC2ERKS0_$w$3EnlGvEXRM5n7K4N3
0001:0005bd6a  __ZNSt6vectorIbSaIbEE13_M_initializeEj$w$3EnlGvEXRM5n7K4N3
0001:0005bdfa  __ZSt4fillIPmiEvT_S1_RKT0_$w$3EnlGvEXRM5n7K4N3
0001:0005e46a* __ZNSt13_Bvector_baseISaIbEED2Ev$w$3EnlGvEXRM5n7K4N3
0001:0005e4d8  __ZNSt12_Vector_baseIN6Xapian4RSetESaIS1_EEC2ERKS2_$w$3EnlGvEXRM5n7K4N3
0001:0005be1a  __ZSt8_DestroyIPN6Xapian4RSetEEvT_S3_$w$3EnlGvEXRM5n7K4N3
0001:0005e514  __ZNSt12_Vector_baseIN6Xapian4RSetESaIS1_EED2Ev$w$3EnlGvEXRM5n7K4N3
0001:0005e586  __ZSt10_ConstructIN6Xapian4RSetES1_EvPT_RKT0_$w$3EnlGvEXRM5n7K4N3
0001:0005be3a  __ZNSt6vectorIN6Xapian4RSetESaIS1_EE3endEv$w$3EnlGvEXRM5n7K4N3
0001:0005be5a  __ZNSt6vectorIN6Xapian4RSetESaIS1_EE13_M_insert_auxEN9__gnu_cxx17__normal_iteratorIPS1_S3_EERKS1_$w$3EnlGvEXRM5n7K4N3
0001:0005e602  __ZNKSt6vectorIN6Xapian4RSetESaIS1_EE8max_sizeEv$w$3EnlGvEXRM5n7K4N3
0001:0005c13a  __ZNKSt6vectorIN6Xapian4RSetESaIS1_EE8capacityEv$w$3EnlGvEXRM5n7K4N3
0001:0005c182  __ZNKSt6vectorIN6Xapian4RSetESaIS1_EE4sizeEv$w$3EnlGvEXRM5n7K4N3
0001:0005c1d2  __ZNSt6vectorIN6Xapian4RSetESaIS1_EE20_M_allocate_and_copyIPS1_EES5_jT_S6_$w$3EnlGvEXRM5n7K4N3
0001:0005e544  __ZNSt18_Vector_alloc_baseIN6Xapian4RSetESaIS1_ELb1EE13_M_deallocateEPS1_j$w$3EnlGvEXRM5n7K4N3
0001:0005d186* __ZNSt22_Rb_tree_base_iteratorC2Ev$w$3EnlGvEXRM5n7K4N3
0001:0005e60c* __ZNKSt8_Rb_treeIjjSt9_IdentityIjESt4lessIjESaIjEE5beginEv$w$3EnlGvEXRM5n7K4N3
0001:0005e650* __ZNKSt8_Rb_treeIjjSt9_IdentityIjESt4lessIjESaIjEE3endEv$w$3EnlGvEXRM5n7K4N3
0001:0005d18c* __ZNSt22_Rb_tree_base_iterator12_M_incrementEv$w$3EnlGvEXRM5n7K4N3
0001:0005e670  __ZNSt6vectorIN6Xapian4RSetESaIS1_EE5beginEv$w$3EnlGvEXRM5n7K4N3
0001:0005e6ac  __ZNK9__gnu_cxx17__normal_iteratorIPN6Xapian4RSetESt6vectorIS2_SaIS2_EEEplERKi$w$3EnlGvEXRM5n7K4N3
0001:0005e6de  __ZNK9__gnu_cxx17__normal_iteratorIPN6Xapian4RSetESt6vectorIS2_SaIS2_EEEdeEv$w$3EnlGvEXRM5n7K4N3
0001:0005dd9a* __ZNKSt6vectorIN6Xapian8Internal9RefCntPtrINS0_8Database8InternalEEESaIS5_EE5beginEv$w$3EnlGvEXRM5n7K4N3
0001:0005e6e8* __ZNK9__gnu_cxx17__normal_iteratorIPKN6Xapian8Internal9RefCntPtrINS1_8Database8InternalEEESt6vectorIS6_SaIS6_EEEplERKi$w$3EnlGvEXRM5n7K4N3
0001:0005e71a* __ZNK9__gnu_cxx17__normal_iteratorIPKN6Xapian8Internal9RefCntPtrINS1_8Database8InternalEEESt6vectorIS6_SaIS6_EEEdeEv$w$3EnlGvEXRM5n7K4N3
0001:0005e77c  __ZN9__gnu_cxx17__normal_iteratorIPN6Xapian8Internal9RefCntPtrI8SubMatchEESt6vectorIS5_SaIS5_EEEC1ERKS6_$w$3EnlGvEXRM5n7K4N3
0001:0005e724  __ZSt10_ConstructIN6Xapian8Internal9RefCntPtrI8SubMatchEES4_EvPT_RKT0_$w$3EnlGvEXRM5n7K4N3
0001:0005e7a2  __ZNSt6vectorIN6Xapian8Internal9RefCntPtrI8SubMatchEESaIS4_EE13_M_insert_auxEN9__gnu_cxx17__normal_iteratorIPS4_S6_EERKS4_$w$3EnlGvEXRM5n7K4N3
0001:0005ea84  __ZNKSt6vectorIN6Xapian8Internal9RefCntPtrI8SubMatchEESaIS4_EE5beginEv$w$3EnlGvEXRM5n7K4N3
0001:0005eac8  __ZNKSt6vectorIN6Xapian8Internal9RefCntPtrI8SubMatchEESaIS4_EE3endEv$w$3EnlGvEXRM5n7K4N3
0001:0005eaee  __ZN9__gnu_cxxmiIPKN6Xapian8Internal9RefCntPtrI8SubMatchEES7_St6vectorIS5_SaIS5_EEEENS_17__normal_iteratorIT_T1_E15difference_typeERKSE_RKNSB_IT0_SD_EE$w$3EnlGvEXRM5n7K4N3
0001:0005eb24* __ZNKSt6vectorIbSaIbEE4sizeEv$w$3EnlGvEXRM5n7K4N3
0001:0005ebb8* __ZNSt6vectorIbSaIbEE3endEv$w$3EnlGvEXRM5n7K4N3
0001:0005ebaa* __ZNSt6vectorIbSaIbEE5beginEv$w$3EnlGvEXRM5n7K4N3
0001:0005d3ba* __ZNKSt13_Bit_iteratorplEi$w$3EnlGvEXRM5n7K4N3
0001:0005ebc8* __ZNSt6vectorIbSaIbEE5eraseESt13_Bit_iteratorS2_$w$3EnlGvEXRM5n7K4N3
0001:0005eeba* __ZNSt6vectorIbSaIbEE6insertESt13_Bit_iteratorjb$w$3EnlGvEXRM5n7K4N3
0001:0005d384* __ZNKSt13_Bit_iteratordeEv$w$3EnlGvEXRM5n7K4N3
0001:0005f54a  __ZNK9__gnu_cxx17__normal_iteratorIPN6Xapian8Internal9RefCntPtrI8SubMatchEESt6vectorIS5_SaIS5_EEEplERKi$w$3EnlGvEXRM5n7K4N3
0001:0005f57c* __ZN6Xapian8Internal9RefCntPtrINS_8Document8InternalEEaSEPS3_$w$3EnlGvEXRM5n7K4N3
0001:0005de6e  __ZNSt8iteratorISt26random_access_iterator_tagN6Xapian8Internal9RefCntPtrI8SubMatchEEiPS5_RS5_EC2Ev$w$3EnlGvEXRM5n7K4N3
0001:0005e79a  __ZNK9__gnu_cxx17__normal_iteratorIPN6Xapian8Internal9RefCntPtrI8SubMatchEESt6vectorIS5_SaIS5_EEE4baseEv$w$3EnlGvEXRM5n7K4N3
0001:0005f5e0* __ZNSt12_Vector_baseIPN6Xapian15PostingIterator8InternalESaIS3_EEC2ERKS4_$w$3EnlGvEXRM5n7K4N3
0001:0005c25e* __ZSt8_DestroyIPPN6Xapian15PostingIterator8InternalEEvT_S5_$w$3EnlGvEXRM5n7K4N3
0001:0005f61c* __ZNSt12_Vector_baseIPN6Xapian15PostingIterator8InternalESaIS3_EED2Ev$w$3EnlGvEXRM5n7K4N3
0001:0005f68e  __ZNKSt8_Rb_treeISsSt4pairIKSsN6Xapian4MSet8Internal17TermFreqAndWeightEESt10_Select1stIS6_ESt4lessISsESaIS6_EE5emptyEv$w$3EnlGvEXRM5n7K4N3
0001:0005f716* __ZNKSt6vectorIPN6Xapian15PostingIterator8InternalESaIS3_EE5beginEv$w$3EnlGvEXRM5n7K4N3
0001:0005f75a* __ZNKSt6vectorIPN6Xapian15PostingIterator8InternalESaIS3_EE3endEv$w$3EnlGvEXRM5n7K4N3
0001:0005f780* __ZN9__gnu_cxxmiIPKPN6Xapian15PostingIterator8InternalES6_St6vectorIS4_SaIS4_EEEENS_17__normal_iteratorIT_T1_E15difference_typeERKSD_RKNSA_IT0_SC_EE$w$3EnlGvEXRM5n7K4N3
0001:0005f6a0* __ZSt10_ConstructIPN6Xapian15PostingIterator8InternalES3_EvPT_RKT0_$w$3EnlGvEXRM5n7K4N3
0001:0005f6ce* __ZNSt6vectorIPN6Xapian15PostingIterator8InternalESaIS3_EE3endEv$w$3EnlGvEXRM5n7K4N3
0001:0005f7d4* __ZNSt6vectorIPN6Xapian15PostingIterator8InternalESaIS3_EE13_M_insert_auxEN9__gnu_cxx17__normal_iteratorIPS3_S5_EERKS3_$w$3EnlGvEXRM5n7K4N3
0001:0005f7b6* __ZNSt6vectorIPN6Xapian15PostingIterator8InternalESaIS3_EE5beginEv$w$3EnlGvEXRM5n7K4N3
0001:0005f70c* __ZNK9__gnu_cxx17__normal_iteratorIPPN6Xapian15PostingIterator8InternalESt6vectorIS4_SaIS4_EEEdeEv$w$3EnlGvEXRM5n7K4N3
0001:0005fa10* __ZNKSt6vectorIPN6Xapian15PostingIterator8InternalESaIS3_EE13get_allocatorEv$w$3EnlGvEXRM5n7K4N3
0001:0005fa52* __ZNSt12_Vector_baseIPN6Xapian15PostingIterator8InternalESaIS3_EEC2EjRKS4_$w$3EnlGvEXRM5n7K4N3
0001:0005c27e* __ZSt18uninitialized_copyIN9__gnu_cxx17__normal_iteratorIPKPN6Xapian15PostingIterator8InternalESt6vectorIS5_SaIS5_EEEEPS5_ET0_T_SE_SD_$w$3EnlGvEXRM5n7K4N3
0001:0005faaa  __ZNKSt6vectorIN6Xapian8Internal8MSetItemESaIS2_EE8max_sizeEv$w$3EnlGvEXRM5n7K4N3
0001:0005c2a4  __ZNKSt6vectorIN6Xapian8Internal8MSetItemESaIS2_EE8capacityEv$w$3EnlGvEXRM5n7K4N3
0001:0005c2ec  __ZNSt6vectorIN6Xapian8Internal8MSetItemESaIS2_EE20_M_allocate_and_copyIPS2_EES6_jT_S7_$w$3EnlGvEXRM5n7K4N3
0001:0005e240* __ZNSt18_Vector_alloc_baseIN6Xapian8Internal8MSetItemESaIS2_ELb1EE13_M_deallocateEPS2_j$w$3EnlGvEXRM5n7K4N3
0001:0005c378  __ZNSaISt4pairIKSsS_IN6Xapian8Internal8MSetItemEdEEEC1Ev$w$3EnlGvEXRM5n7K4N3
0001:0005fab4  __ZNSt8_Rb_treeISsSt4pairIKSsS0_IN6Xapian8Internal8MSetItemEdEESt10_Select1stIS6_ESt4lessISsESaIS6_EEC1ERKSA_RKSB_$w$3EnlGvEXRM5n7K4N3
0001:0005c37e  __ZNSaISt4pairIKSsS_IN6Xapian8Internal8MSetItemEdEEED1Ev$w$3EnlGvEXRM5n7K4N3
0001:0005fc68  __ZNSt8_Rb_treeISsSt4pairIKSsS0_IN6Xapian8Internal8MSetItemEdEESt10_Select1stIS6_ESt4lessISsESaIS6_EE4findERS1_$w$3EnlGvEXRM5n7K4N3
0001:0005fc42  __ZNSt8_Rb_treeISsSt4pairIKSsS0_IN6Xapian8Internal8MSetItemEdEESt10_Select1stIS6_ESt4lessISsESaIS6_EE3endEv$w$3EnlGvEXRM5n7K4N3
0001:0005fd7a  __ZNSt4pairIN6Xapian8Internal8MSetItemEdEC1ERKS2_RKd$w$3EnlGvEXRM5n7K4N3
0001:0005fda0  __ZNSt4pairISsS_IN6Xapian8Internal8MSetItemEdEEC1ERKSsRKS3_$w$3EnlGvEXRM5n7K4N3
0001:0005df52  __ZNSt4pairIN6Xapian8Internal8MSetItemEdEC1ERKS3_$w$3EnlGvEXRM5n7K4N3
0001:0005fdf6  __ZNSt8_Rb_treeISsSt4pairIKSsS0_IN6Xapian8Internal8MSetItemEdEESt10_Select1stIS6_ESt4lessISsESaIS6_EE13insert_uniqueERKS6_$w$3EnlGvEXRM5n7K4N3
0001:0005ffd6  __ZNKSt17_Rb_tree_iteratorISt4pairIKSsS0_IN6Xapian8Internal8MSetItemEdEERS6_PS6_EdeEv$w$3EnlGvEXRM5n7K4N3
0001:0005e040* __ZNSt8iteratorISt26random_access_iterator_tagN6Xapian8Internal8MSetItemEiPS3_RS3_EC2Ev$w$3EnlGvEXRM5n7K4N3
0001:0005ffe4* __ZN9__gnu_cxx17__normal_iteratorIPN6Xapian8Internal8MSetItemESt6vectorIS3_SaIS3_EEEC1ERKS4_$w$3EnlGvEXRM5n7K4N3
0001:00060002  __ZNK9__gnu_cxx17__normal_iteratorIPN6Xapian8Internal8MSetItemESt6vectorIS3_SaIS3_EEE4baseEv$w$3EnlGvEXRM5n7K4N3
0001:0006000a  __ZSt10_ConstructIN6Xapian8Internal8MSetItemES2_EvPT_RKT0_$w$3EnlGvEXRM5n7K4N3
0001:0005c384  __ZNSt6vectorIN6Xapian8Internal8MSetItemESaIS2_EE13_M_insert_auxEN9__gnu_cxx17__normal_iteratorIPS2_S4_EERKS2_$w$3EnlGvEXRM5n7K4N3
0001:00060086  __ZN9__gnu_cxxmiIPN6Xapian8Internal8MSetItemES4_St6vectorIS3_SaIS3_EEEENS_17__normal_iteratorIT_T1_E15difference_typeERKSB_RKNS8_IT0_SA_EE$w$3EnlGvEXRM5n7K4N3
0001:0005c672  __ZSt13__adjust_heapIN9__gnu_cxx17__normal_iteratorIPN6Xapian8Internal8MSetItemESt6vectorIS4_SaIS4_EEEEiS4_7MSetCmpEvT_T0_SC_T1_T2_$w$3EnlGvEXRM5n7K4N3
0001:000600ba  __ZNK9__gnu_cxx17__normal_iteratorIPN6Xapian8Internal8MSetItemESt6vectorIS3_SaIS3_EEEmiERKi$w$3EnlGvEXRM5n7K4N3
0001:0005c83c  __ZSt11__push_heapIN9__gnu_cxx17__normal_iteratorIPN6Xapian8Internal8MSetItemESt6vectorIS4_SaIS4_EEEEiS4_7MSetCmpEvT_T0_SC_T1_T2_$w$3EnlGvEXRM5n7K4N3
0001:0005c946  __ZSt10__pop_heapIN9__gnu_cxx17__normal_iteratorIPN6Xapian8Internal8MSetItemESt6vectorIS4_SaIS4_EEEES4_7MSetCmpEvT_SB_SB_T0_T1_$w$3EnlGvEXRM5n7K4N3
0001:000600f4* __ZSt8_DestroyIN6Xapian8Internal8MSetItemEEvPT_$w$3EnlGvEXRM5n7K4N3
0001:00060108* __ZN9__gnu_cxxeqIPKN6Xapian8Internal8MSetItemESt6vectorIS3_SaIS3_EEEEbRKNS_17__normal_iteratorIT_T0_EESE_$w$3EnlGvEXRM5n7K4N3
0001:0005e046* __ZNSt8iteratorISt26random_access_iterator_tagN6Xapian8Internal8MSetItemEiPKS3_RS4_EC2Ev$w$3EnlGvEXRM5n7K4N3
0001:0006013a  __ZN9__gnu_cxxeqIPN6Xapian8Internal8MSetItemESt6vectorIS3_SaIS3_EEEEbRKNS_17__normal_iteratorIT_T0_EESD_$w$3EnlGvEXRM5n7K4N3
0001:0006016c  __ZNKSt8_Rb_treeISsSt4pairIKSsN6Xapian4MSet8Internal17TermFreqAndWeightEESt10_Select1stIS6_ESt4lessISsESaIS6_EE4sizeEv$w$3EnlGvEXRM5n7K4N3
0001:000601aa* __ZNSt8_Rb_treeISsSt4pairIKSsN6Xapian4MSet8Internal17TermFreqAndWeightEESt10_Select1stIS6_ESt4lessISsESaIS6_EE4findERS1_$w$3EnlGvEXRM5n7K4N3
0001:00060184* __ZNSt8_Rb_treeISsSt4pairIKSsN6Xapian4MSet8Internal17TermFreqAndWeightEESt10_Select1stIS6_ESt4lessISsESaIS6_EE3endEv$w$3EnlGvEXRM5n7K4N3
0001:000602bc* __ZNKSt17_Rb_tree_iteratorISt4pairIKSsN6Xapian4MSet8Internal17TermFreqAndWeightEERKS6_PS7_EdeEv$w$3EnlGvEXRM5n7K4N3
0001:000602ca* __ZNSt8_Rb_treeISsSt4pairIKSsN6Xapian4MSet8Internal17TermFreqAndWeightEESt10_Select1stIS6_ESt4lessISsESaIS6_EE5beginEv$w$3EnlGvEXRM5n7K4N3
0001:000602f8  __ZNKSt8_Rb_treeISsSt4pairIKSsS0_IN6Xapian8Internal8MSetItemEdEESt10_Select1stIS6_ESt4lessISsESaIS6_EE4sizeEv$w$3EnlGvEXRM5n7K4N3
0001:00060304  __ZSt4copyIN9__gnu_cxx17__normal_iteratorIPN6Xapian8Internal8MSetItemESt6vectorIS4_SaIS4_EEEES9_ET0_T_SB_SA_$w$3EnlGvEXRM5n7K4N3
0001:0005c9f0  __ZSt8_DestroyIN9__gnu_cxx17__normal_iteratorIPN6Xapian8Internal8MSetItemESt6vectorIS4_SaIS4_EEEEEvT_SA_$w$3EnlGvEXRM5n7K4N3
0001:0006044e  __ZSt8__medianIN6Xapian8Internal8MSetItemE7MSetCmpERKT_S6_S6_S6_T0_$w$3EnlGvEXRM5n7K4N3
0001:0005ca10  __ZSt21__unguarded_partitionIN9__gnu_cxx17__normal_iteratorIPN6Xapian8Internal8MSetItemESt6vectorIS4_SaIS4_EEEES4_7MSetCmpET_SB_SB_T0_T1_$w$3EnlGvEXRM5n7K4N3
0001:0005cace  __ZN9__gnu_cxxleIPN6Xapian8Internal8MSetItemESt6vectorIS3_SaIS3_EEEEbRKNS_17__normal_iteratorIT_T0_EESD_$w$3EnlGvEXRM5n7K4N3
0001:0005cb00  __ZSt16__insertion_sortIN9__gnu_cxx17__normal_iteratorIPN6Xapian8Internal8MSetItemESt6vectorIS4_SaIS4_EEEE7MSetCmpEvT_SB_T0_$w$3EnlGvEXRM5n7K4N3
0001:00060518* __ZSt4__lgIiET_S0_$w$3EnlGvEXRM5n7K4N3
0001:0006053e  __ZSt16__introsort_loopIN9__gnu_cxx17__normal_iteratorIPN6Xapian8Internal8MSetItemESt6vectorIS4_SaIS4_EEEEi7MSetCmpEvT_SB_T0_T1_$w$3EnlGvEXRM5n7K4N3
0001:0005ccb4  __ZSt22__final_insertion_sortIN9__gnu_cxx17__normal_iteratorIPN6Xapian8Internal8MSetItemESt6vectorIS4_SaIS4_EEEE7MSetCmpEvT_SB_T0_$w$3EnlGvEXRM5n7K4N3
0001:000606b8  __ZNKSt8_Rb_treeISsSt4pairIKSsS0_IN6Xapian8Internal8MSetItemEdEESt10_Select1stIS6_ESt4lessISsESaIS6_EE5emptyEv$w$3EnlGvEXRM5n7K4N3
0001:000606ca  __ZNSt8_Rb_treeISsSt4pairIKSsS0_IN6Xapian8Internal8MSetItemEdEESt10_Select1stIS6_ESt4lessISsESaIS6_EE5eraseESt17_Rb_tree_iteratorIS6_RS6_PS6_E$w$3EnlGvEXRM5n7K4N3
0001:00060770* __ZSt13__destroy_auxIPN6Xapian8Internal8MSetItemEEvT_S4_12__false_type$w$3EnlGvEXRM5n7K4N3
0001:00060794* __ZSt13__destroy_auxIPN6Xapian8Internal9RefCntPtrI8SubMatchEEEvT_S6_12__false_type$w$3EnlGvEXRM5n7K4N3
0001:0005f502* __ZNSt19_Bvector_alloc_baseISaIbELb1EE12_M_bit_allocEj$w$3EnlGvEXRM5n7K4N3
0001:0005d362* __ZNSt13_Bit_iteratorC1EPmj$w$3EnlGvEXRM5n7K4N3
0001:000607cc  __ZSt13__destroy_auxIPN6Xapian4RSetEEvT_S3_12__false_type$w$3EnlGvEXRM5n7K4N3
0001:0005e68e  __ZN9__gnu_cxx17__normal_iteratorIPN6Xapian4RSetESt6vectorIS2_SaIS2_EEEC1ERKS3_$w$3EnlGvEXRM5n7K4N3
0001:0005cd60  __ZSt13copy_backwardIN9__gnu_cxx17__normal_iteratorIPN6Xapian4RSetESt6vectorIS3_SaIS3_EEEES8_ET0_T_SA_S9_$w$3EnlGvEXRM5n7K4N3
0001:0005c1be  __ZNSt18_Vector_alloc_baseIN6Xapian4RSetESaIS1_ELb1EE11_M_allocateEj$w$3EnlGvEXRM5n7K4N3
0001:0005cd9a  __ZSt18uninitialized_copyIN9__gnu_cxx17__normal_iteratorIPN6Xapian4RSetESt6vectorIS3_SaIS3_EEEES8_ET0_T_SA_S9_$w$3EnlGvEXRM5n7K4N3
0001:0005cd58  __ZNK9__gnu_cxx17__normal_iteratorIPN6Xapian4RSetESt6vectorIS2_SaIS2_EEE4baseEv$w$3EnlGvEXRM5n7K4N3
0001:0005cd8c  __ZN9__gnu_cxx17__normal_iteratorIPN6Xapian4RSetESt6vectorIS2_SaIS2_EEEppEv$w$3EnlGvEXRM5n7K4N3
0001:0005cdc6  __ZSt8_DestroyIN9__gnu_cxx17__normal_iteratorIPN6Xapian4RSetESt6vectorIS3_SaIS3_EEEEEvT_S9_$w$3EnlGvEXRM5n7K4N3
0001:00060804  __ZNKSt6vectorIN6Xapian4RSetESaIS1_EE5beginEv$w$3EnlGvEXRM5n7K4N3
0001:0006082a  __ZN9__gnu_cxx17__normal_iteratorIPKN6Xapian4RSetESt6vectorIS2_SaIS2_EEEC1ERKS4_$w$3EnlGvEXRM5n7K4N3
0001:00060848  __ZN9__gnu_cxxmiIPKN6Xapian4RSetES4_St6vectorIS2_SaIS2_EEEENS_17__normal_iteratorIT_T1_E15difference_typeERKSB_RKNS8_IT0_SA_EE$w$3EnlGvEXRM5n7K4N3
0001:0006087e  __ZNKSt6vectorIN6Xapian4RSetESaIS1_EE3endEv$w$3EnlGvEXRM5n7K4N3
0001:000608a4  __ZNSt14__simple_allocIN6Xapian4RSetESt24__default_alloc_templateILb1ELi0EEE8allocateEj$w$3EnlGvEXRM5n7K4N3
0001:0005cde6  __ZSt18uninitialized_copyIPN6Xapian4RSetES2_ET0_T_S4_S3_$w$3EnlGvEXRM5n7K4N3
0001:000609ba* __ZSt13__destroy_auxIPPN6Xapian15PostingIterator8InternalEEvT_S5_11__true_type$w$3EnlGvEXRM5n7K4N3
0001:00060a1a* __ZSt24__uninitialized_copy_auxIN9__gnu_cxx17__normal_iteratorIPKPN6Xapian15PostingIterator8InternalESt6vectorIS5_SaIS5_EEEEPS5_ET0_T_SE_SD_11__true_type$w$3EnlGvEXRM5n7K4N3
0001:0005e2b2* __ZN9__gnu_cxx17__normal_iteratorIPKN6Xapian8Internal8MSetItemESt6vectorIS3_SaIS3_EEEC1ERKS5_$w$3EnlGvEXRM5n7K4N3
0001:0005e332  __ZNSt18_Vector_alloc_baseIN6Xapian8Internal8MSetItemESaIS2_ELb1EE11_M_allocateEj$w$3EnlGvEXRM5n7K4N3
0001:0005ce0c  __ZSt18uninitialized_copyIPN6Xapian8Internal8MSetItemES3_ET0_T_S5_S4_$w$3EnlGvEXRM5n7K4N3
0001:0005ce32  __ZSt13copy_backwardIN9__gnu_cxx17__normal_iteratorIPN6Xapian8Internal8MSetItemESt6vectorIS4_SaIS4_EEEES9_ET0_T_SB_SA_$w$3EnlGvEXRM5n7K4N3
0001:0005ce5e  __ZSt18uninitialized_copyIN9__gnu_cxx17__normal_iteratorIPN6Xapian8Internal8MSetItemESt6vectorIS4_SaIS4_EEEES9_ET0_T_SB_SA_$w$3EnlGvEXRM5n7K4N3
0001:00060b0c  __ZSt13__destroy_auxIN9__gnu_cxx17__normal_iteratorIPN6Xapian8Internal8MSetItemESt6vectorIS4_SaIS4_EEEEEvT_SA_12__false_type$w$3EnlGvEXRM5n7K4N3
0001:0005ce8a  __ZN9__gnu_cxx17__normal_iteratorIPN6Xapian8Internal8MSetItemESt6vectorIS3_SaIS3_EEEmmEv$w$3EnlGvEXRM5n7K4N3
0001:0005cc82  __ZN9__gnu_cxxltIPN6Xapian8Internal8MSetItemESt6vectorIS3_SaIS3_EEEEbRKNS_17__normal_iteratorIT_T0_EESD_$w$3EnlGvEXRM5n7K4N3
0001:0005ce98  __ZSt9iter_swapIN9__gnu_cxx17__normal_iteratorIPN6Xapian8Internal8MSetItemESt6vectorIS4_SaIS4_EEEES9_EvT_T0_$w$3EnlGvEXRM5n7K4N3
0001:0005cf2c  __ZSt25__unguarded_linear_insertIN9__gnu_cxx17__normal_iteratorIPN6Xapian8Internal8MSetItemESt6vectorIS4_SaIS4_EEEES4_7MSetCmpEvT_T0_T1_$w$3EnlGvEXRM5n7K4N3
0001:0005cfc2  __ZSt26__unguarded_insertion_sortIN9__gnu_cxx17__normal_iteratorIPN6Xapian8Internal8MSetItemESt6vectorIS4_SaIS4_EEEE7MSetCmpEvT_SB_T0_$w$3EnlGvEXRM5n7K4N3
0001:00060b4e  __ZSt37__copy_backward_input_normal_iteratorIN9__gnu_cxx17__normal_iteratorIPN6Xapian4RSetESt6vectorIS3_SaIS3_EEEES8_ET0_T_SA_S9_11__true_type$w$3EnlGvEXRM5n7K4N3
0001:00060c86  __ZSt24__uninitialized_copy_auxIN9__gnu_cxx17__normal_iteratorIPN6Xapian4RSetESt6vectorIS3_SaIS3_EEEES8_ET0_T_SA_S9_12__false_type$w$3EnlGvEXRM5n7K4N3
0001:00060d36  __ZSt13__destroy_auxIN9__gnu_cxx17__normal_iteratorIPN6Xapian4RSetESt6vectorIS3_SaIS3_EEEEEvT_S9_12__false_type$w$3EnlGvEXRM5n7K4N3
0001:00060d78  __ZSt24__uninitialized_copy_auxIPN6Xapian4RSetES2_ET0_T_S4_S3_12__false_type$w$3EnlGvEXRM5n7K4N3
0001:00060dfc  __ZSt24__uninitialized_copy_auxIPN6Xapian8Internal8MSetItemES3_ET0_T_S5_S4_12__false_type$w$3EnlGvEXRM5n7K4N3
0001:00060e80  __ZSt37__copy_backward_input_normal_iteratorIN9__gnu_cxx17__normal_iteratorIPN6Xapian8Internal8MSetItemESt6vectorIS4_SaIS4_EEEES9_ET0_T_SB_SA_11__true_type$w$3EnlGvEXRM5n7K4N3
0001:00060fb2  __ZSt24__uninitialized_copy_auxIN9__gnu_cxx17__normal_iteratorIPN6Xapian8Internal8MSetItemESt6vectorIS4_SaIS4_EEEES9_ET0_T_SB_SA_12__false_type$w$3EnlGvEXRM5n7K4N3
0001:0005d070* __ZTV13EmptyPostList$w$3EnlGvEXRM5n7K4N3
0001:00061078* __ZTI13EmptyPostList$w$3EnlGvEXRM5n7K4N3
0001:0005db6c* __ZN13EmptyPostListD1Ev$w$3EnlGvEXRM5n7K4N3
0001:0005dba0* __ZN13EmptyPostListD0Ev$w$3EnlGvEXRM5n7K4N3
0001:0005da56* __ZNK12LeafPostList16get_termfreq_minEv$w$3EnlGvEXRM5n7K4N3
0001:0005da70* __ZNK12LeafPostList16get_termfreq_estEv$w$3EnlGvEXRM5n7K4N3
0001:0005da3c* __ZNK12LeafPostList16get_termfreq_maxEv$w$3EnlGvEXRM5n7K4N3
0001:0005dbde* __ZNK13EmptyPostList13get_maxweightEv$w$3EnlGvEXRM5n7K4N3
0001:0005dbe6* __ZNK13EmptyPostList9get_docidEv$w$3EnlGvEXRM5n7K4N3
0001:0005dbf0* __ZNK13EmptyPostList10get_weightEv$w$3EnlGvEXRM5n7K4N3
0001:0005d7b0* __ZNK6Xapian15PostingIterator8Internal16get_collapse_keyEv$w$3EnlGvEXRM5n7K4N3
0001:0005dbf8* __ZNK13EmptyPostList13get_doclengthEv$w$3EnlGvEXRM5n7K4N3
0001:0005db3c* __ZN12LeafPostList16recalc_maxweightEv$w$3EnlGvEXRM5n7K4N3
0001:0005d7dc* __ZNK6Xapian15PostingIterator8Internal7get_wdfEv$w$3EnlGvEXRM5n7K4N3
0001:0005dc00* __ZN13EmptyPostList18read_position_listEv$w$3EnlGvEXRM5n7K4N3
0001:0005dc0a* __ZNK13EmptyPostList18open_position_listEv$w$3EnlGvEXRM5n7K4N3
0001:0005dc14* __ZN13EmptyPostList4nextEd$w$3EnlGvEXRM5n7K4N3
0001:0005dc28* __ZN13EmptyPostList7skip_toEjd$w$3EnlGvEXRM5n7K4N3
0001:0005dc3c* __ZNK13EmptyPostList6at_endEv$w$3EnlGvEXRM5n7K4N3
0001:0005dc4e* __ZNK13EmptyPostList15get_descriptionEv$w$3EnlGvEXRM5n7K4N3
0001:0005dbd4* __ZNK13EmptyPostList12get_termfreqEv$w$3EnlGvEXRM5n7K4N3
0001:0005da8a* __ZN12LeafPostList14set_termweightEPKN6Xapian6WeightE$w$3EnlGvEXRM5n7K4N3
0001:0005d0d0* __ZTV12LeafPostList$w$3EnlGvEXRM5n7K4N3
0001:0006106c* __ZTI12LeafPostList$w$3EnlGvEXRM5n7K4N3
0001:0005d948* __ZN12LeafPostListD1Ev$w$3EnlGvEXRM5n7K4N3
0001:0005d9c2* __ZN12LeafPostListD0Ev$w$3EnlGvEXRM5n7K4N3
0001:0005db1c* __ZNK12LeafPostList13get_maxweightEv$w$3EnlGvEXRM5n7K4N3
0001:0005dab8* __ZNK12LeafPostList10get_weightEv$w$3EnlGvEXRM5n7K4N3
0001:0005d128* __ZTV13StatsGatherer$w$3EnlGvEXRM5n7K4N3
0001:00061064* __ZTI13StatsGatherer$w$3EnlGvEXRM5n7K4N3
0001:0005d20a* __ZN13StatsGathererD1Ev$w$3EnlGvEXRM5n7K4N3
0001:0005d278* __ZN13StatsGathererD0Ev$w$3EnlGvEXRM5n7K4N3
0001:0005d2e6* __ZN13StatsGatherer16set_global_statsEj$w$3EnlGvEXRM5n7K4N3
0001:00061114* __ZN6XapianeqERKNS_12TermIteratorES2_$w$3EnlGvEXRM5n7K4N3
0001:0006169c* __ZN5StatsD1Ev$w$3EnlGvEXRM5n7K4N3
0001:000616ea* __ZNSt3setIPN6Xapian6Weight8InternalESt4lessIS3_ESaIS3_EED1Ev$w$3EnlGvEXRM5n7K4N3
0001:00061886* __ZNSt18_Bit_iterator_baseC2EPmj$w$3EnlGvEXRM5n7K4N3
0001:0006184a* __ZNSt14_Bit_referenceC1EPmm$w$3EnlGvEXRM5n7K4N3
0001:00061952* __ZNSt13_Bit_iteratorpLEi$w$3EnlGvEXRM5n7K4N3
0001:0005d56c* __ZNSt8_Rb_treeISsSt4pairIKSsN6Xapian4MSet8Internal17TermFreqAndWeightEESt10_Select1stIS6_ESt4lessISsESaIS6_EED1Ev$w$3EnlGvEXRM5n7K4N3
0001:0005d60c* __ZNSt8_Rb_treeISsSt4pairIKSsN6Xapian4MSet8Internal17TermFreqAndWeightEESt10_Select1stIS6_ESt4lessISsESaIS6_EE5clearEv$w$3EnlGvEXRM5n7K4N3
0001:0005d5b0* __ZNSt13_Rb_tree_baseISt4pairIKSsN6Xapian4MSet8Internal17TermFreqAndWeightEESaIS6_EED2Ev$w$3EnlGvEXRM5n7K4N3
0001:0005d5cc* __ZNSt19_Rb_tree_alloc_baseISt4pairIKSsN6Xapian4MSet8Internal17TermFreqAndWeightEESaIS6_ELb1EE11_M_put_nodeEPSt13_Rb_tree_nodeIS6_E$w$3EnlGvEXRM5n7K4N3
0001:0005d5e8* __ZNSt14__simple_allocISt13_Rb_tree_nodeISt4pairIKSsN6Xapian4MSet8Internal17TermFreqAndWeightEEESt24__default_alloc_templateILb1ELi0EEE10deallocateEPS8_j$w$3EnlGvEXRM5n7K4N3
0001:0005e14c* __ZNKSt8_Rb_treeISsSt4pairIKSsN6Xapian4MSet8Internal17TermFreqAndWeightEESt10_Select1stIS6_ESt4lessISsESaIS6_EE7_M_rootEv$w$3EnlGvEXRM5n7K4N3
0001:0005e15a* __ZNSt8_Rb_treeISsSt4pairIKSsN6Xapian4MSet8Internal17TermFreqAndWeightEESt10_Select1stIS6_ESt4lessISsESaIS6_EE8_M_eraseEPSt13_Rb_tree_nodeIS6_E$w$3EnlGvEXRM5n7K4N3
0001:0005e1b2* __ZNKSt8_Rb_treeISsSt4pairIKSsN6Xapian4MSet8Internal17TermFreqAndWeightEESt10_Select1stIS6_ESt4lessISsESaIS6_EE11_M_leftmostEv$w$3EnlGvEXRM5n7K4N3
0001:0005e1c0* __ZNKSt8_Rb_treeISsSt4pairIKSsN6Xapian4MSet8Internal17TermFreqAndWeightEESt10_Select1stIS6_ESt4lessISsESaIS6_EE12_M_rightmostEv$w$3EnlGvEXRM5n7K4N3
0001:00061106* __ZN6Xapian8Internal10RefCntBaseC2Ev$w$3EnlGvEXRM5n7K4N3
0001:000619e0* __ZNSt3setIjSt4lessIjESaIjEEC1Ev$w$3EnlGvEXRM5n7K4N3
0001:00061bfe* __ZNSt3mapIjN6Xapian8DocumentESt4lessIjESaISt4pairIKjS1_EEEC1Ev$w$3EnlGvEXRM5n7K4N3
0001:00061d72* __ZN6Xapian8Internal9RefCntPtrIKNS_7Enquire8InternalEEC1Ev$w$3EnlGvEXRM5n7K4N3
0001:00061dd0  __ZNSt3mapISsN6Xapian4MSet8Internal17TermFreqAndWeightESt4lessISsESaISt4pairIKSsS3_EEEC1ERKSA_$w$3EnlGvEXRM5n7K4N3
0001:00061dea  __ZNSt6vectorIN6Xapian8Internal8MSetItemESaIS2_EEC1ERKS4_$w$3EnlGvEXRM5n7K4N3
0001:00061d80* __ZN6Xapian8Internal9RefCntPtrIKNS_7Enquire8InternalEED1Ev$w$3EnlGvEXRM5n7K4N3
0001:000619cc* __ZNSt3mapIjN6Xapian8DocumentESt4lessIjESaISt4pairIKjS1_EEED1Ev$w$3EnlGvEXRM5n7K4N3
0001:000619b8* __ZNSt3setIjSt4lessIjESaIjEED1Ev$w$3EnlGvEXRM5n7K4N3
0001:0006116a* __ZN6Xapian18UnimplementedErrorC1ERKSsS2_i$w$3EnlGvEXRM5n7K4N3
0001:00061144* __ZN6Xapian18UnimplementedErrorD1Ev$w$3EnlGvEXRM5n7K4N3
0001:00063150* __ZTIN6Xapian18UnimplementedErrorE$w$3EnlGvEXRM5n7K4N3
0001:00061ee4* __ZN8SubMatchC2Ev$w$3EnlGvEXRM5n7K4N3
0001:00061ebc* __ZN6Xapian15PostingIterator8InternalD2Ev$w$3EnlGvEXRM5n7K4N3
0001:00061f04* __ZN12LeafPostListC2Ev$w$3EnlGvEXRM5n7K4N3
0001:00061f32* __ZN12LeafPostListD2Ev$w$3EnlGvEXRM5n7K4N3
0001:0005ddde* __ZNKSt6vectorIN6Xapian8Internal9RefCntPtrINS0_8Database8InternalEEESaIS5_EE3endEv$w$3EnlGvEXRM5n7K4N3
0001:0005de04* __ZN9__gnu_cxxmiIPKN6Xapian8Internal9RefCntPtrINS1_8Database8InternalEEES8_St6vectorIS6_SaIS6_EEEENS_17__normal_iteratorIT_T1_E15difference_typeERKSF_RKNSC_IT0_SE_EE$w$3EnlGvEXRM5n7K4N3
0001:0005ddc0* __ZN9__gnu_cxx17__normal_iteratorIPKN6Xapian8Internal9RefCntPtrINS1_8Database8InternalEEESt6vectorIS6_SaIS6_EEEC1ERKS8_$w$3EnlGvEXRM5n7K4N3
0001:00061fac* __ZNSt8iteratorISt26random_access_iterator_tagN6Xapian8Internal9RefCntPtrINS1_8Database8InternalEEEiPKS6_RS7_EC2Ev$w$3EnlGvEXRM5n7K4N3
0001:0005de32* __ZNK9__gnu_cxx17__normal_iteratorIPKN6Xapian8Internal9RefCntPtrINS1_8Database8InternalEEESt6vectorIS6_SaIS6_EEE4baseEv$w$3EnlGvEXRM5n7K4N3
0001:0005de88  __ZNSt8_Rb_treeISsSt4pairIKSsS0_IN6Xapian8Internal8MSetItemEdEESt10_Select1stIS6_ESt4lessISsESaIS6_EED1Ev$w$3EnlGvEXRM5n7K4N3
0001:0005dfae  __ZNSt8_Rb_treeISsSt4pairIKSsS0_IN6Xapian8Internal8MSetItemEdEESt10_Select1stIS6_ESt4lessISsESaIS6_EE5clearEv$w$3EnlGvEXRM5n7K4N3
0001:0005decc  __ZNSt13_Rb_tree_baseISt4pairIKSsS0_IN6Xapian8Internal8MSetItemEdEESaIS6_EED2Ev$w$3EnlGvEXRM5n7K4N3
0001:0005dee8  __ZNSt19_Rb_tree_alloc_baseISt4pairIKSsS0_IN6Xapian8Internal8MSetItemEdEESaIS6_ELb1EE11_M_put_nodeEPSt13_Rb_tree_nodeIS6_E$w$3EnlGvEXRM5n7K4N3
0001:0005df04  __ZNSt14__simple_allocISt13_Rb_tree_nodeISt4pairIKSsS1_IN6Xapian8Internal8MSetItemEdEEESt24__default_alloc_templateILb1ELi0EEE10deallocateEPS8_j$w$3EnlGvEXRM5n7K4N3
0001:0005fbb4  __ZNKSt8_Rb_treeISsSt4pairIKSsS0_IN6Xapian8Internal8MSetItemEdEESt10_Select1stIS6_ESt4lessISsESaIS6_EE7_M_rootEv$w$3EnlGvEXRM5n7K4N3
0001:0005fbc2  __ZNSt8_Rb_treeISsSt4pairIKSsS0_IN6Xapian8Internal8MSetItemEdEESt10_Select1stIS6_ESt4lessISsESaIS6_EE8_M_eraseEPSt13_Rb_tree_nodeIS6_E$w$3EnlGvEXRM5n7K4N3
0001:0005fc1a  __ZNKSt8_Rb_treeISsSt4pairIKSsS0_IN6Xapian8Internal8MSetItemEdEESt10_Select1stIS6_ESt4lessISsESaIS6_EE11_M_leftmostEv$w$3EnlGvEXRM5n7K4N3
0001:0005fc28  __ZNKSt8_Rb_treeISsSt4pairIKSsS0_IN6Xapian8Internal8MSetItemEdEESt10_Select1stIS6_ESt4lessISsESaIS6_EE12_M_rightmostEv$w$3EnlGvEXRM5n7K4N3
0001:0005e07c* __ZNSt13_Rb_tree_baseISt4pairIKSsN6Xapian4MSet8Internal17TermFreqAndWeightEESaIS6_EEC2ERKS7_$w$3EnlGvEXRM5n7K4N3
0001:0005e0f8* __ZNSt8_Rb_treeISsSt4pairIKSsN6Xapian4MSet8Internal17TermFreqAndWeightEESt10_Select1stIS6_ESt4lessISsESaIS6_EE19_M_empty_initializeEv$w$3EnlGvEXRM5n7K4N3
0001:0005e0ac* __ZNSt19_Rb_tree_alloc_baseISt4pairIKSsN6Xapian4MSet8Internal17TermFreqAndWeightEESaIS6_ELb1EEC2ERKS7_$w$3EnlGvEXRM5n7K4N3
0001:0005e0ba* __ZNSt19_Rb_tree_alloc_baseISt4pairIKSsN6Xapian4MSet8Internal17TermFreqAndWeightEESaIS6_ELb1EE11_M_get_nodeEv$w$3EnlGvEXRM5n7K4N3
0001:0005e0ce* __ZNSt14__simple_allocISt13_Rb_tree_nodeISt4pairIKSsN6Xapian4MSet8Internal17TermFreqAndWeightEEESt24__default_alloc_templateILb1ELi0EEE8allocateEj$w$3EnlGvEXRM5n7K4N3
0001:0005e284* __ZNSt8_Rb_treeISsSt4pairIKSsN6Xapian4MSet8Internal17TermFreqAndWeightEESt10_Select1stIS6_ESt4lessISsESaIS6_EE8_S_colorEPSt13_Rb_tree_nodeIS6_E$w$3EnlGvEXRM5n7K4N3
0001:00062252* __ZNSt8_Rb_treeISsSt4pairIKSsN6Xapian4MSet8Internal17TermFreqAndWeightEESt10_Select1stIS6_ESt4lessISsESaIS6_EE8_S_rightEPSt13_Rb_tree_nodeIS6_E$w$3EnlGvEXRM5n7K4N3
0001:00060178* __ZNSt8_Rb_treeISsSt4pairIKSsN6Xapian4MSet8Internal17TermFreqAndWeightEESt10_Select1stIS6_ESt4lessISsESaIS6_EE7_S_leftEPSt13_Rb_tree_nodeIS6_E$w$3EnlGvEXRM5n7K4N3
0001:00060748* __ZNSt8_Rb_treeISsSt4pairIKSsN6Xapian4MSet8Internal17TermFreqAndWeightEESt10_Select1stIS6_ESt4lessISsESaIS6_EE12destroy_nodeEPSt13_Rb_tree_nodeIS6_E$w$3EnlGvEXRM5n7K4N3
0001:0005e1e8* __ZNSt18_Vector_alloc_baseIN6Xapian8Internal8MSetItemESaIS2_ELb1EEC2ERKS3_$w$3EnlGvEXRM5n7K4N3
0001:0005e25a* __ZNSt14__simple_allocIN6Xapian8Internal8MSetItemESt24__default_alloc_templateILb1ELi0EEE10deallocateEPS2_j$w$3EnlGvEXRM5n7K4N3
0001:0005e32a* __ZNK9__gnu_cxx17__normal_iteratorIPKN6Xapian8Internal8MSetItemESt6vectorIS3_SaIS3_EEE4baseEv$w$3EnlGvEXRM5n7K4N3
0001:0005e346  __ZNSt14__simple_allocIN6Xapian8Internal8MSetItemESt24__default_alloc_templateILb1ELi0EEE8allocateEj$w$3EnlGvEXRM5n7K4N3
0001:0005e390  __ZNSt18_Vector_alloc_baseIN6Xapian8Internal9RefCntPtrI8SubMatchEESaIS4_ELb1EEC2ERKS5_$w$3EnlGvEXRM5n7K4N3
0001:0005e3e2* __ZNSt18_Vector_alloc_baseIN6Xapian8Internal9RefCntPtrI8SubMatchEESaIS4_ELb1EE13_M_deallocateEPS4_j$w$3EnlGvEXRM5n7K4N3
0001:0005e3fc* __ZNSt14__simple_allocIN6Xapian8Internal9RefCntPtrI8SubMatchEESt24__default_alloc_templateILb1ELi0EEE10deallocateEPS4_j$w$3EnlGvEXRM5n7K4N3
0001:0005e43e* __ZNSt19_Bvector_alloc_baseISaIbELb1EEC2ERKS0_$w$3EnlGvEXRM5n7K4N3
0001:00061902* __ZNSt13_Bit_iteratorC1Ev$w$3EnlGvEXRM5n7K4N3
0001:0005e47e* __ZNSt19_Bvector_alloc_baseISaIbELb1EE13_M_deallocateEv$w$3EnlGvEXRM5n7K4N3
0001:0005e4b0* __ZNSt14__simple_allocImSt24__default_alloc_templateILb1ELi0EEE10deallocateEPmj$w$3EnlGvEXRM5n7K4N3
0001:0005e4f2  __ZNSt18_Vector_alloc_baseIN6Xapian4RSetESaIS1_ELb1EEC2ERKS2_$w$3EnlGvEXRM5n7K4N3
0001:0005e55e  __ZNSt14__simple_allocIN6Xapian4RSetESt24__default_alloc_templateILb1ELi0EEE10deallocateEPS1_j$w$3EnlGvEXRM5n7K4N3
0001:000610f8* __ZnwjPv$w$3EnlGvEXRM5n7K4N3
0001:00061100* __ZdlPvS_$w$3EnlGvEXRM5n7K4N3
0001:0006204a* __ZNKSt8_Rb_treeIjjSt9_IdentityIjESt4lessIjESaIjEE11_M_leftmostEv$w$3EnlGvEXRM5n7K4N3
0001:0005e634* __ZNSt17_Rb_tree_iteratorIjRKjPS0_EC1EPSt13_Rb_tree_nodeIjE$w$3EnlGvEXRM5n7K4N3
0001:000624d0  __ZNSt8iteratorISt26random_access_iterator_tagN6Xapian4RSetEiPS2_RS2_EC2Ev$w$3EnlGvEXRM5n7K4N3
0001:0005e75a  __ZN6Xapian8Internal9RefCntPtrI8SubMatchEC1ERKS3_$w$3EnlGvEXRM5n7K4N3
0001:000608d2  __ZSt13copy_backwardIN9__gnu_cxx17__normal_iteratorIPN6Xapian8Internal9RefCntPtrI8SubMatchEESt6vectorIS6_SaIS6_EEEESB_ET0_T_SD_SC_$w$3EnlGvEXRM5n7K4N3
0001:000608fe  __ZNSt18_Vector_alloc_baseIN6Xapian8Internal9RefCntPtrI8SubMatchEESaIS4_ELb1EE11_M_allocateEj$w$3EnlGvEXRM5n7K4N3
0001:00060912  __ZSt18uninitialized_copyIN9__gnu_cxx17__normal_iteratorIPN6Xapian8Internal9RefCntPtrI8SubMatchEESt6vectorIS6_SaIS6_EEEESB_ET0_T_SD_SC_$w$3EnlGvEXRM5n7K4N3
0001:0006093e  __ZSt8_DestroyIN9__gnu_cxx17__normal_iteratorIPN6Xapian8Internal9RefCntPtrI8SubMatchEESt6vectorIS6_SaIS6_EEEEEvT_SC_$w$3EnlGvEXRM5n7K4N3
0001:0005eaaa  __ZN9__gnu_cxx17__normal_iteratorIPKN6Xapian8Internal9RefCntPtrI8SubMatchEESt6vectorIS5_SaIS5_EEEC1ERKS7_$w$3EnlGvEXRM5n7K4N3
0001:000624d6  __ZNSt8iteratorISt26random_access_iterator_tagN6Xapian8Internal9RefCntPtrI8SubMatchEEiPKS5_RS6_EC2Ev$w$3EnlGvEXRM5n7K4N3
0001:0005eb1c  __ZNK9__gnu_cxx17__normal_iteratorIPKN6Xapian8Internal9RefCntPtrI8SubMatchEESt6vectorIS5_SaIS5_EEE4baseEv$w$3EnlGvEXRM5n7K4N3
0001:0005eb66* __ZNKSt6vectorIbSaIbEE5beginEv$w$3EnlGvEXRM5n7K4N3
0001:0005eb86* __ZNKSt6vectorIbSaIbEE3endEv$w$3EnlGvEXRM5n7K4N3
0001:000618ca* __ZStmiRKSt18_Bit_iterator_baseS1_$w$3EnlGvEXRM5n7K4N3
0001:00061992* __ZNSt19_Bit_const_iteratorC1ERKSt13_Bit_iterator$w$3EnlGvEXRM5n7K4N3
0001:0005ec4a* __ZSt4copyISt13_Bit_iteratorS0_ET0_T_S2_S1_$w$3EnlGvEXRM5n7K4N3
0001:0005ecb6* __ZSt10__copy_ni1ISt13_Bit_iteratorS0_ET0_T_S2_S1_12__false_type$w$3EnlGvEXRM5n7K4N3
0001:0005ed22* __ZSt10__copy_ni2ISt13_Bit_iteratorS0_ET0_T_S2_S1_12__false_type$w$3EnlGvEXRM5n7K4N3
0001:0005ed8e* __ZSt11__copy_aux2ISt13_Bit_iteratorS0_ET0_T_S2_S1_11__true_type$w$3EnlGvEXRM5n7K4N3
0001:0005ee08* __ZSt19__iterator_categoryISt13_Bit_iteratorENSt15iterator_traitsIT_E17iterator_categoryERKS2_$w$3EnlGvEXRM5n7K4N3
0001:0005ee14* __ZSt6__copyISt13_Bit_iteratorS0_ET0_T_S2_S1_St26random_access_iterator_tag$w$3EnlGvEXRM5n7K4N3
0001:00061860* __ZNSt14_Bit_referenceaSERKS_$w$3EnlGvEXRM5n7K4N3
0001:00061926* __ZNSt13_Bit_iteratorppEv$w$3EnlGvEXRM5n7K4N3
0001:0005eefc* __ZNSt6vectorIbSaIbEE14_M_fill_insertESt13_Bit_iteratorjb$w$3EnlGvEXRM5n7K4N3
0001:0005f18a* __ZNKSt6vectorIbSaIbEE8capacityEv$w$3EnlGvEXRM5n7K4N3
0001:0005f1d8* __ZSt13copy_backwardISt13_Bit_iteratorS0_ET0_T_S2_S1_$w$3EnlGvEXRM5n7K4N3
0001:0005f496* __ZSt4fillISt13_Bit_iteratorbEvT_S1_RKT0_$w$3EnlGvEXRM5n7K4N3
0001:0006095e* __ZSt6fill_nISt13_Bit_iteratorjbET_S1_T0_RKT1_$w$3EnlGvEXRM5n7K4N3
0001:00061970* __ZNSt19_Bit_const_iteratorC1EPmj$w$3EnlGvEXRM5n7K4N3
0001:0005f244* __ZSt37__copy_backward_input_normal_iteratorISt13_Bit_iteratorS0_ET0_T_S2_S1_12__false_type$w$3EnlGvEXRM5n7K4N3
0001:0005f2b0* __ZSt38__copy_backward_output_normal_iteratorISt13_Bit_iteratorS0_ET0_T_S2_S1_12__false_type$w$3EnlGvEXRM5n7K4N3
0001:0005f316* __ZSt19__copy_backward_auxISt13_Bit_iteratorS0_ET0_T_S2_S1_$w$3EnlGvEXRM5n7K4N3
0001:0005f37c* __ZNSt24__copy_backward_dispatchISt13_Bit_iteratorS0_11__true_typeE4copyES0_S0_S0_$w$3EnlGvEXRM5n7K4N3
0001:0005f3f6* __ZSt15__copy_backwardISt13_Bit_iteratorS0_ET0_T_S2_S1_St26random_access_iterator_tag$w$3EnlGvEXRM5n7K4N3
0001:0006193c* __ZNSt13_Bit_iteratormmEv$w$3EnlGvEXRM5n7K4N3
0001:000618aa* __ZNKSt18_Bit_iterator_baseneERKS_$w$3EnlGvEXRM5n7K4N3
0001:0005f51c* __ZNSt14__simple_allocImSt24__default_alloc_templateILb1ELi0EEE8allocateEj$w$3EnlGvEXRM5n7K4N3
0001:0005f5fa* __ZNSt18_Vector_alloc_baseIPN6Xapian15PostingIterator8InternalESaIS3_ELb1EEC2ERKS4_$w$3EnlGvEXRM5n7K4N3
0001:0005f64c* __ZNSt18_Vector_alloc_baseIPN6Xapian15PostingIterator8InternalESaIS3_ELb1EE13_M_deallocateEPS3_j$w$3EnlGvEXRM5n7K4N3
0001:0005f666* __ZNSt14__simple_allocIPN6Xapian15PostingIterator8InternalESt24__default_alloc_templateILb1ELi0EEE10deallocateEPS3_j$w$3EnlGvEXRM5n7K4N3
0001:0005f6ee* __ZN9__gnu_cxx17__normal_iteratorIPPN6Xapian15PostingIterator8InternalESt6vectorIS4_SaIS4_EEEC1ERKS5_$w$3EnlGvEXRM5n7K4N3
0001:000624dc* __ZNSt8iteratorISt26random_access_iterator_tagPN6Xapian15PostingIterator8InternalEiPS4_RS4_EC2Ev$w$3EnlGvEXRM5n7K4N3
0001:0005f73c* __ZN9__gnu_cxx17__normal_iteratorIPKPN6Xapian15PostingIterator8InternalESt6vectorIS4_SaIS4_EEEC1ERKS6_$w$3EnlGvEXRM5n7K4N3
0001:0006261c* __ZNSt8iteratorISt26random_access_iterator_tagPN6Xapian15PostingIterator8InternalEiPKS4_RS5_EC2Ev$w$3EnlGvEXRM5n7K4N3
0001:0005f7ae* __ZNK9__gnu_cxx17__normal_iteratorIPKPN6Xapian15PostingIterator8InternalESt6vectorIS4_SaIS4_EEE4baseEv$w$3EnlGvEXRM5n7K4N3
0001:000624e2* __ZSt13copy_backwardIN9__gnu_cxx17__normal_iteratorIPPN6Xapian15PostingIterator8InternalESt6vectorIS5_SaIS5_EEEESA_ET0_T_SC_SB_$w$3EnlGvEXRM5n7K4N3
0001:00062622* __ZNSt18_Vector_alloc_baseIPN6Xapian15PostingIterator8InternalESaIS3_ELb1EE11_M_allocateEj$w$3EnlGvEXRM5n7K4N3
0001:000609c0* __ZSt18uninitialized_copyIN9__gnu_cxx17__normal_iteratorIPPN6Xapian15PostingIterator8InternalESt6vectorIS5_SaIS5_EEEESA_ET0_T_SC_SB_$w$3EnlGvEXRM5n7K4N3
0001:00062558* __ZNK9__gnu_cxx17__normal_iteratorIPPN6Xapian15PostingIterator8InternalESt6vectorIS4_SaIS4_EEE4baseEv$w$3EnlGvEXRM5n7K4N3
0001:000609ec* __ZN9__gnu_cxx17__normal_iteratorIPPN6Xapian15PostingIterator8InternalESt6vectorIS4_SaIS4_EEEppEv$w$3EnlGvEXRM5n7K4N3
0001:000609fa* __ZSt8_DestroyIN9__gnu_cxx17__normal_iteratorIPPN6Xapian15PostingIterator8InternalESt6vectorIS5_SaIS5_EEEEEvT_SB_$w$3EnlGvEXRM5n7K4N3
0001:0005fa36* __ZNKSt18_Vector_alloc_baseIPN6Xapian15PostingIterator8InternalESaIS3_ELb1EE13get_allocatorEv$w$3EnlGvEXRM5n7K4N3
0001:0005fae4  __ZNSt13_Rb_tree_baseISt4pairIKSsS0_IN6Xapian8Internal8MSetItemEdEESaIS6_EEC2ERKS7_$w$3EnlGvEXRM5n7K4N3
0001:0005fb60  __ZNSt8_Rb_treeISsSt4pairIKSsS0_IN6Xapian8Internal8MSetItemEdEESt10_Select1stIS6_ESt4lessISsESaIS6_EE19_M_empty_initializeEv$w$3EnlGvEXRM5n7K4N3
0001:0005fb14  __ZNSt19_Rb_tree_alloc_baseISt4pairIKSsS0_IN6Xapian8Internal8MSetItemEdEESaIS6_ELb1EEC2ERKS7_$w$3EnlGvEXRM5n7K4N3
0001:0005fb22  __ZNSt19_Rb_tree_alloc_baseISt4pairIKSsS0_IN6Xapian8Internal8MSetItemEdEESaIS6_ELb1EE11_M_get_nodeEv$w$3EnlGvEXRM5n7K4N3
0001:0005fb36  __ZNSt14__simple_allocISt13_Rb_tree_nodeISt4pairIKSsS1_IN6Xapian8Internal8MSetItemEdEEESt24__default_alloc_templateILb1ELi0EEE8allocateEj$w$3EnlGvEXRM5n7K4N3
0001:00060aee  __ZNSt8_Rb_treeISsSt4pairIKSsS0_IN6Xapian8Internal8MSetItemEdEESt10_Select1stIS6_ESt4lessISsESaIS6_EE8_S_colorEPSt13_Rb_tree_nodeIS6_E$w$3EnlGvEXRM5n7K4N3
0001:00062664  __ZNSt8_Rb_treeISsSt4pairIKSsS0_IN6Xapian8Internal8MSetItemEdEESt10_Select1stIS6_ESt4lessISsESaIS6_EE8_S_rightEPSt13_Rb_tree_nodeIS6_E$w$3EnlGvEXRM5n7K4N3
0001:0005fc36  __ZNSt8_Rb_treeISsSt4pairIKSsS0_IN6Xapian8Internal8MSetItemEdEESt10_Select1stIS6_ESt4lessISsESaIS6_EE7_S_leftEPSt13_Rb_tree_nodeIS6_E$w$3EnlGvEXRM5n7K4N3
0001:00060720  __ZNSt8_Rb_treeISsSt4pairIKSsS0_IN6Xapian8Internal8MSetItemEdEESt10_Select1stIS6_ESt4lessISsESaIS6_EE12destroy_nodeEPSt13_Rb_tree_nodeIS6_E$w$3EnlGvEXRM5n7K4N3
0001:000626a6  __ZNSt17_Rb_tree_iteratorISt4pairIKSsS0_IN6Xapian8Internal8MSetItemEdEERS6_PS6_EC1EPSt13_Rb_tree_nodeIS6_E$w$3EnlGvEXRM5n7K4N3
0001:00062670  __ZNSt8_Rb_treeISsSt4pairIKSsS0_IN6Xapian8Internal8MSetItemEdEESt10_Select1stIS6_ESt4lessISsESaIS6_EE6_S_keyEPSt13_Rb_tree_nodeIS6_E$w$3EnlGvEXRM5n7K4N3
0001:0006180e* __ZNKSt4lessISsEclERKSsS2_$w$3EnlGvEXRM5n7K4N3
0001:000626c2  __ZNSt8_Rb_treeISsSt4pairIKSsS0_IN6Xapian8Internal8MSetItemEdEESt10_Select1stIS6_ESt4lessISsESaIS6_EE6_S_keyEPSt18_Rb_tree_node_base$w$3EnlGvEXRM5n7K4N3
0001:000626e4  __ZNKSt10_Select1stISt4pairIKSsS0_IN6Xapian8Internal8MSetItemEdEEEclERKS6_$w$3EnlGvEXRM5n7K4N3
0001:000626ec  __ZNSt8_Rb_treeISsSt4pairIKSsS0_IN6Xapian8Internal8MSetItemEdEESt10_Select1stIS6_ESt4lessISsESaIS6_EE5beginEv$w$3EnlGvEXRM5n7K4N3
0001:0006271a  __ZNSt8_Rb_treeISsSt4pairIKSsS0_IN6Xapian8Internal8MSetItemEdEESt10_Select1stIS6_ESt4lessISsESaIS6_EE9_M_insertEPSt18_Rb_tree_node_baseSE_RKS6_$w$3EnlGvEXRM5n7K4N3
0001:000628b4  __ZNSt4pairISt17_Rb_tree_iteratorIS_IKSsS_IN6Xapian8Internal8MSetItemEdEERS6_PS6_EbEC1ERKS9_RKb$w$3EnlGvEXRM5n7K4N3
0001:00060af6  __ZNSt17_Rb_tree_iteratorISt4pairIKSsS0_IN6Xapian8Internal8MSetItemEdEERS6_PS6_EmmEv$w$3EnlGvEXRM5n7K4N3
0001:00062910* __ZNSt17_Rb_tree_iteratorISt4pairIKSsN6Xapian4MSet8Internal17TermFreqAndWeightEERS6_PS6_EC1EPSt13_Rb_tree_nodeIS6_E$w$3EnlGvEXRM5n7K4N3
0001:000628da* __ZNSt8_Rb_treeISsSt4pairIKSsN6Xapian4MSet8Internal17TermFreqAndWeightEESt10_Select1stIS6_ESt4lessISsESaIS6_EE6_S_keyEPSt13_Rb_tree_nodeIS6_E$w$3EnlGvEXRM5n7K4N3
0001:0006296c* __ZSteqISt4pairIKSsN6Xapian4MSet8Internal17TermFreqAndWeightEERS6_PS6_EbRKSt17_Rb_tree_iteratorIT_T0_T1_ESF_$w$3EnlGvEXRM5n7K4N3
0001:0006294a* __ZNSt8_Rb_treeISsSt4pairIKSsN6Xapian4MSet8Internal17TermFreqAndWeightEESt10_Select1stIS6_ESt4lessISsESaIS6_EE6_S_keyEPSt18_Rb_tree_node_base$w$3EnlGvEXRM5n7K4N3
0001:0006292c* __ZNSt17_Rb_tree_iteratorISt4pairIKSsN6Xapian4MSet8Internal17TermFreqAndWeightEERS6_PS6_EC1ERKS9_$w$3EnlGvEXRM5n7K4N3
0001:00060330  __ZSt10__copy_ni1IN9__gnu_cxx17__normal_iteratorIPN6Xapian8Internal8MSetItemESt6vectorIS4_SaIS4_EEEES9_ET0_T_SB_SA_11__true_type$w$3EnlGvEXRM5n7K4N3
0001:0006037a  __ZSt10__copy_ni2IPN6Xapian8Internal8MSetItemEN9__gnu_cxx17__normal_iteratorIS3_St6vectorIS2_SaIS2_EEEEET0_T_SB_SA_11__true_type$w$3EnlGvEXRM5n7K4N3
0001:000603c2  __ZSt11__copy_aux2IPN6Xapian8Internal8MSetItemES3_ET0_T_S5_S4_12__false_type$w$3EnlGvEXRM5n7K4N3
0001:000603f6  __ZSt19__iterator_categoryIPN6Xapian8Internal8MSetItemEENSt15iterator_traitsIT_E17iterator_categoryERKS5_$w$3EnlGvEXRM5n7K4N3
0001:00060402  __ZSt6__copyIPN6Xapian8Internal8MSetItemES3_ET0_T_S5_S4_St26random_access_iterator_tag$w$3EnlGvEXRM5n7K4N3
0001:00062982  __ZSt12partial_sortIN9__gnu_cxx17__normal_iteratorIPN6Xapian8Internal8MSetItemESt6vectorIS4_SaIS4_EEEE7MSetCmpEvT_SB_SB_T0_$w$3EnlGvEXRM5n7K4N3
0001:00061238* __ZSt28_Rb_tree_rebalance_for_erasePSt18_Rb_tree_node_baseRS0_S1_S1_$w$3EnlGvEXRM5n7K4N3
0001:00062a8e  __ZSt8_DestroyISt4pairIKSsS0_IN6Xapian8Internal8MSetItemEdEEEvPT_$w$3EnlGvEXRM5n7K4N3
0001:00062b46* __ZSt8_DestroyISt4pairIKSsN6Xapian4MSet8Internal17TermFreqAndWeightEEEvPT_$w$3EnlGvEXRM5n7K4N3
0001:000607b8* __ZSt8_DestroyIN6Xapian8Internal9RefCntPtrI8SubMatchEEEvPT_$w$3EnlGvEXRM5n7K4N3
0001:000607f0  __ZSt8_DestroyIN6Xapian4RSetEEvPT_$w$3EnlGvEXRM5n7K4N3
0001:00062d40  __ZNSt8iteratorISt26random_access_iterator_tagN6Xapian4RSetEiPKS2_RS3_EC2Ev$w$3EnlGvEXRM5n7K4N3
0001:00060876  __ZNK9__gnu_cxx17__normal_iteratorIPKN6Xapian4RSetESt6vectorIS2_SaIS2_EEE4baseEv$w$3EnlGvEXRM5n7K4N3
0001:00062d46  __ZSt37__copy_backward_input_normal_iteratorIN9__gnu_cxx17__normal_iteratorIPN6Xapian8Internal9RefCntPtrI8SubMatchEESt6vectorIS6_SaIS6_EEEESB_ET0_T_SD_SC_11__true_type$w$3EnlGvEXRM5n7K4N3
0001:00062e7e  __ZNSt14__simple_allocIN6Xapian8Internal9RefCntPtrI8SubMatchEESt24__default_alloc_templateILb1ELi0EEE8allocateEj$w$3EnlGvEXRM5n7K4N3
0001:00062eac  __ZSt24__uninitialized_copy_auxIN9__gnu_cxx17__normal_iteratorIPN6Xapian8Internal9RefCntPtrI8SubMatchEESt6vectorIS6_SaIS6_EEEESB_ET0_T_SD_SC_12__false_type$w$3EnlGvEXRM5n7K4N3
0001:00062f16  __ZSt13__destroy_auxIN9__gnu_cxx17__normal_iteratorIPN6Xapian8Internal9RefCntPtrI8SubMatchEESt6vectorIS6_SaIS6_EEEEEvT_SC_12__false_type$w$3EnlGvEXRM5n7K4N3
0001:00062f58* __ZSt24__uninitialized_copy_auxIN9__gnu_cxx17__normal_iteratorIPPN6Xapian15PostingIterator8InternalESt6vectorIS5_SaIS5_EEEESA_ET0_T_SC_SB_11__true_type$w$3EnlGvEXRM5n7K4N3
0001:00063092* __ZSt13__destroy_auxIN9__gnu_cxx17__normal_iteratorIPPN6Xapian15PostingIterator8InternalESt6vectorIS5_SaIS5_EEEEEvT_SB_11__true_type$w$3EnlGvEXRM5n7K4N3
0001:00060a3c* __ZSt4copyIN9__gnu_cxx17__normal_iteratorIPKPN6Xapian15PostingIterator8InternalESt6vectorIS5_SaIS5_EEEEPS5_ET0_T_SE_SD_$w$3EnlGvEXRM5n7K4N3
0001:00060a62* __ZSt10__copy_ni1IN9__gnu_cxx17__normal_iteratorIPKPN6Xapian15PostingIterator8InternalESt6vectorIS5_SaIS5_EEEEPS5_ET0_T_SE_SD_11__true_type$w$3EnlGvEXRM5n7K4N3
0001:00060aa6* __ZSt10__copy_ni2IPKPN6Xapian15PostingIterator8InternalEPS3_ET0_T_S8_S7_12__false_type$w$3EnlGvEXRM5n7K4N3
0001:00060acc* __ZSt11__copy_aux2IPN6Xapian15PostingIterator8InternalEEPT_PKS4_S7_S5_11__true_type$w$3EnlGvEXRM5n7K4N3
0001:00063060* __ZSt14__copy_trivialIPN6Xapian15PostingIterator8InternalEEPT_PKS4_S7_S5_$w$3EnlGvEXRM5n7K4N3
0001:0006119a* __ZNSt22_Rb_tree_base_iterator12_M_decrementEv$w$3EnlGvEXRM5n7K4N3
0001:00060b98  __ZSt38__copy_backward_output_normal_iteratorIPN6Xapian4RSetEN9__gnu_cxx17__normal_iteratorIS2_St6vectorIS1_SaIS1_EEEEET0_T_SA_S9_11__true_type$w$3EnlGvEXRM5n7K4N3
0001:00060bdc  __ZSt19__copy_backward_auxIPN6Xapian4RSetES2_ET0_T_S4_S3_$w$3EnlGvEXRM5n7K4N3
0001:00060bfe  __ZNSt24__copy_backward_dispatchIPN6Xapian4RSetES2_12__false_typeE4copyES2_S2_S2_$w$3EnlGvEXRM5n7K4N3
0001:00060c32  __ZSt19__iterator_categoryIPN6Xapian4RSetEENSt15iterator_traitsIT_E17iterator_categoryERKS4_$w$3EnlGvEXRM5n7K4N3
0001:00060c3e  __ZSt15__copy_backwardIPN6Xapian4RSetES2_ET0_T_S4_S3_St26random_access_iterator_tag$w$3EnlGvEXRM5n7K4N3
0001:000630f8  __ZN9__gnu_cxxneIPN6Xapian4RSetESt6vectorIS2_SaIS2_EEEEbRKNS_17__normal_iteratorIT_T0_EESC_$w$3EnlGvEXRM5n7K4N3
0001:00060eca  __ZSt38__copy_backward_output_normal_iteratorIPN6Xapian8Internal8MSetItemEN9__gnu_cxx17__normal_iteratorIS3_St6vectorIS2_SaIS2_EEEEET0_T_SB_SA_11__true_type$w$3EnlGvEXRM5n7K4N3
0001:00060f0e  __ZSt19__copy_backward_auxIPN6Xapian8Internal8MSetItemES3_ET0_T_S5_S4_$w$3EnlGvEXRM5n7K4N3
0001:00060f30  __ZNSt24__copy_backward_dispatchIPN6Xapian8Internal8MSetItemES3_12__false_typeE4copyES3_S3_S3_$w$3EnlGvEXRM5n7K4N3
0001:00060f64  __ZSt15__copy_backwardIPN6Xapian8Internal8MSetItemES3_ET0_T_S5_S4_St26random_access_iterator_tag$w$3EnlGvEXRM5n7K4N3
0001:000610c7* __ZTS13StatsGatherer$w$3EnlGvEXRM5n7K4N3
0001:000610b8* __ZTS12LeafPostList$w$3EnlGvEXRM5n7K4N3
0001:00063130* __ZTIN6Xapian15PostingIterator8InternalE$w$3EnlGvEXRM5n7K4N3
0001:000610a8* __ZTS13EmptyPostList$w$3EnlGvEXRM5n7K4N3
0001:00061098* __ZTSN6Xapian5ErrorE$w$3EnlGvEXRM5n7K4N3
0001:000610f4* __ZNSt15basic_streambufIcSt11char_traitsIcEE13_S_pback_sizeE$w$3EnlGvEXRM5n7K4N3
0001:00063240* __ZNK6Xapian8Internal9RefCntPtrINS_12TermIterator8InternalEE3getEv$w$3EnlGvEXRM5n7K4N3
0001:0006324a* __ZN6Xapian10LogicErrorD2Ev$w$3EnlGvEXRM5n7K4N3
0001:0006325e* __ZN6Xapian10LogicErrorC2ERKSsS2_PKci$w$3EnlGvEXRM5n7K4N3
0001:0006359e* __ZSt4swapISt14_Rb_tree_colorEvRT_S2_$w$3EnlGvEXRM5n7K4N3
0001:0006328e* __ZNSt18_Rb_tree_node_base10_S_minimumEPS_$w$3EnlGvEXRM5n7K4N3
0001:000632ae* __ZNSt18_Rb_tree_node_base10_S_maximumEPS_$w$3EnlGvEXRM5n7K4N3
0001:000632ce* __ZSt20_Rb_tree_rotate_leftPSt18_Rb_tree_node_baseRS0_$w$3EnlGvEXRM5n7K4N3
0001:0006335a* __ZSt21_Rb_tree_rotate_rightPSt18_Rb_tree_node_baseRS0_$w$3EnlGvEXRM5n7K4N3
0001:000635c0* __ZNSt3mapISsjSt4lessISsESaISt4pairIKSsjEEED1Ev$w$3EnlGvEXRM5n7K4N3
0001:000616fe* __ZNSt8_Rb_treeIPN6Xapian6Weight8InternalES3_St9_IdentityIS3_ESt4lessIS3_ESaIS3_EED1Ev$w$3EnlGvEXRM5n7K4N3
0001:0006179e* __ZNSt8_Rb_treeIPN6Xapian6Weight8InternalES3_St9_IdentityIS3_ESt4lessIS3_ESaIS3_EE5clearEv$w$3EnlGvEXRM5n7K4N3
0001:00061742* __ZNSt13_Rb_tree_baseIPN6Xapian6Weight8InternalESaIS3_EED2Ev$w$3EnlGvEXRM5n7K4N3
0001:0006175e* __ZNSt19_Rb_tree_alloc_baseIPN6Xapian6Weight8InternalESaIS3_ELb1EE11_M_put_nodeEPSt13_Rb_tree_nodeIS3_E$w$3EnlGvEXRM5n7K4N3
0001:0006177a* __ZNSt14__simple_allocISt13_Rb_tree_nodeIPN6Xapian6Weight8InternalEESt24__default_alloc_templateILb1ELi0EEE10deallocateEPS5_j$w$3EnlGvEXRM5n7K4N3
0001:00061fb2* __ZNKSt8_Rb_treeIPN6Xapian6Weight8InternalES3_St9_IdentityIS3_ESt4lessIS3_ESaIS3_EE7_M_rootEv$w$3EnlGvEXRM5n7K4N3
0001:00061fc0* __ZNSt8_Rb_treeIPN6Xapian6Weight8InternalES3_St9_IdentityIS3_ESt4lessIS3_ESaIS3_EE8_M_eraseEPSt13_Rb_tree_nodeIS3_E$w$3EnlGvEXRM5n7K4N3
0001:00062018* __ZNKSt8_Rb_treeIPN6Xapian6Weight8InternalES3_St9_IdentityIS3_ESt4lessIS3_ESaIS3_EE11_M_leftmostEv$w$3EnlGvEXRM5n7K4N3
0001:00062026* __ZNKSt8_Rb_treeIPN6Xapian6Weight8InternalES3_St9_IdentityIS3_ESt4lessIS3_ESaIS3_EE12_M_rightmostEv$w$3EnlGvEXRM5n7K4N3
0001:0006182c* __ZStltIcSt11char_traitsIcESaIcEEbRKSbIT_T0_T1_ES8_$w$3EnlGvEXRM5n7K4N3
0001:000636a4* __ZNSt8iteratorISt26random_access_iterator_tagbiPbRbEC2Ev$w$3EnlGvEXRM5n7K4N3
0001:00063782* __ZNKSt18_Bit_iterator_baseeqERKS_$w$3EnlGvEXRM5n7K4N3
0001:000636aa* __ZNSt18_Bit_iterator_base10_M_bump_upEv$w$3EnlGvEXRM5n7K4N3
0001:000636cc* __ZNSt18_Bit_iterator_base12_M_bump_downEv$w$3EnlGvEXRM5n7K4N3
0001:000636ee* __ZNSt18_Bit_iterator_base7_M_incrEi$w$3EnlGvEXRM5n7K4N3
0001:00061b4a* __ZNSt8_Rb_treeIjjSt9_IdentityIjESt4lessIjESaIjEED1Ev$w$3EnlGvEXRM5n7K4N3
0001:00061c5c* __ZNSt8_Rb_treeIjSt4pairIKjN6Xapian8DocumentEESt10_Select1stIS4_ESt4lessIjESaIS4_EED1Ev$w$3EnlGvEXRM5n7K4N3
0001:00061a3e* __ZNSaIjEC1Ev$w$3EnlGvEXRM5n7K4N3
0001:00061a4a* __ZNSt8_Rb_treeIjjSt9_IdentityIjESt4lessIjESaIjEEC1ERKS3_RKS4_$w$3EnlGvEXRM5n7K4N3
0001:00061a44* __ZNSaIjED1Ev$w$3EnlGvEXRM5n7K4N3
0001:00061a7a* __ZNSt13_Rb_tree_baseIjSaIjEEC2ERKS0_$w$3EnlGvEXRM5n7K4N3
0001:00061af6* __ZNSt8_Rb_treeIjjSt9_IdentityIjESt4lessIjESaIjEE19_M_empty_initializeEv$w$3EnlGvEXRM5n7K4N3
0001:00061aaa* __ZNSt19_Rb_tree_alloc_baseIjSaIjELb1EEC2ERKS0_$w$3EnlGvEXRM5n7K4N3
0001:00061ab8* __ZNSt19_Rb_tree_alloc_baseIjSaIjELb1EE11_M_get_nodeEv$w$3EnlGvEXRM5n7K4N3
0001:00061acc* __ZNSt14__simple_allocISt13_Rb_tree_nodeIjESt24__default_alloc_templateILb1ELi0EEE8allocateEj$w$3EnlGvEXRM5n7K4N3
0001:00062034* __ZNSt8_Rb_treeIjjSt9_IdentityIjESt4lessIjESaIjEE8_S_colorEPSt13_Rb_tree_nodeIjE$w$3EnlGvEXRM5n7K4N3
0001:0006203c* __ZNKSt8_Rb_treeIjjSt9_IdentityIjESt4lessIjESaIjEE7_M_rootEv$w$3EnlGvEXRM5n7K4N3
0001:00062058* __ZNKSt8_Rb_treeIjjSt9_IdentityIjESt4lessIjESaIjEE12_M_rightmostEv$w$3EnlGvEXRM5n7K4N3
0001:00061b8e* __ZNSt8_Rb_treeIjjSt9_IdentityIjESt4lessIjESaIjEE5clearEv$w$3EnlGvEXRM5n7K4N3
0001:000637b6* __ZNSt13_Rb_tree_baseIjSaIjEED2Ev$w$3EnlGvEXRM5n7K4N3
0001:00062066* __ZNSt8_Rb_treeIjjSt9_IdentityIjESt4lessIjESaIjEE8_M_eraseEPSt13_Rb_tree_nodeIjE$w$3EnlGvEXRM5n7K4N3
0001:000620be* __ZNSaISt4pairIKjN6Xapian8DocumentEEEC1Ev$w$3EnlGvEXRM5n7K4N3
0001:000620ca* __ZNSt8_Rb_treeIjSt4pairIKjN6Xapian8DocumentEESt10_Select1stIS4_ESt4lessIjESaIS4_EEC1ERKS8_RKS9_$w$3EnlGvEXRM5n7K4N3
0001:000620c4* __ZNSaISt4pairIKjN6Xapian8DocumentEEED1Ev$w$3EnlGvEXRM5n7K4N3
0001:00061d02* __ZNSt8_Rb_treeIjSt4pairIKjN6Xapian8DocumentEESt10_Select1stIS4_ESt4lessIjESaIS4_EE5clearEv$w$3EnlGvEXRM5n7K4N3
0001:00061ca0* __ZNSt13_Rb_tree_baseISt4pairIKjN6Xapian8DocumentEESaIS4_EED2Ev$w$3EnlGvEXRM5n7K4N3
0001:00061cbc* __ZNSt19_Rb_tree_alloc_baseISt4pairIKjN6Xapian8DocumentEESaIS4_ELb1EE11_M_put_nodeEPSt13_Rb_tree_nodeIS4_E$w$3EnlGvEXRM5n7K4N3
0001:00061cd8* __ZNSt14__simple_allocISt13_Rb_tree_nodeISt4pairIKjN6Xapian8DocumentEEESt24__default_alloc_templateILb1ELi0EEE10deallocateEPS6_j$w$3EnlGvEXRM5n7K4N3
0001:000621d0* __ZNKSt8_Rb_treeIjSt4pairIKjN6Xapian8DocumentEESt10_Select1stIS4_ESt4lessIjESaIS4_EE7_M_rootEv$w$3EnlGvEXRM5n7K4N3
0001:000621de* __ZNSt8_Rb_treeIjSt4pairIKjN6Xapian8DocumentEESt10_Select1stIS4_ESt4lessIjESaIS4_EE8_M_eraseEPSt13_Rb_tree_nodeIS4_E$w$3EnlGvEXRM5n7K4N3
0001:00062236* __ZNKSt8_Rb_treeIjSt4pairIKjN6Xapian8DocumentEESt10_Select1stIS4_ESt4lessIjESaIS4_EE11_M_leftmostEv$w$3EnlGvEXRM5n7K4N3
0001:00062244* __ZNKSt8_Rb_treeIjSt4pairIKjN6Xapian8DocumentEESt10_Select1stIS4_ESt4lessIjESaIS4_EE12_M_rightmostEv$w$3EnlGvEXRM5n7K4N3
0001:0006225e  __ZNSt8_Rb_treeISsSt4pairIKSsN6Xapian4MSet8Internal17TermFreqAndWeightEESt10_Select1stIS6_ESt4lessISsESaIS6_EEC1ERKSC_$w$3EnlGvEXRM5n7K4N3
0001:00062410  __ZNKSt6vectorIN6Xapian8Internal8MSetItemESaIS2_EE13get_allocatorEv$w$3EnlGvEXRM5n7K4N3
0001:00062452  __ZNSt12_Vector_baseIN6Xapian8Internal8MSetItemESaIS2_EEC2EjRKS3_$w$3EnlGvEXRM5n7K4N3
0001:000624aa  __ZSt18uninitialized_copyIN9__gnu_cxx17__normal_iteratorIPKN6Xapian8Internal8MSetItemESt6vectorIS4_SaIS4_EEEEPS4_ET0_T_SD_SC_$w$3EnlGvEXRM5n7K4N3
0001:000631f0* __ZTVN6Xapian15PostingIterator8InternalE$w$3EnlGvEXRM5n7K4N3
0001:000631b8* __ZTV8SubMatch$w$3EnlGvEXRM5n7K4N3
0001:00063826* __ZN6Xapian15PostingIterator8InternalC2Ev$w$3EnlGvEXRM5n7K4N3
0001:0006394c* __ZNSt8_Rb_treeIPN6Xapian6Weight8InternalES3_St9_IdentityIS3_ESt4lessIS3_ESaIS3_EE8_S_rightEPSt13_Rb_tree_nodeIS3_E$w$3EnlGvEXRM5n7K4N3
0001:00062aa2* __ZNSt8_Rb_treeIPN6Xapian6Weight8InternalES3_St9_IdentityIS3_ESt4lessIS3_ESaIS3_EE7_S_leftEPSt13_Rb_tree_nodeIS3_E$w$3EnlGvEXRM5n7K4N3
0001:00062aae* __ZNSt8_Rb_treeIPN6Xapian6Weight8InternalES3_St9_IdentityIS3_ESt4lessIS3_ESaIS3_EE12destroy_nodeEPSt13_Rb_tree_nodeIS3_E$w$3EnlGvEXRM5n7K4N3
0001:00063958* __ZNSt8_Rb_treeIjjSt9_IdentityIjESt4lessIjESaIjEE8_S_rightEPSt13_Rb_tree_nodeIjE$w$3EnlGvEXRM5n7K4N3
0001:00062ad6* __ZNSt8_Rb_treeIjjSt9_IdentityIjESt4lessIjESaIjEE7_S_leftEPSt13_Rb_tree_nodeIjE$w$3EnlGvEXRM5n7K4N3
0001:00062ae2* __ZNSt8_Rb_treeIjjSt9_IdentityIjESt4lessIjESaIjEE12destroy_nodeEPSt13_Rb_tree_nodeIjE$w$3EnlGvEXRM5n7K4N3
0001:000620fa* __ZNSt13_Rb_tree_baseISt4pairIKjN6Xapian8DocumentEESaIS4_EEC2ERKS5_$w$3EnlGvEXRM5n7K4N3
0001:0006217c* __ZNSt8_Rb_treeIjSt4pairIKjN6Xapian8DocumentEESt10_Select1stIS4_ESt4lessIjESaIS4_EE19_M_empty_initializeEv$w$3EnlGvEXRM5n7K4N3
0001:0006212a* __ZNSt19_Rb_tree_alloc_baseISt4pairIKjN6Xapian8DocumentEESaIS4_ELb1EEC2ERKS5_$w$3EnlGvEXRM5n7K4N3
0001:00062138* __ZNSt19_Rb_tree_alloc_baseISt4pairIKjN6Xapian8DocumentEESaIS4_ELb1EE11_M_get_nodeEv$w$3EnlGvEXRM5n7K4N3
0001:0006214c* __ZNSt14__simple_allocISt13_Rb_tree_nodeISt4pairIKjN6Xapian8DocumentEEESt24__default_alloc_templateILb1ELi0EEE8allocateEj$w$3EnlGvEXRM5n7K4N3
0001:00062b0a* __ZNSt8_Rb_treeIjSt4pairIKjN6Xapian8DocumentEESt10_Select1stIS4_ESt4lessIjESaIS4_EE8_S_colorEPSt13_Rb_tree_nodeIS4_E$w$3EnlGvEXRM5n7K4N3
0001:00063964* __ZNSt8_Rb_treeIjSt4pairIKjN6Xapian8DocumentEESt10_Select1stIS4_ESt4lessIjESaIS4_EE8_S_rightEPSt13_Rb_tree_nodeIS4_E$w$3EnlGvEXRM5n7K4N3
0001:00062b12* __ZNSt8_Rb_treeIjSt4pairIKjN6Xapian8DocumentEESt10_Select1stIS4_ESt4lessIjESaIS4_EE7_S_leftEPSt13_Rb_tree_nodeIS4_E$w$3EnlGvEXRM5n7K4N3
0001:00062b1e* __ZNSt8_Rb_treeIjSt4pairIKjN6Xapian8DocumentEESt10_Select1stIS4_ESt4lessIjESaIS4_EE12destroy_nodeEPSt13_Rb_tree_nodeIS4_E$w$3EnlGvEXRM5n7K4N3
0001:000623a6  __ZNKSt8_Rb_treeISsSt4pairIKSsN6Xapian4MSet8Internal17TermFreqAndWeightEESt10_Select1stIS6_ESt4lessISsESaIS6_EE13get_allocatorEv$w$3EnlGvEXRM5n7K4N3
0001:00062b5a* __ZNSt8_Rb_treeISsSt4pairIKSsN6Xapian4MSet8Internal17TermFreqAndWeightEESt10_Select1stIS6_ESt4lessISsESaIS6_EE7_M_copyEPSt13_Rb_tree_nodeIS6_ESF_$w$3EnlGvEXRM5n7K4N3
0001:000623e8* __ZNSt8_Rb_treeISsSt4pairIKSsN6Xapian4MSet8Internal17TermFreqAndWeightEESt10_Select1stIS6_ESt4lessISsESaIS6_EE10_S_minimumEPSt13_Rb_tree_nodeIS6_E$w$3EnlGvEXRM5n7K4N3
0001:000623fc* __ZNSt8_Rb_treeISsSt4pairIKSsN6Xapian4MSet8Internal17TermFreqAndWeightEESt10_Select1stIS6_ESt4lessISsESaIS6_EE10_S_maximumEPSt13_Rb_tree_nodeIS6_E$w$3EnlGvEXRM5n7K4N3
0001:000623cc  __ZNKSt19_Rb_tree_alloc_baseISt4pairIKSsN6Xapian4MSet8Internal17TermFreqAndWeightEESaIS6_ELb1EE13get_allocatorEv$w$3EnlGvEXRM5n7K4N3
0001:00062436  __ZNKSt18_Vector_alloc_baseIN6Xapian8Internal8MSetItemESaIS2_ELb1EE13get_allocatorEv$w$3EnlGvEXRM5n7K4N3
0001:00062c9e  __ZSt24__uninitialized_copy_auxIN9__gnu_cxx17__normal_iteratorIPKN6Xapian8Internal8MSetItemESt6vectorIS4_SaIS4_EEEEPS4_ET0_T_SD_SC_12__false_type$w$3EnlGvEXRM5n7K4N3
0001:0006250e* __ZSt37__copy_backward_input_normal_iteratorIN9__gnu_cxx17__normal_iteratorIPPN6Xapian15PostingIterator8InternalESt6vectorIS5_SaIS5_EEEESA_ET0_T_SC_SB_11__true_type$w$3EnlGvEXRM5n7K4N3
0001:00062560* __ZSt38__copy_backward_output_normal_iteratorIPPN6Xapian15PostingIterator8InternalEN9__gnu_cxx17__normal_iteratorIS4_St6vectorIS3_SaIS3_EEEEET0_T_SC_SB_11__true_type$w$3EnlGvEXRM5n7K4N3
0001:000625a4* __ZSt19__copy_backward_auxIPPN6Xapian15PostingIterator8InternalES4_ET0_T_S6_S5_$w$3EnlGvEXRM5n7K4N3
0001:000625c6* __ZNSt24__copy_backward_dispatchIPPN6Xapian15PostingIterator8InternalES4_11__true_typeE4copyEPKS3_S8_S4_$w$3EnlGvEXRM5n7K4N3
0001:00062636* __ZNSt14__simple_allocIPN6Xapian15PostingIterator8InternalESt24__default_alloc_templateILb1ELi0EEE8allocateEj$w$3EnlGvEXRM5n7K4N3
0001:00062692  __ZNSt8_Rb_treeISsSt4pairIKSsS0_IN6Xapian8Internal8MSetItemEdEESt10_Select1stIS6_ESt4lessISsESaIS6_EE8_S_valueEPSt13_Rb_tree_nodeIS6_E$w$3EnlGvEXRM5n7K4N3
0001:0006269e  __ZNKSt10_Select1stISt4pairIKSsS0_IN6Xapian8Internal8MSetItemEdEEEclERS6_$w$3EnlGvEXRM5n7K4N3
0001:00063970  __ZNSt8_Rb_treeISsSt4pairIKSsS0_IN6Xapian8Internal8MSetItemEdEESt10_Select1stIS6_ESt4lessISsESaIS6_EE14_M_create_nodeERKS6_$w$3EnlGvEXRM5n7K4N3
0001:00063098  __ZNSt8_Rb_treeISsSt4pairIKSsS0_IN6Xapian8Internal8MSetItemEdEESt10_Select1stIS6_ESt4lessISsESaIS6_EE9_S_parentEPSt13_Rb_tree_nodeIS6_E$w$3EnlGvEXRM5n7K4N3
0001:000633e6* __ZSt18_Rb_tree_rebalancePSt18_Rb_tree_node_baseRS0_$w$3EnlGvEXRM5n7K4N3
0001:000628fc* __ZNSt8_Rb_treeISsSt4pairIKSsN6Xapian4MSet8Internal17TermFreqAndWeightEESt10_Select1stIS6_ESt4lessISsESaIS6_EE8_S_valueEPSt13_Rb_tree_nodeIS6_E$w$3EnlGvEXRM5n7K4N3
0001:00062908* __ZNKSt10_Select1stISt4pairIKSsN6Xapian4MSet8Internal17TermFreqAndWeightEEEclERS6_$w$3EnlGvEXRM5n7K4N3
0001:000630a4  __ZSt9sort_heapIN9__gnu_cxx17__normal_iteratorIPN6Xapian8Internal8MSetItemESt6vectorIS4_SaIS4_EEEE7MSetCmpEvT_SB_T0_$w$3EnlGvEXRM5n7K4N3
0001:00063a88* __ZSt8_DestroyIPN6Xapian6Weight8InternalEEvPT_$w$3EnlGvEXRM5n7K4N3
0001:00063a8e* __ZSt8_DestroyIjEvPT_$w$3EnlGvEXRM5n7K4N3
0001:000637d2* __ZNSt19_Rb_tree_alloc_baseIjSaIjELb1EE11_M_put_nodeEPSt13_Rb_tree_nodeIjE$w$3EnlGvEXRM5n7K4N3
0001:00063a94* __ZSt8_DestroyISt4pairIKjN6Xapian8DocumentEEEvPT_$w$3EnlGvEXRM5n7K4N3
0001:00063812* __ZNSt4pairIKSsN6Xapian4MSet8Internal17TermFreqAndWeightEED1Ev$w$3EnlGvEXRM5n7K4N3
0001:00063aa8* __ZNSt8_Rb_treeISsSt4pairIKSsN6Xapian4MSet8Internal17TermFreqAndWeightEESt10_Select1stIS6_ESt4lessISsESaIS6_EE13_M_clone_nodeEPSt13_Rb_tree_nodeIS6_E$w$3EnlGvEXRM5n7K4N3
0001:00063bda* __ZN9__gnu_cxxneIPKN6Xapian8Internal8MSetItemESt6vectorIS3_SaIS3_EEEEbRKNS_17__normal_iteratorIT_T0_EESE_$w$3EnlGvEXRM5n7K4N3
0001:00063c1a* __ZNK9__gnu_cxx17__normal_iteratorIPKN6Xapian8Internal8MSetItemESt6vectorIS3_SaIS3_EEEdeEv$w$3EnlGvEXRM5n7K4N3
0001:00063c0c* __ZN9__gnu_cxx17__normal_iteratorIPKN6Xapian8Internal8MSetItemESt6vectorIS3_SaIS3_EEEppEv$w$3EnlGvEXRM5n7K4N3
0001:00062d90  __ZSt38__copy_backward_output_normal_iteratorIPN6Xapian8Internal9RefCntPtrI8SubMatchEEN9__gnu_cxx17__normal_iteratorIS5_St6vectorIS4_SaIS4_EEEEET0_T_SD_SC_11__true_type$w$3EnlGvEXRM5n7K4N3
0001:00062dd4  __ZSt19__copy_backward_auxIPN6Xapian8Internal9RefCntPtrI8SubMatchEES5_ET0_T_S7_S6_$w$3EnlGvEXRM5n7K4N3
0001:00062df6  __ZNSt24__copy_backward_dispatchIPN6Xapian8Internal9RefCntPtrI8SubMatchEES5_12__false_typeE4copyES5_S5_S5_$w$3EnlGvEXRM5n7K4N3
0001:00062e2a  __ZSt19__iterator_categoryIPN6Xapian8Internal9RefCntPtrI8SubMatchEEENSt15iterator_traitsIT_E17iterator_categoryERKS7_$w$3EnlGvEXRM5n7K4N3
0001:00062e36  __ZSt15__copy_backwardIPN6Xapian8Internal9RefCntPtrI8SubMatchEES5_ET0_T_S7_S6_St26random_access_iterator_tag$w$3EnlGvEXRM5n7K4N3
0001:00062f80* __ZSt4copyIN9__gnu_cxx17__normal_iteratorIPPN6Xapian15PostingIterator8InternalESt6vectorIS5_SaIS5_EEEESA_ET0_T_SC_SB_$w$3EnlGvEXRM5n7K4N3
0001:00062fac* __ZSt10__copy_ni1IN9__gnu_cxx17__normal_iteratorIPPN6Xapian15PostingIterator8InternalESt6vectorIS5_SaIS5_EEEESA_ET0_T_SC_SB_11__true_type$w$3EnlGvEXRM5n7K4N3
0001:00062ff6* __ZSt10__copy_ni2IPPN6Xapian15PostingIterator8InternalEN9__gnu_cxx17__normal_iteratorIS4_St6vectorIS3_SaIS3_EEEEET0_T_SC_SB_11__true_type$w$3EnlGvEXRM5n7K4N3
0001:0006303e* __ZSt11__copy_aux2IPN6Xapian15PostingIterator8InternalEEPT_S5_S5_S5_11__true_type$w$3EnlGvEXRM5n7K4N3
0001:00063c24  __ZN9__gnu_cxx17__normal_iteratorIPN6Xapian8Internal8MSetItemESt6vectorIS3_SaIS3_EEEmmEi$w$3EnlGvEXRM5n7K4N3
0001:00063190* __ZTSN6Xapian15PostingIterator8InternalE$w$3EnlGvEXRM5n7K4N3
0001:00063c7c* __ZTIN6Xapian8Internal10RefCntBaseE$w$3EnlGvEXRM5n7K4N3
0001:0006315c* __ZTSN6Xapian18UnimplementedErrorE$w$3EnlGvEXRM5n7K4N3
0001:00063c70* __ZTIN6Xapian10LogicErrorE$w$3EnlGvEXRM5n7K4N3
0001:00063c50* __ZTI8SubMatch$w$3EnlGvEXRM5n7K4N3
0001:00063896* __ZN8SubMatchD1Ev$w$3EnlGvEXRM5n7K4N3
0001:000638be* __ZN8SubMatchD0Ev$w$3EnlGvEXRM5n7K4N3
0001:00063846* __ZN6Xapian15PostingIterator8InternalD1Ev$w$3EnlGvEXRM5n7K4N3
0001:0006386e* __ZN6Xapian15PostingIterator8InternalD0Ev$w$3EnlGvEXRM5n7K4N3
0001:00063cc4* __ZN6Xapian5ErrorD2Ev$w$3EnlGvEXRM5n7K4N3
0001:00063cf4* __ZN6Xapian5ErrorC2ERKSsS2_PKci$w$3EnlGvEXRM5n7K4N3
0001:000635d4* __ZNSt8_Rb_treeISsSt4pairIKSsjESt10_Select1stIS2_ESt4lessISsESaIS2_EED1Ev$w$3EnlGvEXRM5n7K4N3
0001:00063618* __ZNSt8_Rb_treeISsSt4pairIKSsjESt10_Select1stIS2_ESt4lessISsESaIS2_EE5clearEv$w$3EnlGvEXRM5n7K4N3
0001:00063d70* __ZNSt13_Rb_tree_baseISt4pairIKSsjESaIS2_EED2Ev$w$3EnlGvEXRM5n7K4N3
0001:00063696* __ZNKSt8_Rb_treeISsSt4pairIKSsjESt10_Select1stIS2_ESt4lessISsESaIS2_EE7_M_rootEv$w$3EnlGvEXRM5n7K4N3
0001:000638f4* __ZNSt8_Rb_treeISsSt4pairIKSsjESt10_Select1stIS2_ESt4lessISsESaIS2_EE8_M_eraseEPSt13_Rb_tree_nodeIS2_E$w$3EnlGvEXRM5n7K4N3
0001:00063688* __ZNKSt8_Rb_treeISsSt4pairIKSsjESt10_Select1stIS2_ESt4lessISsESaIS2_EE11_M_leftmostEv$w$3EnlGvEXRM5n7K4N3
0001:000638e6* __ZNKSt8_Rb_treeISsSt4pairIKSsjESt10_Select1stIS2_ESt4lessISsESaIS2_EE12_M_rightmostEv$w$3EnlGvEXRM5n7K4N3
0001:000637ee* __ZNSt14__simple_allocISt13_Rb_tree_nodeIjESt24__default_alloc_templateILb1ELi0EEE10deallocateEPS1_j$w$3EnlGvEXRM5n7K4N3
0001:00063dde* __ZNSt8_Rb_treeISsSt4pairIKSsjESt10_Select1stIS2_ESt4lessISsESaIS2_EE8_S_rightEPSt13_Rb_tree_nodeIS2_E$w$3EnlGvEXRM5n7K4N3
0001:00063dd2* __ZNSt8_Rb_treeISsSt4pairIKSsjESt10_Select1stIS2_ESt4lessISsESaIS2_EE7_S_leftEPSt13_Rb_tree_nodeIS2_E$w$3EnlGvEXRM5n7K4N3
0001:00063a60* __ZNSt8_Rb_treeISsSt4pairIKSsjESt10_Select1stIS2_ESt4lessISsESaIS2_EE12destroy_nodeEPSt13_Rb_tree_nodeIS2_E$w$3EnlGvEXRM5n7K4N3
0001:000639e4  __ZSt10_ConstructISt4pairIKSsS0_IN6Xapian8Internal8MSetItemEdEES6_EvPT_RKT0_$w$3EnlGvEXRM5n7K4N3
0001:00063e36  __ZNSt4pairIKSsS_IN6Xapian8Internal8MSetItemEdEEC1ERKS5_$w$3EnlGvEXRM5n7K4N3
0001:00063e8e* __ZSt8_DestroyISt4pairIKSsjEEvPT_$w$3EnlGvEXRM5n7K4N3
0001:00063d8c* __ZNSt19_Rb_tree_alloc_baseISt4pairIKSsjESaIS2_ELb1EE11_M_put_nodeEPSt13_Rb_tree_nodeIS2_E$w$3EnlGvEXRM5n7K4N3
0001:00063dea* __ZNSt4pairIKjN6Xapian8DocumentEED1Ev$w$3EnlGvEXRM5n7K4N3
0001:00063aea* __ZNSt8_Rb_treeISsSt4pairIKSsN6Xapian4MSet8Internal17TermFreqAndWeightEESt10_Select1stIS6_ESt4lessISsESaIS6_EE14_M_create_nodeERKS6_$w$3EnlGvEXRM5n7K4N3
0001:00063b5e* __ZSt10_ConstructISt4pairIKSsN6Xapian4MSet8Internal17TermFreqAndWeightEES6_EvPT_RKT0_$w$3EnlGvEXRM5n7K4N3
0001:00063e00* __ZNSt4pairIKSsN6Xapian4MSet8Internal17TermFreqAndWeightEEC1ERKS5_$w$3EnlGvEXRM5n7K4N3
0001:00063cb9* __ZTS8SubMatch$w$3EnlGvEXRM5n7K4N3
0001:00063ca3* __ZTSN6Xapian10LogicErrorE$w$3EnlGvEXRM5n7K4N3
0001:00063c84* __ZTSN6Xapian8Internal10RefCntBaseE$w$3EnlGvEXRM5n7K4N3
0001:00063da8* __ZNSt14__simple_allocISt13_Rb_tree_nodeISt4pairIKSsjEESt24__default_alloc_templateILb1ELi0EEE10deallocateEPS4_j$w$3EnlGvEXRM5n7K4N3
0001:00063ea2* __ZNSt4pairIKSsjED1Ev$w$3EnlGvEXRM5n7K4N3
0002:00038c80* __ZN16__Atomicity_lockILi0EE17_S_atomicity_lockE$w$3EnlGvEXRM5n7K4N3
Module: E:\rd\dse\xapian-core-1.0.2\.libs\xapian.lib(api\omenquire.cc)
0001:00063ed0  __ZN6Xapian12MatchDeciderD2Ev
0001:00063ef8  __ZN6Xapian12MatchDeciderD1Ev
0001:00063f20  __ZN6Xapian12MatchDeciderD0Ev
0001:00063f48  __ZN6Xapian4RSetC2Ev
0001:00063fb2  __ZN6Xapian4RSetC1Ev
0001:0006401c  __ZN6Xapian4RSetC2ERKS0_
0001:00064036  __ZN6Xapian4RSetC1ERKS0_
0001:00064050  __ZN6Xapian4RSetaSERKS0_
0001:0006406a  __ZN6Xapian4RSetD2Ev
0001:0006407e  __ZN6Xapian4RSetD1Ev
0001:00064092  __ZNK6Xapian4RSet4sizeEv
0001:000640b0  __ZNK6Xapian4RSet5emptyEv
0001:000640d2  __ZN6Xapian4RSet12add_documentEj
0001:000640f8  __ZN6Xapian4RSet15remove_documentEj
0001:0006416c  __ZNK6Xapian4RSet8containsEj
0001:000641ca  __ZNK6Xapian4RSet15get_descriptionEv
0001:00064286  __ZNK6Xapian4RSet8Internal15get_descriptionEv
0001:0006444a  __ZNK6Xapian8Internal8MSetItem15get_descriptionEv
0001:000646d2  __ZN6Xapian4MSetC2Ev
0001:0006473c  __ZN6Xapian4MSetC1Ev
0001:000647c4  __ZN6Xapian4MSetC2EPNS0_8InternalE
0001:000647de  __ZN6Xapian4MSetC1EPNS0_8InternalE
0001:000647f8  __ZN6Xapian4MSetD2Ev
0001:0006480c  __ZN6Xapian4MSetD1Ev
0001:00064820  __ZN6Xapian4MSetC2ERKS0_
0001:0006483a  __ZN6Xapian4MSetC1ERKS0_
0001:00064854  __ZN6Xapian4MSetaSERKS0_
0001:0006486e  __ZNK6Xapian4MSet5fetchERKNS_12MSetIteratorES3_
0001:00065470  __ZNK6Xapian4MSet8Internal11fetch_itemsEjj
0001:000648b6  __ZNK6Xapian4MSet5fetchERKNS_12MSetIteratorE
0001:000648e6  __ZNK6Xapian4MSet5fetchEv
0001:00064946  __ZNK6Xapian4MSet18convert_to_percentEd
0001:000650d0  __ZNK6Xapian4MSet8Internal27convert_to_percent_internalEd
0001:0006496e  __ZNK6Xapian4MSet18convert_to_percentERKNS_12MSetIteratorE
0001:00066a90  __ZNK6Xapian12MSetIterator10get_weightEv
0001:00064a5c  __ZNK6Xapian4MSet12get_termfreqERKSs
0001:00064c62  __ZNK6Xapian4MSet14get_termweightERKSs
0001:00064e56  __ZNK6Xapian4MSet13get_firstitemEv
0001:00064e6c  __ZNK6Xapian4MSet23get_matches_lower_boundEv
0001:00064e82  __ZNK6Xapian4MSet21get_matches_estimatedEv
0001:00064e98  __ZNK6Xapian4MSet23get_matches_upper_boundEv
0001:00064eae  __ZNK6Xapian4MSet16get_max_possibleEv
0001:00064ec4  __ZNK6Xapian4MSet16get_max_attainedEv
0001:00064eda  __ZNK6Xapian4MSet4sizeEv
0001:00064ef8  __ZNK6Xapian4MSet5emptyEv
0001:00064f1a  __ZN6Xapian4MSet4swapERS0_
0001:00064f34  __ZNK6Xapian4MSet5beginEv
0001:00064f60  __ZNK6Xapian4MSet3endEv
0001:00064fa0  __ZNK6Xapian4MSetixEj
0001:00064fca  __ZNK6Xapian4MSet4backEv
0001:00065018  __ZNK6Xapian4MSet15get_descriptionEv
0001:00065780  __ZNK6Xapian4MSet8Internal15get_descriptionEv
0001:000651a8  __ZNK6Xapian4MSet8Internal16get_doc_by_indexEj
0001:0006611c  __ZNK6Xapian4MSet8Internal9read_docsEv
0001:0006838e  __ZNK6Xapian7Enquire8Internal11request_docERKNS_8Internal8MSetItemE
0001:00068486  __ZNK6Xapian7Enquire8Internal8read_docERKNS_8Internal8MSetItemE
0001:00066260  __ZNK6Xapian8Internal8ESetItem15get_descriptionEv
0001:000663a0  __ZN6Xapian4ESetC2Ev
0001:0006640a  __ZN6Xapian4ESetC1Ev
0001:00066474  __ZN6Xapian4ESetD2Ev
0001:00066488  __ZN6Xapian4ESetD1Ev
0001:0006649c  __ZN6Xapian4ESetC2ERKS0_
0001:000664b6  __ZN6Xapian4ESetC1ERKS0_
0001:000664d0  __ZN6Xapian4ESetaSERKS0_
0001:000664ea  __ZNK6Xapian4ESet10get_eboundEv
0001:00066500  __ZNK6Xapian4ESet4sizeEv
0001:0006651e  __ZNK6Xapian4ESet5emptyEv
0001:00066540  __ZN6Xapian4ESet4swapERS0_
0001:0006655a  __ZNK6Xapian4ESet5beginEv
0001:00066586  __ZNK6Xapian4ESet3endEv
0001:000665c6  __ZNK6Xapian4ESetixEj
0001:000665f0  __ZNK6Xapian4ESet4backEv
0001:0006663e  __ZNK6Xapian4ESet15get_descriptionEv
0001:00066716  __ZNK6Xapian4ESet8Internal15get_descriptionEv
0001:00066906  __ZNK6Xapian12ESetIteratordeEv
0001:00066934  __ZNK6Xapian12ESetIterator10get_weightEv
0001:00066976  __ZNK6Xapian12ESetIterator15get_descriptionEv
0001:00066a26  __ZNK6Xapian12MSetIteratordeEv
0001:00066a54  __ZNK6Xapian12MSetIterator12get_documentEv
0001:00066abc  __ZNK6Xapian12MSetIterator16get_collapse_keyEv
0001:00066b02  __ZNK6Xapian12MSetIterator18get_collapse_countEv
0001:00066b30  __ZNK6Xapian12MSetIterator11get_percentEv
0001:00066b7a  __ZNK6Xapian12MSetIterator15get_descriptionEv
0001:00066c6e  __ZN6Xapian7Enquire8InternalC2ERKNS_8DatabaseEPNS_12ErrorHandlerE
0001:00066eaa  __ZN6Xapian7Enquire8InternalC1ERKNS_8DatabaseEPNS_12ErrorHandlerE
0001:000670e6  __ZN6Xapian7Enquire8InternalD2Ev
0001:000671a2  __ZN6Xapian7Enquire8InternalD1Ev
0001:0006725e  __ZN6Xapian7Enquire8Internal9set_queryERKNS_5QueryEj
0001:000672a8  __ZN6Xapian7Enquire8Internal9get_queryEv
0001:000672b4  __ZNK6Xapian7Enquire8Internal8get_msetEjjjPKNS_4RSetEPKNS_12MatchDeciderES7_
0001:0006770c  __ZNK6Xapian7Enquire8Internal8get_esetEjRKNS_4RSetEidPKNS_13ExpandDeciderE
0001:00067b44  __ZNK6Xapian7Enquire8Internal18get_matching_termsEj
0001:00068274  __ZNK6Xapian7Enquire8Internal18get_matching_termsERKNS_12MSetIteratorE
0001:000682a8  __ZNK6Xapian7Enquire8Internal15get_descriptionEv
0001:00068598  __ZN6Xapian7Enquire8Internal22register_match_deciderERKSsPKNS_12MatchDeciderE
0001:000685da  __ZN6Xapian7EnquireC2ERKNS_8DatabaseEPNS_12ErrorHandlerE
0001:00068652  __ZN6Xapian7EnquireC1ERKNS_8DatabaseEPNS_12ErrorHandlerE
0001:000686ca  __ZN6Xapian7EnquireD2Ev
0001:000686de  __ZN6Xapian7EnquireD1Ev
0001:000686f2  __ZN6Xapian7Enquire9set_queryERKNS_5QueryEj
0001:0006871e  __ZNK6Xapian7Enquire9get_queryEv
0001:0006873a  __ZN6Xapian7Enquire20set_weighting_schemeERKNS_6WeightE
0001:00068790  __ZN6Xapian7Enquire16set_collapse_keyEj
0001:000687ac  __ZN6Xapian7Enquire15set_docid_orderENS0_11docid_orderE
0001:000687c8  __ZN6Xapian7Enquire10set_cutoffEid
0001:000687fa  __ZN6Xapian7Enquire21set_sort_by_relevanceEv
0001:00068814  __ZN6Xapian7Enquire17set_sort_by_valueEjb
0001:0006885c  __ZN6Xapian7Enquire32set_sort_by_value_then_relevanceEjb
0001:000688a4  __ZN6Xapian7Enquire32set_sort_by_relevance_then_valueEjb
0001:000688ec  __ZNK6Xapian7Enquire8get_msetEjjjPKNS_4RSetEPKNS_12MatchDeciderE
0001:0006893c  __ZNK6Xapian7Enquire8get_msetEjjjPKNS_4RSetEPKNS_12MatchDeciderES6_
0001:00068a06  __ZNK6Xapian7Enquire8get_esetEjRKNS_4RSetEidPKNS_13ExpandDeciderE
0001:00068ace  __ZNK6Xapian7Enquire24get_matching_terms_beginERKNS_12MSetIteratorE
0001:00068b74  __ZNK6Xapian7Enquire24get_matching_terms_beginEj
0001:00068c1a  __ZN6Xapian7Enquire22register_match_deciderERKSsPKNS_12MatchDeciderE
0001:00068c56  __ZNK6Xapian7Enquire15get_descriptionEv
0001:00069c78  __ZTVN6Xapian12MatchDeciderE$w$NFcpeKEWRM5I0Sws3
0001:0006a3fe  __ZN6Xapian4RSet8InternalC1Ev$w$NFcpeKEWRM5I0Sws3
0001:00068d6a  __ZN6Xapian8Internal9RefCntPtrINS_4RSet8InternalEEC1EPS3_$w$NFcpeKEWRM5I0Sws3
0001:0006adbe  __ZN6Xapian8Internal9RefCntPtrINS_4RSet8InternalEEC1ERKS4_$w$NFcpeKEWRM5I0Sws3
0001:0006adde  __ZN6Xapian8Internal9RefCntPtrINS_4RSet8InternalEEaSERKS4_$w$NFcpeKEWRM5I0Sws3
0001:0006ad6e  __ZN6Xapian8Internal9RefCntPtrINS_4RSet8InternalEED1Ev$w$NFcpeKEWRM5I0Sws3
0001:0006a4a4  __ZNK6Xapian8Internal9RefCntPtrINS_4RSet8InternalEEptEv$w$NFcpeKEWRM5I0Sws3
0001:0006aa22  __ZNKSt3setIjSt4lessIjESaIjEE4sizeEv$w$NFcpeKEWRM5I0Sws3
0001:0006ae62  __ZNKSt3setIjSt4lessIjESaIjEE5emptyEv$w$NFcpeKEWRM5I0Sws3
0001:0006ae8a  __ZNSt3setIjSt4lessIjESaIjEE6insertERKj$w$NFcpeKEWRM5I0Sws3
0001:0006b126  __ZNSt3setIjSt4lessIjESaIjEE4findERKj$w$NFcpeKEWRM5I0Sws3
0001:0006b294  __ZNKSt3setIjSt4lessIjESaIjEE3endEv$w$NFcpeKEWRM5I0Sws3
0001:0006b2ea  __ZStneIjRKjPS0_EbRKSt17_Rb_tree_iteratorIT_T0_T1_ES9_$w$NFcpeKEWRM5I0Sws3
0001:0006b300  __ZNSt3setIjSt4lessIjESaIjEE5eraseESt17_Rb_tree_iteratorIjRKjPS5_E$w$NFcpeKEWRM5I0Sws3
0001:0006499e* __ZStplIcSt11char_traitsIcESaIcEESbIT_T0_T1_EPKS3_RKS6_$w$NFcpeKEWRM5I0Sws3
0001:00068d88* __ZStplIcSt11char_traitsIcESaIcEESbIT_T0_T1_ERKS6_PKS3_$w$NFcpeKEWRM5I0Sws3
0001:0006b3b0  __ZNSt17_Rb_tree_iteratorIjRKjPS0_EC1Ev$w$NFcpeKEWRM5I0Sws3
0001:0006b3c4  __ZNKSt3setIjSt4lessIjESaIjEE5beginEv$w$NFcpeKEWRM5I0Sws3
0001:0006610e  __ZNKSt17_Rb_tree_iteratorIjRKjPS0_EdeEv$w$NFcpeKEWRM5I0Sws3
0001:0006b406  __ZNSt17_Rb_tree_iteratorIjRKjPS0_EppEv$w$NFcpeKEWRM5I0Sws3
0001:00068de0* __ZStplIcSt11char_traitsIcESaIcEESbIT_T0_T1_ERKS6_S8_$w$NFcpeKEWRM5I0Sws3
0001:0006a256  __ZN6Xapian4MSet8InternalC1Ev$w$NFcpeKEWRM5I0Sws3
0001:000647a6  __ZN6Xapian8Internal9RefCntPtrINS_4MSet8InternalEEC1EPS3_$w$NFcpeKEWRM5I0Sws3
0001:0006b41c  __ZN6Xapian8Internal9RefCntPtrINS_4MSet8InternalEED1Ev$w$NFcpeKEWRM5I0Sws3
0001:0006b46c  __ZN6Xapian8Internal9RefCntPtrINS_4MSet8InternalEEC1ERKS4_$w$NFcpeKEWRM5I0Sws3
0001:0006b48c  __ZN6Xapian8Internal9RefCntPtrINS_4MSet8InternalEEaSERKS4_$w$NFcpeKEWRM5I0Sws3
0001:00069d94  __ZN6XapianneERKNS_12MSetIteratorES2_$w$NFcpeKEWRM5I0Sws3
0001:0006b510  __ZNK6Xapian8Internal9RefCntPtrINS_4MSet8InternalEEptEv$w$NFcpeKEWRM5I0Sws3
0001:0006b51a  __ZNKSt6vectorIN6Xapian8Internal8MSetItemESaIS2_EE5emptyEv$w$NFcpeKEWRM5I0Sws3
0001:0006b5fc  __ZNKSt6vectorIN6Xapian8Internal8MSetItemESaIS2_EE4sizeEv$w$NFcpeKEWRM5I0Sws3
0001:00069ca8* __ZNSt11char_traitsIcE6lengthEPKc$w$NFcpeKEWRM5I0Sws3
0001:00068e38* __ZNSs6appendIPKcEERSsT_S3_$w$NFcpeKEWRM5I0Sws3
0001:0006b66c  __ZNSt17_Rb_tree_iteratorISt4pairIKSsN6Xapian4MSet8Internal17TermFreqAndWeightEERKS6_PS7_EC1Ev$w$NFcpeKEWRM5I0Sws3
0001:0006b680  __ZNSt3mapISsN6Xapian4MSet8Internal17TermFreqAndWeightESt4lessISsESaISt4pairIKSsS3_EEE4findERS7_$w$NFcpeKEWRM5I0Sws3
0001:0006b7be  __ZNSt17_Rb_tree_iteratorISt4pairIKSsN6Xapian4MSet8Internal17TermFreqAndWeightEERKS6_PS7_EC1ERKS_IS6_RS6_PS6_E$w$NFcpeKEWRM5I0Sws3
0001:0006b7dc  __ZNSt3mapISsN6Xapian4MSet8Internal17TermFreqAndWeightESt4lessISsESaISt4pairIKSsS3_EEE3endEv$w$NFcpeKEWRM5I0Sws3
0001:0006b802  __ZSteqISt4pairIKSsN6Xapian4MSet8Internal17TermFreqAndWeightEEEbRKSt17_Rb_tree_iteratorIT_RKS8_PS9_ERKS7_IS8_RS8_PS8_E$w$NFcpeKEWRM5I0Sws3
0001:00069e54* __ZN6Xapian20InvalidArgumentErrorC1ERKSsS2_i$w$NFcpeKEWRM5I0Sws3
0001:00069e2c* __ZN6Xapian20InvalidArgumentErrorD1Ev$w$NFcpeKEWRM5I0Sws3
0001:0006ec14* __ZTIN6Xapian20InvalidArgumentErrorE$w$NFcpeKEWRM5I0Sws3
0001:00068e84  __ZNKSt17_Rb_tree_iteratorISt4pairIKSsN6Xapian4MSet8Internal17TermFreqAndWeightEERKS6_PS7_EptEv$w$NFcpeKEWRM5I0Sws3
0001:0006b818  __ZSt4swapIN6Xapian8Internal9RefCntPtrINS0_4MSet8InternalEEEEvRT_S7_$w$NFcpeKEWRM5I0Sws3
0001:00069d6e  __ZN6Xapian12MSetIteratorC1EjRKNS_4MSetE$w$NFcpeKEWRM5I0Sws3
0001:0006b888  __ZNSt17_Rb_tree_iteratorISt4pairIKjN6Xapian8DocumentEERKS4_PS5_EC1Ev$w$NFcpeKEWRM5I0Sws3
0001:0006b89c  __ZNSt3mapIjN6Xapian8DocumentESt4lessIjESaISt4pairIKjS1_EEE4findERS5_$w$NFcpeKEWRM5I0Sws3
0001:0006b9da  __ZNSt17_Rb_tree_iteratorISt4pairIKjN6Xapian8DocumentEERKS4_PS5_EC1ERKS_IS4_RS4_PS4_E$w$NFcpeKEWRM5I0Sws3
0001:0006b9f8  __ZNSt3mapIjN6Xapian8DocumentESt4lessIjESaISt4pairIKjS1_EEE3endEv$w$NFcpeKEWRM5I0Sws3
0001:0006ba1e  __ZStneISt4pairIKjN6Xapian8DocumentEEEbRKSt17_Rb_tree_iteratorIT_RKS6_PS7_ERKS5_IS6_RS6_PS6_E$w$NFcpeKEWRM5I0Sws3
0001:0006ba34  __ZNKSt17_Rb_tree_iteratorISt4pairIKjN6Xapian8DocumentEERKS4_PS5_EptEv$w$NFcpeKEWRM5I0Sws3
0001:00069efc  __ZN6Xapian10RangeErrorC1ERKSsS2_i$w$NFcpeKEWRM5I0Sws3
0001:00069ede  __ZN6Xapian10RangeErrorD1Ev$w$NFcpeKEWRM5I0Sws3
0001:0006ec20  __ZTIN6Xapian10RangeErrorE$w$NFcpeKEWRM5I0Sws3
0001:00068e98  __ZNKSt17_Rb_tree_iteratorISt4pairIKjN6Xapian8DocumentEERS4_PS4_EptEv$w$NFcpeKEWRM5I0Sws3
0001:0006ba56  __ZNK6Xapian8Internal9RefCntPtrIKNS_7Enquire8InternalEE3getEv$w$NFcpeKEWRM5I0Sws3
0001:00069eae* __ZN6Xapian21InvalidOperationErrorC1ERKSsS2_i$w$NFcpeKEWRM5I0Sws3
0001:00069e84* __ZN6Xapian21InvalidOperationErrorD1Ev$w$NFcpeKEWRM5I0Sws3
0001:0006ec00* __ZTIN6Xapian21InvalidOperationErrorE$w$NFcpeKEWRM5I0Sws3
0001:00068eac  __ZSteqISt4pairIKjN6Xapian8DocumentEEEbRKSt17_Rb_tree_iteratorIT_RKS6_PS7_ERKS5_IS6_RS6_PS6_E$w$NFcpeKEWRM5I0Sws3
0001:00068ec2  __ZSteqIjRKjPS0_EbRKSt17_Rb_tree_iteratorIT_T0_T1_ES9_$w$NFcpeKEWRM5I0Sws3
0001:00068ee2  __ZNKSt6vectorIN6Xapian8Internal8MSetItemESaIS2_EEixEj$w$NFcpeKEWRM5I0Sws3
0001:00068ed8  __ZNK6Xapian8Internal9RefCntPtrIKNS_7Enquire8InternalEEptEv$w$NFcpeKEWRM5I0Sws3
0001:0006b59c  __ZNKSt6vectorIN6Xapian8Internal8MSetItemESaIS2_EE5beginEv$w$NFcpeKEWRM5I0Sws3
0001:0006b558  __ZNKSt6vectorIN6Xapian8Internal8MSetItemESaIS2_EE3endEv$w$NFcpeKEWRM5I0Sws3
0001:00068f1e  __ZN9__gnu_cxxneIPKN6Xapian8Internal8MSetItemESt6vectorIS3_SaIS3_EEEEbRKNS_17__normal_iteratorIT_T0_EESE_$w$NFcpeKEWRM5I0Sws3
0001:00068f5e  __ZNK9__gnu_cxx17__normal_iteratorIPKN6Xapian8Internal8MSetItemESt6vectorIS3_SaIS3_EEEptEv$w$NFcpeKEWRM5I0Sws3
0001:00068f50  __ZN9__gnu_cxx17__normal_iteratorIPKN6Xapian8Internal8MSetItemESt6vectorIS3_SaIS3_EEEppEv$w$NFcpeKEWRM5I0Sws3
0001:0006ba60  __ZNSt3mapIjN6Xapian8DocumentESt4lessIjESaISt4pairIKjS1_EEEixERS5_$w$NFcpeKEWRM5I0Sws3
0001:00068f68  __ZNSt3setIjSt4lessIjESaIjEE5clearEv$w$NFcpeKEWRM5I0Sws3
0001:0006a390  __ZN6Xapian4ESet8InternalC1Ev$w$NFcpeKEWRM5I0Sws3
0001:00068f7c  __ZN6Xapian8Internal9RefCntPtrINS_4ESet8InternalEEC1EPS3_$w$NFcpeKEWRM5I0Sws3
0001:0006bd38  __ZN6Xapian8Internal9RefCntPtrINS_4ESet8InternalEED1Ev$w$NFcpeKEWRM5I0Sws3
0001:0006bd88  __ZN6Xapian8Internal9RefCntPtrINS_4ESet8InternalEEC1ERKS4_$w$NFcpeKEWRM5I0Sws3
0001:0006bda8  __ZN6Xapian8Internal9RefCntPtrINS_4ESet8InternalEEaSERKS4_$w$NFcpeKEWRM5I0Sws3
0001:0006be2c  __ZNK6Xapian8Internal9RefCntPtrINS_4ESet8InternalEEptEv$w$NFcpeKEWRM5I0Sws3
0001:0006be36  __ZNKSt6vectorIN6Xapian8Internal8ESetItemESaIS2_EE4sizeEv$w$NFcpeKEWRM5I0Sws3
0001:0006bf18  __ZNKSt6vectorIN6Xapian8Internal8ESetItemESaIS2_EE5emptyEv$w$NFcpeKEWRM5I0Sws3
0001:0006bf88  __ZSt4swapIN6Xapian8Internal9RefCntPtrINS0_4ESet8InternalEEEEvRT_S7_$w$NFcpeKEWRM5I0Sws3
0001:00069daa  __ZN6Xapian12ESetIteratorC1EjRKNS_4ESetE$w$NFcpeKEWRM5I0Sws3
0001:0006be72  __ZNKSt6vectorIN6Xapian8Internal8ESetItemESaIS2_EE5beginEv$w$NFcpeKEWRM5I0Sws3
0001:0006beb6  __ZNKSt6vectorIN6Xapian8Internal8ESetItemESaIS2_EE3endEv$w$NFcpeKEWRM5I0Sws3
0001:00068f9a  __ZN9__gnu_cxxneIPKN6Xapian8Internal8ESetItemESt6vectorIS3_SaIS3_EEEEbRKNS_17__normal_iteratorIT_T0_EESE_$w$NFcpeKEWRM5I0Sws3
0001:00068ff4  __ZNK9__gnu_cxx17__normal_iteratorIPKN6Xapian8Internal8ESetItemESt6vectorIS3_SaIS3_EEEptEv$w$NFcpeKEWRM5I0Sws3
0001:00068fcc  __ZN9__gnu_cxx17__normal_iteratorIPKN6Xapian8Internal8ESetItemESt6vectorIS3_SaIS3_EEEppEi$w$NFcpeKEWRM5I0Sws3
0001:0006bff8  __ZNSt6vectorIN6Xapian8Internal8ESetItemESaIS2_EEixEj$w$NFcpeKEWRM5I0Sws3
0001:0006c0ae  __ZNSt6vectorIN6Xapian8Internal8MSetItemESaIS2_EEixEj$w$NFcpeKEWRM5I0Sws3
0001:00069cbc* __ZN6Xapian8Internal10RefCntBaseC2Ev$w$NFcpeKEWRM5I0Sws3
0001:00068ffe  __ZNSt3mapISsPKN6Xapian12MatchDeciderESt4lessISsESaISt4pairIKSsS3_EEEC1Ev$w$NFcpeKEWRM5I0Sws3
0001:00068352* __ZNKSt6vectorIN6Xapian8Internal9RefCntPtrINS0_8Database8InternalEEESaIS5_EE4sizeEv$w$NFcpeKEWRM5I0Sws3
0001:0006a1d2  __ZNSt3mapISsPKN6Xapian12MatchDeciderESt4lessISsESaISt4pairIKSsS3_EEED1Ev$w$NFcpeKEWRM5I0Sws3
0001:00069dd8  __ZN6Xapian10BM25WeightC1Ev$w$NFcpeKEWRM5I0Sws3
0001:0006ac30  __ZN18LocalStatsGathererC1Ev$w$NFcpeKEWRM5I0Sws3
0001:0006905c  __ZNK6Xapian8Internal9RefCntPtrINS_5Query8InternalEE3getEv$w$NFcpeKEWRM5I0Sws3
0001:0006acc6  __ZN10MultiMatchD1Ev$w$NFcpeKEWRM5I0Sws3
0001:00069066  __ZN6Xapian8Internal9RefCntPtrIKNS_7Enquire8InternalEEaSEPS4_$w$NFcpeKEWRM5I0Sws3
0001:0006ad60  __ZN8OmExpandC1ERKN6Xapian8DatabaseE$w$NFcpeKEWRM5I0Sws3
0001:0006a622  __ZN5RSetIC1ERKN6Xapian8DatabaseERKNS0_4RSetE$w$NFcpeKEWRM5I0Sws3
0001:000690ce  __ZN7AutoPtrIN6Xapian13ExpandDeciderEEC1EPS1_$w$NFcpeKEWRM5I0Sws3
0001:0006a1ae  __ZNK6Xapian5Query13get_terms_endEv$w$NFcpeKEWRM5I0Sws3
0001:00069102  __ZN6Xapian24ExpandDeciderFilterTermsC1INS_12TermIteratorEEET_S3_$w$NFcpeKEWRM5I0Sws3
0001:000691d0  __ZN7AutoPtrIN6Xapian13ExpandDeciderEEaSERS2_$w$NFcpeKEWRM5I0Sws3
0001:000691f6  __ZNK7AutoPtrIN6Xapian13ExpandDeciderEE3getEv$w$NFcpeKEWRM5I0Sws3
0001:00069fd8  __ZN6Xapian16ExpandDeciderAndC1EPKNS_13ExpandDeciderES3_$w$NFcpeKEWRM5I0Sws3
0001:000690dc  __ZN7AutoPtrIN6Xapian13ExpandDeciderEED1Ev$w$NFcpeKEWRM5I0Sws3
0001:0006a434  __ZN5RSetID1Ev$w$NFcpeKEWRM5I0Sws3
0001:0006a4ae* __ZNSt3mapISsjSt4lessISsESaISt4pairIKSsjEEEC1Ev$w$NFcpeKEWRM5I0Sws3
0001:00069d4e* __ZN6XapianneERKNS_12TermIteratorES2_$w$NFcpeKEWRM5I0Sws3
0001:0006a954* __ZNSt3mapISsjSt4lessISsESaISt4pairIKSsjEEE3endEv$w$NFcpeKEWRM5I0Sws3
0001:00069200  __ZNSt3mapISsjSt4lessISsESaISt4pairIKSsjEEE4findERS3_$w$NFcpeKEWRM5I0Sws3
0001:0006a9a0* __ZSteqISt4pairIKSsjERS2_PS2_EbRKSt17_Rb_tree_iteratorIT_T0_T1_ESB_$w$NFcpeKEWRM5I0Sws3
0001:0006a6c0* __ZNSt3mapISsjSt4lessISsESaISt4pairIKSsjEEEixERS3_$w$NFcpeKEWRM5I0Sws3
0001:00069cde  __ZN6Xapian12TermIteratorppEi$w$NFcpeKEWRM5I0Sws3
0001:00069cca  __ZN6Xapian15TermNameWrapperD1Ev$w$NFcpeKEWRM5I0Sws3
0001:00068d0e  __ZNSaISsEC1Ev$w$NFcpeKEWRM5I0Sws3
0001:0006922c  __ZNSt6vectorISsSaISsEEC1ERKS0_$w$NFcpeKEWRM5I0Sws3
0001:00068d14  __ZNSaISsED1Ev$w$NFcpeKEWRM5I0Sws3
0001:0006a18a  __ZNK6Xapian8Database12termlist_endEj$w$NFcpeKEWRM5I0Sws3
0001:00069246  __ZStneISt4pairIKSsjERS2_PS2_EbRKSt17_Rb_tree_iteratorIT_T0_T1_ESB_$w$NFcpeKEWRM5I0Sws3
0001:0006925c  __ZNSt6vectorISsSaISsEE9push_backERKSs$w$NFcpeKEWRM5I0Sws3
0001:0006c304  __ZN6Xapian15ByQueryIndexCmpC1ERKSt3mapISsjSt4lessISsESaISt4pairIKSsjEEE$w$NFcpeKEWRM5I0Sws3
0001:000692d6  __ZNSt6vectorISsSaISsEE3endEv$w$NFcpeKEWRM5I0Sws3
0001:000692b8  __ZNSt6vectorISsSaISsEE5beginEv$w$NFcpeKEWRM5I0Sws3
0001:000692f6  __ZSt4sortIN9__gnu_cxx17__normal_iteratorIPSsSt6vectorISsSaISsEEEEN6Xapian15ByQueryIndexCmpEEvT_S9_T0_$w$NFcpeKEWRM5I0Sws3
0001:00069368  __ZN9__gnu_cxx17__normal_iteratorIPKSsSt6vectorISsSaISsEEEC1IPSsEERKNS0_IT_S5_EE$w$NFcpeKEWRM5I0Sws3
0001:0006a00c  __ZN14VectorTermListC1EN9__gnu_cxx17__normal_iteratorIPKSsSt6vectorISsSaISsEEEES7_$w$NFcpeKEWRM5I0Sws3
0001:00068d1a  __ZNSt6vectorISsSaISsEED1Ev$w$NFcpeKEWRM5I0Sws3
0001:0006a420* __ZNSt3mapISsjSt4lessISsESaISt4pairIKSsjEEED1Ev$w$NFcpeKEWRM5I0Sws3
0001:0006c312* __ZNKSt6vectorIN6Xapian8Internal9RefCntPtrINS0_8Database8InternalEEESaIS5_EE5beginEv$w$NFcpeKEWRM5I0Sws3
0001:0006c356* __ZNKSt6vectorIN6Xapian8Internal9RefCntPtrINS0_8Database8InternalEEESaIS5_EE3endEv$w$NFcpeKEWRM5I0Sws3
0001:0006c37c* __ZN9__gnu_cxxmiIPKN6Xapian8Internal9RefCntPtrINS1_8Database8InternalEEES8_St6vectorIS6_SaIS6_EEEENS_17__normal_iteratorIT_T1_E15difference_typeERKSF_RKNSC_IT0_SE_EE$w$NFcpeKEWRM5I0Sws3
0001:0006c3b2* __ZNKSt6vectorIN6Xapian8Internal9RefCntPtrINS0_8Database8InternalEEESaIS5_EEixEj$w$NFcpeKEWRM5I0Sws3
0001:0006c42a* __ZNK6Xapian8Internal9RefCntPtrINS_8Database8InternalEEptEv$w$NFcpeKEWRM5I0Sws3
0001:0006ec2c* __ZTIN6Xapian5ErrorE$w$NFcpeKEWRM5I0Sws3
0001:0006c434  __ZNSt3mapISsPKN6Xapian12MatchDeciderESt4lessISsESaISt4pairIKSsS3_EEEixERS7_$w$NFcpeKEWRM5I0Sws3
0001:00069392  __ZNSt3mapISsPKN6Xapian12MatchDeciderESt4lessISsESaISt4pairIKSsS3_EEE5eraseERS7_$w$NFcpeKEWRM5I0Sws3
0001:000693ac  __ZN6Xapian8Internal9RefCntPtrINS_7Enquire8InternalEEC1EPS3_$w$NFcpeKEWRM5I0Sws3
0001:0006c75a  __ZN6Xapian8Internal9RefCntPtrINS_7Enquire8InternalEED1Ev$w$NFcpeKEWRM5I0Sws3
0001:0006c7aa  __ZNK6Xapian8Internal9RefCntPtrINS_7Enquire8InternalEEptEv$w$NFcpeKEWRM5I0Sws3
0001:000693ca  __ZSt8_DestroyIPSsEvT_S1_$w$NFcpeKEWRM5I0Sws3
0001:0006c7f0  __ZNSt12_Vector_baseISsSaISsEED2Ev$w$NFcpeKEWRM5I0Sws3
0001:0006cc0c  __ZNKSt17_Rb_tree_iteratorISt4pairIKSsN6Xapian4MSet8Internal17TermFreqAndWeightEERKS6_PS7_EdeEv$w$NFcpeKEWRM5I0Sws3
0001:0006bc96  __ZNKSt17_Rb_tree_iteratorISt4pairIKjN6Xapian8DocumentEERS4_PS4_EdeEv$w$NFcpeKEWRM5I0Sws3
0001:0006cc1a  __ZNK9__gnu_cxx17__normal_iteratorIPKN6Xapian8Internal8MSetItemESt6vectorIS3_SaIS3_EEEplERKi$w$NFcpeKEWRM5I0Sws3
0001:0006cc4e  __ZNK9__gnu_cxx17__normal_iteratorIPKN6Xapian8Internal8MSetItemESt6vectorIS3_SaIS3_EEEdeEv$w$NFcpeKEWRM5I0Sws3
0001:0006b5f4  __ZNK9__gnu_cxx17__normal_iteratorIPKN6Xapian8Internal8MSetItemESt6vectorIS3_SaIS3_EEE4baseEv$w$NFcpeKEWRM5I0Sws3
0001:0006a1e6  __ZNSt8_Rb_treeIjjSt9_IdentityIjESt4lessIjESaIjEE5clearEv$w$NFcpeKEWRM5I0Sws3
0001:0006bf10  __ZNK9__gnu_cxx17__normal_iteratorIPKN6Xapian8Internal8ESetItemESt6vectorIS3_SaIS3_EEE4baseEv$w$NFcpeKEWRM5I0Sws3
0001:0006be98  __ZN9__gnu_cxx17__normal_iteratorIPKN6Xapian8Internal8ESetItemESt6vectorIS3_SaIS3_EEEC1ERKS5_$w$NFcpeKEWRM5I0Sws3
0001:000693ea  __ZNSaISt4pairIKSsPKN6Xapian12MatchDeciderEEEC1Ev$w$NFcpeKEWRM5I0Sws3
0001:0006cf26  __ZNSt8_Rb_treeISsSt4pairIKSsPKN6Xapian12MatchDeciderEESt10_Select1stIS6_ESt4lessISsESaIS6_EEC1ERKSA_RKSB_$w$NFcpeKEWRM5I0Sws3
0001:000693f0  __ZNSaISt4pairIKSsPKN6Xapian12MatchDeciderEEED1Ev$w$NFcpeKEWRM5I0Sws3
0001:00069fca  __ZN6Xapian13ExpandDeciderC2Ev$w$NFcpeKEWRM5I0Sws3
0001:000693f6  __ZNSt3setISsSt4lessISsESaISsEEC1IN6Xapian12TermIteratorEEET_S7_$w$NFcpeKEWRM5I0Sws3
0001:0006d2b0  __ZN7AutoPtrIN6Xapian13ExpandDeciderEE7releaseEv$w$NFcpeKEWRM5I0Sws3
0001:0006d2cc  __ZN7AutoPtrIN6Xapian13ExpandDeciderEE5resetEPS1_$w$NFcpeKEWRM5I0Sws3
0001:0006d304  __ZNSt8_Rb_treeISsSt4pairIKSsjESt10_Select1stIS2_ESt4lessISsESaIS2_EE4findERS1_$w$NFcpeKEWRM5I0Sws3
0001:0006c7b4  __ZNSt12_Vector_baseISsSaISsEEC2ERKS0_$w$NFcpeKEWRM5I0Sws3
0001:0006d416  __ZSt10_ConstructISsSsEvPT_RKT0_$w$NFcpeKEWRM5I0Sws3
0001:000694fe  __ZNSt6vectorISsSaISsEE13_M_insert_auxEN9__gnu_cxx17__normal_iteratorIPSsS1_EERKSs$w$NFcpeKEWRM5I0Sws3
0001:0006d492  __ZN9__gnu_cxx17__normal_iteratorIPSsSt6vectorISsSaISsEEEC1ERKS1_$w$NFcpeKEWRM5I0Sws3
0001:0006d4b0  __ZN9__gnu_cxxneIPSsSt6vectorISsSaISsEEEEbRKNS_17__normal_iteratorIT_T0_EESA_$w$NFcpeKEWRM5I0Sws3
0001:0006d4ea  __ZN9__gnu_cxxmiIPSsS1_St6vectorISsSaISsEEEENS_17__normal_iteratorIT_T1_E15difference_typeERKS8_RKNS5_IT0_S7_EE$w$NFcpeKEWRM5I0Sws3
0001:0006d518  __ZSt4__lgIiET_S0_$w$NFcpeKEWRM5I0Sws3
0001:0006d57a  __ZSt16__introsort_loopIN9__gnu_cxx17__normal_iteratorIPSsSt6vectorISsSaISsEEEEiN6Xapian15ByQueryIndexCmpEEvT_S9_T0_T1_$w$NFcpeKEWRM5I0Sws3
0001:000697ee  __ZSt22__final_insertion_sortIN9__gnu_cxx17__normal_iteratorIPSsSt6vectorISsSaISsEEEEN6Xapian15ByQueryIndexCmpEEvT_S9_T0_$w$NFcpeKEWRM5I0Sws3
0001:0006a006  __ZNSt8iteratorISt26random_access_iterator_tagSsiPKSsRS1_EC2Ev$w$NFcpeKEWRM5I0Sws3
0001:0006d4e2  __ZNK9__gnu_cxx17__normal_iteratorIPSsSt6vectorISsSaISsEEE4baseEv$w$NFcpeKEWRM5I0Sws3
0001:0006d9c2  __ZNSt8_Rb_treeISsSt4pairIKSsPKN6Xapian12MatchDeciderEESt10_Select1stIS6_ESt4lessISsESaIS6_EE5eraseERS1_$w$NFcpeKEWRM5I0Sws3
0001:0006daac  __ZSt13__destroy_auxIPSsEvT_S1_12__false_type$w$NFcpeKEWRM5I0Sws3
0001:0006dfd0  __ZNSt8_Rb_treeISsSsSt9_IdentityISsESt4lessISsESaISsEEC1ERKS3_RKS4_$w$NFcpeKEWRM5I0Sws3
0001:00069892  __ZNSt8_Rb_treeISsSsSt9_IdentityISsESt4lessISsESaISsEE13insert_uniqueIN6Xapian12TermIteratorEEEvT_S9_$w$NFcpeKEWRM5I0Sws3
0001:0006d1a0* __ZNSt8_Rb_treeISsSsSt9_IdentityISsESt4lessISsESaISsEED1Ev$w$NFcpeKEWRM5I0Sws3
0001:00069924  __ZSt13copy_backwardIN9__gnu_cxx17__normal_iteratorIPSsSt6vectorISsSaISsEEEES6_ET0_T_S8_S7_$w$NFcpeKEWRM5I0Sws3
0001:0006d570  __ZNK9__gnu_cxx17__normal_iteratorIPSsSt6vectorISsSaISsEEEdeEv$w$NFcpeKEWRM5I0Sws3
0001:0006a0ae  __ZNKSt6vectorISsSaISsEE4sizeEv$w$NFcpeKEWRM5I0Sws3
0001:0006da6a  __ZNSt18_Vector_alloc_baseISsSaISsELb1EE11_M_allocateEj$w$NFcpeKEWRM5I0Sws3
0001:00069950  __ZSt18uninitialized_copyIN9__gnu_cxx17__normal_iteratorIPSsSt6vectorISsSaISsEEEES6_ET0_T_S8_S7_$w$NFcpeKEWRM5I0Sws3
0001:000697e0  __ZN9__gnu_cxx17__normal_iteratorIPSsSt6vectorISsSaISsEEEppEv$w$NFcpeKEWRM5I0Sws3
0001:0006997c  __ZSt8_DestroyIN9__gnu_cxx17__normal_iteratorIPSsSt6vectorISsSaISsEEEEEvT_S7_$w$NFcpeKEWRM5I0Sws3
0001:0006c820  __ZNSt18_Vector_alloc_baseISsSaISsELb1EE13_M_deallocateEPSsj$w$NFcpeKEWRM5I0Sws3
0001:0006d53e  __ZNK9__gnu_cxx17__normal_iteratorIPSsSt6vectorISsSaISsEEEplERKi$w$NFcpeKEWRM5I0Sws3
0001:0006e328  __ZSt16__insertion_sortIN9__gnu_cxx17__normal_iteratorIPSsSt6vectorISsSaISsEEEEN6Xapian15ByQueryIndexCmpEEvT_S9_T0_$w$NFcpeKEWRM5I0Sws3
0001:0006999c  __ZSt26__unguarded_insertion_sortIN9__gnu_cxx17__normal_iteratorIPSsSt6vectorISsSaISsEEEEN6Xapian15ByQueryIndexCmpEEvT_S9_T0_$w$NFcpeKEWRM5I0Sws3
0001:00069a36  __ZNSt8_Rb_treeISsSsSt9_IdentityISsESt4lessISsESaISsEE13insert_uniqueERKSs$w$NFcpeKEWRM5I0Sws3
0001:0006e6d6  __ZSt37__copy_backward_input_normal_iteratorIN9__gnu_cxx17__normal_iteratorIPSsSt6vectorISsSaISsEEEES6_ET0_T_S8_S7_11__true_type$w$NFcpeKEWRM5I0Sws3
0001:0006e80e  __ZSt24__uninitialized_copy_auxIN9__gnu_cxx17__normal_iteratorIPSsSt6vectorISsSaISsEEEES6_ET0_T_S8_S7_12__false_type$w$NFcpeKEWRM5I0Sws3
0001:0006e8be  __ZSt13__destroy_auxIN9__gnu_cxx17__normal_iteratorIPSsSt6vectorISsSaISsEEEEEvT_S7_12__false_type$w$NFcpeKEWRM5I0Sws3
0001:0006e900  __ZSt25__unguarded_linear_insertIN9__gnu_cxx17__normal_iteratorIPSsSt6vectorISsSaISsEEEESsN6Xapian15ByQueryIndexCmpEEvT_T0_T1_$w$NFcpeKEWRM5I0Sws3
0001:0006e0d0* __ZNKSt8_Rb_treeISsSsSt9_IdentityISsESt4lessISsESaISsEE7_M_rootEv$w$NFcpeKEWRM5I0Sws3
0001:0006e99e* __ZNSt8_Rb_treeISsSsSt9_IdentityISsESt4lessISsESaISsEE6_S_keyEPSt13_Rb_tree_nodeISsE$w$NFcpeKEWRM5I0Sws3
0001:0006e996  __ZNKSt9_IdentityISsEclERKSs$w$NFcpeKEWRM5I0Sws3
0001:0006a832* __ZNKSt4lessISsEclERKSsS2_$w$NFcpeKEWRM5I0Sws3
0001:0006e0ea* __ZNSt8_Rb_treeISsSsSt9_IdentityISsESt4lessISsESaISsEE7_S_leftEPSt13_Rb_tree_nodeISsE$w$NFcpeKEWRM5I0Sws3
0001:0006e0de* __ZNSt8_Rb_treeISsSsSt9_IdentityISsESt4lessISsESaISsEE8_S_rightEPSt13_Rb_tree_nodeISsE$w$NFcpeKEWRM5I0Sws3
0001:0006e9d4  __ZNSt17_Rb_tree_iteratorISsRSsPSsEC1EPSt13_Rb_tree_nodeISsE$w$NFcpeKEWRM5I0Sws3
0001:0006ea0e  __ZNSt8_Rb_treeISsSsSt9_IdentityISsESt4lessISsESaISsEE5beginEv$w$NFcpeKEWRM5I0Sws3
0001:0006ea3c  __ZSteqISsRSsPSsEbRKSt17_Rb_tree_iteratorIT_T0_T1_ES8_$w$NFcpeKEWRM5I0Sws3
0001:0006ea52  __ZNSt8_Rb_treeISsSsSt9_IdentityISsESt4lessISsESaISsEE9_M_insertEPSt18_Rb_tree_node_baseS7_RKSs$w$NFcpeKEWRM5I0Sws3
0001:00069c16  __ZNSt4pairISt17_Rb_tree_iteratorISsRSsPSsEbEC1ERKS3_RKb$w$NFcpeKEWRM5I0Sws3
0001:00069c3c  __ZNSt17_Rb_tree_iteratorISsRSsPSsEmmEv$w$NFcpeKEWRM5I0Sws3
0001:00069c52* __ZNSt8_Rb_treeISsSsSt9_IdentityISsESt4lessISsESaISsEE6_S_keyEPSt18_Rb_tree_node_base$w$NFcpeKEWRM5I0Sws3
0001:0006e9f0  __ZNSt17_Rb_tree_iteratorISsRSsPSsEC1ERKS2_$w$NFcpeKEWRM5I0Sws3
0001:00069f2c* __ZNSt22_Rb_tree_base_iterator12_M_decrementEv$w$NFcpeKEWRM5I0Sws3
0001:0006e9c0* __ZNSt8_Rb_treeISsSsSt9_IdentityISsESt4lessISsESaISsEE8_S_valueEPSt13_Rb_tree_nodeISsE$w$NFcpeKEWRM5I0Sws3
0001:0006e9cc* __ZNKSt9_IdentityISsEclERSs$w$NFcpeKEWRM5I0Sws3
0001:0006ebf8* __ZTIN6Xapian12MatchDeciderE$w$NFcpeKEWRM5I0Sws3
0001:00069c90  __ZTV13StatsGatherer$w$NFcpeKEWRM5I0Sws3
0001:0006ec0c  __ZTI13StatsGatherer$w$NFcpeKEWRM5I0Sws3
0001:0006ab54  __ZN13StatsGathererD1Ev$w$NFcpeKEWRM5I0Sws3
0001:0006abc2  __ZN13StatsGathererD0Ev$w$NFcpeKEWRM5I0Sws3
0001:0006acb8  __ZN13StatsGatherer16set_global_statsEj$w$NFcpeKEWRM5I0Sws3
0001:0006ed5a  __ZN6Xapian15TermNameWrapperC1ERKSs$w$NFcpeKEWRM5I0Sws3
0001:0006ed74* __ZN6XapianeqERKNS_12TermIteratorES2_$w$NFcpeKEWRM5I0Sws3
0001:0006eda4  __ZN6Xapian6WeightC2Ev$w$NFcpeKEWRM5I0Sws3
0001:0006edc4* __ZN6Xapian10LogicErrorD2Ev$w$NFcpeKEWRM5I0Sws3
0001:0006edd8* __ZN6Xapian10LogicErrorC2ERKSsS2_PKci$w$NFcpeKEWRM5I0Sws3
0001:0006ee08  __ZN6Xapian12RuntimeErrorD2Ev$w$NFcpeKEWRM5I0Sws3
0001:0006ee1c  __ZN6Xapian12RuntimeErrorC2ERKSsS2_PKci$w$NFcpeKEWRM5I0Sws3
0001:0006f4ec* __ZN6Xapian12TermIterator8InternalC2Ev$w$NFcpeKEWRM5I0Sws3
0001:0006ed10  __ZTV14VectorTermList$w$NFcpeKEWRM5I0Sws3
0001:0006f5dc  __ZNSt6vectorISsSaISsEEC1IN9__gnu_cxx17__normal_iteratorIPKSsS1_EEEET_S8_RKS0_$w$NFcpeKEWRM5I0Sws3
0001:0006a0ea  __ZNKSt6vectorISsSaISsEE5beginEv$w$NFcpeKEWRM5I0Sws3
0001:0006a12e  __ZNKSt6vectorISsSaISsEE3endEv$w$NFcpeKEWRM5I0Sws3
0001:0006a154  __ZN9__gnu_cxxmiIPKSsS2_St6vectorISsSaISsEEEENS_17__normal_iteratorIT_T1_E15difference_typeERKS9_RKNS6_IT0_S8_EE$w$NFcpeKEWRM5I0Sws3
0001:0006a110  __ZN9__gnu_cxx17__normal_iteratorIPKSsSt6vectorISsSaISsEEEC1ERKS2_$w$NFcpeKEWRM5I0Sws3
0001:0006a182  __ZNK9__gnu_cxx17__normal_iteratorIPKSsSt6vectorISsSaISsEEE4baseEv$w$NFcpeKEWRM5I0Sws3
0001:0006c164  __ZNSt8_Rb_treeISsSt4pairIKSsPKN6Xapian12MatchDeciderEESt10_Select1stIS6_ESt4lessISsESaIS6_EED1Ev$w$NFcpeKEWRM5I0Sws3
0001:0006aee2  __ZNKSt8_Rb_treeIjjSt9_IdentityIjESt4lessIjESaIjEE7_M_rootEv$w$NFcpeKEWRM5I0Sws3
0001:0006c862  __ZNSt8_Rb_treeIjjSt9_IdentityIjESt4lessIjESaIjEE8_M_eraseEPSt13_Rb_tree_nodeIjE$w$NFcpeKEWRM5I0Sws3
0001:0006aef0  __ZNKSt8_Rb_treeIjjSt9_IdentityIjESt4lessIjESaIjEE11_M_leftmostEv$w$NFcpeKEWRM5I0Sws3
0001:0006aefe  __ZNKSt8_Rb_treeIjjSt9_IdentityIjESt4lessIjESaIjEE12_M_rightmostEv$w$NFcpeKEWRM5I0Sws3
0001:0006fdde  __ZNSt3setIjSt4lessIjESaIjEEC1Ev$w$NFcpeKEWRM5I0Sws3
0001:0006ffcc  __ZNSt3mapIjN6Xapian8DocumentESt4lessIjESaISt4pairIKjS1_EEEC1Ev$w$NFcpeKEWRM5I0Sws3
0001:00070156  __ZN6Xapian8Internal9RefCntPtrIKNS_7Enquire8InternalEEC1Ev$w$NFcpeKEWRM5I0Sws3
0001:000701b4  __ZNSt3mapISsN6Xapian4MSet8Internal17TermFreqAndWeightESt4lessISsESaISt4pairIKSsS3_EEEC1Ev$w$NFcpeKEWRM5I0Sws3
0001:00070322  __ZNSaIN6Xapian8Internal8MSetItemEEC1Ev$w$NFcpeKEWRM5I0Sws3
0001:0007032e  __ZNSt6vectorIN6Xapian8Internal8MSetItemESaIS2_EEC1ERKS3_$w$NFcpeKEWRM5I0Sws3
0001:00070328  __ZNSaIN6Xapian8Internal8MSetItemEED1Ev$w$NFcpeKEWRM5I0Sws3
0001:0006fd02  __ZNSt3mapISsN6Xapian4MSet8Internal17TermFreqAndWeightESt4lessISsESaISt4pairIKSsS3_EEED1Ev$w$NFcpeKEWRM5I0Sws3
0001:00070164  __ZN6Xapian8Internal9RefCntPtrIKNS_7Enquire8InternalEED1Ev$w$NFcpeKEWRM5I0Sws3
0001:0006fcee  __ZNSt3mapIjN6Xapian8DocumentESt4lessIjESaISt4pairIKjS1_EEED1Ev$w$NFcpeKEWRM5I0Sws3
0001:0006fcda  __ZNSt3setIjSt4lessIjESaIjEED1Ev$w$NFcpeKEWRM5I0Sws3
0001:00070388  __ZNSaIN6Xapian8Internal8ESetItemEEC1Ev$w$NFcpeKEWRM5I0Sws3
0001:00070394  __ZNSt6vectorIN6Xapian8Internal8ESetItemESaIS2_EEC1ERKS3_$w$NFcpeKEWRM5I0Sws3
0001:0007038e  __ZNSaIN6Xapian8Internal8ESetItemEED1Ev$w$NFcpeKEWRM5I0Sws3
0001:0006a50c* __ZNSt8_Rb_treeISsSt4pairIKSsjESt10_Select1stIS2_ESt4lessISsESaIS2_EED1Ev$w$NFcpeKEWRM5I0Sws3
0001:0006aa42* __ZNSaISt4pairIKSsjEEC1Ev$w$NFcpeKEWRM5I0Sws3
0001:0006aa4e* __ZNSt8_Rb_treeISsSt4pairIKSsjESt10_Select1stIS2_ESt4lessISsESaIS2_EEC1ERKS6_RKS7_$w$NFcpeKEWRM5I0Sws3
0001:0006aa48* __ZNSaISt4pairIKSsjEED1Ev$w$NFcpeKEWRM5I0Sws3
0001:0006a5b2* __ZNSt8_Rb_treeISsSt4pairIKSsjESt10_Select1stIS2_ESt4lessISsESaIS2_EE5clearEv$w$NFcpeKEWRM5I0Sws3
0001:0006a550* __ZNSt13_Rb_tree_baseISt4pairIKSsjESaIS2_EED2Ev$w$NFcpeKEWRM5I0Sws3
0001:0006a56c* __ZNSt19_Rb_tree_alloc_baseISt4pairIKSsjESaIS2_ELb1EE11_M_put_nodeEPSt13_Rb_tree_nodeIS2_E$w$NFcpeKEWRM5I0Sws3
0001:0006a588* __ZNSt14__simple_allocISt13_Rb_tree_nodeISt4pairIKSsjEESt24__default_alloc_templateILb1ELi0EEE10deallocateEPS4_j$w$NFcpeKEWRM5I0Sws3
0001:0006a824* __ZNKSt8_Rb_treeISsSt4pairIKSsjESt10_Select1stIS2_ESt4lessISsESaIS2_EE7_M_rootEv$w$NFcpeKEWRM5I0Sws3
0001:0006c8ba* __ZNSt8_Rb_treeISsSt4pairIKSsjESt10_Select1stIS2_ESt4lessISsESaIS2_EE8_M_eraseEPSt13_Rb_tree_nodeIS2_E$w$NFcpeKEWRM5I0Sws3
0001:0006ac4c* __ZNKSt8_Rb_treeISsSt4pairIKSsjESt10_Select1stIS2_ESt4lessISsESaIS2_EE11_M_leftmostEv$w$NFcpeKEWRM5I0Sws3
0001:0006c912* __ZNKSt8_Rb_treeISsSt4pairIKSsjESt10_Select1stIS2_ESt4lessISsESaIS2_EE12_M_rightmostEv$w$NFcpeKEWRM5I0Sws3
0001:0007042a  __ZNK6Xapian4RSet8Internal9get_itemsEv$w$NFcpeKEWRM5I0Sws3
0001:0007044a  __ZNSt3setIjSt4lessIjESaIjEEC1ERKS3_$w$NFcpeKEWRM5I0Sws3
0001:0006a7f8* __ZNSt3mapISsjSt4lessISsESaISt4pairIKSsjEEE11lower_boundERS3_$w$NFcpeKEWRM5I0Sws3
0001:0006a920* __ZNKSt17_Rb_tree_iteratorISt4pairIKSsjERS2_PS2_EdeEv$w$NFcpeKEWRM5I0Sws3
0001:0006a92e* __ZNKSt3mapISsjSt4lessISsESaISt4pairIKSsjEEE8key_compEv$w$NFcpeKEWRM5I0Sws3
0001:0006a9b6* __ZNSt4pairIKSsjEC1ERS0_RKj$w$NFcpeKEWRM5I0Sws3
0001:0006a86e* __ZNSt17_Rb_tree_iteratorISt4pairIKSsjERS2_PS2_EC1ERKS5_$w$NFcpeKEWRM5I0Sws3
0001:0006a9dc* __ZNSt3mapISsjSt4lessISsESaISt4pairIKSsjEEE6insertESt17_Rb_tree_iteratorIS4_RS4_PS4_ERKS4_$w$NFcpeKEWRM5I0Sws3
0001:00070436* __ZNSt4pairIKSsjED1Ev$w$NFcpeKEWRM5I0Sws3
0001:0006a88c* __ZNSt8_Rb_treeISsSt4pairIKSsjESt10_Select1stIS2_ESt4lessISsESaIS2_EE11lower_boundERS1_$w$NFcpeKEWRM5I0Sws3
0001:0006a850* __ZStltIcSt11char_traitsIcESaIcEEbRKSbIT_T0_T1_ES8_$w$NFcpeKEWRM5I0Sws3
0001:0006ee4c* __ZNSt22_Rb_tree_base_iteratorC2Ev$w$NFcpeKEWRM5I0Sws3
0001:00070464* __ZNSt8_Rb_treeISsSt4pairIKSsjESt10_Select1stIS2_ESt4lessISsESaIS2_EE6_S_keyEPSt13_Rb_tree_nodeIS2_E$w$NFcpeKEWRM5I0Sws3
0001:0007049a* __ZNSt8_Rb_treeISsSt4pairIKSsjESt10_Select1stIS2_ESt4lessISsESaIS2_EE7_S_leftEPSt13_Rb_tree_nodeIS2_E$w$NFcpeKEWRM5I0Sws3
0001:000704a6* __ZNSt8_Rb_treeISsSt4pairIKSsjESt10_Select1stIS2_ESt4lessISsESaIS2_EE8_S_rightEPSt13_Rb_tree_nodeIS2_E$w$NFcpeKEWRM5I0Sws3
0001:000704b2* __ZNSt17_Rb_tree_iteratorISt4pairIKSsjERS2_PS2_EC1EPSt13_Rb_tree_nodeIS2_E$w$NFcpeKEWRM5I0Sws3
0001:0006a948* __ZNKSt8_Rb_treeISsSt4pairIKSsjESt10_Select1stIS2_ESt4lessISsESaIS2_EE8key_compEv$w$NFcpeKEWRM5I0Sws3
0001:0006a97a* __ZNSt8_Rb_treeISsSt4pairIKSsjESt10_Select1stIS2_ESt4lessISsESaIS2_EE3endEv$w$NFcpeKEWRM5I0Sws3
0001:0006c920* __ZNSt8_Rb_treeISsSt4pairIKSsjESt10_Select1stIS2_ESt4lessISsESaIS2_EE13insert_uniqueESt17_Rb_tree_iteratorIS2_RS2_PS2_ERKS2_$w$NFcpeKEWRM5I0Sws3
0001:0006aa36  __ZNKSt8_Rb_treeIjjSt9_IdentityIjESt4lessIjESaIjEE4sizeEv$w$NFcpeKEWRM5I0Sws3
0001:0006aa7e* __ZNSt13_Rb_tree_baseISt4pairIKSsjESaIS2_EEC2ERKS3_$w$NFcpeKEWRM5I0Sws3
0001:0006ab00* __ZNSt8_Rb_treeISsSt4pairIKSsjESt10_Select1stIS2_ESt4lessISsESaIS2_EE19_M_empty_initializeEv$w$NFcpeKEWRM5I0Sws3
0001:0006aaae* __ZNSt19_Rb_tree_alloc_baseISt4pairIKSsjESaIS2_ELb1EEC2ERKS3_$w$NFcpeKEWRM5I0Sws3
0001:0006aabc* __ZNSt19_Rb_tree_alloc_baseISt4pairIKSsjESaIS2_ELb1EE11_M_get_nodeEv$w$NFcpeKEWRM5I0Sws3
0001:0006aad0* __ZNSt14__simple_allocISt13_Rb_tree_nodeISt4pairIKSsjEESt24__default_alloc_templateILb1ELi0EEE8allocateEj$w$NFcpeKEWRM5I0Sws3
0001:0006cbee* __ZNSt8_Rb_treeISsSt4pairIKSsjESt10_Select1stIS2_ESt4lessISsESaIS2_EE8_S_colorEPSt13_Rb_tree_nodeIS2_E$w$NFcpeKEWRM5I0Sws3
0001:000704f0  __ZN5StatsD1Ev$w$NFcpeKEWRM5I0Sws3
0001:000705a6  __ZNSt3setIPN6Xapian6Weight8InternalESt4lessIS3_ESaIS3_EED1Ev$w$NFcpeKEWRM5I0Sws3
0001:0006ac5a  __ZN13StatsGathererC2Ev$w$NFcpeKEWRM5I0Sws3
0001:000706ca  __ZNSt3setIPN6Xapian6Weight8InternalESt4lessIS3_ESaIS3_EEC1Ev$w$NFcpeKEWRM5I0Sws3
0001:0007053e  __ZN5StatsC1Ev$w$NFcpeKEWRM5I0Sws3
0001:0006c2f0  __ZNSt6vectorIbSaIbEED1Ev$w$NFcpeKEWRM5I0Sws3
0001:0006c2a0  __ZNSt6vectorIN6Xapian8Internal9RefCntPtrI8SubMatchEESaIS4_EED1Ev$w$NFcpeKEWRM5I0Sws3
0001:0006c27a  __ZN7AutoPtrI13StatsGathererED1Ev$w$NFcpeKEWRM5I0Sws3
0001:00070414  __ZN6Xapian4RSet8InternalD1Ev$w$NFcpeKEWRM5I0Sws3
0001:0006adfa  __ZN6Xapian8Internal9RefCntPtrINS_4RSet8InternalEEaSEPS3_$w$NFcpeKEWRM5I0Sws3
0001:0006ae78  __ZNKSt8_Rb_treeIjjSt9_IdentityIjESt4lessIjESaIjEE5emptyEv$w$NFcpeKEWRM5I0Sws3
0001:0006af0c  __ZNSt8_Rb_treeIjjSt9_IdentityIjESt4lessIjESaIjEE13insert_uniqueERKj$w$NFcpeKEWRM5I0Sws3
0001:0006b0ec  __ZNSt17_Rb_tree_iteratorIjRKjPS0_EC1ERKS_IjRjPjE$w$NFcpeKEWRM5I0Sws3
0001:0006b10a  __ZNSt4pairISt17_Rb_tree_iteratorIjRKjPS1_EbEC1ERKS4_RKb$w$NFcpeKEWRM5I0Sws3
0001:0007083c  __ZNSt8_Rb_treeIjjSt9_IdentityIjESt4lessIjESaIjEE6_S_keyEPSt13_Rb_tree_nodeIjE$w$NFcpeKEWRM5I0Sws3
0001:00070834  __ZNKSt9_IdentityIjEclERKj$w$NFcpeKEWRM5I0Sws3
0001:00070872* __ZNKSt4lessIjEclERKjS2_$w$NFcpeKEWRM5I0Sws3
0001:00070894  __ZNSt8_Rb_treeIjjSt9_IdentityIjESt4lessIjESaIjEE7_S_leftEPSt13_Rb_tree_nodeIjE$w$NFcpeKEWRM5I0Sws3
0001:00070888  __ZNSt8_Rb_treeIjjSt9_IdentityIjESt4lessIjESaIjEE8_S_rightEPSt13_Rb_tree_nodeIjE$w$NFcpeKEWRM5I0Sws3
0001:000708a0  __ZNSt17_Rb_tree_iteratorIjRjPjEC1EPSt13_Rb_tree_nodeIjE$w$NFcpeKEWRM5I0Sws3
0001:000708da  __ZNSt8_Rb_treeIjjSt9_IdentityIjESt4lessIjESaIjEE5beginEv$w$NFcpeKEWRM5I0Sws3
0001:00070908  __ZSteqIjRjPjEbRKSt17_Rb_tree_iteratorIT_T0_T1_ES8_$w$NFcpeKEWRM5I0Sws3
0001:0007091e  __ZNSt8_Rb_treeIjjSt9_IdentityIjESt4lessIjESaIjEE9_M_insertEPSt18_Rb_tree_node_baseS7_RKj$w$NFcpeKEWRM5I0Sws3
0001:00070ab8  __ZNSt4pairISt17_Rb_tree_iteratorIjRjPjEbEC1ERKS3_RKb$w$NFcpeKEWRM5I0Sws3
0001:0006cbf6  __ZNSt17_Rb_tree_iteratorIjRjPjEmmEv$w$NFcpeKEWRM5I0Sws3
0001:0006b160  __ZNSt8_Rb_treeIjjSt9_IdentityIjESt4lessIjESaIjEE6_S_keyEPSt18_Rb_tree_node_base$w$NFcpeKEWRM5I0Sws3
0001:0006b182  __ZNSt8_Rb_treeIjjSt9_IdentityIjESt4lessIjESaIjEE4findERKj$w$NFcpeKEWRM5I0Sws3
0001:0007085e  __ZNSt8_Rb_treeIjjSt9_IdentityIjESt4lessIjESaIjEE8_S_valueEPSt13_Rb_tree_nodeIjE$w$NFcpeKEWRM5I0Sws3
0001:0007086a  __ZNKSt9_IdentityIjEclERj$w$NFcpeKEWRM5I0Sws3
0001:00070ade  __ZNSt8_Rb_treeIjjSt9_IdentityIjESt4lessIjESaIjEE3endEv$w$NFcpeKEWRM5I0Sws3
0001:000708bc  __ZNSt17_Rb_tree_iteratorIjRjPjEC1ERKS2_$w$NFcpeKEWRM5I0Sws3
0001:0006b2ae  __ZNKSt8_Rb_treeIjjSt9_IdentityIjESt4lessIjESaIjEE3endEv$w$NFcpeKEWRM5I0Sws3
0001:0006b2ce  __ZNSt17_Rb_tree_iteratorIjRKjPS0_EC1EPSt13_Rb_tree_nodeIjE$w$NFcpeKEWRM5I0Sws3
0001:0006b32c  __ZNSt8_Rb_treeIjjSt9_IdentityIjESt4lessIjESaIjEE5eraseESt17_Rb_tree_iteratorIjRjPjE$w$NFcpeKEWRM5I0Sws3
0001:0006f088* __ZSt28_Rb_tree_rebalance_for_erasePSt18_Rb_tree_node_baseRS0_S1_S1_$w$NFcpeKEWRM5I0Sws3
0001:0006b382  __ZNSt8_Rb_treeIjjSt9_IdentityIjESt4lessIjESaIjEE12destroy_nodeEPSt13_Rb_tree_nodeIjE$w$NFcpeKEWRM5I0Sws3
0001:0006b3aa* __ZSt8_DestroyIjEvPT_$w$NFcpeKEWRM5I0Sws3
0001:0006ff8c  __ZNSt19_Rb_tree_alloc_baseIjSaIjELb1EE11_M_put_nodeEPSt13_Rb_tree_nodeIjE$w$NFcpeKEWRM5I0Sws3
0001:0006b3de  __ZNKSt8_Rb_treeIjjSt9_IdentityIjESt4lessIjESaIjEE5beginEv$w$NFcpeKEWRM5I0Sws3
0001:0006ee52* __ZNSt22_Rb_tree_base_iterator12_M_incrementEv$w$NFcpeKEWRM5I0Sws3
0001:0006fd16  __ZN6Xapian4MSet8InternalD1Ev$w$NFcpeKEWRM5I0Sws3
0001:0006b4a8  __ZN6Xapian8Internal9RefCntPtrINS_4MSet8InternalEEaSEPS3_$w$NFcpeKEWRM5I0Sws3
0001:0006b5c2  __ZN9__gnu_cxxeqIPKN6Xapian8Internal8MSetItemESt6vectorIS3_SaIS3_EEEEbRKNS_17__normal_iteratorIT_T0_EESE_$w$NFcpeKEWRM5I0Sws3
0001:0006b57e  __ZN9__gnu_cxx17__normal_iteratorIPKN6Xapian8Internal8MSetItemESt6vectorIS3_SaIS3_EEEC1ERKS5_$w$NFcpeKEWRM5I0Sws3
0001:00070b04  __ZNSt8iteratorISt26random_access_iterator_tagN6Xapian8Internal8MSetItemEiPKS3_RS4_EC2Ev$w$NFcpeKEWRM5I0Sws3
0001:0006b638  __ZN9__gnu_cxxmiIPKN6Xapian8Internal8MSetItemES5_St6vectorIS3_SaIS3_EEEENS_17__normal_iteratorIT_T1_E15difference_typeERKSC_RKNS9_IT0_SB_EE$w$NFcpeKEWRM5I0Sws3
0001:0006b6ac  __ZNSt8_Rb_treeISsSt4pairIKSsN6Xapian4MSet8Internal17TermFreqAndWeightEESt10_Select1stIS6_ESt4lessISsESaIS6_EE4findERS1_$w$NFcpeKEWRM5I0Sws3
0001:00070b0a  __ZNKSt8_Rb_treeISsSt4pairIKSsN6Xapian4MSet8Internal17TermFreqAndWeightEESt10_Select1stIS6_ESt4lessISsESaIS6_EE7_M_rootEv$w$NFcpeKEWRM5I0Sws3
0001:00070b18  __ZNSt8_Rb_treeISsSt4pairIKSsN6Xapian4MSet8Internal17TermFreqAndWeightEESt10_Select1stIS6_ESt4lessISsESaIS6_EE6_S_keyEPSt13_Rb_tree_nodeIS6_E$w$NFcpeKEWRM5I0Sws3
0001:00070b4e  __ZNSt8_Rb_treeISsSt4pairIKSsN6Xapian4MSet8Internal17TermFreqAndWeightEESt10_Select1stIS6_ESt4lessISsESaIS6_EE7_S_leftEPSt13_Rb_tree_nodeIS6_E$w$NFcpeKEWRM5I0Sws3
0001:00070b5a  __ZNSt8_Rb_treeISsSt4pairIKSsN6Xapian4MSet8Internal17TermFreqAndWeightEESt10_Select1stIS6_ESt4lessISsESaIS6_EE8_S_rightEPSt13_Rb_tree_nodeIS6_E$w$NFcpeKEWRM5I0Sws3
0001:00070b66  __ZNSt17_Rb_tree_iteratorISt4pairIKSsN6Xapian4MSet8Internal17TermFreqAndWeightEERS6_PS6_EC1EPSt13_Rb_tree_nodeIS6_E$w$NFcpeKEWRM5I0Sws3
0001:00070ba0  __ZNSt8_Rb_treeISsSt4pairIKSsN6Xapian4MSet8Internal17TermFreqAndWeightEESt10_Select1stIS6_ESt4lessISsESaIS6_EE3endEv$w$NFcpeKEWRM5I0Sws3
0001:00070be8  __ZSteqISt4pairIKSsN6Xapian4MSet8Internal17TermFreqAndWeightEERS6_PS6_EbRKSt17_Rb_tree_iteratorIT_T0_T1_ESF_$w$NFcpeKEWRM5I0Sws3
0001:00070bc6  __ZNSt8_Rb_treeISsSt4pairIKSsN6Xapian4MSet8Internal17TermFreqAndWeightEESt10_Select1stIS6_ESt4lessISsESaIS6_EE6_S_keyEPSt18_Rb_tree_node_base$w$NFcpeKEWRM5I0Sws3
0001:00070b82  __ZNSt17_Rb_tree_iteratorISt4pairIKSsN6Xapian4MSet8Internal17TermFreqAndWeightEERS6_PS6_EC1ERKS9_$w$NFcpeKEWRM5I0Sws3
0001:0006b8c8  __ZNSt8_Rb_treeIjSt4pairIKjN6Xapian8DocumentEESt10_Select1stIS4_ESt4lessIjESaIS4_EE4findERS1_$w$NFcpeKEWRM5I0Sws3
0001:00070bfe  __ZNKSt8_Rb_treeIjSt4pairIKjN6Xapian8DocumentEESt10_Select1stIS4_ESt4lessIjESaIS4_EE7_M_rootEv$w$NFcpeKEWRM5I0Sws3
0001:00070c0c  __ZNSt8_Rb_treeIjSt4pairIKjN6Xapian8DocumentEESt10_Select1stIS4_ESt4lessIjESaIS4_EE6_S_keyEPSt13_Rb_tree_nodeIS4_E$w$NFcpeKEWRM5I0Sws3
0001:00070c42  __ZNSt8_Rb_treeIjSt4pairIKjN6Xapian8DocumentEESt10_Select1stIS4_ESt4lessIjESaIS4_EE7_S_leftEPSt13_Rb_tree_nodeIS4_E$w$NFcpeKEWRM5I0Sws3
0001:00070c4e  __ZNSt8_Rb_treeIjSt4pairIKjN6Xapian8DocumentEESt10_Select1stIS4_ESt4lessIjESaIS4_EE8_S_rightEPSt13_Rb_tree_nodeIS4_E$w$NFcpeKEWRM5I0Sws3
0001:00070c5a  __ZNSt17_Rb_tree_iteratorISt4pairIKjN6Xapian8DocumentEERS4_PS4_EC1EPSt13_Rb_tree_nodeIS4_E$w$NFcpeKEWRM5I0Sws3
0001:00070c94  __ZNSt8_Rb_treeIjSt4pairIKjN6Xapian8DocumentEESt10_Select1stIS4_ESt4lessIjESaIS4_EE3endEv$w$NFcpeKEWRM5I0Sws3
0001:00070cdc  __ZSteqISt4pairIKjN6Xapian8DocumentEERS4_PS4_EbRKSt17_Rb_tree_iteratorIT_T0_T1_ESD_$w$NFcpeKEWRM5I0Sws3
0001:00070cba  __ZNSt8_Rb_treeIjSt4pairIKjN6Xapian8DocumentEESt10_Select1stIS4_ESt4lessIjESaIS4_EE6_S_keyEPSt18_Rb_tree_node_base$w$NFcpeKEWRM5I0Sws3
0001:00070c76  __ZNSt17_Rb_tree_iteratorISt4pairIKjN6Xapian8DocumentEERS4_PS4_EC1ERKS7_$w$NFcpeKEWRM5I0Sws3
0001:0006ba48  __ZNKSt17_Rb_tree_iteratorISt4pairIKjN6Xapian8DocumentEERKS4_PS5_EdeEv$w$NFcpeKEWRM5I0Sws3
0001:0006bbd6  __ZNSt3mapIjN6Xapian8DocumentESt4lessIjESaISt4pairIKjS1_EEE11lower_boundERS5_$w$NFcpeKEWRM5I0Sws3
0001:0006bca4  __ZNKSt3mapIjN6Xapian8DocumentESt4lessIjESaISt4pairIKjS1_EEE8key_compEv$w$NFcpeKEWRM5I0Sws3
0001:0006bcca  __ZNSt4pairIKjN6Xapian8DocumentEEC1ERS0_RKS2_$w$NFcpeKEWRM5I0Sws3
0001:0006bcf2  __ZNSt3mapIjN6Xapian8DocumentESt4lessIjESaISt4pairIKjS1_EEE6insertESt17_Rb_tree_iteratorIS6_RS6_PS6_ERKS6_$w$NFcpeKEWRM5I0Sws3
0001:000700d0  __ZNSt4pairIKjN6Xapian8DocumentEED1Ev$w$NFcpeKEWRM5I0Sws3
0001:0006bc02  __ZNSt8_Rb_treeIjSt4pairIKjN6Xapian8DocumentEESt10_Select1stIS4_ESt4lessIjESaIS4_EE11lower_boundERS1_$w$NFcpeKEWRM5I0Sws3
0001:0006bcbe  __ZNKSt8_Rb_treeIjSt4pairIKjN6Xapian8DocumentEESt10_Select1stIS4_ESt4lessIjESaIS4_EE8key_compEv$w$NFcpeKEWRM5I0Sws3
0001:0006cc58  __ZNSt8_Rb_treeIjSt4pairIKjN6Xapian8DocumentEESt10_Select1stIS4_ESt4lessIjESaIS4_EE13insert_uniqueESt17_Rb_tree_iteratorIS4_RS4_PS4_ERKS4_$w$NFcpeKEWRM5I0Sws3
0001:00070372  __ZN6Xapian4ESet8InternalD1Ev$w$NFcpeKEWRM5I0Sws3
0001:0006bdc4  __ZN6Xapian8Internal9RefCntPtrINS_4ESet8InternalEEaSEPS3_$w$NFcpeKEWRM5I0Sws3
0001:0006bedc  __ZN9__gnu_cxxmiIPKN6Xapian8Internal8ESetItemES5_St6vectorIS3_SaIS3_EEEENS_17__normal_iteratorIT_T1_E15difference_typeERKSC_RKNS9_IT0_SB_EE$w$NFcpeKEWRM5I0Sws3
0001:00070d12  __ZNSt8iteratorISt26random_access_iterator_tagN6Xapian8Internal8ESetItemEiPKS3_RS4_EC2Ev$w$NFcpeKEWRM5I0Sws3
0001:0006bf56  __ZN9__gnu_cxxeqIPKN6Xapian8Internal8ESetItemESt6vectorIS3_SaIS3_EEEEbRKNS_17__normal_iteratorIT_T0_EESE_$w$NFcpeKEWRM5I0Sws3
0001:0006c034  __ZNSt6vectorIN6Xapian8Internal8ESetItemESaIS2_EE5beginEv$w$NFcpeKEWRM5I0Sws3
0001:0006c070  __ZNK9__gnu_cxx17__normal_iteratorIPN6Xapian8Internal8ESetItemESt6vectorIS3_SaIS3_EEEplERKi$w$NFcpeKEWRM5I0Sws3
0001:0006c0a4  __ZNK9__gnu_cxx17__normal_iteratorIPN6Xapian8Internal8ESetItemESt6vectorIS3_SaIS3_EEEdeEv$w$NFcpeKEWRM5I0Sws3
0001:0006c052  __ZN9__gnu_cxx17__normal_iteratorIPN6Xapian8Internal8ESetItemESt6vectorIS3_SaIS3_EEEC1ERKS4_$w$NFcpeKEWRM5I0Sws3
0001:00070d18  __ZNSt8iteratorISt26random_access_iterator_tagN6Xapian8Internal8ESetItemEiPS3_RS3_EC2Ev$w$NFcpeKEWRM5I0Sws3
0001:0006c0ea  __ZNSt6vectorIN6Xapian8Internal8MSetItemESaIS2_EE5beginEv$w$NFcpeKEWRM5I0Sws3
0001:0006c126  __ZNK9__gnu_cxx17__normal_iteratorIPN6Xapian8Internal8MSetItemESt6vectorIS3_SaIS3_EEEplERKi$w$NFcpeKEWRM5I0Sws3
0001:0006c15a  __ZNK9__gnu_cxx17__normal_iteratorIPN6Xapian8Internal8MSetItemESt6vectorIS3_SaIS3_EEEdeEv$w$NFcpeKEWRM5I0Sws3
0001:0006c108  __ZN9__gnu_cxx17__normal_iteratorIPN6Xapian8Internal8MSetItemESt6vectorIS3_SaIS3_EEEC1ERKS4_$w$NFcpeKEWRM5I0Sws3
0001:00070d1e  __ZNSt8iteratorISt26random_access_iterator_tagN6Xapian8Internal8MSetItemEiPS3_RS3_EC2Ev$w$NFcpeKEWRM5I0Sws3
0001:0006c20a  __ZNSt8_Rb_treeISsSt4pairIKSsPKN6Xapian12MatchDeciderEESt10_Select1stIS6_ESt4lessISsESaIS6_EE5clearEv$w$NFcpeKEWRM5I0Sws3
0001:0006c1a8  __ZNSt13_Rb_tree_baseISt4pairIKSsPKN6Xapian12MatchDeciderEESaIS6_EED2Ev$w$NFcpeKEWRM5I0Sws3
0001:0006c1c4  __ZNSt19_Rb_tree_alloc_baseISt4pairIKSsPKN6Xapian12MatchDeciderEESaIS6_ELb1EE11_M_put_nodeEPSt13_Rb_tree_nodeIS6_E$w$NFcpeKEWRM5I0Sws3
0001:0006c1e0  __ZNSt14__simple_allocISt13_Rb_tree_nodeISt4pairIKSsPKN6Xapian12MatchDeciderEEESt24__default_alloc_templateILb1ELi0EEE10deallocateEPS8_j$w$NFcpeKEWRM5I0Sws3
0001:0006c598  __ZNKSt8_Rb_treeISsSt4pairIKSsPKN6Xapian12MatchDeciderEESt10_Select1stIS6_ESt4lessISsESaIS6_EE7_M_rootEv$w$NFcpeKEWRM5I0Sws3
0001:0006d02c  __ZNSt8_Rb_treeISsSt4pairIKSsPKN6Xapian12MatchDeciderEESt10_Select1stIS6_ESt4lessISsESaIS6_EE8_M_eraseEPSt13_Rb_tree_nodeIS6_E$w$NFcpeKEWRM5I0Sws3
0001:0006d084  __ZNKSt8_Rb_treeISsSt4pairIKSsPKN6Xapian12MatchDeciderEESt10_Select1stIS6_ESt4lessISsESaIS6_EE11_M_leftmostEv$w$NFcpeKEWRM5I0Sws3
0001:0006d092  __ZNKSt8_Rb_treeISsSt4pairIKSsPKN6Xapian12MatchDeciderEESt10_Select1stIS6_ESt4lessISsESaIS6_EE12_M_rightmostEv$w$NFcpeKEWRM5I0Sws3
0001:0006d112  __ZSt8_DestroyIPN6Xapian8Internal9RefCntPtrI8SubMatchEEEvT_S6_$w$NFcpeKEWRM5I0Sws3
0001:0006d0a0  __ZNSt12_Vector_baseIN6Xapian8Internal9RefCntPtrI8SubMatchEESaIS4_EED2Ev$w$NFcpeKEWRM5I0Sws3
0001:0006d132  __ZNSt13_Bvector_baseISaIbEED2Ev$w$NFcpeKEWRM5I0Sws3
0001:0006c338* __ZN9__gnu_cxx17__normal_iteratorIPKN6Xapian8Internal9RefCntPtrINS1_8Database8InternalEEESt6vectorIS6_SaIS6_EEEC1ERKS8_$w$NFcpeKEWRM5I0Sws3
0001:00070dc2* __ZNSt8iteratorISt26random_access_iterator_tagN6Xapian8Internal9RefCntPtrINS1_8Database8InternalEEEiPKS6_RS7_EC2Ev$w$NFcpeKEWRM5I0Sws3
0001:0006c3aa* __ZNK9__gnu_cxx17__normal_iteratorIPKN6Xapian8Internal9RefCntPtrINS1_8Database8InternalEEESt6vectorIS6_SaIS6_EEE4baseEv$w$NFcpeKEWRM5I0Sws3
0001:0006c3ee* __ZNK9__gnu_cxx17__normal_iteratorIPKN6Xapian8Internal9RefCntPtrINS1_8Database8InternalEEESt6vectorIS6_SaIS6_EEEplERKi$w$NFcpeKEWRM5I0Sws3
0001:0006c420* __ZNK9__gnu_cxx17__normal_iteratorIPKN6Xapian8Internal9RefCntPtrINS1_8Database8InternalEEESt6vectorIS6_SaIS6_EEEdeEv$w$NFcpeKEWRM5I0Sws3
0001:0006c56c  __ZNSt3mapISsPKN6Xapian12MatchDeciderESt4lessISsESaISt4pairIKSsS3_EEE11lower_boundERS7_$w$NFcpeKEWRM5I0Sws3
0001:0006c68c  __ZNSt3mapISsPKN6Xapian12MatchDeciderESt4lessISsESaISt4pairIKSsS3_EEE3endEv$w$NFcpeKEWRM5I0Sws3
0001:0006c6d8  __ZSteqISt4pairIKSsPKN6Xapian12MatchDeciderEERS6_PS6_EbRKSt17_Rb_tree_iteratorIT_T0_T1_ESF_$w$NFcpeKEWRM5I0Sws3
0001:0006c658  __ZNKSt17_Rb_tree_iteratorISt4pairIKSsPKN6Xapian12MatchDeciderEERS6_PS6_EdeEv$w$NFcpeKEWRM5I0Sws3
0001:0006c666  __ZNKSt3mapISsPKN6Xapian12MatchDeciderESt4lessISsESaISt4pairIKSsS3_EEE8key_compEv$w$NFcpeKEWRM5I0Sws3
0001:0006c6ee  __ZNSt4pairIKSsPKN6Xapian12MatchDeciderEEC1ERS0_RKS4_$w$NFcpeKEWRM5I0Sws3
0001:0006c5a6  __ZNSt17_Rb_tree_iteratorISt4pairIKSsPKN6Xapian12MatchDeciderEERS6_PS6_EC1ERKS9_$w$NFcpeKEWRM5I0Sws3
0001:0006c714  __ZNSt3mapISsPKN6Xapian12MatchDeciderESt4lessISsESaISt4pairIKSsS3_EEE6insertESt17_Rb_tree_iteratorIS8_RS8_PS8_ERKS8_$w$NFcpeKEWRM5I0Sws3
0001:00070d24  __ZNSt4pairIKSsPKN6Xapian12MatchDeciderEED1Ev$w$NFcpeKEWRM5I0Sws3
0001:0006c5c4  __ZNSt8_Rb_treeISsSt4pairIKSsPKN6Xapian12MatchDeciderEESt10_Select1stIS6_ESt4lessISsESaIS6_EE11lower_boundERS1_$w$NFcpeKEWRM5I0Sws3
0001:00070dc8  __ZNSt8_Rb_treeISsSt4pairIKSsPKN6Xapian12MatchDeciderEESt10_Select1stIS6_ESt4lessISsESaIS6_EE6_S_keyEPSt13_Rb_tree_nodeIS6_E$w$NFcpeKEWRM5I0Sws3
0001:00070dfe  __ZNSt8_Rb_treeISsSt4pairIKSsPKN6Xapian12MatchDeciderEESt10_Select1stIS6_ESt4lessISsESaIS6_EE7_S_leftEPSt13_Rb_tree_nodeIS6_E$w$NFcpeKEWRM5I0Sws3
0001:00070e0a  __ZNSt8_Rb_treeISsSt4pairIKSsPKN6Xapian12MatchDeciderEESt10_Select1stIS6_ESt4lessISsESaIS6_EE8_S_rightEPSt13_Rb_tree_nodeIS6_E$w$NFcpeKEWRM5I0Sws3
0001:00070e16  __ZNSt17_Rb_tree_iteratorISt4pairIKSsPKN6Xapian12MatchDeciderEERS6_PS6_EC1EPSt13_Rb_tree_nodeIS6_E$w$NFcpeKEWRM5I0Sws3
0001:0006c680  __ZNKSt8_Rb_treeISsSt4pairIKSsPKN6Xapian12MatchDeciderEESt10_Select1stIS6_ESt4lessISsESaIS6_EE8key_compEv$w$NFcpeKEWRM5I0Sws3
0001:0006c6b2  __ZNSt8_Rb_treeISsSt4pairIKSsPKN6Xapian12MatchDeciderEESt10_Select1stIS6_ESt4lessISsESaIS6_EE3endEv$w$NFcpeKEWRM5I0Sws3
0001:0006d6f4  __ZNSt8_Rb_treeISsSt4pairIKSsPKN6Xapian12MatchDeciderEESt10_Select1stIS6_ESt4lessISsESaIS6_EE13insert_uniqueESt17_Rb_tree_iteratorIS6_RS6_PS6_ERKS6_$w$NFcpeKEWRM5I0Sws3
0001:0006c7ce  __ZNSt18_Vector_alloc_baseISsSaISsELb1EEC2ERKS0_$w$NFcpeKEWRM5I0Sws3
0001:0006c83a  __ZNSt14__simple_allocISsSt24__default_alloc_templateILb1ELi0EEE10deallocateEPSsj$w$NFcpeKEWRM5I0Sws3
0001:0006daf2* __ZNSt8_Rb_treeISsSt4pairIKSsjESt10_Select1stIS2_ESt4lessISsESaIS2_EE12destroy_nodeEPSt13_Rb_tree_nodeIS2_E$w$NFcpeKEWRM5I0Sws3
0001:000713f0* __ZNKSt8_Rb_treeISsSt4pairIKSsjESt10_Select1stIS2_ESt4lessISsESaIS2_EE4sizeEv$w$NFcpeKEWRM5I0Sws3
0001:000704ce* __ZNSt8_Rb_treeISsSt4pairIKSsjESt10_Select1stIS2_ESt4lessISsESaIS2_EE6_S_keyEPSt18_Rb_tree_node_base$w$NFcpeKEWRM5I0Sws3
0001:000713e8* __ZNKSt10_Select1stISt4pairIKSsjEEclERKS2_$w$NFcpeKEWRM5I0Sws3
0001:000713fc* __ZNSt8_Rb_treeISsSt4pairIKSsjESt10_Select1stIS2_ESt4lessISsESaIS2_EE9_M_insertEPSt18_Rb_tree_node_baseSA_RKS2_$w$NFcpeKEWRM5I0Sws3
0001:0006db1a* __ZNSt8_Rb_treeISsSt4pairIKSsjESt10_Select1stIS2_ESt4lessISsESaIS2_EE13insert_uniqueERKS2_$w$NFcpeKEWRM5I0Sws3
0001:0006dcfa* __ZNSt17_Rb_tree_iteratorISt4pairIKSsjERS2_PS2_EmmEv$w$NFcpeKEWRM5I0Sws3
0001:0006dd10* __ZNSt8_Rb_treeISsSt4pairIKSsjESt10_Select1stIS2_ESt4lessISsESaIS2_EE8_S_rightEPSt18_Rb_tree_node_base$w$NFcpeKEWRM5I0Sws3
0001:00071634  __ZNKSt8_Rb_treeIjSt4pairIKjN6Xapian8DocumentEESt10_Select1stIS4_ESt4lessIjESaIS4_EE4sizeEv$w$NFcpeKEWRM5I0Sws3
0001:0007162c  __ZNKSt10_Select1stISt4pairIKjN6Xapian8DocumentEEEclERKS4_$w$NFcpeKEWRM5I0Sws3
0001:00071640  __ZNSt8_Rb_treeIjSt4pairIKjN6Xapian8DocumentEESt10_Select1stIS4_ESt4lessIjESaIS4_EE9_M_insertEPSt18_Rb_tree_node_baseSC_RKS4_$w$NFcpeKEWRM5I0Sws3
0001:0006dd1c  __ZNSt8_Rb_treeIjSt4pairIKjN6Xapian8DocumentEESt10_Select1stIS4_ESt4lessIjESaIS4_EE13insert_uniqueERKS4_$w$NFcpeKEWRM5I0Sws3
0001:0006dae4  __ZNKSt8_Rb_treeIjSt4pairIKjN6Xapian8DocumentEESt10_Select1stIS4_ESt4lessIjESaIS4_EE12_M_rightmostEv$w$NFcpeKEWRM5I0Sws3
0001:0006defc  __ZNSt17_Rb_tree_iteratorISt4pairIKjN6Xapian8DocumentEERS4_PS4_EmmEv$w$NFcpeKEWRM5I0Sws3
0001:0006df12  __ZNSt8_Rb_treeIjSt4pairIKjN6Xapian8DocumentEESt10_Select1stIS4_ESt4lessIjESaIS4_EE8_S_rightEPSt18_Rb_tree_node_base$w$NFcpeKEWRM5I0Sws3
0001:0006cf56  __ZNSt13_Rb_tree_baseISt4pairIKSsPKN6Xapian12MatchDeciderEESaIS6_EEC2ERKS7_$w$NFcpeKEWRM5I0Sws3
0001:0006cfd8  __ZNSt8_Rb_treeISsSt4pairIKSsPKN6Xapian12MatchDeciderEESt10_Select1stIS6_ESt4lessISsESaIS6_EE19_M_empty_initializeEv$w$NFcpeKEWRM5I0Sws3
0001:0006cf86  __ZNSt19_Rb_tree_alloc_baseISt4pairIKSsPKN6Xapian12MatchDeciderEESaIS6_ELb1EEC2ERKS7_$w$NFcpeKEWRM5I0Sws3
0001:0006cf94  __ZNSt19_Rb_tree_alloc_baseISt4pairIKSsPKN6Xapian12MatchDeciderEESaIS6_ELb1EE11_M_get_nodeEv$w$NFcpeKEWRM5I0Sws3
0001:0006cfa8  __ZNSt14__simple_allocISt13_Rb_tree_nodeISt4pairIKSsPKN6Xapian12MatchDeciderEEESt24__default_alloc_templateILb1ELi0EEE8allocateEj$w$NFcpeKEWRM5I0Sws3
0001:0006df1e  __ZNSt8_Rb_treeISsSt4pairIKSsPKN6Xapian12MatchDeciderEESt10_Select1stIS6_ESt4lessISsESaIS6_EE8_S_colorEPSt13_Rb_tree_nodeIS6_E$w$NFcpeKEWRM5I0Sws3
0001:0006df26  __ZNSt8_Rb_treeISsSt4pairIKSsPKN6Xapian12MatchDeciderEESt10_Select1stIS6_ESt4lessISsESaIS6_EE12destroy_nodeEPSt13_Rb_tree_nodeIS6_E$w$NFcpeKEWRM5I0Sws3
0001:0006d0d0  __ZNSt18_Vector_alloc_baseIN6Xapian8Internal9RefCntPtrI8SubMatchEESaIS4_ELb1EE13_M_deallocateEPS4_j$w$NFcpeKEWRM5I0Sws3
0001:0006d0ea  __ZNSt14__simple_allocIN6Xapian8Internal9RefCntPtrI8SubMatchEESt24__default_alloc_templateILb1ELi0EEE10deallocateEPS4_j$w$NFcpeKEWRM5I0Sws3
0001:0006df4e  __ZSt13__destroy_auxIPN6Xapian8Internal9RefCntPtrI8SubMatchEEEvT_S6_12__false_type$w$NFcpeKEWRM5I0Sws3
0001:0006d146  __ZNSt19_Bvector_alloc_baseISaIbELb1EE13_M_deallocateEv$w$NFcpeKEWRM5I0Sws3
0001:0006d178  __ZNSt14__simple_allocImSt24__default_alloc_templateILb1ELi0EEE10deallocateEPmj$w$NFcpeKEWRM5I0Sws3
0001:0006d240* __ZNSt8_Rb_treeISsSsSt9_IdentityISsESt4lessISsESaISsEE5clearEv$w$NFcpeKEWRM5I0Sws3
0001:0006d1e4* __ZNSt13_Rb_tree_baseISsSaISsEED2Ev$w$NFcpeKEWRM5I0Sws3
0001:0006d200* __ZNSt19_Rb_tree_alloc_baseISsSaISsELb1EE11_M_put_nodeEPSt13_Rb_tree_nodeISsE$w$NFcpeKEWRM5I0Sws3
0001:0006d21c* __ZNSt14__simple_allocISt13_Rb_tree_nodeISsESt24__default_alloc_templateILb1ELi0EEE10deallocateEPS1_j$w$NFcpeKEWRM5I0Sws3
0001:0006e0f6* __ZNSt8_Rb_treeISsSsSt9_IdentityISsESt4lessISsESaISsEE8_M_eraseEPSt13_Rb_tree_nodeISsE$w$NFcpeKEWRM5I0Sws3
0001:0006e14e* __ZNKSt8_Rb_treeISsSsSt9_IdentityISsESt4lessISsESaISsEE11_M_leftmostEv$w$NFcpeKEWRM5I0Sws3
0001:0006e15c* __ZNKSt8_Rb_treeISsSsSt9_IdentityISsESt4lessISsESaISsEE12_M_rightmostEv$w$NFcpeKEWRM5I0Sws3
0001:0006ed4c* __ZnwjPv$w$NFcpeKEWRM5I0Sws3
0001:0006ed54* __ZdlPvS_$w$NFcpeKEWRM5I0Sws3
0001:00070dbc  __ZNSt8iteratorISt26random_access_iterator_tagSsiPSsRSsEC2Ev$w$NFcpeKEWRM5I0Sws3
0001:00071844  __ZSt12partial_sortIN9__gnu_cxx17__normal_iteratorIPSsSt6vectorISsSaISsEEEEN6Xapian15ByQueryIndexCmpEEvT_S9_S9_T0_$w$NFcpeKEWRM5I0Sws3
0001:0006e16a  __ZNK9__gnu_cxx17__normal_iteratorIPSsSt6vectorISsSaISsEEEmiERKi$w$NFcpeKEWRM5I0Sws3
0001:0006e1a0  __ZSt8__medianISsN6Xapian15ByQueryIndexCmpEERKT_S4_S4_S4_T0_$w$NFcpeKEWRM5I0Sws3
0001:0006e26a  __ZSt21__unguarded_partitionIN9__gnu_cxx17__normal_iteratorIPSsSt6vectorISsSaISsEEEESsN6Xapian15ByQueryIndexCmpEET_S9_S9_T0_T1_$w$NFcpeKEWRM5I0Sws3
0001:0007197a  __ZNKSt8_Rb_treeISsSt4pairIKSsPKN6Xapian12MatchDeciderEESt10_Select1stIS6_ESt4lessISsESaIS6_EE4sizeEv$w$NFcpeKEWRM5I0Sws3
0001:00071958  __ZNSt8_Rb_treeISsSt4pairIKSsPKN6Xapian12MatchDeciderEESt10_Select1stIS6_ESt4lessISsESaIS6_EE6_S_keyEPSt18_Rb_tree_node_base$w$NFcpeKEWRM5I0Sws3
0001:00071950  __ZNKSt10_Select1stISt4pairIKSsPKN6Xapian12MatchDeciderEEEclERKS6_$w$NFcpeKEWRM5I0Sws3
0001:00071986  __ZNSt8_Rb_treeISsSt4pairIKSsPKN6Xapian12MatchDeciderEESt10_Select1stIS6_ESt4lessISsESaIS6_EE9_M_insertEPSt18_Rb_tree_node_baseSE_RKS6_$w$NFcpeKEWRM5I0Sws3
0001:0006e4a4  __ZNSt8_Rb_treeISsSt4pairIKSsPKN6Xapian12MatchDeciderEESt10_Select1stIS6_ESt4lessISsESaIS6_EE13insert_uniqueERKS6_$w$NFcpeKEWRM5I0Sws3
0001:0006e684  __ZNSt17_Rb_tree_iteratorISt4pairIKSsPKN6Xapian12MatchDeciderEERS6_PS6_EmmEv$w$NFcpeKEWRM5I0Sws3
0001:0006e69a  __ZNSt8_Rb_treeISsSt4pairIKSsPKN6Xapian12MatchDeciderEESt10_Select1stIS6_ESt4lessISsESaIS6_EE8_S_rightEPSt18_Rb_tree_node_base$w$NFcpeKEWRM5I0Sws3
0001:00071b20  __ZNSt8_Rb_treeISsSt4pairIKSsPKN6Xapian12MatchDeciderEESt10_Select1stIS6_ESt4lessISsESaIS6_EE11equal_rangeERS1_$w$NFcpeKEWRM5I0Sws3
0001:00071c46  __ZSt8distanceISt17_Rb_tree_iteratorISt4pairIKSsPKN6Xapian12MatchDeciderEERS7_PS7_EENSt15iterator_traitsIT_E15difference_typeESC_SC_$w$NFcpeKEWRM5I0Sws3
0001:00071d40  __ZNSt8_Rb_treeISsSt4pairIKSsPKN6Xapian12MatchDeciderEESt10_Select1stIS6_ESt4lessISsESaIS6_EE5eraseESt17_Rb_tree_iteratorIS6_RS6_PS6_ESG_$w$NFcpeKEWRM5I0Sws3
0001:0006da7e  __ZNSt14__simple_allocISsSt24__default_alloc_templateILb1ELi0EEE8allocateEj$w$NFcpeKEWRM5I0Sws3
0001:0006dad0* __ZSt8_DestroyISsEvPT_$w$NFcpeKEWRM5I0Sws3
0001:00071f7c* __ZSt8_DestroyISt4pairIKSsjEEvPT_$w$NFcpeKEWRM5I0Sws3
0001:000720e0* __ZNSt8_Rb_treeISsSt4pairIKSsjESt10_Select1stIS2_ESt4lessISsESaIS2_EE5beginEv$w$NFcpeKEWRM5I0Sws3
0001:0007210e* __ZNSt4pairISt17_Rb_tree_iteratorIS_IKSsjERS2_PS2_EbEC1ERKS5_RKb$w$NFcpeKEWRM5I0Sws3
0001:00072174  __ZNSt8_Rb_treeIjSt4pairIKjN6Xapian8DocumentEESt10_Select1stIS4_ESt4lessIjESaIS4_EE5beginEv$w$NFcpeKEWRM5I0Sws3
0001:000721a2  __ZNSt4pairISt17_Rb_tree_iteratorIS_IKjN6Xapian8DocumentEERS4_PS4_EbEC1ERKS7_RKb$w$NFcpeKEWRM5I0Sws3
0001:000721c8  __ZSt8_DestroyISt4pairIKSsPKN6Xapian12MatchDeciderEEEvPT_$w$NFcpeKEWRM5I0Sws3
0001:0006df72  __ZSt8_DestroyIN6Xapian8Internal9RefCntPtrI8SubMatchEEEvPT_$w$NFcpeKEWRM5I0Sws3
0001:0006df86  __ZN6Xapian8Internal9RefCntPtrI8SubMatchED1Ev$w$NFcpeKEWRM5I0Sws3
0001:0006e000  __ZNSt13_Rb_tree_baseISsSaISsEEC2ERKS0_$w$NFcpeKEWRM5I0Sws3
0001:0006e07c  __ZNSt8_Rb_treeISsSsSt9_IdentityISsESt4lessISsESaISsEE19_M_empty_initializeEv$w$NFcpeKEWRM5I0Sws3
0001:0006e030  __ZNSt19_Rb_tree_alloc_baseISsSaISsELb1EEC2ERKS0_$w$NFcpeKEWRM5I0Sws3
0001:0006e03e  __ZNSt19_Rb_tree_alloc_baseISsSaISsELb1EE11_M_get_nodeEv$w$NFcpeKEWRM5I0Sws3
0001:0006e052  __ZNSt14__simple_allocISt13_Rb_tree_nodeISsESt24__default_alloc_templateILb1ELi0EEE8allocateEj$w$NFcpeKEWRM5I0Sws3
0001:0006e6a6  __ZNSt8_Rb_treeISsSsSt9_IdentityISsESt4lessISsESaISsEE8_S_colorEPSt13_Rb_tree_nodeISsE$w$NFcpeKEWRM5I0Sws3
0001:0006e6ae* __ZNSt8_Rb_treeISsSsSt9_IdentityISsESt4lessISsESaISsEE12destroy_nodeEPSt13_Rb_tree_nodeISsE$w$NFcpeKEWRM5I0Sws3
0001:00070d38  __ZNK6Xapian15ByQueryIndexCmpclERKSsS2_$w$NFcpeKEWRM5I0Sws3
0001:000722da  __ZN9__gnu_cxx17__normal_iteratorIPSsSt6vectorISsSaISsEEEmmEv$w$NFcpeKEWRM5I0Sws3
0001:00071812  __ZN9__gnu_cxxltIPSsSt6vectorISsSaISsEEEEbRKNS_17__normal_iteratorIT_T0_EESA_$w$NFcpeKEWRM5I0Sws3
0001:000722e8  __ZSt9iter_swapIN9__gnu_cxx17__normal_iteratorIPSsSt6vectorISsSaISsEEEES6_EvT_T0_$w$NFcpeKEWRM5I0Sws3
0001:0007237c  __ZN9__gnu_cxxeqIPSsSt6vectorISsSaISsEEEEbRKNS_17__normal_iteratorIT_T0_EESA_$w$NFcpeKEWRM5I0Sws3
0001:00071d12  __ZNSt8_Rb_treeISsSt4pairIKSsPKN6Xapian12MatchDeciderEESt10_Select1stIS6_ESt4lessISsESaIS6_EE5beginEv$w$NFcpeKEWRM5I0Sws3
0001:000723ba  __ZNSt4pairISt17_Rb_tree_iteratorIS_IKSsPKN6Xapian12MatchDeciderEERS6_PS6_EbEC1ERKS9_RKb$w$NFcpeKEWRM5I0Sws3
0001:0006e720  __ZSt38__copy_backward_output_normal_iteratorIPSsN9__gnu_cxx17__normal_iteratorIS0_St6vectorISsSaISsEEEEET0_T_S8_S7_11__true_type$w$NFcpeKEWRM5I0Sws3
0001:0006e764  __ZSt19__copy_backward_auxIPSsS0_ET0_T_S2_S1_$w$NFcpeKEWRM5I0Sws3
0001:0006e786  __ZNSt24__copy_backward_dispatchIPSsS0_12__false_typeE4copyES0_S0_S0_$w$NFcpeKEWRM5I0Sws3
0001:0006e7ba  __ZSt19__iterator_categoryIPSsENSt15iterator_traitsIT_E17iterator_categoryERKS2_$w$NFcpeKEWRM5I0Sws3
0001:0006e7c6  __ZSt15__copy_backwardIPSsS0_ET0_T_S2_S1_St26random_access_iterator_tag$w$NFcpeKEWRM5I0Sws3
0001:00072506  __ZNSt8_Rb_treeISsSsSt9_IdentityISsESt4lessISsESaISsEE14_M_create_nodeERKSs$w$NFcpeKEWRM5I0Sws3
0001:0006ebec  __ZNSt8_Rb_treeISsSsSt9_IdentityISsESt4lessISsESaISsEE9_S_parentEPSt13_Rb_tree_nodeISsE$w$NFcpeKEWRM5I0Sws3
0001:0006eed0* __ZSt18_Rb_tree_rebalancePSt18_Rb_tree_node_baseRS0_$w$NFcpeKEWRM5I0Sws3
0001:0006ecd1* __ZTSN6Xapian12MatchDeciderE$w$NFcpeKEWRM5I0Sws3
0001:0006ecb0* __ZTSN6Xapian21InvalidOperationErrorE$w$NFcpeKEWRM5I0Sws3
0001:00072594* __ZTIN6Xapian10LogicErrorE$w$NFcpeKEWRM5I0Sws3
0001:0006ec90  __ZTS13StatsGatherer$w$NFcpeKEWRM5I0Sws3
0001:0006ec70* __ZTSN6Xapian20InvalidArgumentErrorE$w$NFcpeKEWRM5I0Sws3
0001:0006ec44  __ZTSN6Xapian10RangeErrorE$w$NFcpeKEWRM5I0Sws3
0001:00072588  __ZTIN6Xapian12RuntimeErrorE$w$NFcpeKEWRM5I0Sws3
0001:0006ec34* __ZTSN6Xapian5ErrorE$w$NFcpeKEWRM5I0Sws3
0001:0006ed08* __ZNSt15basic_streambufIcSt11char_traitsIcEE13_S_pback_sizeE$w$NFcpeKEWRM5I0Sws3
0001:0007257c  __ZTI14VectorTermList$w$NFcpeKEWRM5I0Sws3
0001:0006f50c  __ZN14VectorTermListD1Ev$w$NFcpeKEWRM5I0Sws3
0001:0006f574  __ZN14VectorTermListD0Ev$w$NFcpeKEWRM5I0Sws3
0001:0006f63a  __ZNK14VectorTermList15get_approx_sizeEv$w$NFcpeKEWRM5I0Sws3
0001:0006f650  __ZNK14VectorTermList16accumulate_statsERN6Xapian8Internal11ExpandStatsE$w$NFcpeKEWRM5I0Sws3
0001:0006f65c  __ZNK14VectorTermList12get_termnameEv$w$NFcpeKEWRM5I0Sws3
0001:0006f694  __ZNK14VectorTermList7get_wdfEv$w$NFcpeKEWRM5I0Sws3
0001:0006f6cc  __ZNK14VectorTermList12get_termfreqEv$w$NFcpeKEWRM5I0Sws3
0001:0006f812  __ZN14VectorTermList4nextEv$w$NFcpeKEWRM5I0Sws3
0001:0006f85e  __ZN14VectorTermList7skip_toERKSs$w$NFcpeKEWRM5I0Sws3
0001:0006f9a4  __ZNK14VectorTermList6at_endEv$w$NFcpeKEWRM5I0Sws3
0001:0006fb94  __ZNK14VectorTermList18positionlist_countEv$w$NFcpeKEWRM5I0Sws3
0001:0006fa18  __ZNK14VectorTermList18positionlist_beginEv$w$NFcpeKEWRM5I0Sws3
0001:000725e0* __ZNK6Xapian8Internal9RefCntPtrINS_12TermIterator8InternalEE3getEv$w$NFcpeKEWRM5I0Sws3
0001:000725ea* __ZN6Xapian5ErrorD2Ev$w$NFcpeKEWRM5I0Sws3
0001:0007261a* __ZN6Xapian5ErrorC2ERKSsS2_PKci$w$NFcpeKEWRM5I0Sws3
0001:000726d6* __ZSt20_Rb_tree_rotate_leftPSt18_Rb_tree_node_baseRS0_$w$NFcpeKEWRM5I0Sws3
0001:00072762* __ZSt21_Rb_tree_rotate_rightPSt18_Rb_tree_node_baseRS0_$w$NFcpeKEWRM5I0Sws3
0001:000727ee* __ZSt4swapISt14_Rb_tree_colorEvRT_S2_$w$NFcpeKEWRM5I0Sws3
0001:00072696* __ZNSt18_Rb_tree_node_base10_S_minimumEPS_$w$NFcpeKEWRM5I0Sws3
0001:000726b6* __ZNSt18_Rb_tree_node_base10_S_maximumEPS_$w$NFcpeKEWRM5I0Sws3
0001:00070e32  __ZNSt6vectorISsSaISsEE22_M_initialize_dispatchIN9__gnu_cxx17__normal_iteratorIPKSsS1_EEEEvT_S8_12__false_type$w$NFcpeKEWRM5I0Sws3
0001:00072810  __ZNKSt6vectorISsSaISsEEixEj$w$NFcpeKEWRM5I0Sws3
0001:0006ff48  __ZNSt8_Rb_treeIjjSt9_IdentityIjESt4lessIjESaIjEED1Ev$w$NFcpeKEWRM5I0Sws3
0001:0007002a  __ZNSt8_Rb_treeIjSt4pairIKjN6Xapian8DocumentEESt10_Select1stIS4_ESt4lessIjESaIS4_EED1Ev$w$NFcpeKEWRM5I0Sws3
0001:00070212  __ZNSt8_Rb_treeISsSt4pairIKSsN6Xapian4MSet8Internal17TermFreqAndWeightEESt10_Select1stIS6_ESt4lessISsESaIS6_EED1Ev$w$NFcpeKEWRM5I0Sws3
0001:00070348  __ZNSt6vectorIN6Xapian8Internal8MSetItemESaIS2_EED1Ev$w$NFcpeKEWRM5I0Sws3
0001:0006fe3c* __ZNSaIjEC1Ev$w$NFcpeKEWRM5I0Sws3
0001:0006fe48  __ZNSt8_Rb_treeIjjSt9_IdentityIjESt4lessIjESaIjEEC1ERKS3_RKS4_$w$NFcpeKEWRM5I0Sws3
0001:0006fe42* __ZNSaIjED1Ev$w$NFcpeKEWRM5I0Sws3
0001:0006fe78  __ZNSt13_Rb_tree_baseIjSaIjEEC2ERKS0_$w$NFcpeKEWRM5I0Sws3
0001:0006fef4  __ZNSt8_Rb_treeIjjSt9_IdentityIjESt4lessIjESaIjEE19_M_empty_initializeEv$w$NFcpeKEWRM5I0Sws3
0001:0006fea8  __ZNSt19_Rb_tree_alloc_baseIjSaIjELb1EEC2ERKS0_$w$NFcpeKEWRM5I0Sws3
0001:0006feb6  __ZNSt19_Rb_tree_alloc_baseIjSaIjELb1EE11_M_get_nodeEv$w$NFcpeKEWRM5I0Sws3
0001:0006feca  __ZNSt14__simple_allocISt13_Rb_tree_nodeIjESt24__default_alloc_templateILb1ELi0EEE8allocateEj$w$NFcpeKEWRM5I0Sws3
0001:00070e58  __ZNSt8_Rb_treeIjjSt9_IdentityIjESt4lessIjESaIjEE8_S_colorEPSt13_Rb_tree_nodeIjE$w$NFcpeKEWRM5I0Sws3
0001:000728c2  __ZNSt13_Rb_tree_baseIjSaIjEED2Ev$w$NFcpeKEWRM5I0Sws3
0001:0006ffa8  __ZNSt14__simple_allocISt13_Rb_tree_nodeIjESt24__default_alloc_templateILb1ELi0EEE10deallocateEPS1_j$w$NFcpeKEWRM5I0Sws3
0001:00070e60  __ZNSaISt4pairIKjN6Xapian8DocumentEEEC1Ev$w$NFcpeKEWRM5I0Sws3
0001:00070e6c  __ZNSt8_Rb_treeIjSt4pairIKjN6Xapian8DocumentEESt10_Select1stIS4_ESt4lessIjESaIS4_EEC1ERKS8_RKS9_$w$NFcpeKEWRM5I0Sws3
0001:00070e66  __ZNSaISt4pairIKjN6Xapian8DocumentEEED1Ev$w$NFcpeKEWRM5I0Sws3
0001:000700e6  __ZNSt8_Rb_treeIjSt4pairIKjN6Xapian8DocumentEESt10_Select1stIS4_ESt4lessIjESaIS4_EE5clearEv$w$NFcpeKEWRM5I0Sws3
0001:0007006e  __ZNSt13_Rb_tree_baseISt4pairIKjN6Xapian8DocumentEESaIS4_EED2Ev$w$NFcpeKEWRM5I0Sws3
0001:0007008a  __ZNSt19_Rb_tree_alloc_baseISt4pairIKjN6Xapian8DocumentEESaIS4_ELb1EE11_M_put_nodeEPSt13_Rb_tree_nodeIS4_E$w$NFcpeKEWRM5I0Sws3
0001:000700a6  __ZNSt14__simple_allocISt13_Rb_tree_nodeISt4pairIKjN6Xapian8DocumentEEESt24__default_alloc_templateILb1ELi0EEE10deallocateEPS6_j$w$NFcpeKEWRM5I0Sws3
0001:00070f72  __ZNSt8_Rb_treeIjSt4pairIKjN6Xapian8DocumentEESt10_Select1stIS4_ESt4lessIjESaIS4_EE8_M_eraseEPSt13_Rb_tree_nodeIS4_E$w$NFcpeKEWRM5I0Sws3
0001:00070fca  __ZNKSt8_Rb_treeIjSt4pairIKjN6Xapian8DocumentEESt10_Select1stIS4_ESt4lessIjESaIS4_EE11_M_leftmostEv$w$NFcpeKEWRM5I0Sws3
0001:00070fd8  __ZNSaISt4pairIKSsN6Xapian4MSet8Internal17TermFreqAndWeightEEEC1Ev$w$NFcpeKEWRM5I0Sws3
0001:00070fe4  __ZNSt8_Rb_treeISsSt4pairIKSsN6Xapian4MSet8Internal17TermFreqAndWeightEESt10_Select1stIS6_ESt4lessISsESaIS6_EEC1ERKSA_RKSB_$w$NFcpeKEWRM5I0Sws3
0001:00070fde  __ZNSaISt4pairIKSsN6Xapian4MSet8Internal17TermFreqAndWeightEEED1Ev$w$NFcpeKEWRM5I0Sws3
0001:000702b2  __ZNSt8_Rb_treeISsSt4pairIKSsN6Xapian4MSet8Internal17TermFreqAndWeightEESt10_Select1stIS6_ESt4lessISsESaIS6_EE5clearEv$w$NFcpeKEWRM5I0Sws3
0001:00070256  __ZNSt13_Rb_tree_baseISt4pairIKSsN6Xapian4MSet8Internal17TermFreqAndWeightEESaIS6_EED2Ev$w$NFcpeKEWRM5I0Sws3
0001:00070272  __ZNSt19_Rb_tree_alloc_baseISt4pairIKSsN6Xapian4MSet8Internal17TermFreqAndWeightEESaIS6_ELb1EE11_M_put_nodeEPSt13_Rb_tree_nodeIS6_E$w$NFcpeKEWRM5I0Sws3
0001:0007028e  __ZNSt14__simple_allocISt13_Rb_tree_nodeISt4pairIKSsN6Xapian4MSet8Internal17TermFreqAndWeightEEESt24__default_alloc_templateILb1ELi0EEE10deallocateEPS8_j$w$NFcpeKEWRM5I0Sws3
0001:000710e4  __ZNSt8_Rb_treeISsSt4pairIKSsN6Xapian4MSet8Internal17TermFreqAndWeightEESt10_Select1stIS6_ESt4lessISsESaIS6_EE8_M_eraseEPSt13_Rb_tree_nodeIS6_E$w$NFcpeKEWRM5I0Sws3
0001:0007113c  __ZNKSt8_Rb_treeISsSt4pairIKSsN6Xapian4MSet8Internal17TermFreqAndWeightEESt10_Select1stIS6_ESt4lessISsESaIS6_EE11_M_leftmostEv$w$NFcpeKEWRM5I0Sws3
0001:0007114a  __ZNKSt8_Rb_treeISsSt4pairIKSsN6Xapian4MSet8Internal17TermFreqAndWeightEESt10_Select1stIS6_ESt4lessISsESaIS6_EE12_M_rightmostEv$w$NFcpeKEWRM5I0Sws3
0001:00071158  __ZNSt12_Vector_baseIN6Xapian8Internal8MSetItemESaIS2_EEC2ERKS3_$w$NFcpeKEWRM5I0Sws3
0001:0007120e  __ZSt8_DestroyIPN6Xapian8Internal8MSetItemEEvT_S4_$w$NFcpeKEWRM5I0Sws3
0001:00071194  __ZNSt12_Vector_baseIN6Xapian8Internal8MSetItemESaIS2_EED2Ev$w$NFcpeKEWRM5I0Sws3
0001:000703ea  __ZNSt6vectorIN6Xapian8Internal8ESetItemESaIS2_EED1Ev$w$NFcpeKEWRM5I0Sws3
0001:000703ae  __ZNSt12_Vector_baseIN6Xapian8Internal8ESetItemESaIS2_EEC2ERKS3_$w$NFcpeKEWRM5I0Sws3
0001:000703c8  __ZNSt18_Vector_alloc_baseIN6Xapian8Internal8ESetItemESaIS2_ELb1EEC2ERKS3_$w$NFcpeKEWRM5I0Sws3
0001:00070cf2  __ZSt8_DestroyIPN6Xapian8Internal8ESetItemEEvT_S4_$w$NFcpeKEWRM5I0Sws3
0001:000728de  __ZNSt12_Vector_baseIN6Xapian8Internal8ESetItemESaIS2_EED2Ev$w$NFcpeKEWRM5I0Sws3
0001:00071236  __ZNSt8_Rb_treeIjjSt9_IdentityIjESt4lessIjESaIjEEC1ERKS5_$w$NFcpeKEWRM5I0Sws3
0001:00070486* __ZNSt8_Rb_treeISsSt4pairIKSsjESt10_Select1stIS2_ESt4lessISsESaIS2_EE8_S_valueEPSt13_Rb_tree_nodeIS2_E$w$NFcpeKEWRM5I0Sws3
0001:00070492* __ZNKSt10_Select1stISt4pairIKSsjEEclERS2_$w$NFcpeKEWRM5I0Sws3
0001:000705ba  __ZNSt8_Rb_treeIPN6Xapian6Weight8InternalES3_St9_IdentityIS3_ESt4lessIS3_ESaIS3_EED1Ev$w$NFcpeKEWRM5I0Sws3
0001:0007065a  __ZNSt8_Rb_treeIPN6Xapian6Weight8InternalES3_St9_IdentityIS3_ESt4lessIS3_ESaIS3_EE5clearEv$w$NFcpeKEWRM5I0Sws3
0001:000705fe  __ZNSt13_Rb_tree_baseIPN6Xapian6Weight8InternalESaIS3_EED2Ev$w$NFcpeKEWRM5I0Sws3
0001:0007061a  __ZNSt19_Rb_tree_alloc_baseIPN6Xapian6Weight8InternalESaIS3_ELb1EE11_M_put_nodeEPSt13_Rb_tree_nodeIS3_E$w$NFcpeKEWRM5I0Sws3
0001:00070636  __ZNSt14__simple_allocISt13_Rb_tree_nodeIPN6Xapian6Weight8InternalEESt24__default_alloc_templateILb1ELi0EEE10deallocateEPS5_j$w$NFcpeKEWRM5I0Sws3
0001:00071596  __ZNKSt8_Rb_treeIPN6Xapian6Weight8InternalES3_St9_IdentityIS3_ESt4lessIS3_ESaIS3_EE7_M_rootEv$w$NFcpeKEWRM5I0Sws3
0001:000715a4  __ZNSt8_Rb_treeIPN6Xapian6Weight8InternalES3_St9_IdentityIS3_ESt4lessIS3_ESaIS3_EE8_M_eraseEPSt13_Rb_tree_nodeIS3_E$w$NFcpeKEWRM5I0Sws3
0001:000715fc  __ZNKSt8_Rb_treeIPN6Xapian6Weight8InternalES3_St9_IdentityIS3_ESt4lessIS3_ESaIS3_EE11_M_leftmostEv$w$NFcpeKEWRM5I0Sws3
0001:0007160a  __ZNKSt8_Rb_treeIPN6Xapian6Weight8InternalES3_St9_IdentityIS3_ESt4lessIS3_ESaIS3_EE12_M_rightmostEv$w$NFcpeKEWRM5I0Sws3
0001:00070728  __ZNSaIPN6Xapian6Weight8InternalEEC1Ev$w$NFcpeKEWRM5I0Sws3
0001:00070734  __ZNSt8_Rb_treeIPN6Xapian6Weight8InternalES3_St9_IdentityIS3_ESt4lessIS3_ESaIS3_EEC1ERKS7_RKS8_$w$NFcpeKEWRM5I0Sws3
0001:0007072e  __ZNSaIPN6Xapian6Weight8InternalEED1Ev$w$NFcpeKEWRM5I0Sws3
0001:00070764  __ZNSt13_Rb_tree_baseIPN6Xapian6Weight8InternalESaIS3_EEC2ERKS4_$w$NFcpeKEWRM5I0Sws3
0001:000707e0  __ZNSt8_Rb_treeIPN6Xapian6Weight8InternalES3_St9_IdentityIS3_ESt4lessIS3_ESaIS3_EE19_M_empty_initializeEv$w$NFcpeKEWRM5I0Sws3
0001:00070794  __ZNSt19_Rb_tree_alloc_baseIPN6Xapian6Weight8InternalESaIS3_ELb1EEC2ERKS4_$w$NFcpeKEWRM5I0Sws3
0001:000707a2  __ZNSt19_Rb_tree_alloc_baseIPN6Xapian6Weight8InternalESaIS3_ELb1EE11_M_get_nodeEv$w$NFcpeKEWRM5I0Sws3
0001:000707b6  __ZNSt14__simple_allocISt13_Rb_tree_nodeIPN6Xapian6Weight8InternalEESt24__default_alloc_templateILb1ELi0EEE8allocateEj$w$NFcpeKEWRM5I0Sws3
0001:00071618  __ZNSt8_Rb_treeIPN6Xapian6Weight8InternalES3_St9_IdentityIS3_ESt4lessIS3_ESaIS3_EE8_S_colorEPSt13_Rb_tree_nodeIS3_E$w$NFcpeKEWRM5I0Sws3
0001:00072aaa  __ZNSt8_Rb_treeIjjSt9_IdentityIjESt4lessIjESaIjEE14_M_create_nodeERKj$w$NFcpeKEWRM5I0Sws3
0001:00071620  __ZNSt8_Rb_treeIjjSt9_IdentityIjESt4lessIjESaIjEE9_S_parentEPSt13_Rb_tree_nodeIjE$w$NFcpeKEWRM5I0Sws3
0001:00070b3a  __ZNSt8_Rb_treeISsSt4pairIKSsN6Xapian4MSet8Internal17TermFreqAndWeightEESt10_Select1stIS6_ESt4lessISsESaIS6_EE8_S_valueEPSt13_Rb_tree_nodeIS6_E$w$NFcpeKEWRM5I0Sws3
0001:00070b46  __ZNKSt10_Select1stISt4pairIKSsN6Xapian4MSet8Internal17TermFreqAndWeightEEEclERS6_$w$NFcpeKEWRM5I0Sws3
0001:00070c2e  __ZNSt8_Rb_treeIjSt4pairIKjN6Xapian8DocumentEESt10_Select1stIS4_ESt4lessIjESaIS4_EE8_S_valueEPSt13_Rb_tree_nodeIS4_E$w$NFcpeKEWRM5I0Sws3
0001:00070c3a  __ZNKSt10_Select1stISt4pairIKjN6Xapian8DocumentEEEclERS4_$w$NFcpeKEWRM5I0Sws3
0001:000717da  __ZSt13__destroy_auxIPN6Xapian8Internal8ESetItemEEvT_S4_12__false_type$w$NFcpeKEWRM5I0Sws3
0001:00072958* __ZNSt17_Rb_tree_iteratorISt4pairIKSsjERKS2_PS3_EC1Ev$w$NFcpeKEWRM5I0Sws3
0001:0007296c  __ZNKSt3mapISsjSt4lessISsESaISt4pairIKSsjEEE4findERS3_$w$NFcpeKEWRM5I0Sws3
0001:00072a88* __ZNKSt17_Rb_tree_iteratorISt4pairIKSsjERKS2_PS3_EptEv$w$NFcpeKEWRM5I0Sws3
0001:00070dea  __ZNSt8_Rb_treeISsSt4pairIKSsPKN6Xapian12MatchDeciderEESt10_Select1stIS6_ESt4lessISsESaIS6_EE8_S_valueEPSt13_Rb_tree_nodeIS6_E$w$NFcpeKEWRM5I0Sws3
0001:00070df6  __ZNKSt10_Select1stISt4pairIKSsPKN6Xapian12MatchDeciderEEEclERS6_$w$NFcpeKEWRM5I0Sws3
0001:00071e02  __ZNSt6vectorISsSaISsEE19_M_range_initializeIN9__gnu_cxx17__normal_iteratorIPKSsS1_EEEEvT_S8_St20forward_iterator_tag$w$NFcpeKEWRM5I0Sws3
0001:00070e9c  __ZNSt13_Rb_tree_baseISt4pairIKjN6Xapian8DocumentEESaIS4_EEC2ERKS5_$w$NFcpeKEWRM5I0Sws3
0001:00070f1e  __ZNSt8_Rb_treeIjSt4pairIKjN6Xapian8DocumentEESt10_Select1stIS4_ESt4lessIjESaIS4_EE19_M_empty_initializeEv$w$NFcpeKEWRM5I0Sws3
0001:00070ecc  __ZNSt19_Rb_tree_alloc_baseISt4pairIKjN6Xapian8DocumentEESaIS4_ELb1EEC2ERKS5_$w$NFcpeKEWRM5I0Sws3
0001:00070eda  __ZNSt19_Rb_tree_alloc_baseISt4pairIKjN6Xapian8DocumentEESaIS4_ELb1EE11_M_get_nodeEv$w$NFcpeKEWRM5I0Sws3
0001:00070eee  __ZNSt14__simple_allocISt13_Rb_tree_nodeISt4pairIKjN6Xapian8DocumentEEESt24__default_alloc_templateILb1ELi0EEE8allocateEj$w$NFcpeKEWRM5I0Sws3
0001:00071eec  __ZNSt8_Rb_treeIjSt4pairIKjN6Xapian8DocumentEESt10_Select1stIS4_ESt4lessIjESaIS4_EE8_S_colorEPSt13_Rb_tree_nodeIS4_E$w$NFcpeKEWRM5I0Sws3
0001:00071ef4  __ZNSt8_Rb_treeIjSt4pairIKjN6Xapian8DocumentEESt10_Select1stIS4_ESt4lessIjESaIS4_EE12destroy_nodeEPSt13_Rb_tree_nodeIS4_E$w$NFcpeKEWRM5I0Sws3
0001:00071014  __ZNSt13_Rb_tree_baseISt4pairIKSsN6Xapian4MSet8Internal17TermFreqAndWeightEESaIS6_EEC2ERKS7_$w$NFcpeKEWRM5I0Sws3
0001:00071090  __ZNSt8_Rb_treeISsSt4pairIKSsN6Xapian4MSet8Internal17TermFreqAndWeightEESt10_Select1stIS6_ESt4lessISsESaIS6_EE19_M_empty_initializeEv$w$NFcpeKEWRM5I0Sws3
0001:00071044  __ZNSt19_Rb_tree_alloc_baseISt4pairIKSsN6Xapian4MSet8Internal17TermFreqAndWeightEESaIS6_ELb1EEC2ERKS7_$w$NFcpeKEWRM5I0Sws3
0001:00071052  __ZNSt19_Rb_tree_alloc_baseISt4pairIKSsN6Xapian4MSet8Internal17TermFreqAndWeightEESaIS6_ELb1EE11_M_get_nodeEv$w$NFcpeKEWRM5I0Sws3
0001:00071066  __ZNSt14__simple_allocISt13_Rb_tree_nodeISt4pairIKSsN6Xapian4MSet8Internal17TermFreqAndWeightEEESt24__default_alloc_templateILb1ELi0EEE8allocateEj$w$NFcpeKEWRM5I0Sws3
0001:0007122e  __ZNSt8_Rb_treeISsSt4pairIKSsN6Xapian4MSet8Internal17TermFreqAndWeightEESt10_Select1stIS6_ESt4lessISsESaIS6_EE8_S_colorEPSt13_Rb_tree_nodeIS6_E$w$NFcpeKEWRM5I0Sws3
0001:00071f1c  __ZNSt8_Rb_treeISsSt4pairIKSsN6Xapian4MSet8Internal17TermFreqAndWeightEESt10_Select1stIS6_ESt4lessISsESaIS6_EE12destroy_nodeEPSt13_Rb_tree_nodeIS6_E$w$NFcpeKEWRM5I0Sws3
0001:00071172  __ZNSt18_Vector_alloc_baseIN6Xapian8Internal8MSetItemESaIS2_ELb1EEC2ERKS3_$w$NFcpeKEWRM5I0Sws3
0001:000711ca  __ZNSt18_Vector_alloc_baseIN6Xapian8Internal8MSetItemESaIS2_ELb1EE13_M_deallocateEPS2_j$w$NFcpeKEWRM5I0Sws3
0001:000711e4  __ZNSt14__simple_allocIN6Xapian8Internal8MSetItemESt24__default_alloc_templateILb1ELi0EEE10deallocateEPS2_j$w$NFcpeKEWRM5I0Sws3
0001:00071f44  __ZSt13__destroy_auxIPN6Xapian8Internal8MSetItemEEvT_S4_12__false_type$w$NFcpeKEWRM5I0Sws3
0001:0007137e  __ZNKSt8_Rb_treeIjjSt9_IdentityIjESt4lessIjESaIjEE13get_allocatorEv$w$NFcpeKEWRM5I0Sws3
0001:00071f90  __ZNSt8_Rb_treeIjjSt9_IdentityIjESt4lessIjESaIjEE7_M_copyEPSt13_Rb_tree_nodeIjES8_$w$NFcpeKEWRM5I0Sws3
0001:000713c0  __ZNSt8_Rb_treeIjjSt9_IdentityIjESt4lessIjESaIjEE10_S_minimumEPSt13_Rb_tree_nodeIjE$w$NFcpeKEWRM5I0Sws3
0001:000713d4  __ZNSt8_Rb_treeIjjSt9_IdentityIjESt4lessIjESaIjEE10_S_maximumEPSt13_Rb_tree_nodeIjE$w$NFcpeKEWRM5I0Sws3
0001:000713a4  __ZNKSt19_Rb_tree_alloc_baseIjSaIjELb1EE13get_allocatorEv$w$NFcpeKEWRM5I0Sws3
0001:00072b06* __ZNSt8_Rb_treeISsSt4pairIKSsjESt10_Select1stIS2_ESt4lessISsESaIS2_EE14_M_create_nodeERKS2_$w$NFcpeKEWRM5I0Sws3
0001:000720d4* __ZNSt8_Rb_treeISsSt4pairIKSsjESt10_Select1stIS2_ESt4lessISsESaIS2_EE9_S_parentEPSt13_Rb_tree_nodeIS2_E$w$NFcpeKEWRM5I0Sws3
0001:00072bf6  __ZNSt8_Rb_treeIPN6Xapian6Weight8InternalES3_St9_IdentityIS3_ESt4lessIS3_ESaIS3_EE8_S_rightEPSt13_Rb_tree_nodeIS3_E$w$NFcpeKEWRM5I0Sws3
0001:00072134  __ZNSt8_Rb_treeIPN6Xapian6Weight8InternalES3_St9_IdentityIS3_ESt4lessIS3_ESaIS3_EE7_S_leftEPSt13_Rb_tree_nodeIS3_E$w$NFcpeKEWRM5I0Sws3
0001:00072140  __ZNSt8_Rb_treeIPN6Xapian6Weight8InternalES3_St9_IdentityIS3_ESt4lessIS3_ESaIS3_EE12destroy_nodeEPSt13_Rb_tree_nodeIS3_E$w$NFcpeKEWRM5I0Sws3
0001:00072c02  __ZNSt8_Rb_treeIjSt4pairIKjN6Xapian8DocumentEESt10_Select1stIS4_ESt4lessIjESaIS4_EE14_M_create_nodeERKS4_$w$NFcpeKEWRM5I0Sws3
0001:00072168  __ZNSt8_Rb_treeIjSt4pairIKjN6Xapian8DocumentEESt10_Select1stIS4_ESt4lessIjESaIS4_EE9_S_parentEPSt13_Rb_tree_nodeIS4_E$w$NFcpeKEWRM5I0Sws3
0001:000717fe  __ZSt8_DestroyIN6Xapian8Internal8ESetItemEEvPT_$w$NFcpeKEWRM5I0Sws3
0001:00072888  __ZN6Xapian8Internal8ESetItemD1Ev$w$NFcpeKEWRM5I0Sws3
0001:00072cf2  __ZSt9make_heapIN9__gnu_cxx17__normal_iteratorIPSsSt6vectorISsSaISsEEEEN6Xapian15ByQueryIndexCmpEEvT_S9_T0_$w$NFcpeKEWRM5I0Sws3
0001:000721dc  __ZSt10__pop_heapIN9__gnu_cxx17__normal_iteratorIPSsSt6vectorISsSaISsEEEESsN6Xapian15ByQueryIndexCmpEEvT_S9_S9_T0_T1_$w$NFcpeKEWRM5I0Sws3
0001:00072286  __ZSt9sort_heapIN9__gnu_cxx17__normal_iteratorIPSsSt6vectorISsSaISsEEEEN6Xapian15ByQueryIndexCmpEEvT_S9_T0_$w$NFcpeKEWRM5I0Sws3
0001:00072ddc  __ZNSt8_Rb_treeISsSt4pairIKSsPKN6Xapian12MatchDeciderEESt10_Select1stIS6_ESt4lessISsESaIS6_EE14_M_create_nodeERKS6_$w$NFcpeKEWRM5I0Sws3
0001:000723ae  __ZNSt8_Rb_treeISsSt4pairIKSsPKN6Xapian12MatchDeciderEESt10_Select1stIS6_ESt4lessISsESaIS6_EE9_S_parentEPSt13_Rb_tree_nodeIS6_E$w$NFcpeKEWRM5I0Sws3
0001:00071b84  __ZNSt8_Rb_treeISsSt4pairIKSsPKN6Xapian12MatchDeciderEESt10_Select1stIS6_ESt4lessISsESaIS6_EE11upper_boundERS1_$w$NFcpeKEWRM5I0Sws3
0001:00071c16  __ZNSt4pairISt17_Rb_tree_iteratorIS_IKSsPKN6Xapian12MatchDeciderEERS6_PS6_ES9_EC1ERKS9_SC_$w$NFcpeKEWRM5I0Sws3
0001:00071c9c  __ZSt19__iterator_categoryISt17_Rb_tree_iteratorISt4pairIKSsPKN6Xapian12MatchDeciderEERS7_PS7_EENSt15iterator_traitsIT_E17iterator_categoryERKSC_$w$NFcpeKEWRM5I0Sws3
0001:00071ca8  __ZSt10__distanceISt17_Rb_tree_iteratorISt4pairIKSsPKN6Xapian12MatchDeciderEERS7_PS7_EENSt15iterator_traitsIT_E15difference_typeESC_SC_St18input_iterator_tag$w$NFcpeKEWRM5I0Sws3
0001:00071ce6  __ZStneISt4pairIKSsPKN6Xapian12MatchDeciderEERS6_PS6_EbRKSt17_Rb_tree_iteratorIT_T0_T1_ESF_$w$NFcpeKEWRM5I0Sws3
0001:00071cfc  __ZNSt17_Rb_tree_iteratorISt4pairIKSsPKN6Xapian12MatchDeciderEERS6_PS6_EppEv$w$NFcpeKEWRM5I0Sws3
0001:000723e0  __ZNSt17_Rb_tree_iteratorISt4pairIKSsPKN6Xapian12MatchDeciderEERS6_PS6_EppEi$w$NFcpeKEWRM5I0Sws3
0001:0007240e  __ZNSt8_Rb_treeISsSt4pairIKSsPKN6Xapian12MatchDeciderEESt10_Select1stIS6_ESt4lessISsESaIS6_EE5eraseESt17_Rb_tree_iteratorIS6_RS6_PS6_E$w$NFcpeKEWRM5I0Sws3
0001:00071e72  __ZSt8distanceIN9__gnu_cxx17__normal_iteratorIPKSsSt6vectorISsSaISsEEEEENSt15iterator_traitsIT_E15difference_typeES9_S9_$w$NFcpeKEWRM5I0Sws3
0001:00071ec6  __ZSt18uninitialized_copyIN9__gnu_cxx17__normal_iteratorIPKSsSt6vectorISsSaISsEEEEPSsET0_T_SA_S9_$w$NFcpeKEWRM5I0Sws3
0001:00071ea0  __ZSt19__iterator_categoryIN9__gnu_cxx17__normal_iteratorIPKSsSt6vectorISsSaISsEEEEENSt15iterator_traitsIT_E17iterator_categoryERKS9_$w$NFcpeKEWRM5I0Sws3
0001:00071eac  __ZSt10__distanceIN9__gnu_cxx17__normal_iteratorIPKSsSt6vectorISsSaISsEEEEENSt15iterator_traitsIT_E15difference_typeES9_S9_St26random_access_iterator_tag$w$NFcpeKEWRM5I0Sws3
0001:00072464  __ZSt24__uninitialized_copy_auxIN9__gnu_cxx17__normal_iteratorIPKSsSt6vectorISsSaISsEEEEPSsET0_T_SA_S9_12__false_type$w$NFcpeKEWRM5I0Sws3
0001:00072ecc  __ZSt8_DestroyISt4pairIKjN6Xapian8DocumentEEEvPT_$w$NFcpeKEWRM5I0Sws3
0001:00072ee0  __ZSt8_DestroyISt4pairIKSsN6Xapian4MSet8Internal17TermFreqAndWeightEEEvPT_$w$NFcpeKEWRM5I0Sws3
0001:00071f68  __ZSt8_DestroyIN6Xapian8Internal8MSetItemEEvPT_$w$NFcpeKEWRM5I0Sws3
0001:0007289e  __ZN6Xapian8Internal8MSetItemD1Ev$w$NFcpeKEWRM5I0Sws3
0001:00072ef4  __ZNSt8_Rb_treeIjjSt9_IdentityIjESt4lessIjESaIjEE13_M_clone_nodeEPSt13_Rb_tree_nodeIjE$w$NFcpeKEWRM5I0Sws3
0001:00072f36  __ZSt8_DestroyIPN6Xapian6Weight8InternalEEvPT_$w$NFcpeKEWRM5I0Sws3
0001:00072f3c  __ZSt13__adjust_heapIN9__gnu_cxx17__normal_iteratorIPSsSt6vectorISsSaISsEEEEiSsN6Xapian15ByQueryIndexCmpEEvT_T0_SA_T1_T2_$w$NFcpeKEWRM5I0Sws3
0001:00073100  __ZN9__gnu_cxx17__normal_iteratorIPSsSt6vectorISsSaISsEEEmmEi$w$NFcpeKEWRM5I0Sws3
0001:00073128  __ZSt8pop_heapIN9__gnu_cxx17__normal_iteratorIPSsSt6vectorISsSaISsEEEEN6Xapian15ByQueryIndexCmpEEvT_S9_T0_$w$NFcpeKEWRM5I0Sws3
0001:000731f6  __ZN9__gnu_cxxneIPKSsSt6vectorISsSaISsEEEEbRKNS_17__normal_iteratorIT_T0_EESB_$w$NFcpeKEWRM5I0Sws3
0001:0007287e  __ZNK9__gnu_cxx17__normal_iteratorIPKSsSt6vectorISsSaISsEEEdeEv$w$NFcpeKEWRM5I0Sws3
0001:00073228  __ZN9__gnu_cxx17__normal_iteratorIPKSsSt6vectorISsSaISsEEEppEv$w$NFcpeKEWRM5I0Sws3
0001:000725ce  __ZTS14VectorTermList$w$NFcpeKEWRM5I0Sws3
0001:00073350* __ZTIN6Xapian12TermIterator8InternalE$w$NFcpeKEWRM5I0Sws3
0001:000725b6  __ZTSN6Xapian12RuntimeErrorE$w$NFcpeKEWRM5I0Sws3
0001:000725a0* __ZTSN6Xapian10LogicErrorE$w$NFcpeKEWRM5I0Sws3
0001:0007284c  __ZNK9__gnu_cxx17__normal_iteratorIPKSsSt6vectorISsSaISsEEEplERKi$w$NFcpeKEWRM5I0Sws3
0001:00072914  __ZNSt18_Vector_alloc_baseIN6Xapian8Internal8ESetItemESaIS2_ELb1EE13_M_deallocateEPS2_j$w$NFcpeKEWRM5I0Sws3
0001:0007292e  __ZNSt14__simple_allocIN6Xapian8Internal8ESetItemESt24__default_alloc_templateILb1ELi0EEE10deallocateEPS2_j$w$NFcpeKEWRM5I0Sws3
0001:0007298c  __ZNKSt8_Rb_treeISsSt4pairIKSsjESt10_Select1stIS2_ESt4lessISsESaIS2_EE4findERS1_$w$NFcpeKEWRM5I0Sws3
0001:000733f6* __ZNSt17_Rb_tree_iteratorISt4pairIKSsjERKS2_PS3_EC1EPSt13_Rb_tree_nodeIS2_E$w$NFcpeKEWRM5I0Sws3
0001:00073412* __ZNKSt8_Rb_treeISsSt4pairIKSsjESt10_Select1stIS2_ESt4lessISsESaIS2_EE3endEv$w$NFcpeKEWRM5I0Sws3
0001:00073432  __ZSteqISt4pairIKSsjERKS2_PS3_EbRKSt17_Rb_tree_iteratorIT_T0_T1_ESC_$w$NFcpeKEWRM5I0Sws3
0001:00072a9c* __ZNKSt17_Rb_tree_iteratorISt4pairIKSsjERKS2_PS3_EdeEv$w$NFcpeKEWRM5I0Sws3
0001:00072ad8* __ZSt10_ConstructIjjEvPT_RKT0_$w$NFcpeKEWRM5I0Sws3
0001:00072b7a* __ZSt10_ConstructISt4pairIKSsjES2_EvPT_RKT0_$w$NFcpeKEWRM5I0Sws3
0001:000733d0* __ZNSt4pairIKSsjEC1ERKS1_$w$NFcpeKEWRM5I0Sws3
0001:00072c76  __ZSt10_ConstructISt4pairIKjN6Xapian8DocumentEES4_EvPT_RKT0_$w$NFcpeKEWRM5I0Sws3
0001:00073392  __ZNSt4pairIKjN6Xapian8DocumentEEC1ERKS3_$w$NFcpeKEWRM5I0Sws3
0001:00072e50  __ZSt10_ConstructISt4pairIKSsPKN6Xapian12MatchDeciderEES6_EvPT_RKT0_$w$NFcpeKEWRM5I0Sws3
0001:00073448  __ZNSt4pairIKSsPKN6Xapian12MatchDeciderEEC1ERKS5_$w$NFcpeKEWRM5I0Sws3
0001:000733bc  __ZNSt4pairIKSsN6Xapian4MSet8Internal17TermFreqAndWeightEED1Ev$w$NFcpeKEWRM5I0Sws3
0001:00073236  __ZSt11__push_heapIN9__gnu_cxx17__normal_iteratorIPSsSt6vectorISsSaISsEEEEiSsN6Xapian15ByQueryIndexCmpEEvT_T0_SA_T1_T2_$w$NFcpeKEWRM5I0Sws3
0001:00073370* __ZTSN6Xapian12TermIterator8InternalE$w$NFcpeKEWRM5I0Sws3
0001:00073470* __ZTIN6Xapian8Internal10RefCntBaseE$w$NFcpeKEWRM5I0Sws3
0001:00073478* __ZTSN6Xapian8Internal10RefCntBaseE$w$NFcpeKEWRM5I0Sws3
0002:00038c90* __ZN16__Atomicity_lockILi0EE17_S_atomicity_lockE$w$NFcpeKEWRM5I0Sws3
Module: E:\rd\dse\xapian-core-1.0.2\.libs\xapian.lib(matcher\orpostlist.cc)
0001:000734b0  __ZN10OrPostListC2EPN6Xapian15PostingIterator8InternalES3_P10MultiMatchj
0001:00073516  __ZN10OrPostListC1EPN6Xapian15PostingIterator8InternalES3_P10MultiMatchj
0001:0007357c  __ZN10OrPostList4nextEd
0001:0007394a  __ZN10OrPostList7skip_toEjd
0001:00073d18  __ZNK10OrPostList16get_termfreq_maxEv
0001:00073d74  __ZNK10OrPostList16get_termfreq_minEv
0001:00073dcc  __ZNK10OrPostList16get_termfreq_estEv
0001:00073e6a  __ZNK10OrPostList9get_docidEv
0001:00073e8c  __ZNK10OrPostList10get_weightEv
0001:00073f2e  __ZNK10OrPostList13get_maxweightEv
0001:00073f40  __ZN10OrPostList16recalc_maxweightEv
0001:00073fb4  __ZNK10OrPostList6at_endEv
0001:00073fc8  __ZNK10OrPostList15get_descriptionEv
0001:0007415c  __ZNK10OrPostList13get_doclengthEv
0001:00074546* __ZN14BranchPostListC2EPN6Xapian15PostingIterator8InternalES3_P10MultiMatch$w$RhPpJqFXRM5E6gWn0
0001:000743b0  __ZTV10OrPostList$w$RhPpJqFXRM5E6gWn0
0001:000741ae* __ZSt3maxIjERKT_S2_S2_$w$RhPpJqFXRM5E6gWn0
0001:000745fc* __Z22skip_to_handling_pruneRPN6Xapian15PostingIterator8InternalEjdP10MultiMatch$w$RhPpJqFXRM5E6gWn0
0001:000746ea  __ZN16AndMaybePostListC1EPN6Xapian15PostingIterator8InternalES3_P10MultiMatchjjj$w$RhPpJqFXRM5E6gWn0
0001:0007457e* __Z19next_handling_pruneRPN6Xapian15PostingIterator8InternalEdP10MultiMatch$w$RhPpJqFXRM5E6gWn0
0001:0007442c* __ZSt3minIjERKT_S2_S2_$w$RhPpJqFXRM5E6gWn0
0001:000741d4  __ZSt3minIdERKT_S2_S2_$w$RhPpJqFXRM5E6gWn0
0001:00074200* __ZStplIcSt11char_traitsIcESaIcEESbIT_T0_T1_EPKS3_RKS6_$w$RhPpJqFXRM5E6gWn0
0001:00074298* __ZStplIcSt11char_traitsIcESaIcEESbIT_T0_T1_ERKS6_PKS3_$w$RhPpJqFXRM5E6gWn0
0001:000742f0* __ZStplIcSt11char_traitsIcESaIcEESbIT_T0_T1_ERKS6_S8_$w$RhPpJqFXRM5E6gWn0
0001:00074418* __ZNSt11char_traitsIcE6lengthEPKc$w$RhPpJqFXRM5E6gWn0
0001:00074348* __ZNSs6appendIPKcEERSsT_S3_$w$RhPpJqFXRM5E6gWn0
0001:000747ac  __ZTI10OrPostList$w$RhPpJqFXRM5E6gWn0
0001:00074682  __ZN10OrPostListD1Ev$w$RhPpJqFXRM5E6gWn0
0001:000746b6  __ZN10OrPostListD0Ev$w$RhPpJqFXRM5E6gWn0
0001:0007453c* __ZNK6Xapian15PostingIterator8Internal16get_collapse_keyEv$w$RhPpJqFXRM5E6gWn0
0001:00074400* __ZTV13StatsGatherer$w$RhPpJqFXRM5E6gWn0
0001:000747a4* __ZTI13StatsGatherer$w$RhPpJqFXRM5E6gWn0
0001:00074452* __ZN13StatsGathererD1Ev$w$RhPpJqFXRM5E6gWn0
0001:000744c0* __ZN13StatsGathererD0Ev$w$RhPpJqFXRM5E6gWn0
0001:0007452e* __ZN13StatsGatherer16set_global_statsEj$w$RhPpJqFXRM5E6gWn0
0001:000747f8* __ZN5StatsD1Ev$w$RhPpJqFXRM5E6gWn0
0001:00074846* __ZNSt3setIPN6Xapian6Weight8InternalESt4lessIS3_ESaIS3_EED1Ev$w$RhPpJqFXRM5E6gWn0
0001:0007496a* __ZN6Xapian15PostingIterator8InternalC2Ev$w$RhPpJqFXRM5E6gWn0
0001:000747c5* __ZTS13StatsGatherer$w$RhPpJqFXRM5E6gWn0
0001:000747b8  __ZTS10OrPostList$w$RhPpJqFXRM5E6gWn0
0001:00074a40* __ZTI14BranchPostList$w$RhPpJqFXRM5E6gWn0
0001:000747f4* __ZNSt15basic_streambufIcSt11char_traitsIcEE13_S_pback_sizeE$w$RhPpJqFXRM5E6gWn0
0001:00074ace* __ZNSt3mapISsjSt4lessISsESaISt4pairIKSsjEEED1Ev$w$RhPpJqFXRM5E6gWn0
0001:0007485a* __ZNSt8_Rb_treeIPN6Xapian6Weight8InternalES3_St9_IdentityIS3_ESt4lessIS3_ESaIS3_EED1Ev$w$RhPpJqFXRM5E6gWn0
0001:000748fa* __ZNSt8_Rb_treeIPN6Xapian6Weight8InternalES3_St9_IdentityIS3_ESt4lessIS3_ESaIS3_EE5clearEv$w$RhPpJqFXRM5E6gWn0
0001:0007489e* __ZNSt13_Rb_tree_baseIPN6Xapian6Weight8InternalESaIS3_EED2Ev$w$RhPpJqFXRM5E6gWn0
0001:000748ba* __ZNSt19_Rb_tree_alloc_baseIPN6Xapian6Weight8InternalESaIS3_ELb1EE11_M_put_nodeEPSt13_Rb_tree_nodeIS3_E$w$RhPpJqFXRM5E6gWn0
0001:000748d6* __ZNSt14__simple_allocISt13_Rb_tree_nodeIPN6Xapian6Weight8InternalEESt24__default_alloc_templateILb1ELi0EEE10deallocateEPS5_j$w$RhPpJqFXRM5E6gWn0
0001:0007498a* __ZNKSt8_Rb_treeIPN6Xapian6Weight8InternalES3_St9_IdentityIS3_ESt4lessIS3_ESaIS3_EE7_M_rootEv$w$RhPpJqFXRM5E6gWn0
0001:00074998* __ZNSt8_Rb_treeIPN6Xapian6Weight8InternalES3_St9_IdentityIS3_ESt4lessIS3_ESaIS3_EE8_M_eraseEPSt13_Rb_tree_nodeIS3_E$w$RhPpJqFXRM5E6gWn0
0001:000749f0* __ZNKSt8_Rb_treeIPN6Xapian6Weight8InternalES3_St9_IdentityIS3_ESt4lessIS3_ESaIS3_EE11_M_leftmostEv$w$RhPpJqFXRM5E6gWn0
0001:000749fe* __ZNKSt8_Rb_treeIPN6Xapian6Weight8InternalES3_St9_IdentityIS3_ESt4lessIS3_ESaIS3_EE12_M_rightmostEv$w$RhPpJqFXRM5E6gWn0
0001:00074ac0* __ZN6Xapian8Internal10RefCntBaseC2Ev$w$RhPpJqFXRM5E6gWn0
0001:00074a70* __ZTVN6Xapian15PostingIterator8InternalE$w$RhPpJqFXRM5E6gWn0
0001:00074dd2* __ZNSt8_Rb_treeIPN6Xapian6Weight8InternalES3_St9_IdentityIS3_ESt4lessIS3_ESaIS3_EE8_S_rightEPSt13_Rb_tree_nodeIS3_E$w$RhPpJqFXRM5E6gWn0
0001:00074a0c* __ZNSt8_Rb_treeIPN6Xapian6Weight8InternalES3_St9_IdentityIS3_ESt4lessIS3_ESaIS3_EE7_S_leftEPSt13_Rb_tree_nodeIS3_E$w$RhPpJqFXRM5E6gWn0
0001:00074a18* __ZNSt8_Rb_treeIPN6Xapian6Weight8InternalES3_St9_IdentityIS3_ESt4lessIS3_ESaIS3_EE12destroy_nodeEPSt13_Rb_tree_nodeIS3_E$w$RhPpJqFXRM5E6gWn0
0001:00074e06* __ZSt8_DestroyIPN6Xapian6Weight8InternalEEvPT_$w$RhPpJqFXRM5E6gWn0
0001:00074a4c* __ZTS14BranchPostList$w$RhPpJqFXRM5E6gWn0
0001:00074e10* __ZTIN6Xapian15PostingIterator8InternalE$w$RhPpJqFXRM5E6gWn0
0001:00074bb2* __ZN6Xapian15PostingIterator8InternalD1Ev$w$RhPpJqFXRM5E6gWn0
0001:00074bda* __ZN6Xapian15PostingIterator8InternalD0Ev$w$RhPpJqFXRM5E6gWn0
0001:00074c26* __ZNK6Xapian15PostingIterator8Internal7get_wdfEv$w$RhPpJqFXRM5E6gWn0
0001:00074ae2* __ZNSt8_Rb_treeISsSt4pairIKSsjESt10_Select1stIS2_ESt4lessISsESaIS2_EED1Ev$w$RhPpJqFXRM5E6gWn0
0001:00074b26* __ZNSt8_Rb_treeISsSt4pairIKSsjESt10_Select1stIS2_ESt4lessISsESaIS2_EE5clearEv$w$RhPpJqFXRM5E6gWn0
0001:00074eaa* __ZNSt13_Rb_tree_baseISt4pairIKSsjESaIS2_EED2Ev$w$RhPpJqFXRM5E6gWn0
0001:00074ba4* __ZNKSt8_Rb_treeISsSt4pairIKSsjESt10_Select1stIS2_ESt4lessISsESaIS2_EE7_M_rootEv$w$RhPpJqFXRM5E6gWn0
0001:00074d7a* __ZNSt8_Rb_treeISsSt4pairIKSsjESt10_Select1stIS2_ESt4lessISsESaIS2_EE8_M_eraseEPSt13_Rb_tree_nodeIS2_E$w$RhPpJqFXRM5E6gWn0
0001:00074b96* __ZNKSt8_Rb_treeISsSt4pairIKSsjESt10_Select1stIS2_ESt4lessISsESaIS2_EE11_M_leftmostEv$w$RhPpJqFXRM5E6gWn0
0001:00074d6c* __ZNKSt8_Rb_treeISsSt4pairIKSsjESt10_Select1stIS2_ESt4lessISsESaIS2_EE12_M_rightmostEv$w$RhPpJqFXRM5E6gWn0
0001:00074e7a* __ZN6Xapian18UnimplementedErrorC1ERKSsS2_i$w$RhPpJqFXRM5E6gWn0
0001:00074e54* __ZN6Xapian18UnimplementedErrorD1Ev$w$RhPpJqFXRM5E6gWn0
0001:00074f38* __ZTIN6Xapian18UnimplementedErrorE$w$RhPpJqFXRM5E6gWn0
0001:00074f18* __ZNSt8_Rb_treeISsSt4pairIKSsjESt10_Select1stIS2_ESt4lessISsESaIS2_EE8_S_rightEPSt13_Rb_tree_nodeIS2_E$w$RhPpJqFXRM5E6gWn0
0001:00074f0c* __ZNSt8_Rb_treeISsSt4pairIKSsjESt10_Select1stIS2_ESt4lessISsESaIS2_EE7_S_leftEPSt13_Rb_tree_nodeIS2_E$w$RhPpJqFXRM5E6gWn0
0001:00074dde* __ZNSt8_Rb_treeISsSt4pairIKSsjESt10_Select1stIS2_ESt4lessISsESaIS2_EE12destroy_nodeEPSt13_Rb_tree_nodeIS2_E$w$RhPpJqFXRM5E6gWn0
0001:00074f24* __ZSt8_DestroyISt4pairIKSsjEEvPT_$w$RhPpJqFXRM5E6gWn0
0001:00074ec6* __ZNSt19_Rb_tree_alloc_baseISt4pairIKSsjESaIS2_ELb1EE11_M_put_nodeEPSt13_Rb_tree_nodeIS2_E$w$RhPpJqFXRM5E6gWn0
0001:00074e30* __ZTSN6Xapian15PostingIterator8InternalE$w$RhPpJqFXRM5E6gWn0
0001:00074f44* __ZTIN6Xapian8Internal10RefCntBaseE$w$RhPpJqFXRM5E6gWn0
0001:00074f8a* __ZN6Xapian10LogicErrorD2Ev$w$RhPpJqFXRM5E6gWn0
0001:00074f9e* __ZN6Xapian10LogicErrorC2ERKSsS2_PKci$w$RhPpJqFXRM5E6gWn0
0001:00074ee2* __ZNSt14__simple_allocISt13_Rb_tree_nodeISt4pairIKSsjEESt24__default_alloc_templateILb1ELi0EEE10deallocateEPS4_j$w$RhPpJqFXRM5E6gWn0
0001:00074fce* __ZNSt4pairIKSsjED1Ev$w$RhPpJqFXRM5E6gWn0
0001:00074f6b* __ZTSN6Xapian18UnimplementedErrorE$w$RhPpJqFXRM5E6gWn0
0001:00074fe4* __ZTIN6Xapian10LogicErrorE$w$RhPpJqFXRM5E6gWn0
0001:00074f4c* __ZTSN6Xapian8Internal10RefCntBaseE$w$RhPpJqFXRM5E6gWn0
0001:00075006* __ZN6Xapian5ErrorD2Ev$w$RhPpJqFXRM5E6gWn0
0001:00075036* __ZN6Xapian5ErrorC2ERKSsS2_PKci$w$RhPpJqFXRM5E6gWn0
0001:00074ff0* __ZTSN6Xapian10LogicErrorE$w$RhPpJqFXRM5E6gWn0
0001:000750b4* __ZTIN6Xapian5ErrorE$w$RhPpJqFXRM5E6gWn0
0001:000750bc* __ZTSN6Xapian5ErrorE$w$RhPpJqFXRM5E6gWn0
0002:00038ca0* __ZN16__Atomicity_lockILi0EE17_S_atomicity_lockE$w$RhPpJqFXRM5E6gWn0
Module: E:\rd\dse\xapian-core-1.0.2\.libs\xapian.lib(queryparser\queryparser.cc)
0001:000750ea  __ZNK6Xapian7Stopper15get_descriptionEv
0001:00075164  __ZNK6Xapian13SimpleStopper15get_descriptionEv
0001:000752aa  __ZN6Xapian19ValueRangeProcessorD2Ev
0001:000752d2  __ZN6Xapian19ValueRangeProcessorD1Ev
0001:000752fa  __ZN6Xapian19ValueRangeProcessorD0Ev
0001:00075322  __ZN6Xapian11QueryParserC2ERKS0_
0001:0007533c  __ZN6Xapian11QueryParserC1ERKS0_
0001:00075356  __ZN6Xapian11QueryParseraSERKS0_
0001:00075374  __ZN6Xapian11QueryParserC2Ev
0001:000753de  __ZN6Xapian11QueryParserC1Ev
0001:00075448  __ZN6Xapian11QueryParserD2Ev
0001:0007545c  __ZN6Xapian11QueryParserD1Ev
0001:00075470  __ZN6Xapian11QueryParser11set_stemmerERKNS_4StemE
0001:00075496  __ZN6Xapian11QueryParser21set_stemming_strategyENS0_13stem_strategyE
0001:000754b2  __ZN6Xapian11QueryParser11set_stopperEPKNS_7StopperE
0001:000754ce  __ZN6Xapian11QueryParser14set_default_opENS_5Query2opE
0001:000754ea  __ZNK6Xapian11QueryParser14get_default_opEv
0001:00075500  __ZN6Xapian11QueryParser12set_databaseERKNS_8DatabaseE
0001:00075532  __ZN6Xapian11QueryParser11parse_queryERKSsjS2_
0001:0007580e  __ZN6Xapian11QueryParser10add_prefixERKSsS2_
0001:00075942  __ZN6Xapian11QueryParser18add_boolean_prefixERKSsS2_
0001:00075a76  __ZNK6Xapian11QueryParser14stoplist_beginEv
0001:00075b52  __ZNK6Xapian11QueryParser12unstem_beginERKSs
0001:00075d14  __ZN6Xapian11QueryParser23add_valuerangeprocessorEPNS_19ValueRangeProcessorE
0001:00075d3a  __ZNK6Xapian11QueryParser26get_corrected_query_stringEv
0001:00075d7e  __ZNK6Xapian11QueryParser15get_descriptionEv
0001:00075e02* __ZNSt17_Rb_tree_iteratorISsRKSsPS0_EC1Ev$w$X2YM6PMXRM5hlT501
0001:00075e16* __ZNKSt3setISsSt4lessISsESaISsEE5beginEv$w$X2YM6PMXRM5hlT501
0001:000760f4* __ZNKSt3setISsSt4lessISsESaISsEE3endEv$w$X2YM6PMXRM5hlT501
0001:0007610e* __ZStneISsRKSsPS0_EbRKSt17_Rb_tree_iteratorIT_T0_T1_ES9_$w$X2YM6PMXRM5hlT501
0001:00075e46* __ZNKSt17_Rb_tree_iteratorISsRKSsPS0_EdeEv$w$X2YM6PMXRM5hlT501
0001:00075e30* __ZNSt17_Rb_tree_iteratorISsRKSsPS0_EppEv$w$X2YM6PMXRM5hlT501
0001:00075fd8  __ZTVN6Xapian19ValueRangeProcessorE$w$X2YM6PMXRM5hlT501
0001:000765e6  __ZN6Xapian8Internal9RefCntPtrINS_11QueryParser8InternalEEC1ERKS4_$w$X2YM6PMXRM5hlT501
0001:00076656  __ZN6Xapian8Internal9RefCntPtrINS_11QueryParser8InternalEEaSERKS4_$w$X2YM6PMXRM5hlT501
0001:00076360  __ZN6Xapian11QueryParser8InternalC1Ev$w$X2YM6PMXRM5hlT501
0001:00075e54  __ZN6Xapian8Internal9RefCntPtrINS_11QueryParser8InternalEEC1EPS3_$w$X2YM6PMXRM5hlT501
0001:00076606  __ZN6Xapian8Internal9RefCntPtrINS_11QueryParser8InternalEED1Ev$w$X2YM6PMXRM5hlT501
0001:000766da  __ZNK6Xapian8Internal9RefCntPtrINS_11QueryParser8InternalEEptEv$w$X2YM6PMXRM5hlT501
0001:000766e4  __ZNSt4listISsSaISsEE5clearEv$w$X2YM6PMXRM5hlT501
0001:00075e72  __ZNSt8multimapISsSsSt4lessISsESaISt4pairIKSsSsEEE5clearEv$w$X2YM6PMXRM5hlT501
0001:00076514  __ZN6Xapian16QueryParserErrorC1ERKSsS2_i$w$X2YM6PMXRM5hlT501
0001:000764f0  __ZN6Xapian16QueryParserErrorD1Ev$w$X2YM6PMXRM5hlT501
0001:00076f74  __ZTIN6Xapian16QueryParserErrorE$w$X2YM6PMXRM5hlT501
0001:0007628e  __ZN10PrefixInfoC1ENS_11prefix_typeERKSs$w$X2YM6PMXRM5hlT501
0001:00075e86  __ZSt9make_pairISs10PrefixInfoESt4pairIT_T0_ES2_S3_$w$X2YM6PMXRM5hlT501
0001:00075eb0  __ZNSt4pairIKSs10PrefixInfoEC1ISsS1_EERKS_IT_T0_E$w$X2YM6PMXRM5hlT501
0001:00075f08  __ZNSt3mapISs10PrefixInfoSt4lessISsESaISt4pairIKSsS0_EEE6insertERKS5_$w$X2YM6PMXRM5hlT501
0001:0007633e  __ZNSt4pairIKSs10PrefixInfoED1Ev$w$X2YM6PMXRM5hlT501
0001:00076760  __ZNSt4pairISs10PrefixInfoED1Ev$w$X2YM6PMXRM5hlT501
0001:00076278  __ZN10PrefixInfoD1Ev$w$X2YM6PMXRM5hlT501
0001:000767c4  __ZNSt4listISsSaISsEE3endEv$w$X2YM6PMXRM5hlT501
0001:00075f34  __ZNSt14_List_iteratorISsRKSsPS0_EC1ERKS_ISsRSsPSsE$w$X2YM6PMXRM5hlT501
0001:00076782  __ZNSt4listISsSaISsEE5beginEv$w$X2YM6PMXRM5hlT501
0001:00076544  __ZN14VectorTermListC1ESt14_List_iteratorISsRKSsPS1_ES4_$w$X2YM6PMXRM5hlT501
0001:000767ea  __ZNSt4pairISt17_Rb_tree_iteratorIS_IKSsSsERS2_PS2_ES5_EC1Ev$w$X2YM6PMXRM5hlT501
0001:00076820  __ZNSt8multimapISsSsSt4lessISsESaISt4pairIKSsSsEEE11equal_rangeERS3_$w$X2YM6PMXRM5hlT501
0001:00075de2* __ZNSaISsEC1Ev$w$X2YM6PMXRM5hlT501
0001:000762b4  __ZNSt4listISsSaISsEEC1ERKS0_$w$X2YM6PMXRM5hlT501
0001:00075de8* __ZNSaISsED1Ev$w$X2YM6PMXRM5hlT501
0001:00075f50  __ZStneISt4pairIKSsSsERS2_PS2_EbRKSt17_Rb_tree_iteratorIT_T0_T1_ESB_$w$X2YM6PMXRM5hlT501
0001:00075f66  __ZNKSt17_Rb_tree_iteratorISt4pairIKSsSsERS2_PS2_EptEv$w$X2YM6PMXRM5hlT501
0001:00075f7a  __ZNSt4listISsSaISsEE9push_backERKSs$w$X2YM6PMXRM5hlT501
0001:00075fbe  __ZNSt17_Rb_tree_iteratorISt4pairIKSsSsERS2_PS2_EppEv$w$X2YM6PMXRM5hlT501
0001:00075dee  __ZNSt4listISsSaISsEED1Ev$w$X2YM6PMXRM5hlT501
0001:00076ace  __ZNSt4listIPN6Xapian19ValueRangeProcessorESaIS2_EE9push_backERKS2_$w$X2YM6PMXRM5hlT501
0001:00076aa6  __ZNSt10_List_baseISsSaISsEED2Ev$w$X2YM6PMXRM5hlT501
0001:00076020* __ZNSt22_Rb_tree_base_iteratorC2Ev$w$X2YM6PMXRM5hlT501
0001:00076c28* __ZNKSt8_Rb_treeISsSsSt9_IdentityISsESt4lessISsESaISsEE5beginEv$w$X2YM6PMXRM5hlT501
0001:00076026* __ZNSt22_Rb_tree_base_iterator12_M_incrementEv$w$X2YM6PMXRM5hlT501
0001:000762ce  __ZNSt8_Rb_treeISsSt4pairIKSsSsESt10_Select1stIS2_ESt4lessISsESaIS2_EE5clearEv$w$X2YM6PMXRM5hlT501
0001:00076c50  __ZNSt4pairISs10PrefixInfoEC1ERKSsRKS0_$w$X2YM6PMXRM5hlT501
0001:0007624e  __ZN10PrefixInfoC1ERKS_$w$X2YM6PMXRM5hlT501
0001:00076ca6  __ZNSt8_Rb_treeISsSt4pairIKSs10PrefixInfoESt10_Select1stIS3_ESt4lessISsESaIS3_EE13insert_uniqueERKS3_$w$X2YM6PMXRM5hlT501
0001:00076240* __ZNSt19_List_iterator_baseC2EPSt15_List_node_base$w$X2YM6PMXRM5hlT501
0001:00076e86  __ZNKSt17_Rb_tree_iteratorISt4pairIKSsSsERS2_PS2_EdeEv$w$X2YM6PMXRM5hlT501
0001:00076e94  __ZNSt4listISsSaISsEE6insertESt14_List_iteratorISsRSsPSsERKSs$w$X2YM6PMXRM5hlT501
0001:00076f6c* __ZTIN6Xapian19ValueRangeProcessorE$w$X2YM6PMXRM5hlT501
0001:00075ff0  __ZTVN6Xapian13SimpleStopperE$w$X2YM6PMXRM5hlT501
0001:00076f60  __ZTIN6Xapian13SimpleStopperE$w$X2YM6PMXRM5hlT501
0001:00076124  __ZNK6Xapian13SimpleStopperclERKSs$w$X2YM6PMXRM5hlT501
0001:00076170  __ZN6Xapian13SimpleStopperD1Ev$w$X2YM6PMXRM5hlT501
0001:000761d8  __ZN6Xapian13SimpleStopperD0Ev$w$X2YM6PMXRM5hlT501
0001:00076008  __ZTVN6Xapian7StopperE$w$X2YM6PMXRM5hlT501
0001:00076f58  __ZTIN6Xapian7StopperE$w$X2YM6PMXRM5hlT501
0001:000760a4  __ZN6Xapian7StopperD1Ev$w$X2YM6PMXRM5hlT501
0001:000760cc  __ZN6Xapian7StopperD0Ev$w$X2YM6PMXRM5hlT501
0001:000772e6* __ZNKSt8_Rb_treeISsSsSt9_IdentityISsESt4lessISsESaISsEE3endEv$w$X2YM6PMXRM5hlT501
0001:000772aa* __ZNKSt3setISsSt4lessISsESaISsEE4findERKSs$w$X2YM6PMXRM5hlT501
0001:00077120* __ZNSt3setISsSt4lessISsESaISsEED1Ev$w$X2YM6PMXRM5hlT501
0001:000770f8  __ZN6Xapian7StopperD2Ev$w$X2YM6PMXRM5hlT501
0001:00076a14  __ZNSt10_List_baseISsSaISsEEC2ERKS0_$w$X2YM6PMXRM5hlT501
0001:000768b0  __ZNKSt8_Rb_treeISsSt4pairIKSsSsESt10_Select1stIS2_ESt4lessISsESaIS2_EE7_M_rootEv$w$X2YM6PMXRM5hlT501
0001:00076bb4  __ZNSt8_Rb_treeISsSt4pairIKSsSsESt10_Select1stIS2_ESt4lessISsESaIS2_EE8_M_eraseEPSt13_Rb_tree_nodeIS2_E$w$X2YM6PMXRM5hlT501
0001:00076c0c  __ZNKSt8_Rb_treeISsSt4pairIKSsSsESt10_Select1stIS2_ESt4lessISsESaIS2_EE11_M_leftmostEv$w$X2YM6PMXRM5hlT501
0001:00076c1a  __ZNKSt8_Rb_treeISsSt4pairIKSsSsESt10_Select1stIS2_ESt4lessISsESaIS2_EE12_M_rightmostEv$w$X2YM6PMXRM5hlT501
0001:0007704c* __ZN6Xapian8Internal10RefCntBaseC2Ev$w$X2YM6PMXRM5hlT501
0001:0007752a  __ZNSt8multimapISsSsSt4lessISsESaISt4pairIKSsSsEEEC1Ev$w$X2YM6PMXRM5hlT501
0001:0007762e  __ZNSt3mapISs10PrefixInfoSt4lessISsESaISt4pairIKSsS0_EEEC1Ev$w$X2YM6PMXRM5hlT501
0001:0007779c  __ZNSaIPN6Xapian19ValueRangeProcessorEEC1Ev$w$X2YM6PMXRM5hlT501
0001:000777a8  __ZNSt4listIPN6Xapian19ValueRangeProcessorESaIS2_EEC1ERKS3_$w$X2YM6PMXRM5hlT501
0001:000777a2  __ZNSaIPN6Xapian19ValueRangeProcessorEED1Ev$w$X2YM6PMXRM5hlT501
0001:00077416  __ZNSt3mapISs10PrefixInfoSt4lessISsESaISt4pairIKSsS0_EEED1Ev$w$X2YM6PMXRM5hlT501
0001:00077402  __ZNSt8multimapISsSsSt4lessISsESaISt4pairIKSsSsEEED1Ev$w$X2YM6PMXRM5hlT501
0001:000777d6* __ZN6Xapian12RuntimeErrorD2Ev$w$X2YM6PMXRM5hlT501
0001:000777ea* __ZN6Xapian12RuntimeErrorC2ERKSsS2_PKci$w$X2YM6PMXRM5hlT501
0001:0007781a* __ZN6Xapian12TermIterator8InternalC2Ev$w$X2YM6PMXRM5hlT501
0001:00077010* __ZTV14VectorTermList$w$X2YM6PMXRM5hlT501
0001:00077934  __ZNSt6vectorISsSaISsEEC1ISt14_List_iteratorISsRKSsPS4_EEET_S8_RKS0_$w$X2YM6PMXRM5hlT501
0001:0007742a  __ZN6Xapian11QueryParser8InternalD1Ev$w$X2YM6PMXRM5hlT501
0001:00076672  __ZN6Xapian8Internal9RefCntPtrINS_11QueryParser8InternalEEaSEPS3_$w$X2YM6PMXRM5hlT501
0001:000766f8  __ZNSt10_List_baseISsSaISsEE7__clearEv$w$X2YM6PMXRM5hlT501
0001:00078032* __ZSt8_DestroyISsEvPT_$w$X2YM6PMXRM5hlT501
0001:00078046  __ZNSt16_List_alloc_baseISsSaISsELb1EE11_M_put_nodeEPSt10_List_nodeISsE$w$X2YM6PMXRM5hlT501
0001:000767aa  __ZNSt14_List_iteratorISsRSsPSsEC1EPSt10_List_nodeISsE$w$X2YM6PMXRM5hlT501
0001:0007680c  __ZNSt17_Rb_tree_iteratorISt4pairIKSsSsERS2_PS2_EC1Ev$w$X2YM6PMXRM5hlT501
0001:0007684c  __ZNSt8_Rb_treeISsSt4pairIKSsSsESt10_Select1stIS2_ESt4lessISsESaIS2_EE11equal_rangeERS1_$w$X2YM6PMXRM5hlT501
0001:00076952  __ZNSt8_Rb_treeISsSt4pairIKSsSsESt10_Select1stIS2_ESt4lessISsESaIS2_EE11upper_boundERS1_$w$X2YM6PMXRM5hlT501
0001:000768be  __ZNSt8_Rb_treeISsSt4pairIKSsSsESt10_Select1stIS2_ESt4lessISsESaIS2_EE11lower_boundERS1_$w$X2YM6PMXRM5hlT501
0001:000769e4  __ZNSt4pairISt17_Rb_tree_iteratorIS_IKSsSsERS2_PS2_ES5_EC1ERKS5_S8_$w$X2YM6PMXRM5hlT501
0001:0007808c  __ZNSt8_Rb_treeISsSt4pairIKSsSsESt10_Select1stIS2_ESt4lessISsESaIS2_EE6_S_keyEPSt13_Rb_tree_nodeIS2_E$w$X2YM6PMXRM5hlT501
0001:00077252* __ZNKSt4lessISsEclERKSsS2_$w$X2YM6PMXRM5hlT501
0001:000780c2  __ZNSt8_Rb_treeISsSt4pairIKSsSsESt10_Select1stIS2_ESt4lessISsESaIS2_EE7_S_leftEPSt13_Rb_tree_nodeIS2_E$w$X2YM6PMXRM5hlT501
0001:000780ce  __ZNSt8_Rb_treeISsSt4pairIKSsSsESt10_Select1stIS2_ESt4lessISsESaIS2_EE8_S_rightEPSt13_Rb_tree_nodeIS2_E$w$X2YM6PMXRM5hlT501
0001:000780da  __ZNSt17_Rb_tree_iteratorISt4pairIKSsSsERS2_PS2_EC1EPSt13_Rb_tree_nodeIS2_E$w$X2YM6PMXRM5hlT501
0001:000780f6  __ZNSt17_Rb_tree_iteratorISt4pairIKSsSsERS2_PS2_EC1ERKS5_$w$X2YM6PMXRM5hlT501
0001:00076a5c  __ZNSt16_List_alloc_baseISsSaISsELb1EEC2ERKS0_$w$X2YM6PMXRM5hlT501
0001:00076a62  __ZNSt16_List_alloc_baseISsSaISsELb1EE11_M_get_nodeEv$w$X2YM6PMXRM5hlT501
0001:00076a76  __ZNSt14__simple_allocISt10_List_nodeISsESt24__default_alloc_templateILb1ELi0EEE8allocateEj$w$X2YM6PMXRM5hlT501
0001:00076b12  __ZNSt4listIPN6Xapian19ValueRangeProcessorESaIS2_EE3endEv$w$X2YM6PMXRM5hlT501
0001:00076b52  __ZNSt4listIPN6Xapian19ValueRangeProcessorESaIS2_EE6insertESt14_List_iteratorIS2_RS2_PS2_ERKS2_$w$X2YM6PMXRM5hlT501
0001:00076b38  __ZNSt14_List_iteratorIPN6Xapian19ValueRangeProcessorERS2_PS2_EC1EPSt10_List_nodeIS2_E$w$X2YM6PMXRM5hlT501
0001:00078114  __ZNSt4listIPN6Xapian19ValueRangeProcessorESaIS2_EE14_M_create_nodeERKS2_$w$X2YM6PMXRM5hlT501
0001:00076ef6  __ZNSt8_Rb_treeISsSt4pairIKSsSsESt10_Select1stIS2_ESt4lessISsESaIS2_EE12destroy_nodeEPSt13_Rb_tree_nodeIS2_E$w$X2YM6PMXRM5hlT501
0001:0007728e* __ZNKSt8_Rb_treeISsSsSt9_IdentityISsESt4lessISsESaISsEE11_M_leftmostEv$w$X2YM6PMXRM5hlT501
0001:000772ca* __ZNSt17_Rb_tree_iteratorISsRKSsPS0_EC1EPSt13_Rb_tree_nodeISsE$w$X2YM6PMXRM5hlT501
0001:0007842a  __ZNKSt8_Rb_treeISsSt4pairIKSs10PrefixInfoESt10_Select1stIS3_ESt4lessISsESaIS3_EE7_M_rootEv$w$X2YM6PMXRM5hlT501
0001:000786ba  __ZNSt8_Rb_treeISsSt4pairIKSs10PrefixInfoESt10_Select1stIS3_ESt4lessISsESaIS3_EE6_S_keyEPSt13_Rb_tree_nodeIS3_E$w$X2YM6PMXRM5hlT501
0001:000786b2  __ZNKSt10_Select1stISt4pairIKSs10PrefixInfoEEclERKS3_$w$X2YM6PMXRM5hlT501
0001:00078444  __ZNSt8_Rb_treeISsSt4pairIKSs10PrefixInfoESt10_Select1stIS3_ESt4lessISsESaIS3_EE7_S_leftEPSt13_Rb_tree_nodeIS3_E$w$X2YM6PMXRM5hlT501
0001:00078438  __ZNSt8_Rb_treeISsSt4pairIKSs10PrefixInfoESt10_Select1stIS3_ESt4lessISsESaIS3_EE8_S_rightEPSt13_Rb_tree_nodeIS3_E$w$X2YM6PMXRM5hlT501
0001:000786f0  __ZNSt17_Rb_tree_iteratorISt4pairIKSs10PrefixInfoERS3_PS3_EC1EPSt13_Rb_tree_nodeIS3_E$w$X2YM6PMXRM5hlT501
0001:0007870c  __ZNSt8_Rb_treeISsSt4pairIKSs10PrefixInfoESt10_Select1stIS3_ESt4lessISsESaIS3_EE5beginEv$w$X2YM6PMXRM5hlT501
0001:0007873a  __ZSteqISt4pairIKSs10PrefixInfoERS3_PS3_EbRKSt17_Rb_tree_iteratorIT_T0_T1_ESC_$w$X2YM6PMXRM5hlT501
0001:00078750  __ZNSt8_Rb_treeISsSt4pairIKSs10PrefixInfoESt10_Select1stIS3_ESt4lessISsESaIS3_EE9_M_insertEPSt18_Rb_tree_node_baseSB_RKS3_$w$X2YM6PMXRM5hlT501
0001:000788ea  __ZNSt4pairISt17_Rb_tree_iteratorIS_IKSs10PrefixInfoERS3_PS3_EbEC1ERKS6_RKb$w$X2YM6PMXRM5hlT501
0001:00076f1e  __ZNSt17_Rb_tree_iteratorISt4pairIKSs10PrefixInfoERS3_PS3_EmmEv$w$X2YM6PMXRM5hlT501
0001:00076f34  __ZNSt8_Rb_treeISsSt4pairIKSs10PrefixInfoESt10_Select1stIS3_ESt4lessISsESaIS3_EE6_S_keyEPSt18_Rb_tree_node_base$w$X2YM6PMXRM5hlT501
0001:00078910  __ZNSt4listISsSaISsEE14_M_create_nodeERKSs$w$X2YM6PMXRM5hlT501
0001:000789b4  __ZSt8_DestroyISt4pairIKSsSsEEvPT_$w$X2YM6PMXRM5hlT501
0001:000775e8  __ZNSt19_Rb_tree_alloc_baseISt4pairIKSsSsESaIS2_ELb1EE11_M_put_nodeEPSt13_Rb_tree_nodeIS2_E$w$X2YM6PMXRM5hlT501
0001:0007705a* __ZNSt22_Rb_tree_base_iterator12_M_decrementEv$w$X2YM6PMXRM5hlT501
0001:000786dc  __ZNSt8_Rb_treeISsSt4pairIKSs10PrefixInfoESt10_Select1stIS3_ESt4lessISsESaIS3_EE8_S_valueEPSt13_Rb_tree_nodeIS3_E$w$X2YM6PMXRM5hlT501
0001:000786e8  __ZNKSt10_Select1stISt4pairIKSs10PrefixInfoEEclERS3_$w$X2YM6PMXRM5hlT501
0001:00076fd4  __ZTSN6Xapian7StopperE$w$X2YM6PMXRM5hlT501
0001:00076fbb  __ZTSN6Xapian13SimpleStopperE$w$X2YM6PMXRM5hlT501
0001:00076f9c* __ZTSN6Xapian19ValueRangeProcessorE$w$X2YM6PMXRM5hlT501
0001:00076f80  __ZTSN6Xapian16QueryParserErrorE$w$X2YM6PMXRM5hlT501
0001:00078bfc* __ZTIN6Xapian12RuntimeErrorE$w$X2YM6PMXRM5hlT501
0001:00077004* __ZNSt15basic_streambufIcSt11char_traitsIcEE13_S_pback_sizeE$w$X2YM6PMXRM5hlT501
0001:00078bf0* __ZTI14VectorTermList$w$X2YM6PMXRM5hlT501
0001:0007783a* __ZN14VectorTermListD1Ev$w$X2YM6PMXRM5hlT501
0001:000778a2* __ZN14VectorTermListD0Ev$w$X2YM6PMXRM5hlT501
0001:00077992* __ZNK14VectorTermList15get_approx_sizeEv$w$X2YM6PMXRM5hlT501
0001:000779a8* __ZNK14VectorTermList16accumulate_statsERN6Xapian8Internal11ExpandStatsE$w$X2YM6PMXRM5hlT501
0001:000779b4* __ZNK14VectorTermList12get_termnameEv$w$X2YM6PMXRM5hlT501
0001:000779ec* __ZNK14VectorTermList7get_wdfEv$w$X2YM6PMXRM5hlT501
0001:00077a24* __ZNK14VectorTermList12get_termfreqEv$w$X2YM6PMXRM5hlT501
0001:00077b6a* __ZN14VectorTermList4nextEv$w$X2YM6PMXRM5hlT501
0001:00077bb6* __ZN14VectorTermList7skip_toERKSs$w$X2YM6PMXRM5hlT501
0001:00077cfc* __ZNK14VectorTermList6at_endEv$w$X2YM6PMXRM5hlT501
0001:00077eec* __ZNK14VectorTermList18positionlist_countEv$w$X2YM6PMXRM5hlT501
0001:00077d70* __ZNK14VectorTermList18positionlist_beginEv$w$X2YM6PMXRM5hlT501
0001:00077134* __ZNSt8_Rb_treeISsSsSt9_IdentityISsESt4lessISsESaISsEED1Ev$w$X2YM6PMXRM5hlT501
0001:000771d4* __ZNSt8_Rb_treeISsSsSt9_IdentityISsESt4lessISsESaISsEE5clearEv$w$X2YM6PMXRM5hlT501
0001:00077178* __ZNSt13_Rb_tree_baseISsSaISsEED2Ev$w$X2YM6PMXRM5hlT501
0001:00077194* __ZNSt19_Rb_tree_alloc_baseISsSaISsELb1EE11_M_put_nodeEPSt13_Rb_tree_nodeISsE$w$X2YM6PMXRM5hlT501
0001:000771b0* __ZNSt14__simple_allocISt13_Rb_tree_nodeISsESt24__default_alloc_templateILb1ELi0EEE10deallocateEPS1_j$w$X2YM6PMXRM5hlT501
0001:00077244* __ZNKSt8_Rb_treeISsSsSt9_IdentityISsESt4lessISsESaISsEE7_M_rootEv$w$X2YM6PMXRM5hlT501
0001:000781b4* __ZNSt8_Rb_treeISsSsSt9_IdentityISsESt4lessISsESaISsEE8_M_eraseEPSt13_Rb_tree_nodeISsE$w$X2YM6PMXRM5hlT501
0001:0007729c* __ZNKSt8_Rb_treeISsSsSt9_IdentityISsESt4lessISsESaISsEE12_M_rightmostEv$w$X2YM6PMXRM5hlT501
0001:00077270* __ZStltIcSt11char_traitsIcESaIcEEbRKSbIT_T0_T1_ES8_$w$X2YM6PMXRM5hlT501
0001:00077306* __ZNKSt8_Rb_treeISsSsSt9_IdentityISsESt4lessISsESaISsEE4findERKSs$w$X2YM6PMXRM5hlT501
0001:00078df2* __ZNSt8_Rb_treeISsSsSt9_IdentityISsESt4lessISsESaISsEE6_S_keyEPSt13_Rb_tree_nodeISsE$w$X2YM6PMXRM5hlT501
0001:00078e34* __ZNSt8_Rb_treeISsSsSt9_IdentityISsESt4lessISsESaISsEE7_S_leftEPSt13_Rb_tree_nodeISsE$w$X2YM6PMXRM5hlT501
0001:00078e28* __ZNSt8_Rb_treeISsSsSt9_IdentityISsESt4lessISsESaISsEE8_S_rightEPSt13_Rb_tree_nodeISsE$w$X2YM6PMXRM5hlT501
0001:00078ede* __ZSteqISsRKSsPS0_EbRKSt17_Rb_tree_iteratorIT_T0_T1_ES9_$w$X2YM6PMXRM5hlT501
0001:00078ebc* __ZNSt8_Rb_treeISsSsSt9_IdentityISsESt4lessISsESaISsEE6_S_keyEPSt18_Rb_tree_node_base$w$X2YM6PMXRM5hlT501
0001:00077588  __ZNSt8_Rb_treeISsSt4pairIKSsSsESt10_Select1stIS2_ESt4lessISsESaIS2_EED1Ev$w$X2YM6PMXRM5hlT501
0001:0007768c  __ZNSt8_Rb_treeISsSt4pairIKSs10PrefixInfoESt10_Select1stIS3_ESt4lessISsESaIS3_EED1Ev$w$X2YM6PMXRM5hlT501
0001:000777c2  __ZNSt4listIPN6Xapian19ValueRangeProcessorESaIS2_EED1Ev$w$X2YM6PMXRM5hlT501
0001:0007820c  __ZNSaISt4pairIKSsSsEEC1Ev$w$X2YM6PMXRM5hlT501
0001:00078218  __ZNSt8_Rb_treeISsSt4pairIKSsSsESt10_Select1stIS2_ESt4lessISsESaIS2_EEC1ERKS6_RKS7_$w$X2YM6PMXRM5hlT501
0001:00078212  __ZNSaISt4pairIKSsSsEED1Ev$w$X2YM6PMXRM5hlT501
0001:000775cc  __ZNSt13_Rb_tree_baseISt4pairIKSsSsESaIS2_EED2Ev$w$X2YM6PMXRM5hlT501
0001:00077604  __ZNSt14__simple_allocISt13_Rb_tree_nodeISt4pairIKSsSsEESt24__default_alloc_templateILb1ELi0EEE10deallocateEPS4_j$w$X2YM6PMXRM5hlT501
0001:0007831e  __ZNSaISt4pairIKSs10PrefixInfoEEC1Ev$w$X2YM6PMXRM5hlT501
0001:0007832a  __ZNSt8_Rb_treeISsSt4pairIKSs10PrefixInfoESt10_Select1stIS3_ESt4lessISsESaIS3_EEC1ERKS7_RKS8_$w$X2YM6PMXRM5hlT501
0001:00078324  __ZNSaISt4pairIKSs10PrefixInfoEED1Ev$w$X2YM6PMXRM5hlT501
0001:0007772c  __ZNSt8_Rb_treeISsSt4pairIKSs10PrefixInfoESt10_Select1stIS3_ESt4lessISsESaIS3_EE5clearEv$w$X2YM6PMXRM5hlT501
0001:000776d0  __ZNSt13_Rb_tree_baseISt4pairIKSs10PrefixInfoESaIS3_EED2Ev$w$X2YM6PMXRM5hlT501
0001:000776ec  __ZNSt19_Rb_tree_alloc_baseISt4pairIKSs10PrefixInfoESaIS3_ELb1EE11_M_put_nodeEPSt13_Rb_tree_nodeIS3_E$w$X2YM6PMXRM5hlT501
0001:00077708  __ZNSt14__simple_allocISt13_Rb_tree_nodeISt4pairIKSs10PrefixInfoEESt24__default_alloc_templateILb1ELi0EEE10deallocateEPS5_j$w$X2YM6PMXRM5hlT501
0001:00078450  __ZNSt8_Rb_treeISsSt4pairIKSs10PrefixInfoESt10_Select1stIS3_ESt4lessISsESaIS3_EE8_M_eraseEPSt13_Rb_tree_nodeIS3_E$w$X2YM6PMXRM5hlT501
0001:000784a8  __ZNKSt8_Rb_treeISsSt4pairIKSs10PrefixInfoESt10_Select1stIS3_ESt4lessISsESaIS3_EE11_M_leftmostEv$w$X2YM6PMXRM5hlT501
0001:000784b6  __ZNKSt8_Rb_treeISsSt4pairIKSs10PrefixInfoESt10_Select1stIS3_ESt4lessISsESaIS3_EE12_M_rightmostEv$w$X2YM6PMXRM5hlT501
0001:000784c4  __ZNSt10_List_baseIPN6Xapian19ValueRangeProcessorESaIS2_EEC2ERKS3_$w$X2YM6PMXRM5hlT501
0001:00078512  __ZNSt10_List_baseIPN6Xapian19ValueRangeProcessorESaIS2_EED2Ev$w$X2YM6PMXRM5hlT501
0001:00078f3e* __ZN6Xapian5ErrorD2Ev$w$X2YM6PMXRM5hlT501
0001:00078f6e* __ZN6Xapian5ErrorC2ERKSsS2_PKci$w$X2YM6PMXRM5hlT501
0001:0007790a* __ZNSt6vectorISsSaISsEED1Ev$w$X2YM6PMXRM5hlT501
0001:0007866c* __ZSt8_DestroyIPSsEvT_S1_$w$X2YM6PMXRM5hlT501
0001:000785fa* __ZNSt12_Vector_baseISsSaISsEED2Ev$w$X2YM6PMXRM5hlT501
0001:000785be* __ZNSt12_Vector_baseISsSaISsEEC2ERKS0_$w$X2YM6PMXRM5hlT501
0001:0007868c  __ZNSt6vectorISsSaISsEE22_M_initialize_dispatchISt14_List_iteratorISsRKSsPS4_EEEvT_S8_12__false_type$w$X2YM6PMXRM5hlT501
0001:00079044* __ZNKSt6vectorISsSaISsEE4sizeEv$w$X2YM6PMXRM5hlT501
0001:00079120* __ZNKSt6vectorISsSaISsEEixEj$w$X2YM6PMXRM5hlT501
0001:00079014* __ZN6Xapian21InvalidOperationErrorC1ERKSsS2_i$w$X2YM6PMXRM5hlT501
0001:00078fea* __ZN6Xapian21InvalidOperationErrorD1Ev$w$X2YM6PMXRM5hlT501
0001:00079370* __ZTIN6Xapian21InvalidOperationErrorE$w$X2YM6PMXRM5hlT501
0001:00078062  __ZNSt14__simple_allocISt10_List_nodeISsESt24__default_alloc_templateILb1ELi0EEE10deallocateEPS1_j$w$X2YM6PMXRM5hlT501
0001:000780ae  __ZNSt8_Rb_treeISsSt4pairIKSsSsESt10_Select1stIS2_ESt4lessISsESaIS2_EE8_S_valueEPSt13_Rb_tree_nodeIS2_E$w$X2YM6PMXRM5hlT501
0001:000780ba  __ZNKSt10_Select1stISt4pairIKSsSsEEclERS2_$w$X2YM6PMXRM5hlT501
0001:00078142  __ZNSt16_List_alloc_baseIPN6Xapian19ValueRangeProcessorESaIS2_ELb1EE11_M_get_nodeEv$w$X2YM6PMXRM5hlT501
0001:00078186  __ZSt10_ConstructIPN6Xapian19ValueRangeProcessorES2_EvPT_RKT0_$w$X2YM6PMXRM5hlT501
0001:00078156  __ZNSt14__simple_allocISt10_List_nodeIPN6Xapian19ValueRangeProcessorEESt24__default_alloc_templateILb1ELi0EEE8allocateEj$w$X2YM6PMXRM5hlT501
0001:00078c32* __ZnwjPv$w$X2YM6PMXRM5hlT501
0001:00078984* __ZNSt8_Rb_treeISsSsSt9_IdentityISsESt4lessISsESaISsEE12destroy_nodeEPSt13_Rb_tree_nodeISsE$w$X2YM6PMXRM5hlT501
0001:00078248  __ZNSt13_Rb_tree_baseISt4pairIKSsSsESaIS2_EEC2ERKS3_$w$X2YM6PMXRM5hlT501
0001:000782ca  __ZNSt8_Rb_treeISsSt4pairIKSsSsESt10_Select1stIS2_ESt4lessISsESaIS2_EE19_M_empty_initializeEv$w$X2YM6PMXRM5hlT501
0001:00078278  __ZNSt19_Rb_tree_alloc_baseISt4pairIKSsSsESaIS2_ELb1EEC2ERKS3_$w$X2YM6PMXRM5hlT501
0001:00078286  __ZNSt19_Rb_tree_alloc_baseISt4pairIKSsSsESaIS2_ELb1EE11_M_get_nodeEv$w$X2YM6PMXRM5hlT501
0001:0007829a  __ZNSt14__simple_allocISt13_Rb_tree_nodeISt4pairIKSsSsEESt24__default_alloc_templateILb1ELi0EEE8allocateEj$w$X2YM6PMXRM5hlT501
0001:000789ac  __ZNSt8_Rb_treeISsSt4pairIKSsSsESt10_Select1stIS2_ESt4lessISsESaIS2_EE8_S_colorEPSt13_Rb_tree_nodeIS2_E$w$X2YM6PMXRM5hlT501
0001:0007835a  __ZNSt13_Rb_tree_baseISt4pairIKSs10PrefixInfoESaIS3_EEC2ERKS4_$w$X2YM6PMXRM5hlT501
0001:000783d6  __ZNSt8_Rb_treeISsSt4pairIKSs10PrefixInfoESt10_Select1stIS3_ESt4lessISsESaIS3_EE19_M_empty_initializeEv$w$X2YM6PMXRM5hlT501
0001:0007838a  __ZNSt19_Rb_tree_alloc_baseISt4pairIKSs10PrefixInfoESaIS3_ELb1EEC2ERKS4_$w$X2YM6PMXRM5hlT501
0001:00078398  __ZNSt19_Rb_tree_alloc_baseISt4pairIKSs10PrefixInfoESaIS3_ELb1EE11_M_get_nodeEv$w$X2YM6PMXRM5hlT501
0001:000783ac  __ZNSt14__simple_allocISt13_Rb_tree_nodeISt4pairIKSs10PrefixInfoEESt24__default_alloc_templateILb1ELi0EEE8allocateEj$w$X2YM6PMXRM5hlT501
0001:000789c8  __ZNSt8_Rb_treeISsSt4pairIKSs10PrefixInfoESt10_Select1stIS3_ESt4lessISsESaIS3_EE8_S_colorEPSt13_Rb_tree_nodeIS3_E$w$X2YM6PMXRM5hlT501
0001:000789d0  __ZNSt8_Rb_treeISsSt4pairIKSs10PrefixInfoESt10_Select1stIS3_ESt4lessISsESaIS3_EE12destroy_nodeEPSt13_Rb_tree_nodeIS3_E$w$X2YM6PMXRM5hlT501
0001:0007850c  __ZNSt16_List_alloc_baseIPN6Xapian19ValueRangeProcessorESaIS2_ELb1EEC2ERKS3_$w$X2YM6PMXRM5hlT501
0001:00078556  __ZNSt10_List_baseIPN6Xapian19ValueRangeProcessorESaIS2_EE7__clearEv$w$X2YM6PMXRM5hlT501
0001:0007853a  __ZNSt16_List_alloc_baseIPN6Xapian19ValueRangeProcessorESaIS2_ELb1EE11_M_put_nodeEPSt10_List_nodeIS2_E$w$X2YM6PMXRM5hlT501
0001:0007919e  __ZNSt14__simple_allocISt10_List_nodeIPN6Xapian19ValueRangeProcessorEESt24__default_alloc_templateILb1ELi0EEE10deallocateEPS4_j$w$X2YM6PMXRM5hlT501
0001:00079198  __ZSt8_DestroyIPN6Xapian19ValueRangeProcessorEEvPT_$w$X2YM6PMXRM5hlT501
0001:000785d8* __ZNSt18_Vector_alloc_baseISsSaISsELb1EEC2ERKS0_$w$X2YM6PMXRM5hlT501
0001:0007862a* __ZNSt18_Vector_alloc_baseISsSaISsELb1EE13_M_deallocateEPSsj$w$X2YM6PMXRM5hlT501
0001:00078644* __ZNSt14__simple_allocISsSt24__default_alloc_templateILb1ELi0EEE10deallocateEPSsj$w$X2YM6PMXRM5hlT501
0001:000789f8* __ZSt13__destroy_auxIPSsEvT_S1_12__false_type$w$X2YM6PMXRM5hlT501
0001:00078a1c  __ZNSt6vectorISsSaISsEE19_M_range_initializeISt14_List_iteratorISsRKSsPS4_EEEvT_S8_St20forward_iterator_tag$w$X2YM6PMXRM5hlT501
0001:000791e6  __ZNSt8_Rb_treeISsSt4pairIKSs10PrefixInfoESt10_Select1stIS3_ESt4lessISsESaIS3_EE14_M_create_nodeERKS3_$w$X2YM6PMXRM5hlT501
0001:00078b40  __ZNSt8_Rb_treeISsSt4pairIKSs10PrefixInfoESt10_Select1stIS3_ESt4lessISsESaIS3_EE9_S_parentEPSt13_Rb_tree_nodeIS3_E$w$X2YM6PMXRM5hlT501
0001:00078c3a* __ZSt18_Rb_tree_rebalancePSt18_Rb_tree_node_baseRS0_$w$X2YM6PMXRM5hlT501
0001:000791c8  __ZNSt17_Rb_tree_iteratorISt4pairIKSs10PrefixInfoERS3_PS3_EC1ERKS6_$w$X2YM6PMXRM5hlT501
0001:00078e40* __ZSt10_ConstructISsSsEvPT_RKT0_$w$X2YM6PMXRM5hlT501
0001:00078f1c  __ZNSt4pairIKSsSsED1Ev$w$X2YM6PMXRM5hlT501
0001:000792d6  __ZSt8_DestroyISt4pairIKSs10PrefixInfoEEvPT_$w$X2YM6PMXRM5hlT501
0001:00078a8c  __ZSt8distanceISt14_List_iteratorISsRKSsPS1_EENSt15iterator_traitsIT_E15difference_typeES6_S6_$w$X2YM6PMXRM5hlT501
0001:000792ea* __ZNSt18_Vector_alloc_baseISsSaISsELb1EE11_M_allocateEj$w$X2YM6PMXRM5hlT501
0001:00078b1a  __ZSt18uninitialized_copyISt14_List_iteratorISsRKSsPS1_EPSsET0_T_S7_S6_$w$X2YM6PMXRM5hlT501
0001:00078aba  __ZSt19__iterator_categoryISt14_List_iteratorISsRKSsPS1_EENSt15iterator_traitsIT_E17iterator_categoryERKS6_$w$X2YM6PMXRM5hlT501
0001:00078ac6  __ZSt10__distanceISt14_List_iteratorISsRKSsPS1_EENSt15iterator_traitsIT_E15difference_typeES6_S6_St18input_iterator_tag$w$X2YM6PMXRM5hlT501
0001:00078f06* __ZNKSt19_List_iterator_baseneERKS_$w$X2YM6PMXRM5hlT501
0001:00078b04  __ZNSt14_List_iteratorISsRKSsPS0_EppEv$w$X2YM6PMXRM5hlT501
0001:00078ef4* __ZNSt19_List_iterator_base7_M_incrEv$w$X2YM6PMXRM5hlT501
0001:00078b4c  __ZSt24__uninitialized_copy_auxISt14_List_iteratorISsRKSsPS1_EPSsET0_T_S7_S6_12__false_type$w$X2YM6PMXRM5hlT501
0001:0007932c  __ZNKSt14_List_iteratorISsRKSsPS0_EdeEv$w$X2YM6PMXRM5hlT501
0001:00078c20* __ZTS14VectorTermList$w$X2YM6PMXRM5hlT501
0001:00079350* __ZTIN6Xapian12TermIterator8InternalE$w$X2YM6PMXRM5hlT501
0001:00078c08* __ZTSN6Xapian12RuntimeErrorE$w$X2YM6PMXRM5hlT501
0001:0007937c* __ZTIN6Xapian5ErrorE$w$X2YM6PMXRM5hlT501
0001:00079418* __ZSt20_Rb_tree_rotate_leftPSt18_Rb_tree_node_baseRS0_$w$X2YM6PMXRM5hlT501
0001:000794a4* __ZSt21_Rb_tree_rotate_rightPSt18_Rb_tree_node_baseRS0_$w$X2YM6PMXRM5hlT501
0001:00078e14* __ZNSt8_Rb_treeISsSsSt9_IdentityISsESt4lessISsESaISsEE8_S_valueEPSt13_Rb_tree_nodeISsE$w$X2YM6PMXRM5hlT501
0001:00078e20* __ZNKSt9_IdentityISsEclERSs$w$X2YM6PMXRM5hlT501
0001:00079412* __ZdlPvS_$w$X2YM6PMXRM5hlT501
0001:00079588* __ZN6Xapian10LogicErrorD2Ev$w$X2YM6PMXRM5hlT501
0001:0007959c* __ZN6Xapian10LogicErrorC2ERKSsS2_PKci$w$X2YM6PMXRM5hlT501
0001:00079080* __ZNKSt6vectorISsSaISsEE5beginEv$w$X2YM6PMXRM5hlT501
0001:000790c4* __ZNKSt6vectorISsSaISsEE3endEv$w$X2YM6PMXRM5hlT501
0001:000790ea* __ZN9__gnu_cxxmiIPKSsS2_St6vectorISsSaISsEEEENS_17__normal_iteratorIT_T1_E15difference_typeERKS9_RKNS6_IT0_S8_EE$w$X2YM6PMXRM5hlT501
0001:000790a6* __ZN9__gnu_cxx17__normal_iteratorIPKSsSt6vectorISsSaISsEEEC1ERKS2_$w$X2YM6PMXRM5hlT501
0001:000795cc* __ZNSt8iteratorISt26random_access_iterator_tagSsiPKSsRS1_EC2Ev$w$X2YM6PMXRM5hlT501
0001:00079118* __ZNK9__gnu_cxx17__normal_iteratorIPKSsSt6vectorISsSaISsEEE4baseEv$w$X2YM6PMXRM5hlT501
0001:0007915c* __ZNK9__gnu_cxx17__normal_iteratorIPKSsSt6vectorISsSaISsEEEplERKi$w$X2YM6PMXRM5hlT501
0001:0007918e* __ZNK9__gnu_cxx17__normal_iteratorIPKSsSt6vectorISsSaISsEEEdeEv$w$X2YM6PMXRM5hlT501
0001:0007925a  __ZSt10_ConstructISt4pairIKSs10PrefixInfoES3_EvPT_RKT0_$w$X2YM6PMXRM5hlT501
0001:00079530  __ZNSt4pairIKSs10PrefixInfoEC1ERKS2_$w$X2YM6PMXRM5hlT501
0001:000792fe* __ZNSt14__simple_allocISsSt24__default_alloc_templateILb1ELi0EEE8allocateEj$w$X2YM6PMXRM5hlT501
0001:000793f0* __ZTSN6Xapian12TermIterator8InternalE$w$X2YM6PMXRM5hlT501
0001:000795e0* __ZTIN6Xapian8Internal10RefCntBaseE$w$X2YM6PMXRM5hlT501
0001:000793b0* __ZTSN6Xapian21InvalidOperationErrorE$w$X2YM6PMXRM5hlT501
0001:000795d4* __ZTIN6Xapian10LogicErrorE$w$X2YM6PMXRM5hlT501
0001:00079384* __ZTSN6Xapian5ErrorE$w$X2YM6PMXRM5hlT501
0001:00079607* __ZTSN6Xapian10LogicErrorE$w$X2YM6PMXRM5hlT501
0001:000795e8* __ZTSN6Xapian8Internal10RefCntBaseE$w$X2YM6PMXRM5hlT501
0002:00038cb0* __ZN16__Atomicity_lockILi0EE17_S_atomicity_lockE$w$X2YM6PMXRM5hlT501
Module: E:\rd\dse\xapian-core-1.0.2\.libs\xapian.lib(matcher\andpostlist.cc)
0001:00079630  __ZN11AndPostListC2EPN6Xapian15PostingIterator8InternalES3_P10MultiMatchjb
0001:000796fe  __ZN11AndPostListC1EPN6Xapian15PostingIterator8InternalES3_P10MultiMatchjb
0001:000797cc  __ZN11AndPostList4nextEd
0001:0007981a  __ZN11AndPostList7skip_toEjd
0001:0007987a  __ZNK11AndPostList16get_termfreq_maxEv
0001:000798d2  __ZNK11AndPostList16get_termfreq_minEv
0001:000798dc  __ZNK11AndPostList16get_termfreq_estEv
0001:00079972  __ZNK11AndPostList9get_docidEv
0001:0007997e  __ZNK11AndPostList10get_weightEv
0001:000799c4  __ZNK11AndPostList13get_maxweightEv
0001:000799d6  __ZN11AndPostList16recalc_maxweightEv
0001:00079a2a  __ZNK11AndPostList6at_endEv
0001:00079a46  __ZNK11AndPostList15get_descriptionEv
0001:00079bda  __ZNK11AndPostList13get_doclengthEv
0001:00079f46* __ZN14BranchPostListC2EPN6Xapian15PostingIterator8InternalES3_P10MultiMatch$w$9hAgtXuXRM5qmIGE0
0001:00079db0  __ZTV11AndPostList$w$9hAgtXuXRM5qmIGE0
0001:00079fe6  __ZN11AndPostList23process_next_or_skip_toEdPN6Xapian15PostingIterator8InternalE$w$9hAgtXuXRM5qmIGE0
0001:00079e2c* __ZSt3minIjERKT_S2_S2_$w$9hAgtXuXRM5qmIGE0
0001:00079c00* __ZStplIcSt11char_traitsIcESaIcEESbIT_T0_T1_EPKS3_RKS6_$w$9hAgtXuXRM5qmIGE0
0001:00079c98* __ZStplIcSt11char_traitsIcESaIcEESbIT_T0_T1_ERKS6_PKS3_$w$9hAgtXuXRM5qmIGE0
0001:00079cf0* __ZStplIcSt11char_traitsIcESaIcEESbIT_T0_T1_ERKS6_S8_$w$9hAgtXuXRM5qmIGE0
0001:00079e18* __ZNSt11char_traitsIcE6lengthEPKc$w$9hAgtXuXRM5qmIGE0
0001:00079d48* __ZNSs6appendIPKcEERSsT_S3_$w$9hAgtXuXRM5qmIGE0
0001:0007a1d0  __ZTI11AndPostList$w$9hAgtXuXRM5qmIGE0
0001:00079f7e  __ZN11AndPostListD1Ev$w$9hAgtXuXRM5qmIGE0
0001:00079fb2  __ZN11AndPostListD0Ev$w$9hAgtXuXRM5qmIGE0
0001:00079f3c* __ZNK6Xapian15PostingIterator8Internal16get_collapse_keyEv$w$9hAgtXuXRM5qmIGE0
0001:00079e00* __ZTV13StatsGatherer$w$9hAgtXuXRM5qmIGE0
0001:0007a1c8* __ZTI13StatsGatherer$w$9hAgtXuXRM5qmIGE0
0001:00079e52* __ZN13StatsGathererD1Ev$w$9hAgtXuXRM5qmIGE0
0001:00079ec0* __ZN13StatsGathererD0Ev$w$9hAgtXuXRM5qmIGE0
0001:00079f2e* __ZN13StatsGatherer16set_global_statsEj$w$9hAgtXuXRM5qmIGE0
0001:0007a21c* __ZN5StatsD1Ev$w$9hAgtXuXRM5qmIGE0
0001:0007a26a* __ZNSt3setIPN6Xapian6Weight8InternalESt4lessIS3_ESaIS3_EED1Ev$w$9hAgtXuXRM5qmIGE0
0001:0007a38e* __ZN6Xapian15PostingIterator8InternalC2Ev$w$9hAgtXuXRM5qmIGE0
0001:0007a3ae* __ZN14BranchPostList12handle_pruneERPN6Xapian15PostingIterator8InternalES3_$w$9hAgtXuXRM5qmIGE0
0001:0007a3f0* __Z22skip_to_handling_pruneRPN6Xapian15PostingIterator8InternalEjdP10MultiMatch$w$9hAgtXuXRM5qmIGE0
0001:0007a1ea* __ZTS13StatsGatherer$w$9hAgtXuXRM5qmIGE0
0001:0007a1dc  __ZTS11AndPostList$w$9hAgtXuXRM5qmIGE0
0001:0007a52c* __ZTI14BranchPostList$w$9hAgtXuXRM5qmIGE0
0001:0007a218* __ZNSt15basic_streambufIcSt11char_traitsIcEE13_S_pback_sizeE$w$9hAgtXuXRM5qmIGE0
0001:0007a5ae* __ZNSt3mapISsjSt4lessISsESaISt4pairIKSsjEEED1Ev$w$9hAgtXuXRM5qmIGE0
0001:0007a27e* __ZNSt8_Rb_treeIPN6Xapian6Weight8InternalES3_St9_IdentityIS3_ESt4lessIS3_ESaIS3_EED1Ev$w$9hAgtXuXRM5qmIGE0
0001:0007a31e* __ZNSt8_Rb_treeIPN6Xapian6Weight8InternalES3_St9_IdentityIS3_ESt4lessIS3_ESaIS3_EE5clearEv$w$9hAgtXuXRM5qmIGE0
0001:0007a2c2* __ZNSt13_Rb_tree_baseIPN6Xapian6Weight8InternalESaIS3_EED2Ev$w$9hAgtXuXRM5qmIGE0
0001:0007a2de* __ZNSt19_Rb_tree_alloc_baseIPN6Xapian6Weight8InternalESaIS3_ELb1EE11_M_put_nodeEPSt13_Rb_tree_nodeIS3_E$w$9hAgtXuXRM5qmIGE0
0001:0007a2fa* __ZNSt14__simple_allocISt13_Rb_tree_nodeIPN6Xapian6Weight8InternalEESt24__default_alloc_templateILb1ELi0EEE10deallocateEPS5_j$w$9hAgtXuXRM5qmIGE0
0001:0007a476* __ZNKSt8_Rb_treeIPN6Xapian6Weight8InternalES3_St9_IdentityIS3_ESt4lessIS3_ESaIS3_EE7_M_rootEv$w$9hAgtXuXRM5qmIGE0
0001:0007a484* __ZNSt8_Rb_treeIPN6Xapian6Weight8InternalES3_St9_IdentityIS3_ESt4lessIS3_ESaIS3_EE8_M_eraseEPSt13_Rb_tree_nodeIS3_E$w$9hAgtXuXRM5qmIGE0
