LIBRARY xapian10 INITINSTANCE TERMINSTANCE 
DATA MULTIPLE 
EXPORTS
  "__Z10startswithRKSsc"                                                ; magicseg='TEXT32' len=20  weak
  "__Z10startswithRKSsPKcj"                                             ; magicseg='TEXT32' len=23  weak
  "__Z10startswithRKSsS0_"                                              ; magicseg='TEXT32' len=22  weak
  "__Z11check_infixj"                                                   ; magicseg='TEXT32' len=17  weak
  "__Z11file_existsRKSs"                                                ; magicseg='TEXT32' len=20
  "__Z11om_tostringb"                                                   ; magicseg='TEXT32' len=17
  "__Z11om_tostringd"                                                   ; magicseg='TEXT32' len=17
  "__Z11om_tostringi"                                                   ; magicseg='TEXT32' len=17
  "__Z11om_tostringj"                                                   ; magicseg='TEXT32' len=17
  "__Z11om_tostringl"                                                   ; magicseg='TEXT32' len=17
  "__Z11om_tostringm"                                                   ; magicseg='TEXT32' len=17
  "__Z11om_tostringPKv"                                                 ; magicseg='TEXT32' len=19
  "__Z11pack_stringSs"                                                  ; magicseg='TEXT32' len=18  weak
  "__Z11should_stemRKSs"                                                ; magicseg='TEXT32' len=20  weak
  "__Z11unpack_boolPPKcS0_Pb"                                           ; magicseg='TEXT32' len=25  weak
  "__Z11unpack_uintIjEbPPKcS1_PT_"                                      ; magicseg='TEXT32' len=30  weak
  "__Z11unpack_uintImEbPPKcS1_PT_"                                      ; magicseg='TEXT32' len=30  weak
  "__Z12handle_pruneRN6Xapian8Internal9RefCntPtrINS_12TermIterator8InternalEEEPS3_"         ; magicseg='TEXT32' len=79  weak
  "__Z12handle_pruneRPN6Xapian12TermIterator8InternalES2_"              ; magicseg='TEXT32' len=54  weak
  "__Z13flint_io_readiPcjj"                                             ; magicseg='TEXT32' len=23
  "__Z13flint_io_synci"                                                 ; magicseg='TEXT32' len=19  weak
  "__Z13unpack_stringPPKcS0_RSs"                                        ; magicseg='TEXT32' len=28  weak
  "__Z14flint_io_writeiPKcj"                                            ; magicseg='TEXT32' len=24
  "__Z14msetcmp_by_didILb0ELb0EEbRKN6Xapian8Internal8MSetItemES4_"      ; magicseg='TEXT32' len=62  weak
  "__Z14msetcmp_by_didILb0ELb1EEbRKN6Xapian8Internal8MSetItemES4_"      ; magicseg='TEXT32' len=62  weak
  "__Z14msetcmp_by_didILb1ELb0EEbRKN6Xapian8Internal8MSetItemES4_"      ; magicseg='TEXT32' len=62  weak
  "__Z14msetcmp_by_didILb1ELb1EEbRKN6Xapian8Internal8MSetItemES4_"      ; magicseg='TEXT32' len=62  weak
  "__Z14pack_uint_lastIjESsT_"                                          ; magicseg='TEXT32' len=26  weak
  "__Z14pack_uint_lastIyESsT_"                                          ; magicseg='TEXT32' len=26  weak
  "__Z15is_not_wordcharj"                                               ; magicseg='TEXT32' len=21  weak
  "__Z16msetcmp_by_valueILb0ELb0EEbRKN6Xapian8Internal8MSetItemES4_"    ; magicseg='TEXT32' len=64  weak
  "__Z16msetcmp_by_valueILb0ELb1EEbRKN6Xapian8Internal8MSetItemES4_"    ; magicseg='TEXT32' len=64  weak
  "__Z16msetcmp_by_valueILb1ELb0EEbRKN6Xapian8Internal8MSetItemES4_"    ; magicseg='TEXT32' len=64  weak
  "__Z16msetcmp_by_valueILb1ELb1EEbRKN6Xapian8Internal8MSetItemES4_"    ; magicseg='TEXT32' len=64  weak
  "__Z16serialise_doubled"                                              ; magicseg='TEXT32' len=22
  "__Z16unpack_uint_lastIjEbPPKcS1_PT_"                                 ; magicseg='TEXT32' len=35  weak
  "__Z16unpack_uint_lastIyEbPPKcS1_PT_"                                 ; magicseg='TEXT32' len=35  weak
  "__Z17check_infix_digitj"                                             ; magicseg='TEXT32' len=23  weak
  "__Z17is_not_whitespacej"                                             ; magicseg='TEXT32' len=23  weak
  "__Z17is_stem_preventerj"                                             ; magicseg='TEXT32' len=23  weak
  "__Z18flint_docid_to_keyj"                                            ; magicseg='TEXT32' len=24  weak
  "__Z18prefix_needs_colonRKSsj"                                        ; magicseg='TEXT32' len=28  weak
  "__Z18unserialise_doublePPKcS0_"                                      ; magicseg='TEXT32' len=30
  "__Z19is_phrase_generatorj"                                           ; magicseg='TEXT32' len=25  weak
  "__Z19next_handling_pruneRPN6Xapian15PostingIterator8InternalEdP10MultiMatch"             ; magicseg='TEXT32' len=75  weak
  "__Z20get_msetcmp_functionN6Xapian7Enquire8Internal12sort_settingEbb"                     ; magicseg='TEXT32' len=67
  "__Z20msetcmp_by_relevanceILb0EEbRKN6Xapian8Internal8MSetItemES4_"    ; magicseg='TEXT32' len=64  weak
  "__Z20msetcmp_by_relevanceILb1EEbRKN6Xapian8Internal8MSetItemES4_"    ; magicseg='TEXT32' len=64  weak
  "__Z22edit_distance_unsignedPKjiS0_i"                                 ; magicseg='TEXT32' len=35
  "__Z22skip_to_handling_pruneRPN6Xapian15PostingIterator8InternalEjdP10MultiMatch"         ; magicseg='TEXT32' len=79  weak
  "__Z25pack_uint_preserving_sortIjESsT_"                               ; magicseg='TEXT32' len=37  weak
  "__Z27pack_string_preserving_sortSs"                                  ; magicseg='TEXT32' len=34  weak
  "__Z27unpack_uint_preserving_sortIjEbPPKcS1_PT_"                      ; magicseg='TEXT32' len=46  weak
  "__Z29unpack_string_preserving_sortPPKcS0_RSs"                        ; magicseg='TEXT32' len=44  weak
  "__Z31msetcmp_by_relevance_then_valueILb0ELb0EEbRKN6Xapian8Internal8MSetItemES4_"         ; magicseg='TEXT32' len=79  weak
  "__Z31msetcmp_by_relevance_then_valueILb0ELb1EEbRKN6Xapian8Internal8MSetItemES4_"         ; magicseg='TEXT32' len=79  weak
  "__Z31msetcmp_by_relevance_then_valueILb1ELb0EEbRKN6Xapian8Internal8MSetItemES4_"         ; magicseg='TEXT32' len=79  weak
  "__Z31msetcmp_by_relevance_then_valueILb1ELb1EEbRKN6Xapian8Internal8MSetItemES4_"         ; magicseg='TEXT32' len=79  weak
  "__Z31msetcmp_by_value_then_relevanceILb0ELb0EEbRKN6Xapian8Internal8MSetItemES4_"         ; magicseg='TEXT32' len=79  weak
  "__Z31msetcmp_by_value_then_relevanceILb0ELb1EEbRKN6Xapian8Internal8MSetItemES4_"         ; magicseg='TEXT32' len=79  weak
  "__Z31msetcmp_by_value_then_relevanceILb1ELb0EEbRKN6Xapian8Internal8MSetItemES4_"         ; magicseg='TEXT32' len=79  weak
  "__Z31msetcmp_by_value_then_relevanceILb1ELb1EEbRKN6Xapian8Internal8MSetItemES4_"         ; magicseg='TEXT32' len=79  weak
  "__Z4statRKSsP4stat"                                                  ; magicseg='TEXT32' len=18  weak
  "__Z5mkdirRKSsi"                                                      ; magicseg='TEXT32' len=14  weak
  "__Z6lose_sPh"                                                        ; magicseg='TEXT32' len=12  weak
  "__Z6my_flsj"                                                         ; magicseg='TEXT32' len=11  weak
  "__Z6unlinkRKSs"                                                      ; magicseg='TEXT32' len=14  weak
  "__Z7getint1PKhi"                                                     ; magicseg='TEXT32' len=15  weak
  "__Z7getint2PKhi"                                                     ; magicseg='TEXT32' len=15  weak
  "__Z7getint4PKhi"                                                     ; magicseg='TEXT32' len=15  weak
  "__Z7setint1Phii"                                                     ; magicseg='TEXT32' len=15  weak
  "__Z7setint2Phii"                                                     ; magicseg='TEXT32' len=15  weak
  "__Z7setint4Phii"                                                     ; magicseg='TEXT32' len=15  weak
  "__Z8bad_conth"                                                       ; magicseg='TEXT32' len=13  weak
  "__Z8create_sv"                                                       ; magicseg='TEXT32' len=13
  "__Z8endswithRKSsPKcj"                                                ; magicseg='TEXT32' len=20  weak
  "__Z8endswithRKSsS0_"                                                 ; magicseg='TEXT32' len=19  weak
  "__Z8is_digitj"                                                       ; magicseg='TEXT32' len=13  weak
  "__Z9C_isalphac"                                                      ; magicseg='TEXT32' len=14  weak
  "__Z9C_isdigitc"                                                      ; magicseg='TEXT32' len=14  weak
  "__Z9C_isupperc"                                                      ; magicseg='TEXT32' len=14  weak
  "__Z9C_toupperc"                                                      ; magicseg='TEXT32' len=14  weak
  "__Z9is_suffixj"                                                      ; magicseg='TEXT32' len=14  weak
  "__Z9pack_boolb"                                                      ; magicseg='TEXT32' len=14  weak
  "__Z9pack_uintIbESsT_"                                                ; magicseg='TEXT32' len=20  weak
  "__Z9pack_uintIjESsT_"                                                ; magicseg='TEXT32' len=20  weak
  "__Z9pack_uintImESsT_"                                                ; magicseg='TEXT32' len=20  weak
  "__Z9skip_utf8PKhiiii"                                                ; magicseg='TEXT32' len=20
  "__Z9U_isalphaj"                                                      ; magicseg='TEXT32' len=14  weak
  "__Z9U_isdigitj"                                                      ; magicseg='TEXT32' len=14  weak
  "__Z9U_isupperj"                                                      ; magicseg='TEXT32' len=14  weak
  "__ZdlPvS_"                                                           ; magicseg='TEXT32' len=9  weak
  "__ZltRK8fragmentS1_"                                                 ; magicseg='TEXT32' len=19  weak
  "__ZnwjPv"                                                            ; magicseg='TEXT32' len=8  weak
  "__ZN10AutoPtrRefIN6Xapian12TermIterator8InternalEEC1EPS2_"           ; magicseg='TEXT32' len=57  weak
  "__ZN10FlintTable10basic_openEbj"                                     ; magicseg='TEXT32' len=31
  "__ZN10FlintTable10split_rootEm"                                      ; magicseg='TEXT32' len=30
  "__ZN10FlintTable11delete_itemEib"                                    ; magicseg='TEXT32' len=32
  "__ZN10FlintTable13find_in_blockEPKh4Key_bi"                          ; magicseg='TEXT32' len=42
  "__ZN10FlintTable14set_block_sizeEj"                                  ; magicseg='TEXT32' len=34
  "__ZN10FlintTable15create_and_openEj"                                 ; magicseg='TEXT32' len=35
  "__ZN10FlintTable15do_open_to_readEbj"                                ; magicseg='TEXT32' len=36
  "__ZN10FlintTable16do_open_to_writeEbjb"                              ; magicseg='TEXT32' len=38
  "__ZN10FlintTable17add_item_to_blockEPh8Item_wr_i"                    ; magicseg='TEXT32' len=48
  "__ZN10FlintTable17set_max_item_sizeEj"                               ; magicseg='TEXT32' len=37  weak
  "__ZN10FlintTable19set_full_compactionEb"                             ; magicseg='TEXT32' len=39
  "__ZN10FlintTable3addERKSsSsb"                                        ; magicseg='TEXT32' len=28
  "__ZN10FlintTable3delERKSs"                                           ; magicseg='TEXT32' len=25
  "__ZN10FlintTable4openEj"                                             ; magicseg='TEXT32' len=23
  "__ZN10FlintTable4openEv"                                             ; magicseg='TEXT32' len=23
  "__ZN10FlintTable5alterEv"                                            ; magicseg='TEXT32' len=24
  "__ZN10FlintTable5closeEv"                                            ; magicseg='TEXT32' len=24
  "__ZN10FlintTable5eraseEv"                                            ; magicseg='TEXT32' len=24
  "__ZN10FlintTable6add_ktEb"                                           ; magicseg='TEXT32' len=25
  "__ZN10FlintTable6cancelEv"                                           ; magicseg='TEXT32' len=25
  "__ZN10FlintTable6commitEj"                                           ; magicseg='TEXT32' len=25
  "__ZN10FlintTable7compactEPh"                                         ; magicseg='TEXT32' len=27
  "__ZN10FlintTable8add_itemE8Item_wr_i"                                ; magicseg='TEXT32' len=36
  "__ZN10FlintTable9delete_ktEv"                                        ; magicseg='TEXT32' len=28
  "__ZN10FlintTable9enter_keyEi4Key_S0_"                                ; magicseg='TEXT32' len=36
  "__ZN10FlintTable9mid_pointEPh"                                       ; magicseg='TEXT32' len=29
  "__ZN10FlintTable9read_rootEv"                                        ; magicseg='TEXT32' len=28
  "__ZN10FlintTableC1ESsbib"                                            ; magicseg='TEXT32' len=24
  "__ZN10FlintTableC2ESsbib"                                            ; magicseg='TEXT32' len=24
  "__ZN10FlintTableD1Ev"                                                ; magicseg='TEXT32' len=20
  "__ZN10FlintTableD2Ev"                                                ; magicseg='TEXT32' len=20
  "__ZN10Item_base_IPhEC2ES0_"                                          ; magicseg='TEXT32' len=26  weak
  "__ZN10Item_base_IPhEC2ES0_i"                                         ; magicseg='TEXT32' len=27  weak
  "__ZN10Item_base_IPKhEC2ES1_i"                                        ; magicseg='TEXT32' len=28  weak
  "__ZN10MultiMatch16get_collapse_keyEPN6Xapian15PostingIterator8InternalEjjRNS0_8Internal9RefCntPtrINS0_8Document8InternalEEE"                                ; magicseg='TEXT32' len=123
  "__ZN10MultiMatch16recalc_maxweightEv"                                ; magicseg='TEXT32' len=36
  "__ZN10MultiMatch21getorrecalc_maxweightEPN6Xapian15PostingIterator8InternalE"            ; magicseg='TEXT32' len=76
  "__ZN10MultiMatch8get_msetEjjjRN6Xapian4MSetEPKNS0_12MatchDeciderES5_"                    ; magicseg='TEXT32' len=68
  "__ZN10MultiMatchC1ERKN6Xapian8DatabaseEPKNS0_5Query8InternalEjRKNS0_4RSetEjidNS0_7Enquire11docid_orderEjNSB_8Internal12sort_settingEbPNS0_12ErrorHandlerEP13StatsGathererPKNS0_6WeightE"           ; magicseg='TEXT32' len=183
  "__ZN10MultiMatchC2ERKN6Xapian8DatabaseEPKNS0_5Query8InternalEjRKNS0_4RSetEjidNS0_7Enquire11docid_orderEjNSB_8Internal12sort_settingEbPNS0_12ErrorHandlerEP13StatsGathererPKNS0_6WeightE"           ; magicseg='TEXT32' len=183
  "__ZN10MultiMatchD1Ev"                                                ; magicseg='TEXT32' len=20  weak
  "__ZN10OrPostList16recalc_maxweightEv"                                ; magicseg='TEXT32' len=36
  "__ZN10OrPostList4nextEd"                                             ; magicseg='TEXT32' len=23
  "__ZN10OrPostList7skip_toEjd"                                         ; magicseg='TEXT32' len=27
  "__ZN10OrPostListC1EPN6Xapian15PostingIterator8InternalES3_P10MultiMatchj"                ; magicseg='TEXT32' len=72
  "__ZN10OrPostListC2EPN6Xapian15PostingIterator8InternalES3_P10MultiMatchj"                ; magicseg='TEXT32' len=72
  "__ZN10OrPostListD0Ev"                                                ; magicseg='TEXT32' len=20  weak
  "__ZN10OrPostListD1Ev"                                                ; magicseg='TEXT32' len=20  weak
  "__ZN10OrTermList4nextEv"                                             ; magicseg='TEXT32' len=23
  "__ZN10OrTermListC1EPN6Xapian12TermIterator8InternalES3_"             ; magicseg='TEXT32' len=55  weak
  "__ZN10OrTermListC2EPN6Xapian12TermIterator8InternalES3_"             ; magicseg='TEXT32' len=55  weak
  "__ZN10OrTermListD0Ev"                                                ; magicseg='TEXT32' len=20
  "__ZN10OrTermListD1Ev"                                                ; magicseg='TEXT32' len=20
  "__ZN10OrTermListD2Ev"                                                ; magicseg='TEXT32' len=20
  "__ZN10PrefixInfoC1ENS_11prefix_typeERKSs"                            ; magicseg='TEXT32' len=40  weak
  "__ZN10PrefixInfoC1ERKS_"                                             ; magicseg='TEXT32' len=23  weak
  "__ZN10PrefixInfoD1Ev"                                                ; magicseg='TEXT32' len=20  weak
  "__ZN11AndPostList16recalc_maxweightEv"                               ; magicseg='TEXT32' len=37
  "__ZN11AndPostList23process_next_or_skip_toEdPN6Xapian15PostingIterator8InternalE"        ; magicseg='TEXT32' len=80  weak
  "__ZN11AndPostList4nextEd"                                            ; magicseg='TEXT32' len=24
  "__ZN11AndPostList7skip_toEjd"                                        ; magicseg='TEXT32' len=28
  "__ZN11AndPostListC1EPN6Xapian15PostingIterator8InternalES3_P10MultiMatchjb"              ; magicseg='TEXT32' len=74
  "__ZN11AndPostListC2EPN6Xapian15PostingIterator8InternalES3_P10MultiMatchjb"              ; magicseg='TEXT32' len=74
  "__ZN11AndPostListD0Ev"                                               ; magicseg='TEXT32' len=21  weak
  "__ZN11AndPostListD1Ev"                                               ; magicseg='TEXT32' len=21  weak
  "__ZN11AndPostListD2Ev"                                               ; magicseg='TEXT32' len=21  weak
  "__ZN11edist_stateIjE13is_transposedEii"                              ; magicseg='TEXT32' len=38  weak
  "__ZN11edist_stateIjE15edist_calc_f_kpEii"                            ; magicseg='TEXT32' len=40  weak
  "__ZN11edist_stateIjE8set_f_kpEiii"                                   ; magicseg='TEXT32' len=33  weak
  "__ZN11edist_stateIjEC1EPKjiS2_i"                                     ; magicseg='TEXT32' len=31  weak
  "__ZN11edist_stateIjED1Ev"                                            ; magicseg='TEXT32' len=24  weak
  "__ZN11FlintCursor10find_entryERKSs"                                  ; magicseg='TEXT32' len=34
  "__ZN11FlintCursor3delEv"                                             ; magicseg='TEXT32' len=23
  "__ZN11FlintCursor4nextEv"                                            ; magicseg='TEXT32' len=24
  "__ZN11FlintCursor4prevEv"                                            ; magicseg='TEXT32' len=24
  "__ZN11FlintCursor6to_endEv"                                          ; magicseg='TEXT32' len=26  weak
  "__ZN11FlintCursor8read_tagEb"                                        ; magicseg='TEXT32' len=28
  "__ZN11FlintCursorC1EP10FlintTable"                                   ; magicseg='TEXT32' len=33
  "__ZN11FlintCursorC2EP10FlintTable"                                   ; magicseg='TEXT32' len=33
  "__ZN11FlintCursorD1Ev"                                               ; magicseg='TEXT32' len=21
  "__ZN11FlintCursorD2Ev"                                               ; magicseg='TEXT32' len=21
  "__ZN11InMemoryDoc11add_postingERK17InMemoryTermEntry"                ; magicseg='TEXT32' len=52  weak
  "__ZN11InMemoryDocaSERKS_"                                            ; magicseg='TEXT32' len=24  weak
  "__ZN11InMemoryDocC1Eb"                                               ; magicseg='TEXT32' len=21  weak
  "__ZN11InMemoryDocC1ERKS_"                                            ; magicseg='TEXT32' len=24  weak
  "__ZN11InMemoryDocC1Ev"                                               ; magicseg='TEXT32' len=21  weak
  "__ZN11InMemoryDocD1Ev"                                               ; magicseg='TEXT32' len=21  weak
  "__ZN11MapTermList4nextEv"                                            ; magicseg='TEXT32' len=24  weak
  "__ZN11MapTermListC1ERKSt17_Rb_tree_iteratorISt4pairIKSs14OmDocumentTermERKS4_PS5_ESA_j"                                ; magicseg='TEXT32' len=86  weak
  "__ZN11MapTermListD0Ev"                                               ; magicseg='TEXT32' len=21  weak
  "__ZN11MapTermListD1Ev"                                               ; magicseg='TEXT32' len=21  weak
  "__ZN11TermCompareC1ERSt6vectorIPN6Xapian15PostingIterator8InternalESaIS4_EE"             ; magicseg='TEXT32' len=75  weak
  "__ZN11XorPostList16recalc_maxweightEv"                               ; magicseg='TEXT32' len=37
  "__ZN11XorPostList21advance_to_next_matchEd"                          ; magicseg='TEXT32' len=42  weak
  "__ZN11XorPostList4nextEd"                                            ; magicseg='TEXT32' len=24
  "__ZN11XorPostList7skip_toEjd"                                        ; magicseg='TEXT32' len=28
  "__ZN11XorPostListC1EPN6Xapian15PostingIterator8InternalES3_P10MultiMatchj"               ; magicseg='TEXT32' len=73
  "__ZN11XorPostListC2EPN6Xapian15PostingIterator8InternalES3_P10MultiMatchj"               ; magicseg='TEXT32' len=73
  "__ZN11XorPostListD0Ev"                                               ; magicseg='TEXT32' len=21  weak
  "__ZN11XorPostListD1Ev"                                               ; magicseg='TEXT32' len=21  weak
  "__ZN12AllTermsListC2Ev"                                              ; magicseg='TEXT32' len=22  weak
  "__ZN12AllTermsListD0Ev"                                              ; magicseg='TEXT32' len=22
  "__ZN12AllTermsListD1Ev"                                              ; magicseg='TEXT32' len=22
  "__ZN12AllTermsListD2Ev"                                              ; magicseg='TEXT32' len=22
  "__ZN12FlintVersion14read_and_checkEv"                                ; magicseg='TEXT32' len=36
  "__ZN12FlintVersion6createEv"                                         ; magicseg='TEXT32' len=27
  "__ZN12FlintVersionC1ERKSs"                                           ; magicseg='TEXT32' len=25  weak
  "__ZN12FlintVersionD1Ev"                                              ; magicseg='TEXT32' len=22  weak
  "__ZN12InMemoryTerm11add_postingERK15InMemoryPosting"                 ; magicseg='TEXT32' len=51  weak
  "__ZN12InMemoryTermC1ERKS_"                                           ; magicseg='TEXT32' len=25  weak
  "__ZN12InMemoryTermC1Ev"                                              ; magicseg='TEXT32' len=22  weak
  "__ZN12InMemoryTermD1Ev"                                              ; magicseg='TEXT32' len=22  weak
  "__ZN12LeafPostList14set_termweightEPKN6Xapian6WeightE"               ; magicseg='TEXT32' len=53  weak
  "__ZN12LeafPostList16recalc_maxweightEv"                              ; magicseg='TEXT32' len=38  weak
  "__ZN12LeafPostListC2Ev"                                              ; magicseg='TEXT32' len=22  weak
  "__ZN12LeafPostListD0Ev"                                              ; magicseg='TEXT32' len=22  weak
  "__ZN12LeafPostListD1Ev"                                              ; magicseg='TEXT32' len=22  weak
  "__ZN12LeafPostListD2Ev"                                              ; magicseg='TEXT32' len=22  weak
  "__ZN12MSetPostList16recalc_maxweightEv"                              ; magicseg='TEXT32' len=38
  "__ZN12MSetPostList18read_position_listEv"                            ; magicseg='TEXT32' len=40
  "__ZN12MSetPostList4nextEd"                                           ; magicseg='TEXT32' len=25
  "__ZN12MSetPostList7skip_toEjd"                                       ; magicseg='TEXT32' len=29
  "__ZN12MSetPostListD0Ev"                                              ; magicseg='TEXT32' len=22  weak
  "__ZN12MSetPostListD1Ev"                                              ; magicseg='TEXT32' len=22  weak
  "__ZN12NearPostList7do_testERSt6vectorIPN6Xapian16PositionIterator8InternalESaIS4_EEjjj"                                ; magicseg='TEXT32' len=86
  "__ZN12NearPostList8test_docEv"                                       ; magicseg='TEXT32' len=29
  "__ZN12NearPostListC1EPN6Xapian15PostingIterator8InternalEjSt6vectorIS3_SaIS3_EE"         ; magicseg='TEXT32' len=79  weak
  "__ZN12NearPostListD0Ev"                                              ; magicseg='TEXT32' len=22  weak
  "__ZN12NearPostListD1Ev"                                              ; magicseg='TEXT32' len=22  weak
  "__ZN13CmpMaxOrTermsclEPKN6Xapian15PostingIterator8InternalES4_"      ; magicseg='TEXT32' len=62  weak
  "__ZN13EmptyPostList18read_position_listEv"                           ; magicseg='TEXT32' len=41  weak
  "__ZN13EmptyPostList4nextEd"                                          ; magicseg='TEXT32' len=26  weak
  "__ZN13EmptyPostList7skip_toEjd"                                      ; magicseg='TEXT32' len=30  weak
  "__ZN13EmptyPostListC1Ev"                                             ; magicseg='TEXT32' len=23  weak
  "__ZN13EmptyPostListD0Ev"                                             ; magicseg='TEXT32' len=23  weak
  "__ZN13EmptyPostListD1Ev"                                             ; magicseg='TEXT32' len=23  weak
  "__ZN13EmptySubMatch11start_matchEjj"                                 ; magicseg='TEXT32' len=35
  "__ZN13EmptySubMatch13prepare_matchEb"                                ; magicseg='TEXT32' len=36
  "__ZN13EmptySubMatch26get_postlist_and_term_infoEP10MultiMatchPSt3mapISsN6Xapian4MSet8Internal17TermFreqAndWeightESt4lessISsESaISt4pairIKSsS6_EEE"           ; magicseg='TEXT32' len=144
  "__ZN13EmptySubMatchC1Ev"                                             ; magicseg='TEXT32' len=23  weak
  "__ZN13EmptySubMatchD0Ev"                                             ; magicseg='TEXT32' len=23  weak
  "__ZN13EmptySubMatchD1Ev"                                             ; magicseg='TEXT32' len=23  weak
  "__ZN13FlintDatabase11open_tablesEj"                                  ; magicseg='TEXT32' len=34
  "__ZN13FlintDatabase15database_existsEv"                              ; magicseg='TEXT32' len=38
  "__ZN13FlintDatabase19set_revision_numberEj"                          ; magicseg='TEXT32' len=42
  "__ZN13FlintDatabase22create_and_open_tablesEj"                       ; magicseg='TEXT32' len=45
  "__ZN13FlintDatabase22open_tables_consistentEv"                       ; magicseg='TEXT32' len=45
  "__ZN13FlintDatabase23get_database_write_lockEv"                      ; magicseg='TEXT32' len=46
  "__ZN13FlintDatabase5applyEv"                                         ; magicseg='TEXT32' len=27
  "__ZN13FlintDatabase6cancelEv"                                        ; magicseg='TEXT32' len=28
  "__ZN13FlintDatabase6reopenEv"                                        ; magicseg='TEXT32' len=28
  "__ZN13FlintDatabaseC1ERKSsij"                                        ; magicseg='TEXT32' len=28
  "__ZN13FlintDatabaseC2ERKSsij"                                        ; magicseg='TEXT32' len=28
  "__ZN13FlintDatabaseD0Ev"                                             ; magicseg='TEXT32' len=23
  "__ZN13FlintDatabaseD1Ev"                                             ; magicseg='TEXT32' len=23
  "__ZN13FlintDatabaseD2Ev"                                             ; magicseg='TEXT32' len=23
  "__ZN13FlintDocumentC1EN6Xapian8Internal9RefCntPtrIKNS0_8Database8InternalEEEPK15FlintValueTablePK16FlintRecordTablejb"                                      ; magicseg='TEXT32' len=117
  "__ZN13FlintDocumentC2EN6Xapian8Internal9RefCntPtrIKNS0_8Database8InternalEEEPK15FlintValueTablePK16FlintRecordTablejb"                                      ; magicseg='TEXT32' len=117
  "__ZN13FlintDocumentD0Ev"                                             ; magicseg='TEXT32' len=23
  "__ZN13FlintDocumentD1Ev"                                             ; magicseg='TEXT32' len=23
  "__ZN13FlintDocumentD2Ev"                                             ; magicseg='TEXT32' len=23
  "__ZN13FlintPostList10next_chunkEv"                                   ; magicseg='TEXT32' len=33
  "__ZN13FlintPostList13next_in_chunkEv"                                ; magicseg='TEXT32' len=36
  "__ZN13FlintPostList18read_position_listEv"                           ; magicseg='TEXT32' len=41
  "__ZN13FlintPostList22current_chunk_containsEj"                       ; magicseg='TEXT32' len=45
  "__ZN13FlintPostList22read_number_of_entriesEPPKcS1_PjS3_"            ; magicseg='TEXT32' len=56
  "__ZN13FlintPostList24move_to_chunk_containingEj"                     ; magicseg='TEXT32' len=47
  "__ZN13FlintPostList33move_forward_in_chunk_to_at_leastEj"            ; magicseg='TEXT32' len=56
  "__ZN13FlintPostList4nextEd"                                          ; magicseg='TEXT32' len=26
  "__ZN13FlintPostList7skip_toEjd"                                      ; magicseg='TEXT32' len=30
  "__ZN13FlintPostListC1EN6Xapian8Internal9RefCntPtrIKNS0_8Database8InternalEEEPK10FlintTableS9_RKSs"                     ; magicseg='TEXT32' len=97
  "__ZN13FlintPostListC2EN6Xapian8Internal9RefCntPtrIKNS0_8Database8InternalEEEPK10FlintTableS9_RKSs"                     ; magicseg='TEXT32' len=97
  "__ZN13FlintPostListD0Ev"                                             ; magicseg='TEXT32' len=23
  "__ZN13FlintPostListD1Ev"                                             ; magicseg='TEXT32' len=23
  "__ZN13FlintPostListD2Ev"                                             ; magicseg='TEXT32' len=23
  "__ZN13FlintTermList4nextEv"                                          ; magicseg='TEXT32' len=26
  "__ZN13FlintTermListC1EN6Xapian8Internal9RefCntPtrIKNS0_8Database8InternalEEEPK10FlintTablejj"                          ; magicseg='TEXT32' len=92
  "__ZN13FlintTermListC2EN6Xapian8Internal9RefCntPtrIKNS0_8Database8InternalEEEPK10FlintTablejj"                          ; magicseg='TEXT32' len=92
  "__ZN13FlintTermListD0Ev"                                             ; magicseg='TEXT32' len=23  weak
  "__ZN13FlintTermListD1Ev"                                             ; magicseg='TEXT32' len=23  weak
  "__ZN13LessByTermposclERKSt4pairISsjES3_"                             ; magicseg='TEXT32' len=39  weak
  "__ZN13LocalSubMatch11start_matchEjj"                                 ; magicseg='TEXT32' len=35
  "__ZN13LocalSubMatch13build_or_treeERSt6vectorIPN6Xapian15PostingIterator8InternalESaIS4_EEP10MultiMatch"               ; magicseg='TEXT32' len=103
  "__ZN13LocalSubMatch13prepare_matchEb"                                ; magicseg='TEXT32' len=36
  "__ZN13LocalSubMatch13register_termERKSs"                             ; magicseg='TEXT32' len=39
  "__ZN13LocalSubMatch14build_and_treeERSt6vectorIPN6Xapian15PostingIterator8InternalESaIS4_EEP10MultiMatch"              ; magicseg='TEXT32' len=104
  "__ZN13LocalSubMatch14build_xor_treeERSt6vectorIPN6Xapian15PostingIterator8InternalESaIS4_EEP10MultiMatch"              ; magicseg='TEXT32' len=104
  "__ZN13LocalSubMatch19postlist_from_queryEPKN6Xapian5Query8InternalEP10MultiMatchb"       ; magicseg='TEXT32' len=81
  "__ZN13LocalSubMatch21postlist_from_queriesEiPKN6Xapian5Query8InternalEP10MultiMatchb"    ; magicseg='TEXT32' len=84
  "__ZN13LocalSubMatch26get_postlist_and_term_infoEP10MultiMatchPSt3mapISsN6Xapian4MSet8Internal17TermFreqAndWeightESt4lessISsESaISt4pairIKSsS6_EEE"           ; magicseg='TEXT32' len=144
  "__ZN13LocalSubMatchC1EPKN6Xapian8Database8InternalEPKNS0_5Query8InternalEjRKNS0_4RSetEP13StatsGathererPKNS0_6WeightE"                                       ; magicseg='TEXT32' len=116
  "__ZN13LocalSubMatchC2EPKN6Xapian8Database8InternalEPKNS0_5Query8InternalEjRKNS0_4RSetEP13StatsGathererPKNS0_6WeightE"                                       ; magicseg='TEXT32' len=116
  "__ZN13LocalSubMatchD0Ev"                                             ; magicseg='TEXT32' len=23  weak
  "__ZN13LocalSubMatchD1Ev"                                             ; magicseg='TEXT32' len=23  weak
  "__ZN13MergePostList16recalc_maxweightEv"                             ; magicseg='TEXT32' len=39
  "__ZN13MergePostList18read_position_listEv"                           ; magicseg='TEXT32' len=41
  "__ZN13MergePostList4nextEd"                                          ; magicseg='TEXT32' len=26
  "__ZN13MergePostList7skip_toEjd"                                      ; magicseg='TEXT32' len=30
  "__ZN13MergePostListC1ESt6vectorIPN6Xapian15PostingIterator8InternalESaIS4_EEP10MultiMatchPNS1_12ErrorHandlerE"         ; magicseg='TEXT32' len=109
  "__ZN13MergePostListC2ESt6vectorIPN6Xapian15PostingIterator8InternalESaIS4_EEP10MultiMatchPNS1_12ErrorHandlerE"         ; magicseg='TEXT32' len=109
  "__ZN13MergePostListD0Ev"                                             ; magicseg='TEXT32' len=23
  "__ZN13MergePostListD1Ev"                                             ; magicseg='TEXT32' len=23
  "__ZN13MergePostListD2Ev"                                             ; magicseg='TEXT32' len=23
  "__ZN13MultiPostList14set_termweightEPKN6Xapian6WeightE"              ; magicseg='TEXT32' len=54
  "__ZN13MultiPostList18read_position_listEv"                           ; magicseg='TEXT32' len=41
  "__ZN13MultiPostList4nextEd"                                          ; magicseg='TEXT32' len=26
  "__ZN13MultiPostList7skip_toEjd"                                      ; magicseg='TEXT32' len=30
  "__ZN13MultiPostListC1ERSt6vectorIP12LeafPostListSaIS2_EERKN6Xapian8DatabaseE"            ; magicseg='TEXT32' len=76
  "__ZN13MultiPostListC2ERSt6vectorIP12LeafPostListSaIS2_EERKN6Xapian8DatabaseE"            ; magicseg='TEXT32' len=76
  "__ZN13MultiPostListD0Ev"                                             ; magicseg='TEXT32' len=23
  "__ZN13MultiPostListD1Ev"                                             ; magicseg='TEXT32' len=23
  "__ZN13MultiPostListD2Ev"                                             ; magicseg='TEXT32' len=23
  "__ZN13MultiTermList4nextEv"                                          ; magicseg='TEXT32' len=26
  "__ZN13MultiTermListC1EPN6Xapian12TermIterator8InternalERKNS0_8DatabaseEj"                ; magicseg='TEXT32' len=72
  "__ZN13MultiTermListC2EPN6Xapian12TermIterator8InternalERKNS0_8DatabaseEj"                ; magicseg='TEXT32' len=72
  "__ZN13MultiTermListD0Ev"                                             ; magicseg='TEXT32' len=23
  "__ZN13MultiTermListD1Ev"                                             ; magicseg='TEXT32' len=23
  "__ZN13MultiTermListD2Ev"                                             ; magicseg='TEXT32' len=23
  "__ZN13StatsGatherer12remove_childEPN6Xapian6Weight8InternalE"        ; magicseg='TEXT32' len=60
  "__ZN13StatsGatherer13contrib_statsERK5Stats"                         ; magicseg='TEXT32' len=43
  "__ZN13StatsGatherer16set_global_statsEj"                             ; magicseg='TEXT32' len=39  weak
  "__ZN13StatsGatherer9add_childEPN6Xapian6Weight8InternalE"            ; magicseg='TEXT32' len=56
  "__ZN13StatsGathererC2Ev"                                             ; magicseg='TEXT32' len=23  weak
  "__ZN13StatsGathererD0Ev"                                             ; magicseg='TEXT32' len=23  weak
  "__ZN13StatsGathererD1Ev"                                             ; magicseg='TEXT32' len=23  weak
  "__ZN13StatsGathererD2Ev"                                             ; magicseg='TEXT32' len=23  weak
  "__ZN14AndNotPostList16recalc_maxweightEv"                            ; magicseg='TEXT32' len=40
  "__ZN14AndNotPostList16sync_and_skip_toEjdjj"                         ; magicseg='TEXT32' len=43
  "__ZN14AndNotPostList21advance_to_next_matchEdPN6Xapian15PostingIterator8InternalE"       ; magicseg='TEXT32' len=81
  "__ZN14AndNotPostList4nextEd"                                         ; magicseg='TEXT32' len=27
  "__ZN14AndNotPostList7skip_toEjd"                                     ; magicseg='TEXT32' len=31
  "__ZN14AndNotPostListC1EPN6Xapian15PostingIterator8InternalES3_P10MultiMatchj"            ; magicseg='TEXT32' len=76
  "__ZN14AndNotPostListC2EPN6Xapian15PostingIterator8InternalES3_P10MultiMatchj"            ; magicseg='TEXT32' len=76
  "__ZN14AndNotPostListD0Ev"                                            ; magicseg='TEXT32' len=24  weak
  "__ZN14AndNotPostListD1Ev"                                            ; magicseg='TEXT32' len=24  weak
  "__ZN14BranchPostList12handle_pruneERPN6Xapian15PostingIterator8InternalES3_"             ; magicseg='TEXT32' len=75  weak
  "__ZN14BranchPostList18read_position_listEv"                          ; magicseg='TEXT32' len=42
  "__ZN14BranchPostListC2EPN6Xapian15PostingIterator8InternalES3_P10MultiMatch"             ; magicseg='TEXT32' len=75  weak
  "__ZN14BranchPostListD0Ev"                                            ; magicseg='TEXT32' len=24
  "__ZN14BranchPostListD1Ev"                                            ; magicseg='TEXT32' len=24
  "__ZN14BranchPostListD2Ev"                                            ; magicseg='TEXT32' len=24
  "__ZN14FilterPostList16recalc_maxweightEv"                            ; magicseg='TEXT32' len=40
  "__ZN14FilterPostList23process_next_or_skip_toEdPN6Xapian15PostingIterator8InternalE"     ; magicseg='TEXT32' len=83  weak
  "__ZN14FilterPostList4nextEd"                                         ; magicseg='TEXT32' len=27
  "__ZN14FilterPostList7skip_toEjd"                                     ; magicseg='TEXT32' len=31
  "__ZN14FilterPostListD0Ev"                                            ; magicseg='TEXT32' len=24  weak
  "__ZN14FilterPostListD1Ev"                                            ; magicseg='TEXT32' len=24  weak
  "__ZN14OmDocumentTerm12add_positionEj"                                ; magicseg='TEXT32' len=36
  "__ZN14OmDocumentTerm15remove_positionEj"                             ; magicseg='TEXT32' len=39
  "__ZN14OmDocumentTerm7dec_wdfEj"                                      ; magicseg='TEXT32' len=30  weak
  "__ZN14OmDocumentTerm7inc_wdfEj"                                      ; magicseg='TEXT32' len=30  weak
  "__ZN14OmDocumentTermC1ERKS_"                                         ; magicseg='TEXT32' len=27  weak
  "__ZN14OmDocumentTermC1ERKSsj"                                        ; magicseg='TEXT32' len=28  weak
  "__ZN14OmDocumentTermD1Ev"                                            ; magicseg='TEXT32' len=24  weak
  "__ZN14PhrasePostList7do_testERSt6vectorIPN6Xapian16PositionIterator8InternalESaIS4_EEjjj"                              ; magicseg='TEXT32' len=88
  "__ZN14PhrasePostList8test_docEv"                                     ; magicseg='TEXT32' len=31
  "__ZN14PhrasePostListC1EPN6Xapian15PostingIterator8InternalEjSt6vectorIS3_SaIS3_EE"       ; magicseg='TEXT32' len=81  weak
  "__ZN14PhrasePostListD0Ev"                                            ; magicseg='TEXT32' len=24  weak
  "__ZN14PhrasePostListD1Ev"                                            ; magicseg='TEXT32' len=24  weak
  "__ZN14SelectPostList16recalc_maxweightEv"                            ; magicseg='TEXT32' len=40  weak
  "__ZN14SelectPostList18read_position_listEv"                          ; magicseg='TEXT32' len=42  weak
  "__ZN14SelectPostList4nextEd"                                         ; magicseg='TEXT32' len=27
  "__ZN14SelectPostList7skip_toEjd"                                     ; magicseg='TEXT32' len=31
  "__ZN14SelectPostListC2EPN6Xapian15PostingIterator8InternalE"         ; magicseg='TEXT32' len=59  weak
  "__ZN14SelectPostListD0Ev"                                            ; magicseg='TEXT32' len=24  weak
  "__ZN14SelectPostListD1Ev"                                            ; magicseg='TEXT32' len=24  weak
  "__ZN14SelectPostListD2Ev"                                            ; magicseg='TEXT32' len=24  weak
  "__ZN14VectorTermList4nextEv"                                         ; magicseg='TEXT32' len=27  weak
  "__ZN14VectorTermList7skip_toERKSs"                                   ; magicseg='TEXT32' len=33  weak
  "__ZN14VectorTermListC1EN9__gnu_cxx17__normal_iteratorIPKSsSt6vectorISsSaISsEEEES7_"      ; magicseg='TEXT32' len=82  weak
  "__ZN14VectorTermListC1ESt14_List_iteratorISsRKSsPS1_ES4_"            ; magicseg='TEXT32' len=56  weak
  "__ZN14VectorTermListD0Ev"                                            ; magicseg='TEXT32' len=24  weak
  "__ZN14VectorTermListD1Ev"                                            ; magicseg='TEXT32' len=24  weak
  "__ZN15filter_group_idC1Ej"                                           ; magicseg='TEXT32' len=25  weak
  "__ZN15filter_group_idC1ERKS_"                                        ; magicseg='TEXT32' len=28  weak
  "__ZN15filter_group_idC1ERKSs"                                        ; magicseg='TEXT32' len=28  weak
  "__ZN15filter_group_idD1Ev"                                           ; magicseg='TEXT32' len=25  weak
  "__ZN15FlintTable_base10free_blockEm"                                 ; magicseg='TEXT32' len=35
  "__ZN15FlintTable_base12set_revisionEm"                               ; magicseg='TEXT32' len=37  weak
  "__ZN15FlintTable_base13clear_bit_mapEv"                              ; magicseg='TEXT32' len=38
  "__ZN15FlintTable_base13write_to_fileERKSs"                           ; magicseg='TEXT32' len=41
  "__ZN15FlintTable_base14block_free_nowEm"                             ; magicseg='TEXT32' len=39
  "__ZN15FlintTable_base14do_unpack_uintEPPKcS1_PmRSsRKSsS1_"           ; magicseg='TEXT32' len=57
  "__ZN15FlintTable_base14extend_bit_mapEv"                             ; magicseg='TEXT32' len=39
  "__ZN15FlintTable_base14set_block_sizeEm"                             ; magicseg='TEXT32' len=39  weak
  "__ZN15FlintTable_base14set_item_countEm"                             ; magicseg='TEXT32' len=39  weak
  "__ZN15FlintTable_base14set_sequentialEb"                             ; magicseg='TEXT32' len=39  weak
  "__ZN15FlintTable_base15next_free_blockEv"                            ; magicseg='TEXT32' len=40
  "__ZN15FlintTable_base17set_have_fakerootEb"                          ; magicseg='TEXT32' len=42  weak
  "__ZN15FlintTable_base20calculate_last_blockEv"                       ; magicseg='TEXT32' len=45
  "__ZN15FlintTable_base4readERKSscRSs"                                 ; magicseg='TEXT32' len=35
  "__ZN15FlintTable_base4swapERS_"                                      ; magicseg='TEXT32' len=30
  "__ZN15FlintTable_base6commitEv"                                      ; magicseg='TEXT32' len=30
  "__ZN15FlintTable_base8set_rootEm"                                    ; magicseg='TEXT32' len=32  weak
  "__ZN15FlintTable_base9set_levelEm"                                   ; magicseg='TEXT32' len=33  weak
  "__ZN15FlintTable_baseC1ERKS_"                                        ; magicseg='TEXT32' len=28
  "__ZN15FlintTable_baseC1Ev"                                           ; magicseg='TEXT32' len=25
  "__ZN15FlintTable_baseC2ERKS_"                                        ; magicseg='TEXT32' len=28
  "__ZN15FlintTable_baseC2Ev"                                           ; magicseg='TEXT32' len=25
  "__ZN15FlintTable_baseD1Ev"                                           ; magicseg='TEXT32' len=25
  "__ZN15FlintTable_baseD2Ev"                                           ; magicseg='TEXT32' len=25
  "__ZN15FlintValueTable12unpack_entryEPPKcS1_PjRSs"                    ; magicseg='TEXT32' len=48
  "__ZN15FlintValueTable17delete_all_valuesEj"                          ; magicseg='TEXT32' len=42
  "__ZN15FlintValueTable8make_keyERSsjj"                                ; magicseg='TEXT32' len=36
  "__ZN15FlintValueTable9add_valueERKSsjj"                              ; magicseg='TEXT32' len=38
  "__ZN15FlintValueTableC1ESsb"                                         ; magicseg='TEXT32' len=27  weak
  "__ZN15FlintValueTableD1Ev"                                           ; magicseg='TEXT32' len=25  weak
  "__ZN15InMemoryPosting5mergeERKS_"                                    ; magicseg='TEXT32' len=32  weak
  "__ZN15InMemoryPostingaSERKS_"                                        ; magicseg='TEXT32' len=28  weak
  "__ZN15InMemoryPostingC1ERKS_"                                        ; magicseg='TEXT32' len=28  weak
  "__ZN15InMemoryPostingC1Ev"                                           ; magicseg='TEXT32' len=25  weak
  "__ZN15InMemoryPostingD1Ev"                                           ; magicseg='TEXT32' len=25  weak
  "__ZN16__Atomicity_lockILi0EE17_S_atomicity_lockE"                    ; magicseg='BSS32' len=48  weak
  "__ZN16AndMaybePostList16recalc_maxweightEv"                          ; magicseg='TEXT32' len=42
  "__ZN16AndMaybePostList23process_next_or_skip_toEdPN6Xapian15PostingIterator8InternalE"                                 ; magicseg='TEXT32' len=85
  "__ZN16AndMaybePostList4nextEd"                                       ; magicseg='TEXT32' len=29
  "__ZN16AndMaybePostList7skip_toEjd"                                   ; magicseg='TEXT32' len=33
  "__ZN16AndMaybePostListC1EPN6Xapian15PostingIterator8InternalES3_P10MultiMatchj"          ; magicseg='TEXT32' len=78  weak
  "__ZN16AndMaybePostListC1EPN6Xapian15PostingIterator8InternalES3_P10MultiMatchjjj"        ; magicseg='TEXT32' len=80  weak
  "__ZN16AndMaybePostListD0Ev"                                          ; magicseg='TEXT32' len=26  weak
  "__ZN16AndMaybePostListD1Ev"                                          ; magicseg='TEXT32' len=26  weak
  "__ZN16FlintRecordTable13delete_recordEj"                             ; magicseg='TEXT32' len=39
  "__ZN16FlintRecordTable14replace_recordERKSsj"                        ; magicseg='TEXT32' len=44
  "__ZN16FlintRecordTableC1ESsb"                                        ; magicseg='TEXT32' len=28  weak
  "__ZN16FlintRecordTableD1Ev"                                          ; magicseg='TEXT32' len=26  weak
  "__ZN16InMemoryDatabase10add_valuesEjRKSt3mapIjSsSt4lessIjESaISt4pairIKjSsEEE"            ; magicseg='TEXT32' len=76
  "__ZN16InMemoryDatabase12add_documentERKN6Xapian8DocumentE"           ; magicseg='TEXT32' len=57
  "__ZN16InMemoryDatabase12make_postingEP11InMemoryDocRKSsjjjb"         ; magicseg='TEXT32' len=59
  "__ZN16InMemoryDatabase14finish_add_docEjRKN6Xapian8DocumentE"        ; magicseg='TEXT32' len=60
  "__ZN16InMemoryDatabase15delete_documentEj"                           ; magicseg='TEXT32' len=41
  "__ZN16InMemoryDatabase16replace_documentEjRKN6Xapian8DocumentE"      ; magicseg='TEXT32' len=62
  "__ZN16InMemoryDatabase5flushEv"                                      ; magicseg='TEXT32' len=30
  "__ZN16InMemoryDatabase6cancelEv"                                     ; magicseg='TEXT32' len=31
  "__ZN16InMemoryDatabase8make_docERKSs"                                ; magicseg='TEXT32' len=36
  "__ZN16InMemoryDatabase9make_termERKSs"                               ; magicseg='TEXT32' len=37
  "__ZN16InMemoryDatabaseC1Ev"                                          ; magicseg='TEXT32' len=26
  "__ZN16InMemoryDatabaseC2Ev"                                          ; magicseg='TEXT32' len=26
  "__ZN16InMemoryDatabaseD0Ev"                                          ; magicseg='TEXT32' len=26
  "__ZN16InMemoryDatabaseD1Ev"                                          ; magicseg='TEXT32' len=26
  "__ZN16InMemoryDatabaseD2Ev"                                          ; magicseg='TEXT32' len=26
  "__ZN16InMemoryDocumentC1EPKN6Xapian8Database8InternalEjRKSsRKSt3mapIjSsSt4lessIjESaISt4pairIKjSsEEE"                   ; magicseg='TEXT32' len=99
  "__ZN16InMemoryDocumentC2EPKN6Xapian8Database8InternalEjRKSsRKSt3mapIjSsSt4lessIjESaISt4pairIKjSsEEE"                   ; magicseg='TEXT32' len=99
  "__ZN16InMemoryDocumentD0Ev"                                          ; magicseg='TEXT32' len=26  weak
  "__ZN16InMemoryDocumentD1Ev"                                          ; magicseg='TEXT32' len=26  weak
  "__ZN16InMemoryPostList18read_position_listEv"                        ; magicseg='TEXT32' len=44
  "__ZN16InMemoryPostList4nextEd"                                       ; magicseg='TEXT32' len=29
  "__ZN16InMemoryPostList7skip_toEjd"                                   ; magicseg='TEXT32' len=33
  "__ZN16InMemoryPostListC1EN6Xapian8Internal9RefCntPtrIK16InMemoryDatabaseEERK12InMemoryTerm"                            ; magicseg='TEXT32' len=90
  "__ZN16InMemoryPostListC2EN6Xapian8Internal9RefCntPtrIK16InMemoryDatabaseEERK12InMemoryTerm"                            ; magicseg='TEXT32' len=90
  "__ZN16InMemoryPostListD0Ev"                                          ; magicseg='TEXT32' len=26  weak
  "__ZN16InMemoryPostListD1Ev"                                          ; magicseg='TEXT32' len=26  weak
  "__ZN16InMemoryTermList4nextEv"                                       ; magicseg='TEXT32' len=29
  "__ZN16InMemoryTermListC1EN6Xapian8Internal9RefCntPtrIK16InMemoryDatabaseEEjRK11InMemoryDocd"                           ; magicseg='TEXT32' len=91
  "__ZN16InMemoryTermListC2EN6Xapian8Internal9RefCntPtrIK16InMemoryDatabaseEEjRK11InMemoryDocd"                           ; magicseg='TEXT32' len=91
  "__ZN16InMemoryTermListD0Ev"                                          ; magicseg='TEXT32' len=26  weak
  "__ZN16InMemoryTermListD1Ev"                                          ; magicseg='TEXT32' len=26  weak
  "__ZN16LocalStatsSource16contrib_my_statsEv"                          ; magicseg='TEXT32' len=42  weak
  "__ZN16LocalStatsSourceC1EP13StatsGatherer"                           ; magicseg='TEXT32' len=41
  "__ZN16LocalStatsSourceC2EP13StatsGatherer"                           ; magicseg='TEXT32' len=41
  "__ZN16LocalStatsSourceD0Ev"                                          ; magicseg='TEXT32' len=26
  "__ZN16LocalStatsSourceD1Ev"                                          ; magicseg='TEXT32' len=26
  "__ZN16LocalStatsSourceD2Ev"                                          ; magicseg='TEXT32' len=26
  "__ZN17FlintAllTermsList4nextEv"                                      ; magicseg='TEXT32' len=30
  "__ZN17FlintAllTermsList7skip_toERKSs"                                ; magicseg='TEXT32' len=36
  "__ZN17FlintAllTermsListC1EN6Xapian8Internal9RefCntPtrIKNS0_8Database8InternalEEEPK18FlintPostListTableRKSs"            ; magicseg='TEXT32' len=106  weak
  "__ZN17FlintAllTermsListD0Ev"                                         ; magicseg='TEXT32' len=27
  "__ZN17FlintAllTermsListD1Ev"                                         ; magicseg='TEXT32' len=27
  "__ZN17FlintAllTermsListD2Ev"                                         ; magicseg='TEXT32' len=27
  "__ZN17FlintPositionList4nextEv"                                      ; magicseg='TEXT32' len=30
  "__ZN17FlintPositionList7skip_toEj"                                   ; magicseg='TEXT32' len=33
  "__ZN17FlintPositionList9read_dataEPK10FlintTablejRKSs"               ; magicseg='TEXT32' len=53
  "__ZN17FlintPositionListC1Ev"                                         ; magicseg='TEXT32' len=27  weak
  "__ZN17FlintPositionListD0Ev"                                         ; magicseg='TEXT32' len=27  weak
  "__ZN17FlintPositionListD1Ev"                                         ; magicseg='TEXT32' len=27  weak
  "__ZN17FlintSynonymTable11add_synonymERKSsS1_"                        ; magicseg='TEXT32' len=44
  "__ZN17FlintSynonymTable13merge_changesEv"                            ; magicseg='TEXT32' len=40
  "__ZN17FlintSynonymTable13open_termlistERKSs"                         ; magicseg='TEXT32' len=43
  "__ZN17FlintSynonymTable14clear_synonymsERKSs"                        ; magicseg='TEXT32' len=44
  "__ZN17FlintSynonymTable14remove_synonymERKSsS1_"                     ; magicseg='TEXT32' len=47
  "__ZN17FlintSynonymTable15create_and_openEj"                          ; magicseg='TEXT32' len=42  weak
  "__ZN17FlintSynonymTable15discard_changesEv"                          ; magicseg='TEXT32' len=42  weak
  "__ZN17FlintSynonymTable6cancelEv"                                    ; magicseg='TEXT32' len=32  weak
  "__ZN17FlintSynonymTable6commitEj"                                    ; magicseg='TEXT32' len=32  weak
  "__ZN17FlintSynonymTableC1ESsb"                                       ; magicseg='TEXT32' len=29  weak
  "__ZN17FlintSynonymTableD1Ev"                                         ; magicseg='TEXT32' len=27  weak
  "__ZN17InMemoryTermEntry5mergeERKS_"                                  ; magicseg='TEXT32' len=34  weak
  "__ZN17InMemoryTermEntryaSERKS_"                                      ; magicseg='TEXT32' len=30  weak
  "__ZN17InMemoryTermEntryC1ERKS_"                                      ; magicseg='TEXT32' len=30  weak
  "__ZN17InMemoryTermEntryC1Ev"                                         ; magicseg='TEXT32' len=27  weak
  "__ZN17InMemoryTermEntryD1Ev"                                         ; magicseg='TEXT32' len=27  weak
  "__ZN17MultiAllTermsList14update_currentEv"                           ; magicseg='TEXT32' len=41
  "__ZN17MultiAllTermsList4nextEv"                                      ; magicseg='TEXT32' len=30
  "__ZN17MultiAllTermsList7skip_toERKSs"                                ; magicseg='TEXT32' len=36
  "__ZN17MultiAllTermsListC1ERKSt6vectorIPN6Xapian12TermIterator8InternalESaIS4_EE"         ; magicseg='TEXT32' len=79
  "__ZN17MultiAllTermsListC2ERKSt6vectorIPN6Xapian12TermIterator8InternalESaIS4_EE"         ; magicseg='TEXT32' len=79
  "__ZN17MultiAllTermsListD0Ev"                                         ; magicseg='TEXT32' len=27
  "__ZN17MultiAllTermsListD1Ev"                                         ; magicseg='TEXT32' len=27
  "__ZN17MultiAllTermsListD2Ev"                                         ; magicseg='TEXT32' len=27
  "__ZN17PositionListCmpLtclEPKN6Xapian16PositionIterator8InternalES4_"                     ; magicseg='TEXT32' len=67  weak
  "__ZN18FlintPostListTable13merge_changesERKSt3mapISsS0_IjSt4pairIcjESt4lessIjESaIS1_IKjS2_EEES3_ISsESaIS1_IKSsS8_EEERKS0_IjjS4_SaIS1_IS5_jEEERKS0_ISsS1_IiiES9_SaIS1_ISA_SL_EEE"                    ; magicseg='TEXT32' len=174
  "__ZN18FlintPostListTable30set_total_length_and_lastdocidEyj"         ; magicseg='TEXT32' len=59
  "__ZN18FlintPostListTable9get_chunkERKSsjbPP19PostlistChunkReaderPP19PostlistChunkWriter"                               ; magicseg='TEXT32' len=87
  "__ZN18FlintPostListTableC1ESsb"                                      ; magicseg='TEXT32' len=30  weak
  "__ZN18FlintPostListTableD1Ev"                                        ; magicseg='TEXT32' len=28  weak
  "__ZN18FlintSpellingTable11remove_wordERKSsj"                         ; magicseg='TEXT32' len=43
  "__ZN18FlintSpellingTable12add_fragmentE8fragmentRKSs"                ; magicseg='TEXT32' len=52
  "__ZN18FlintSpellingTable13merge_changesEv"                           ; magicseg='TEXT32' len=41
  "__ZN18FlintSpellingTable13open_termlistERKSs"                        ; magicseg='TEXT32' len=44
  "__ZN18FlintSpellingTable15create_and_openEj"                         ; magicseg='TEXT32' len=43  weak
  "__ZN18FlintSpellingTable15remove_fragmentE8fragmentRKSs"             ; magicseg='TEXT32' len=55
  "__ZN18FlintSpellingTable6cancelEv"                                   ; magicseg='TEXT32' len=33  weak
  "__ZN18FlintSpellingTable6commitEj"                                   ; magicseg='TEXT32' len=33  weak
  "__ZN18FlintSpellingTable8add_wordERKSsj"                             ; magicseg='TEXT32' len=39
  "__ZN18FlintSpellingTableC1ESsb"                                      ; magicseg='TEXT32' len=30  weak
  "__ZN18FlintSpellingTableD1Ev"                                        ; magicseg='TEXT32' len=28  weak
  "__ZN18FlintTermListTable11set_entriesEjN6Xapian12TermIteratorERKS1_jb"                   ; magicseg='TEXT32' len=69
  "__ZN18FlintTermListTable15delete_termlistEj"                         ; magicseg='TEXT32' len=43
  "__ZN18FlintTermListTableC1ESsb"                                      ; magicseg='TEXT32' len=30  weak
  "__ZN18FlintTermListTableD1Ev"                                        ; magicseg='TEXT32' len=28  weak
  "__ZN18LocalStatsGathererC1Ev"                                        ; magicseg='TEXT32' len=28  weak
  "__ZN18LocalStatsGathererD0Ev"                                        ; magicseg='TEXT32' len=28  weak
  "__ZN18LocalStatsGathererD1Ev"                                        ; magicseg='TEXT32' len=28  weak
  "__ZN18ValueRangePostList16recalc_maxweightEv"                        ; magicseg='TEXT32' len=44
  "__ZN18ValueRangePostList18read_position_listEv"                      ; magicseg='TEXT32' len=46
  "__ZN18ValueRangePostList4nextEd"                                     ; magicseg='TEXT32' len=31
  "__ZN18ValueRangePostList7skip_toEjd"                                 ; magicseg='TEXT32' len=35
  "__ZN18ValueRangePostListC1EPKN6Xapian8Database8InternalEjRKSsS6_"    ; magicseg='TEXT32' len=64  weak
  "__ZN18ValueRangePostListD0Ev"                                        ; magicseg='TEXT32' len=28  weak
  "__ZN18ValueRangePostListD1Ev"                                        ; magicseg='TEXT32' len=28  weak
  "__ZN19ExactPhrasePostList19start_position_listEj"                    ; magicseg='TEXT32' len=48
  "__ZN19ExactPhrasePostList8test_docEv"                                ; magicseg='TEXT32' len=36
  "__ZN19ExactPhrasePostListC1EPN6Xapian15PostingIterator8InternalERKSt6vectorIS3_SaIS3_EE"                               ; magicseg='TEXT32' len=87
  "__ZN19ExactPhrasePostListC2EPN6Xapian15PostingIterator8InternalERKSt6vectorIS3_SaIS3_EE"                               ; magicseg='TEXT32' len=87
  "__ZN19ExactPhrasePostListD0Ev"                                       ; magicseg='TEXT32' len=29
  "__ZN19ExactPhrasePostListD1Ev"                                       ; magicseg='TEXT32' len=29
  "__ZN19ExactPhrasePostListD2Ev"                                       ; magicseg='TEXT32' len=29
  "__ZN19ExtraWeightPostList16recalc_maxweightEv"                       ; magicseg='TEXT32' len=45  weak
  "__ZN19ExtraWeightPostList18read_position_listEv"                     ; magicseg='TEXT32' len=47  weak
  "__ZN19ExtraWeightPostList4nextEd"                                    ; magicseg='TEXT32' len=32  weak
  "__ZN19ExtraWeightPostList7skip_toEjd"                                ; magicseg='TEXT32' len=36  weak
  "__ZN19ExtraWeightPostListC1EPN6Xapian15PostingIterator8InternalEPNS0_6WeightEP10MultiMatch"                            ; magicseg='TEXT32' len=90  weak
  "__ZN19ExtraWeightPostListD0Ev"                                       ; magicseg='TEXT32' len=29  weak
  "__ZN19ExtraWeightPostListD1Ev"                                       ; magicseg='TEXT32' len=29  weak
  "__ZN19FreqAdderOrTermListC1EPN6Xapian12TermIterator8InternalES3_"    ; magicseg='TEXT32' len=64  weak
  "__ZN19FreqAdderOrTermListD0Ev"                                       ; magicseg='TEXT32' len=29
  "__ZN19FreqAdderOrTermListD1Ev"                                       ; magicseg='TEXT32' len=29
  "__ZN19FreqAdderOrTermListD2Ev"                                       ; magicseg='TEXT32' len=29
  "__ZN19PostlistChunkReader4nextEv"                                    ; magicseg='TEXT32' len=32
  "__ZN19PostlistChunkReaderC1EjRKSs"                                   ; magicseg='TEXT32' len=33  weak
  "__ZN19PostlistChunkReaderD1Ev"                                       ; magicseg='TEXT32' len=29  weak
  "__ZN19PostlistChunkWriter10raw_appendEjjRKSs"                        ; magicseg='TEXT32' len=44  weak
  "__ZN19PostlistChunkWriter5flushEP10FlintTable"                       ; magicseg='TEXT32' len=45
  "__ZN19PostlistChunkWriter6appendEP10FlintTablejjj"                   ; magicseg='TEXT32' len=49
  "__ZN19PostlistChunkWriterC1ERKSsbS1_b"                               ; magicseg='TEXT32' len=37
  "__ZN19PostlistChunkWriterC2ERKSsbS1_b"                               ; magicseg='TEXT32' len=37
  "__ZN19PostlistChunkWriterD1Ev"                                       ; magicseg='TEXT32' len=29  weak
  "__ZN20FlintAllDocsPostList18read_position_listEv"                    ; magicseg='TEXT32' len=48  weak
  "__ZN20FlintAllDocsPostList4nextEd"                                   ; magicseg='TEXT32' len=33
  "__ZN20FlintAllDocsPostList7skip_toEjd"                               ; magicseg='TEXT32' len=37
  "__ZN20FlintAllDocsPostListC1EN6Xapian8Internal9RefCntPtrIKNS0_8Database8InternalEEEPK10FlintTablej"                    ; magicseg='TEXT32' len=98
  "__ZN20FlintAllDocsPostListC2EN6Xapian8Internal9RefCntPtrIKNS0_8Database8InternalEEEPK10FlintTablej"                    ; magicseg='TEXT32' len=98
  "__ZN20FlintAllDocsPostListD0Ev"                                      ; magicseg='TEXT32' len=30
  "__ZN20FlintAllDocsPostListD1Ev"                                      ; magicseg='TEXT32' len=30
  "__ZN20FlintAllDocsPostListD2Ev"                                      ; magicseg='TEXT32' len=30
  "__ZN20FlintSynonymTermList4nextEv"                                   ; magicseg='TEXT32' len=33
  "__ZN20FlintSynonymTermList7skip_toERKSs"                             ; magicseg='TEXT32' len=39
  "__ZN20FlintSynonymTermListC1EN6Xapian8Internal9RefCntPtrIKNS0_8Database8InternalEEEP11FlintCursorjRKSs"                ; magicseg='TEXT32' len=102  weak
  "__ZN20FlintSynonymTermListD0Ev"                                      ; magicseg='TEXT32' len=30
  "__ZN20FlintSynonymTermListD1Ev"                                      ; magicseg='TEXT32' len=30
  "__ZN20FlintSynonymTermListD2Ev"                                      ; magicseg='TEXT32' len=30
  "__ZN20InMemoryAllTermsList4nextEv"                                   ; magicseg='TEXT32' len=33
  "__ZN20InMemoryAllTermsList7skip_toERKSs"                             ; magicseg='TEXT32' len=39
  "__ZN20InMemoryAllTermsListC1EPKSt3mapISs12InMemoryTermSt4lessISsESaISt4pairIKSsS1_EEEN6Xapian8Internal9RefCntPtrIK16InMemoryDatabaseEERS5_"                 ; magicseg='TEXT32' len=138
  "__ZN20InMemoryAllTermsListC2EPKSt3mapISs12InMemoryTermSt4lessISsESaISt4pairIKSsS1_EEEN6Xapian8Internal9RefCntPtrIK16InMemoryDatabaseEERS5_"                 ; magicseg='TEXT32' len=138
  "__ZN20InMemoryAllTermsListD0Ev"                                      ; magicseg='TEXT32' len=30
  "__ZN20InMemoryAllTermsListD1Ev"                                      ; magicseg='TEXT32' len=30
  "__ZN20InMemoryAllTermsListD2Ev"                                      ; magicseg='TEXT32' len=30
  "__ZN20InMemoryPositionList4nextEv"                                   ; magicseg='TEXT32' len=33
  "__ZN20InMemoryPositionList7skip_toEj"                                ; magicseg='TEXT32' len=36
  "__ZN20InMemoryPositionList8set_dataERKSt6vectorIjSaIjEE"             ; magicseg='TEXT32' len=55
  "__ZN20InMemoryPositionListC1ERKSt6vectorIjSaIjEE"                    ; magicseg='TEXT32' len=48
  "__ZN20InMemoryPositionListC1Ev"                                      ; magicseg='TEXT32' len=30  weak
  "__ZN20InMemoryPositionListC2ERKSt6vectorIjSaIjEE"                    ; magicseg='TEXT32' len=48
  "__ZN20InMemoryPositionListD0Ev"                                      ; magicseg='TEXT32' len=30  weak
  "__ZN20InMemoryPositionListD1Ev"                                      ; magicseg='TEXT32' len=30  weak
  "__ZN21FlintModifiedPostList12skip_deletesEd"                         ; magicseg='TEXT32' len=43
  "__ZN21FlintModifiedPostList18read_position_listEv"                   ; magicseg='TEXT32' len=49
  "__ZN21FlintModifiedPostList4nextEd"                                  ; magicseg='TEXT32' len=34
  "__ZN21FlintModifiedPostList7skip_toEjd"                              ; magicseg='TEXT32' len=38
  "__ZN21FlintModifiedPostListC1EN6Xapian8Internal9RefCntPtrIKNS0_8Database8InternalEEEPK10FlintTableS9_RKSsRKSt3mapIjSt4pairIcjESt4lessIjESaISD_IKjSE_EEE"    ; magicseg='TEXT32' len=151  weak
  "__ZN21FlintModifiedPostListD0Ev"                                     ; magicseg='TEXT32' len=31
  "__ZN21FlintModifiedPostListD1Ev"                                     ; magicseg='TEXT32' len=31
  "__ZN21FlintModifiedPostListD2Ev"                                     ; magicseg='TEXT32' len=31
  "__ZN21FlintSpellingTermList4nextEv"                                  ; magicseg='TEXT32' len=34
  "__ZN21FlintSpellingTermListC1ERKSs"                                  ; magicseg='TEXT32' len=34  weak
  "__ZN21FlintSpellingTermListD0Ev"                                     ; magicseg='TEXT32' len=31
  "__ZN21FlintSpellingTermListD1Ev"                                     ; magicseg='TEXT32' len=31
  "__ZN21FlintSpellingTermListD2Ev"                                     ; magicseg='TEXT32' len=31
  "__ZN21FlintWritableDatabase12add_documentERKN6Xapian8DocumentE"      ; magicseg='TEXT32' len=62
  "__ZN21FlintWritableDatabase13add_document_EjRKN6Xapian8DocumentE"    ; magicseg='TEXT32' len=64
  "__ZN21FlintWritableDatabase15delete_documentEj"                      ; magicseg='TEXT32' len=46
  "__ZN21FlintWritableDatabase15flush_thresholdE"                       ; magicseg='BSS32' len=45
  "__ZN21FlintWritableDatabase16replace_documentEjRKN6Xapian8DocumentE"                     ; magicseg='TEXT32' len=67
  "__ZN21FlintWritableDatabase5flushEv"                                 ; magicseg='TEXT32' len=35
  "__ZN21FlintWritableDatabase6cancelEv"                                ; magicseg='TEXT32' len=36
  "__ZN21FlintWritableDatabaseC1ERKSsii"                                ; magicseg='TEXT32' len=36
  "__ZN21FlintWritableDatabaseC2ERKSsii"                                ; magicseg='TEXT32' len=36
  "__ZN21FlintWritableDatabaseD0Ev"                                     ; magicseg='TEXT32' len=31
  "__ZN21FlintWritableDatabaseD1Ev"                                     ; magicseg='TEXT32' len=31
  "__ZN21FlintWritableDatabaseD2Ev"                                     ; magicseg='TEXT32' len=31
  "__ZN22FlintPositionListTable16set_positionlistEjRKSsN6Xapian16PositionIteratorERKS3_"    ; magicseg='TEXT32' len=84
  "__ZN22FlintPositionListTable19delete_positionlistEjRKSs"             ; magicseg='TEXT32' len=55  weak
  "__ZN22FlintPositionListTable8make_keyEjRKSs"                         ; magicseg='TEXT32' len=43  weak
  "__ZN22FlintPositionListTableC1ESsb"                                  ; magicseg='TEXT32' len=34  weak
  "__ZN22FlintPositionListTableD1Ev"                                    ; magicseg='TEXT32' len=32  weak
  "__ZN22FlintSpellingWordsList4nextEv"                                 ; magicseg='TEXT32' len=35
  "__ZN22FlintSpellingWordsList7skip_toERKSs"                           ; magicseg='TEXT32' len=41
  "__ZN22FlintSpellingWordsListC1EN6Xapian8Internal9RefCntPtrIKNS0_8Database8InternalEEEP11FlintCursor"                   ; magicseg='TEXT32' len=99  weak
  "__ZN22FlintSpellingWordsListD0Ev"                                    ; magicseg='TEXT32' len=32
  "__ZN22FlintSpellingWordsListD1Ev"                                    ; magicseg='TEXT32' len=32
  "__ZN22FlintSpellingWordsListD2Ev"                                    ; magicseg='TEXT32' len=32
  "__ZN23InMemoryAllDocsPostList18read_position_listEv"                 ; magicseg='TEXT32' len=51
  "__ZN23InMemoryAllDocsPostList4nextEd"                                ; magicseg='TEXT32' len=36
  "__ZN23InMemoryAllDocsPostList7skip_toEjd"                            ; magicseg='TEXT32' len=40
  "__ZN23InMemoryAllDocsPostListC1EN6Xapian8Internal9RefCntPtrIK16InMemoryDatabaseEE"       ; magicseg='TEXT32' len=81
  "__ZN23InMemoryAllDocsPostListC2EN6Xapian8Internal9RefCntPtrIK16InMemoryDatabaseEE"       ; magicseg='TEXT32' len=81
  "__ZN23InMemoryAllDocsPostListD0Ev"                                   ; magicseg='TEXT32' len=33  weak
  "__ZN23InMemoryAllDocsPostListD1Ev"                                   ; magicseg='TEXT32' len=33  weak
  "__ZN23InMemoryPostingLessThanclERK15InMemoryPostingS2_"              ; magicseg='TEXT32' len=54  weak
  "__ZN25ContiguousAllDocsPostList18read_position_listEv"               ; magicseg='TEXT32' len=53
  "__ZN25ContiguousAllDocsPostList4nextEd"                              ; magicseg='TEXT32' len=38
  "__ZN25ContiguousAllDocsPostList7skip_toEjd"                          ; magicseg='TEXT32' len=42
  "__ZN25ContiguousAllDocsPostListC1EN6Xapian8Internal9RefCntPtrIKNS0_8Database8InternalEEEj"                             ; magicseg='TEXT32' len=89  weak
  "__ZN25ContiguousAllDocsPostListD0Ev"                                 ; magicseg='TEXT32' len=35
  "__ZN25ContiguousAllDocsPostListD1Ev"                                 ; magicseg='TEXT32' len=35
  "__ZN25ContiguousAllDocsPostListD2Ev"                                 ; magicseg='TEXT32' len=35
  "__ZN25InMemoryTermEntryLessThanclERK17InMemoryTermEntryS2_"          ; magicseg='TEXT32' len=58  weak
  "__ZN25TermListGreaterApproxSizeclEPKN6Xapian12TermIterator8InternalES4_"                 ; magicseg='TEXT32' len=71  weak
  "__ZN26PrefixCompressedStringItorC1EPKhjRKSs"                         ; magicseg='TEXT32' len=43  weak
  "__ZN26PrefixCompressedStringItorC1ERKSs"                             ; magicseg='TEXT32' len=39  weak
  "__ZN26PrefixCompressedStringItorD1Ev"                                ; magicseg='TEXT32' len=36  weak
  "__ZN26PrefixCompressedStringItorppEi"                                ; magicseg='TEXT32' len=36  weak
  "__ZN26PrefixCompressedStringItorppEv"                                ; magicseg='TEXT32' len=36  weak
  "__ZN28PrefixCompressedStringWriter6appendERKSs"                      ; magicseg='TEXT32' len=46  weak
  "__ZN28PrefixCompressedStringWriterC1ERSs"                            ; magicseg='TEXT32' len=40  weak
  "__ZN28PrefixCompressedStringWriterD1Ev"                              ; magicseg='TEXT32' len=38  weak
  "__ZN4Key_C1EPKh"                                                     ; magicseg='TEXT32' len=15  weak
  "__ZN4Term9dont_stemEv"                                               ; magicseg='TEXT32' len=21  weak
  "__ZN4TermC1Ej"                                                       ; magicseg='TEXT32' len=13  weak
  "__ZN4TermC1EP5StateRKSsS3_S3_bj"                                     ; magicseg='TEXT32' len=31  weak
  "__ZN4TermC1ERKSs"                                                    ; magicseg='TEXT32' len=16  weak
  "__ZN4TermD1Ev"                                                       ; magicseg='TEXT32' len=13  weak
  "__ZN5Item_C1EPKhi"                                                   ; magicseg='TEXT32' len=17  weak
  "__ZN5RSetI15calculate_statsEv"                                       ; magicseg='TEXT32' len=29
  "__ZN5RSetI21will_want_reltermfreqESs"                                ; magicseg='TEXT32' len=36  weak
  "__ZN5RSetI25give_stats_to_statssourceEPN6Xapian6Weight8InternalE"    ; magicseg='TEXT32' len=64
  "__ZN5RSetIC1EPKN6Xapian8Database8InternalERKNS0_4RSetE"              ; magicseg='TEXT32' len=54  weak
  "__ZN5RSetIC1ERKN6Xapian8DatabaseERKNS0_4RSetE"                       ; magicseg='TEXT32' len=45  weak
  "__ZN5RSetID1Ev"                                                      ; magicseg='TEXT32' len=14  weak
  "__ZN5State11value_rangeERN6Xapian5QueryEP4TermS4_"                   ; magicseg='TEXT32' len=49  weak
  "__ZN5State13add_to_unstemERKSsS1_"                                   ; magicseg='TEXT32' len=33  weak
  "__ZN5State15add_to_stoplistEPK4Term"                                 ; magicseg='TEXT32' len=35  weak
  "__ZN5State9stem_termERKSs"                                           ; magicseg='TEXT32' len=25  weak
  "__ZN5StateC1EPN6Xapian11QueryParser8InternalEj"                      ; magicseg='TEXT32' len=46  weak
  "__ZN5StateD1Ev"                                                      ; magicseg='TEXT32' len=14  weak
  "__ZN5StatsC1Ev"                                                      ; magicseg='TEXT32' len=14  weak
  "__ZN5StatsD1Ev"                                                      ; magicseg='TEXT32' len=14  weak
  "__ZN5StatspLERKS_"                                                   ; magicseg='TEXT32' len=17  weak
  "__ZN6Xapian10BM25WeightC1Eddddd"                                     ; magicseg='TEXT32' len=31  weak
  "__ZN6Xapian10BM25WeightC1Ev"                                         ; magicseg='TEXT32' len=27  weak
  "__ZN6Xapian10BM25WeightD0Ev"                                         ; magicseg='TEXT32' len=27  weak
  "__ZN6Xapian10BM25WeightD1Ev"                                         ; magicseg='TEXT32' len=27  weak
  "__ZN6Xapian10BoolWeightC1Ev"                                         ; magicseg='TEXT32' len=27  weak
  "__ZN6Xapian10BoolWeightD0Ev"                                         ; magicseg='TEXT32' len=27
  "__ZN6Xapian10BoolWeightD1Ev"                                         ; magicseg='TEXT32' len=27
  "__ZN6Xapian10BoolWeightD2Ev"                                         ; magicseg='TEXT32' len=27
  "__ZN6Xapian10LogicErrorC2ERKSsS2_PKci"                               ; magicseg='TEXT32' len=37  weak
  "__ZN6Xapian10LogicErrorD2Ev"                                         ; magicseg='TEXT32' len=27  weak
  "__ZN6Xapian10RangeErrorC1ERKSsS2_i"                                  ; magicseg='TEXT32' len=34  weak
  "__ZN6Xapian10RangeErrorD1Ev"                                         ; magicseg='TEXT32' len=27  weak
  "__ZN6Xapian10TradWeightC1Ed"                                         ; magicseg='TEXT32' len=27  weak
  "__ZN6Xapian10TradWeightD0Ev"                                         ; magicseg='TEXT32' len=27  weak
  "__ZN6Xapian10TradWeightD1Ev"                                         ; magicseg='TEXT32' len=27  weak
  "__ZN6Xapian11check_infixEj"                                          ; magicseg='TEXT32' len=26  weak
  "__ZN6Xapian11QueryParser10add_prefixERKSsS2_"                        ; magicseg='TEXT32' len=44
  "__ZN6Xapian11QueryParser11parse_queryERKSsjS2_"                      ; magicseg='TEXT32' len=46
  "__ZN6Xapian11QueryParser11set_stemmerERKNS_4StemE"                   ; magicseg='TEXT32' len=49
  "__ZN6Xapian11QueryParser11set_stopperEPKNS_7StopperE"                ; magicseg='TEXT32' len=52
  "__ZN6Xapian11QueryParser12set_databaseERKNS_8DatabaseE"              ; magicseg='TEXT32' len=54
  "__ZN6Xapian11QueryParser14set_default_opENS_5Query2opE"              ; magicseg='TEXT32' len=54
  "__ZN6Xapian11QueryParser18add_boolean_prefixERKSsS2_"                ; magicseg='TEXT32' len=52
  "__ZN6Xapian11QueryParser21set_stemming_strategyENS0_13stem_strategyE"                    ; magicseg='TEXT32' len=68
  "__ZN6Xapian11QueryParser23add_valuerangeprocessorEPNS_19ValueRangeProcessorE"            ; magicseg='TEXT32' len=76
  "__ZN6Xapian11QueryParser8Internal10parse_termERNS_12Utf8IteratorERKS2_Rb"                ; magicseg='TEXT32' len=72
  "__ZN6Xapian11QueryParser8Internal11parse_queryERKSsjS3_"             ; magicseg='TEXT32' len=55
  "__ZN6Xapian11QueryParser8InternalC1Ev"                               ; magicseg='TEXT32' len=37  weak
  "__ZN6Xapian11QueryParser8InternalD1Ev"                               ; magicseg='TEXT32' len=37  weak
  "__ZN6Xapian11QueryParseraSERKS0_"                                    ; magicseg='TEXT32' len=32
  "__ZN6Xapian11QueryParserC1ERKS0_"                                    ; magicseg='TEXT32' len=32
  "__ZN6Xapian11QueryParserC1Ev"                                        ; magicseg='TEXT32' len=28
  "__ZN6Xapian11QueryParserC2ERKS0_"                                    ; magicseg='TEXT32' len=32
  "__ZN6Xapian11QueryParserC2Ev"                                        ; magicseg='TEXT32' len=28
  "__ZN6Xapian11QueryParserD1Ev"                                        ; magicseg='TEXT32' len=28
  "__ZN6Xapian11QueryParserD2Ev"                                        ; magicseg='TEXT32' len=28
  "__ZN6Xapian11should_stemERKSs"                                       ; magicseg='TEXT32' len=29  weak
  "__ZN6Xapian12check_suffixEj"                                         ; magicseg='TEXT32' len=27  weak
  "__ZN6Xapian12ErrorHandlerclERNS_5ErrorE"                             ; magicseg='TEXT32' len=39
  "__ZN6Xapian12ErrorHandlerD0Ev"                                       ; magicseg='TEXT32' len=29
  "__ZN6Xapian12ErrorHandlerD1Ev"                                       ; magicseg='TEXT32' len=29
  "__ZN6Xapian12ErrorHandlerD2Ev"                                       ; magicseg='TEXT32' len=29
  "__ZN6Xapian12ESetIteratorC1EjRKNS_4ESetE"                            ; magicseg='TEXT32' len=40  weak
  "__ZN6Xapian12MatchDeciderD0Ev"                                       ; magicseg='TEXT32' len=29
  "__ZN6Xapian12MatchDeciderD1Ev"                                       ; magicseg='TEXT32' len=29
  "__ZN6Xapian12MatchDeciderD2Ev"                                       ; magicseg='TEXT32' len=29
  "__ZN6Xapian12MSetIteratorC1EjRKNS_4MSetE"                            ; magicseg='TEXT32' len=40  weak
  "__ZN6Xapian12NetworkErrorC1ERKSsS2_i"                                ; magicseg='TEXT32' len=36  weak
  "__ZN6Xapian12NetworkErrorD1Ev"                                       ; magicseg='TEXT32' len=29  weak
  "__ZN6Xapian12RuntimeErrorC2ERKSsS2_PKci"                             ; magicseg='TEXT32' len=39  weak
  "__ZN6Xapian12RuntimeErrorD2Ev"                                       ; magicseg='TEXT32' len=29  weak
  "__ZN6Xapian12TermIterator7skip_toERKSs"                              ; magicseg='TEXT32' len=38
  "__ZN6Xapian12TermIterator8Internal7skip_toERKSs"                     ; magicseg='TEXT32' len=47
  "__ZN6Xapian12TermIterator8InternalC2Ev"                              ; magicseg='TEXT32' len=38  weak
  "__ZN6Xapian12TermIterator8InternalD0Ev"                              ; magicseg='TEXT32' len=38
  "__ZN6Xapian12TermIterator8InternalD1Ev"                              ; magicseg='TEXT32' len=38
  "__ZN6Xapian12TermIterator8InternalD2Ev"                              ; magicseg='TEXT32' len=38
  "__ZN6Xapian12TermIteratoraSERKS0_"                                   ; magicseg='TEXT32' len=33
  "__ZN6Xapian12TermIteratorC1EPNS0_8InternalE"                         ; magicseg='TEXT32' len=43
  "__ZN6Xapian12TermIteratorC1ERKS0_"                                   ; magicseg='TEXT32' len=33
  "__ZN6Xapian12TermIteratorC1Ev"                                       ; magicseg='TEXT32' len=29
  "__ZN6Xapian12TermIteratorC2EPNS0_8InternalE"                         ; magicseg='TEXT32' len=43
  "__ZN6Xapian12TermIteratorC2ERKS0_"                                   ; magicseg='TEXT32' len=33
  "__ZN6Xapian12TermIteratorC2Ev"                                       ; magicseg='TEXT32' len=29
  "__ZN6Xapian12TermIteratorD1Ev"                                       ; magicseg='TEXT32' len=29
  "__ZN6Xapian12TermIteratorD2Ev"                                       ; magicseg='TEXT32' len=29
  "__ZN6Xapian12TermIteratorppEi"                                       ; magicseg='TEXT32' len=29  weak
  "__ZN6Xapian12TermIteratorppEv"                                       ; magicseg='TEXT32' len=29
  "__ZN6Xapian12Utf8Iterator6assignEPKcj"                               ; magicseg='TEXT32' len=37  weak
  "__ZN6Xapian12Utf8IteratorC1EPKc"                                     ; magicseg='TEXT32' len=31
  "__ZN6Xapian12Utf8IteratorC1EPKhS2_j"                                 ; magicseg='TEXT32' len=35  weak
  "__ZN6Xapian12Utf8IteratorC1ERKSs"                                    ; magicseg='TEXT32' len=32  weak
  "__ZN6Xapian12Utf8IteratorC1Ev"                                       ; magicseg='TEXT32' len=29  weak
  "__ZN6Xapian12Utf8IteratorC2EPKc"                                     ; magicseg='TEXT32' len=31
  "__ZN6Xapian12Utf8IteratorppEi"                                       ; magicseg='TEXT32' len=29  weak
  "__ZN6Xapian12Utf8IteratorppEv"                                       ; magicseg='TEXT32' len=29  weak
  "__ZN6Xapian13DatabaseErrorC1ERKSsi"                                  ; magicseg='TEXT32' len=34  weak
  "__ZN6Xapian13DatabaseErrorC1ERKSsS2_i"                               ; magicseg='TEXT32' len=37  weak
  "__ZN6Xapian13DatabaseErrorC2ERKSsS2_PKci"                            ; magicseg='TEXT32' len=40  weak
  "__ZN6Xapian13DatabaseErrorD1Ev"                                      ; magicseg='TEXT32' len=30  weak
  "__ZN6Xapian13DatabaseErrorD2Ev"                                      ; magicseg='TEXT32' len=30  weak
  "__ZN6Xapian13ExpandDeciderC2Ev"                                      ; magicseg='TEXT32' len=30  weak
  "__ZN6Xapian13ExpandDeciderD0Ev"                                      ; magicseg='TEXT32' len=30
  "__ZN6Xapian13ExpandDeciderD1Ev"                                      ; magicseg='TEXT32' len=30
  "__ZN6Xapian13ExpandDeciderD2Ev"                                      ; magicseg='TEXT32' len=30
  "__ZN6Xapian13InternalErrorC1ERKSsS2_i"                               ; magicseg='TEXT32' len=37  weak
  "__ZN6Xapian13InternalErrorD1Ev"                                      ; magicseg='TEXT32' len=30  weak
  "__ZN6Xapian13major_versionEv"                                        ; magicseg='TEXT32' len=28
  "__ZN6Xapian13minor_versionEv"                                        ; magicseg='TEXT32' len=28
  "__ZN6Xapian13SimpleStopperD0Ev"                                      ; magicseg='TEXT32' len=30  weak
  "__ZN6Xapian13SimpleStopperD1Ev"                                      ; magicseg='TEXT32' len=30  weak
  "__ZN6Xapian13TermGenerator10index_textERKNS_12Utf8IteratorEjRKSs"    ; magicseg='TEXT32' len=64
  "__ZN6Xapian13TermGenerator11set_stemmerERKNS_4StemE"                 ; magicseg='TEXT32' len=51
  "__ZN6Xapian13TermGenerator11set_stopperEPKNS_7StopperE"              ; magicseg='TEXT32' len=54
  "__ZN6Xapian13TermGenerator11set_termposEj"                           ; magicseg='TEXT32' len=41
  "__ZN6Xapian13TermGenerator12set_databaseERKNS_16WritableDatabaseE"                       ; magicseg='TEXT32' len=65
  "__ZN6Xapian13TermGenerator12set_documentERKNS_8DocumentE"            ; magicseg='TEXT32' len=56
  "__ZN6Xapian13TermGenerator16increase_termposEj"                      ; magicseg='TEXT32' len=46
  "__ZN6Xapian13TermGenerator28index_text_without_positionsERKNS_12Utf8IteratorEjRKSs"      ; magicseg='TEXT32' len=82
  "__ZN6Xapian13TermGenerator8Internal10index_textENS_12Utf8IteratorEjRKSsb"                ; magicseg='TEXT32' len=72
  "__ZN6Xapian13TermGenerator8InternalC1Ev"                             ; magicseg='TEXT32' len=39  weak
  "__ZN6Xapian13TermGenerator8InternalD1Ev"                             ; magicseg='TEXT32' len=39  weak
  "__ZN6Xapian13TermGenerator9set_flagsENS0_5flagsES1_"                 ; magicseg='TEXT32' len=51
  "__ZN6Xapian13TermGeneratoraSERKS0_"                                  ; magicseg='TEXT32' len=34
  "__ZN6Xapian13TermGeneratorC1ERKS0_"                                  ; magicseg='TEXT32' len=34
  "__ZN6Xapian13TermGeneratorC1Ev"                                      ; magicseg='TEXT32' len=30
  "__ZN6Xapian13TermGeneratorC2ERKS0_"                                  ; magicseg='TEXT32' len=34
  "__ZN6Xapian13TermGeneratorC2Ev"                                      ; magicseg='TEXT32' len=30
  "__ZN6Xapian13TermGeneratorD1Ev"                                      ; magicseg='TEXT32' len=30
  "__ZN6Xapian13TermGeneratorD2Ev"                                      ; magicseg='TEXT32' len=30
  "__ZN6Xapian13ValueIteratorC1EjRKNS_8DocumentE"                       ; magicseg='TEXT32' len=45  weak
  "__ZN6Xapian13ValueIteratorD1Ev"                                      ; magicseg='TEXT32' len=30  weak
  "__ZN6Xapian13ValueIteratorppEv"                                      ; magicseg='TEXT32' len=30  weak
  "__ZN6Xapian14check_wordcharEj"                                       ; magicseg='TEXT32' len=29  weak
  "__ZN6Xapian14version_stringEv"                                       ; magicseg='TEXT32' len=29
  "__ZN6Xapian15ByQueryIndexCmpC1ERKSt3mapISsjSt4lessISsESaISt4pairIKSsjEEE"                ; magicseg='TEXT32' len=72  weak
  "__ZN6Xapian15PostingIterator7skip_toEj"                              ; magicseg='TEXT32' len=38
  "__ZN6Xapian15PostingIterator8Internal4nextEv"                        ; magicseg='TEXT32' len=44  weak
  "__ZN6Xapian15PostingIterator8InternalC2Ev"                           ; magicseg='TEXT32' len=41  weak
  "__ZN6Xapian15PostingIterator8InternalD0Ev"                           ; magicseg='TEXT32' len=41  weak
  "__ZN6Xapian15PostingIterator8InternalD1Ev"                           ; magicseg='TEXT32' len=41  weak
  "__ZN6Xapian15PostingIterator8InternalD2Ev"                           ; magicseg='TEXT32' len=41  weak
  "__ZN6Xapian15PostingIteratoraSERKS0_"                                ; magicseg='TEXT32' len=36
  "__ZN6Xapian15PostingIteratorC1EPNS0_8InternalE"                      ; magicseg='TEXT32' len=46
  "__ZN6Xapian15PostingIteratorC1ERKS0_"                                ; magicseg='TEXT32' len=36
  "__ZN6Xapian15PostingIteratorC1Ev"                                    ; magicseg='TEXT32' len=32
  "__ZN6Xapian15PostingIteratorC2EPNS0_8InternalE"                      ; magicseg='TEXT32' len=46
  "__ZN6Xapian15PostingIteratorC2ERKS0_"                                ; magicseg='TEXT32' len=36
  "__ZN6Xapian15PostingIteratorC2Ev"                                    ; magicseg='TEXT32' len=32
  "__ZN6Xapian15PostingIteratorD1Ev"                                    ; magicseg='TEXT32' len=32
  "__ZN6Xapian15PostingIteratorD2Ev"                                    ; magicseg='TEXT32' len=32
  "__ZN6Xapian15PostingIteratorppEv"                                    ; magicseg='TEXT32' len=32
  "__ZN6Xapian15TermNameWrapperC1ERKSs"                                 ; magicseg='TEXT32' len=35  weak
  "__ZN6Xapian15TermNameWrapperD1Ev"                                    ; magicseg='TEXT32' len=32  weak
  "__ZN6Xapian15xapian_revisionEv"                                      ; magicseg='TEXT32' len=30
  "__ZN6Xapian16DocNotFoundErrorC1ERKSsS2_i"                            ; magicseg='TEXT32' len=40  weak
  "__ZN6Xapian16DocNotFoundErrorD1Ev"                                   ; magicseg='TEXT32' len=33  weak
  "__ZN6Xapian16ExpandDeciderAndC1EPKNS_13ExpandDeciderES3_"            ; magicseg='TEXT32' len=56  weak
  "__ZN6Xapian16ExpandDeciderAndD0Ev"                                   ; magicseg='TEXT32' len=33  weak
  "__ZN6Xapian16ExpandDeciderAndD1Ev"                                   ; magicseg='TEXT32' len=33  weak
  "__ZN6Xapian16PositionIterator7skip_toEj"                             ; magicseg='TEXT32' len=39
  "__ZN6Xapian16PositionIterator8InternalC2Ev"                          ; magicseg='TEXT32' len=42  weak
  "__ZN6Xapian16PositionIterator8InternalD0Ev"                          ; magicseg='TEXT32' len=42  weak
  "__ZN6Xapian16PositionIterator8InternalD1Ev"                          ; magicseg='TEXT32' len=42  weak
  "__ZN6Xapian16PositionIterator8InternalD2Ev"                          ; magicseg='TEXT32' len=42  weak
  "__ZN6Xapian16PositionIteratoraSERKS0_"                               ; magicseg='TEXT32' len=37
  "__ZN6Xapian16PositionIteratorC1EPNS0_8InternalE"                     ; magicseg='TEXT32' len=47
  "__ZN6Xapian16PositionIteratorC1ERKS0_"                               ; magicseg='TEXT32' len=37
  "__ZN6Xapian16PositionIteratorC1Ev"                                   ; magicseg='TEXT32' len=33
  "__ZN6Xapian16PositionIteratorC2EPNS0_8InternalE"                     ; magicseg='TEXT32' len=47
  "__ZN6Xapian16PositionIteratorC2ERKS0_"                               ; magicseg='TEXT32' len=37
  "__ZN6Xapian16PositionIteratorC2Ev"                                   ; magicseg='TEXT32' len=33
  "__ZN6Xapian16PositionIteratorD1Ev"                                   ; magicseg='TEXT32' len=33
  "__ZN6Xapian16PositionIteratorD2Ev"                                   ; magicseg='TEXT32' len=33
  "__ZN6Xapian16PositionIteratorppEv"                                   ; magicseg='TEXT32' len=33
  "__ZN6Xapian16QueryParserErrorC1ERKSsS2_i"                            ; magicseg='TEXT32' len=40  weak
  "__ZN6Xapian16QueryParserErrorD1Ev"                                   ; magicseg='TEXT32' len=33  weak
  "__ZN6Xapian16WritableDatabase12add_documentERKNS_8DocumentE"         ; magicseg='TEXT32' len=59
  "__ZN6Xapian16WritableDatabase15delete_documentEj"                    ; magicseg='TEXT32' len=48
  "__ZN6Xapian16WritableDatabase15delete_documentERKSs"                 ; magicseg='TEXT32' len=51
  "__ZN6Xapian16WritableDatabase16replace_documentEjRKNS_8DocumentE"    ; magicseg='TEXT32' len=64
  "__ZN6Xapian16WritableDatabase16replace_documentERKSsRKNS_8DocumentE"                     ; magicseg='TEXT32' len=67
  "__ZN6Xapian16WritableDatabase17begin_transactionEb"                  ; magicseg='TEXT32' len=50
  "__ZN6Xapian16WritableDatabase18cancel_transactionEv"                 ; magicseg='TEXT32' len=51
  "__ZN6Xapian16WritableDatabase18commit_transactionEv"                 ; magicseg='TEXT32' len=51
  "__ZN6Xapian16WritableDatabase5flushEv"                               ; magicseg='TEXT32' len=37
  "__ZN6Xapian16WritableDatabaseaSERKS0_"                               ; magicseg='TEXT32' len=37
  "__ZN6Xapian16WritableDatabaseC1EPNS_8Database8InternalE"             ; magicseg='TEXT32' len=55
  "__ZN6Xapian16WritableDatabaseC1ERKS0_"                               ; magicseg='TEXT32' len=37
  "__ZN6Xapian16WritableDatabaseC1ERKSsi"                               ; magicseg='TEXT32' len=37
  "__ZN6Xapian16WritableDatabaseC1Ev"                                   ; magicseg='TEXT32' len=33
  "__ZN6Xapian16WritableDatabaseC2EPNS_8Database8InternalE"             ; magicseg='TEXT32' len=55
  "__ZN6Xapian16WritableDatabaseC2ERKS0_"                               ; magicseg='TEXT32' len=37
  "__ZN6Xapian16WritableDatabaseC2ERKSsi"                               ; magicseg='TEXT32' len=37
  "__ZN6Xapian16WritableDatabaseC2Ev"                                   ; magicseg='TEXT32' len=33
  "__ZN6Xapian16WritableDatabaseD0Ev"                                   ; magicseg='TEXT32' len=33
  "__ZN6Xapian16WritableDatabaseD1Ev"                                   ; magicseg='TEXT32' len=33
  "__ZN6Xapian16WritableDatabaseD2Ev"                                   ; magicseg='TEXT32' len=33
  "__ZN6Xapian17check_infix_digitEj"                                    ; magicseg='TEXT32' len=32  weak
  "__ZN6Xapian17DatabaseLockErrorC1ERKSsS2_i"                           ; magicseg='TEXT32' len=41  weak
  "__ZN6Xapian17DatabaseLockErrorD1Ev"                                  ; magicseg='TEXT32' len=34  weak
  "__ZN6Xapian17InternalStemDutch10r_e_endingEv"                        ; magicseg='TEXT32' len=44
  "__ZN6Xapian17InternalStemDutch10r_postludeEv"                        ; magicseg='TEXT32' len=44
  "__ZN6Xapian17InternalStemDutch10r_undoubleEv"                        ; magicseg='TEXT32' len=44
  "__ZN6Xapian17InternalStemDutch11r_en_endingEv"                       ; magicseg='TEXT32' len=45
  "__ZN6Xapian17InternalStemDutch14r_mark_regionsEv"                    ; magicseg='TEXT32' len=48
  "__ZN6Xapian17InternalStemDutch17r_standard_suffixEv"                 ; magicseg='TEXT32' len=51
  "__ZN6Xapian17InternalStemDutch4r_R1Ev"                               ; magicseg='TEXT32' len=37
  "__ZN6Xapian17InternalStemDutch4r_R2Ev"                               ; magicseg='TEXT32' len=37
  "__ZN6Xapian17InternalStemDutch4stemEv"                               ; magicseg='TEXT32' len=37
  "__ZN6Xapian17InternalStemDutch9r_preludeEv"                          ; magicseg='TEXT32' len=42
  "__ZN6Xapian17InternalStemDutchC1Ev"                                  ; magicseg='TEXT32' len=34
  "__ZN6Xapian17InternalStemDutchC2Ev"                                  ; magicseg='TEXT32' len=34
  "__ZN6Xapian17InternalStemDutchD0Ev"                                  ; magicseg='TEXT32' len=34
  "__ZN6Xapian17InternalStemDutchD1Ev"                                  ; magicseg='TEXT32' len=34
  "__ZN6Xapian17InternalStemDutchD2Ev"                                  ; magicseg='TEXT32' len=34
  "__ZN6Xapian18InternalStemDanish10r_undoubleEv"                       ; magicseg='TEXT32' len=45
  "__ZN6Xapian18InternalStemDanish13r_main_suffixEv"                    ; magicseg='TEXT32' len=48
  "__ZN6Xapian18InternalStemDanish14r_mark_regionsEv"                   ; magicseg='TEXT32' len=49
  "__ZN6Xapian18InternalStemDanish14r_other_suffixEv"                   ; magicseg='TEXT32' len=49
  "__ZN6Xapian18InternalStemDanish16r_consonant_pairEv"                 ; magicseg='TEXT32' len=51
  "__ZN6Xapian18InternalStemDanish4stemEv"                              ; magicseg='TEXT32' len=38
  "__ZN6Xapian18InternalStemDanishC1Ev"                                 ; magicseg='TEXT32' len=35
  "__ZN6Xapian18InternalStemDanishC2Ev"                                 ; magicseg='TEXT32' len=35
  "__ZN6Xapian18InternalStemDanishD0Ev"                                 ; magicseg='TEXT32' len=35
  "__ZN6Xapian18InternalStemDanishD1Ev"                                 ; magicseg='TEXT32' len=35
  "__ZN6Xapian18InternalStemDanishD2Ev"                                 ; magicseg='TEXT32' len=35
  "__ZN6Xapian18InternalStemFrench10r_postludeEv"                       ; magicseg='TEXT32' len=45
  "__ZN6Xapian18InternalStemFrench11r_un_accentEv"                      ; magicseg='TEXT32' len=46
  "__ZN6Xapian18InternalStemFrench11r_un_doubleEv"                      ; magicseg='TEXT32' len=46
  "__ZN6Xapian18InternalStemFrench13r_verb_suffixEv"                    ; magicseg='TEXT32' len=48
  "__ZN6Xapian18InternalStemFrench14r_mark_regionsEv"                   ; magicseg='TEXT32' len=49
  "__ZN6Xapian18InternalStemFrench15r_i_verb_suffixEv"                  ; magicseg='TEXT32' len=50
  "__ZN6Xapian18InternalStemFrench17r_residual_suffixEv"                ; magicseg='TEXT32' len=52
  "__ZN6Xapian18InternalStemFrench17r_standard_suffixEv"                ; magicseg='TEXT32' len=52
  "__ZN6Xapian18InternalStemFrench4r_R1Ev"                              ; magicseg='TEXT32' len=38
  "__ZN6Xapian18InternalStemFrench4r_R2Ev"                              ; magicseg='TEXT32' len=38
  "__ZN6Xapian18InternalStemFrench4r_RVEv"                              ; magicseg='TEXT32' len=38
  "__ZN6Xapian18InternalStemFrench4stemEv"                              ; magicseg='TEXT32' len=38
  "__ZN6Xapian18InternalStemFrench9r_preludeEv"                         ; magicseg='TEXT32' len=43
  "__ZN6Xapian18InternalStemFrenchC1Ev"                                 ; magicseg='TEXT32' len=35
  "__ZN6Xapian18InternalStemFrenchC2Ev"                                 ; magicseg='TEXT32' len=35
  "__ZN6Xapian18InternalStemFrenchD0Ev"                                 ; magicseg='TEXT32' len=35
  "__ZN6Xapian18InternalStemFrenchD1Ev"                                 ; magicseg='TEXT32' len=35
  "__ZN6Xapian18InternalStemFrenchD2Ev"                                 ; magicseg='TEXT32' len=35
  "__ZN6Xapian18InternalStemGerman10r_postludeEv"                       ; magicseg='TEXT32' len=45
  "__ZN6Xapian18InternalStemGerman14r_mark_regionsEv"                   ; magicseg='TEXT32' len=49
  "__ZN6Xapian18InternalStemGerman17r_standard_suffixEv"                ; magicseg='TEXT32' len=52
  "__ZN6Xapian18InternalStemGerman4r_R1Ev"                              ; magicseg='TEXT32' len=38
  "__ZN6Xapian18InternalStemGerman4r_R2Ev"                              ; magicseg='TEXT32' len=38
  "__ZN6Xapian18InternalStemGerman4stemEv"                              ; magicseg='TEXT32' len=38
  "__ZN6Xapian18InternalStemGerman9r_preludeEv"                         ; magicseg='TEXT32' len=43
  "__ZN6Xapian18InternalStemGermanC1Ev"                                 ; magicseg='TEXT32' len=35
  "__ZN6Xapian18InternalStemGermanC2Ev"                                 ; magicseg='TEXT32' len=35
  "__ZN6Xapian18InternalStemGermanD0Ev"                                 ; magicseg='TEXT32' len=35
  "__ZN6Xapian18InternalStemGermanD1Ev"                                 ; magicseg='TEXT32' len=35
  "__ZN6Xapian18InternalStemGermanD2Ev"                                 ; magicseg='TEXT32' len=35
  "__ZN6Xapian18InternalStemLovins10r_undoubleEv"                       ; magicseg='TEXT32' len=45
  "__ZN6Xapian18InternalStemLovins3r_AEv"                               ; magicseg='TEXT32' len=37
  "__ZN6Xapian18InternalStemLovins3r_BEv"                               ; magicseg='TEXT32' len=37
  "__ZN6Xapian18InternalStemLovins3r_CEv"                               ; magicseg='TEXT32' len=37
  "__ZN6Xapian18InternalStemLovins3r_DEv"                               ; magicseg='TEXT32' len=37
  "__ZN6Xapian18InternalStemLovins3r_EEv"                               ; magicseg='TEXT32' len=37
  "__ZN6Xapian18InternalStemLovins3r_FEv"                               ; magicseg='TEXT32' len=37
  "__ZN6Xapian18InternalStemLovins3r_GEv"                               ; magicseg='TEXT32' len=37
  "__ZN6Xapian18InternalStemLovins3r_HEv"                               ; magicseg='TEXT32' len=37
  "__ZN6Xapian18InternalStemLovins3r_IEv"                               ; magicseg='TEXT32' len=37
  "__ZN6Xapian18InternalStemLovins3r_JEv"                               ; magicseg='TEXT32' len=37
  "__ZN6Xapian18InternalStemLovins3r_KEv"                               ; magicseg='TEXT32' len=37
  "__ZN6Xapian18InternalStemLovins3r_LEv"                               ; magicseg='TEXT32' len=37
  "__ZN6Xapian18InternalStemLovins3r_MEv"                               ; magicseg='TEXT32' len=37
  "__ZN6Xapian18InternalStemLovins3r_NEv"                               ; magicseg='TEXT32' len=37
  "__ZN6Xapian18InternalStemLovins3r_OEv"                               ; magicseg='TEXT32' len=37
  "__ZN6Xapian18InternalStemLovins3r_PEv"                               ; magicseg='TEXT32' len=37
  "__ZN6Xapian18InternalStemLovins3r_QEv"                               ; magicseg='TEXT32' len=37
  "__ZN6Xapian18InternalStemLovins3r_REv"                               ; magicseg='TEXT32' len=37
  "__ZN6Xapian18InternalStemLovins3r_SEv"                               ; magicseg='TEXT32' len=37
  "__ZN6Xapian18InternalStemLovins3r_TEv"                               ; magicseg='TEXT32' len=37
  "__ZN6Xapian18InternalStemLovins3r_UEv"                               ; magicseg='TEXT32' len=37
  "__ZN6Xapian18InternalStemLovins3r_VEv"                               ; magicseg='TEXT32' len=37
  "__ZN6Xapian18InternalStemLovins3r_WEv"                               ; magicseg='TEXT32' len=37
  "__ZN6Xapian18InternalStemLovins3r_XEv"                               ; magicseg='TEXT32' len=37
  "__ZN6Xapian18InternalStemLovins3r_YEv"                               ; magicseg='TEXT32' len=37
  "__ZN6Xapian18InternalStemLovins3r_ZEv"                               ; magicseg='TEXT32' len=37
  "__ZN6Xapian18InternalStemLovins4r_AAEv"                              ; magicseg='TEXT32' len=38
  "__ZN6Xapian18InternalStemLovins4r_BBEv"                              ; magicseg='TEXT32' len=38
  "__ZN6Xapian18InternalStemLovins4r_CCEv"                              ; magicseg='TEXT32' len=38
  "__ZN6Xapian18InternalStemLovins4stemEv"                              ; magicseg='TEXT32' len=38
  "__ZN6Xapian18InternalStemLovins9r_endingsEv"                         ; magicseg='TEXT32' len=43
  "__ZN6Xapian18InternalStemLovins9r_respellEv"                         ; magicseg='TEXT32' len=43
  "__ZN6Xapian18InternalStemLovinsC1Ev"                                 ; magicseg='TEXT32' len=35
  "__ZN6Xapian18InternalStemLovinsC2Ev"                                 ; magicseg='TEXT32' len=35
  "__ZN6Xapian18InternalStemLovinsD0Ev"                                 ; magicseg='TEXT32' len=35
  "__ZN6Xapian18InternalStemLovinsD1Ev"                                 ; magicseg='TEXT32' len=35
  "__ZN6Xapian18InternalStemLovinsD2Ev"                                 ; magicseg='TEXT32' len=35
  "__ZN6Xapian18InternalStemPorter4r_R1Ev"                              ; magicseg='TEXT32' len=38
  "__ZN6Xapian18InternalStemPorter4r_R2Ev"                              ; magicseg='TEXT32' len=38
  "__ZN6Xapian18InternalStemPorter4stemEv"                              ; magicseg='TEXT32' len=38
  "__ZN6Xapian18InternalStemPorter8r_shortvEv"                          ; magicseg='TEXT32' len=42
  "__ZN6Xapian18InternalStemPorter8r_Step_2Ev"                          ; magicseg='TEXT32' len=42
  "__ZN6Xapian18InternalStemPorter8r_Step_3Ev"                          ; magicseg='TEXT32' len=42
  "__ZN6Xapian18InternalStemPorter8r_Step_4Ev"                          ; magicseg='TEXT32' len=42
  "__ZN6Xapian18InternalStemPorter9r_Step_1aEv"                         ; magicseg='TEXT32' len=43
  "__ZN6Xapian18InternalStemPorter9r_Step_1bEv"                         ; magicseg='TEXT32' len=43
  "__ZN6Xapian18InternalStemPorter9r_Step_1cEv"                         ; magicseg='TEXT32' len=43
  "__ZN6Xapian18InternalStemPorter9r_Step_5aEv"                         ; magicseg='TEXT32' len=43
  "__ZN6Xapian18InternalStemPorter9r_Step_5bEv"                         ; magicseg='TEXT32' len=43
  "__ZN6Xapian18InternalStemPorterC1Ev"                                 ; magicseg='TEXT32' len=35
  "__ZN6Xapian18InternalStemPorterC2Ev"                                 ; magicseg='TEXT32' len=35
  "__ZN6Xapian18InternalStemPorterD0Ev"                                 ; magicseg='TEXT32' len=35
  "__ZN6Xapian18InternalStemPorterD1Ev"                                 ; magicseg='TEXT32' len=35
  "__ZN6Xapian18InternalStemPorterD2Ev"                                 ; magicseg='TEXT32' len=35
  "__ZN6Xapian18sortable_serialiseEd"                                   ; magicseg='TEXT32' len=33
  "__ZN6Xapian18UnimplementedErrorC1ERKSsS2_i"                          ; magicseg='TEXT32' len=42  weak
  "__ZN6Xapian18UnimplementedErrorD1Ev"                                 ; magicseg='TEXT32' len=35  weak
  "__ZN6Xapian19DatabaseCreateErrorC1ERKSsS2_i"                         ; magicseg='TEXT32' len=43  weak
  "__ZN6Xapian19DatabaseCreateErrorD1Ev"                                ; magicseg='TEXT32' len=36  weak
  "__ZN6Xapian19InternalStemEnglish10r_postludeEv"                      ; magicseg='TEXT32' len=46
  "__ZN6Xapian19InternalStemEnglish12r_exception1Ev"                    ; magicseg='TEXT32' len=48
  "__ZN6Xapian19InternalStemEnglish12r_exception2Ev"                    ; magicseg='TEXT32' len=48
  "__ZN6Xapian19InternalStemEnglish14r_mark_regionsEv"                  ; magicseg='TEXT32' len=50
  "__ZN6Xapian19InternalStemEnglish4r_R1Ev"                             ; magicseg='TEXT32' len=39
  "__ZN6Xapian19InternalStemEnglish4r_R2Ev"                             ; magicseg='TEXT32' len=39
  "__ZN6Xapian19InternalStemEnglish4stemEv"                             ; magicseg='TEXT32' len=39
  "__ZN6Xapian19InternalStemEnglish8r_shortvEv"                         ; magicseg='TEXT32' len=43
  "__ZN6Xapian19InternalStemEnglish8r_Step_2Ev"                         ; magicseg='TEXT32' len=43
  "__ZN6Xapian19InternalStemEnglish8r_Step_3Ev"                         ; magicseg='TEXT32' len=43
  "__ZN6Xapian19InternalStemEnglish8r_Step_4Ev"                         ; magicseg='TEXT32' len=43
  "__ZN6Xapian19InternalStemEnglish8r_Step_5Ev"                         ; magicseg='TEXT32' len=43
  "__ZN6Xapian19InternalStemEnglish9r_preludeEv"                        ; magicseg='TEXT32' len=44
  "__ZN6Xapian19InternalStemEnglish9r_Step_1aEv"                        ; magicseg='TEXT32' len=44
  "__ZN6Xapian19InternalStemEnglish9r_Step_1bEv"                        ; magicseg='TEXT32' len=44
  "__ZN6Xapian19InternalStemEnglish9r_Step_1cEv"                        ; magicseg='TEXT32' len=44
  "__ZN6Xapian19InternalStemEnglishC1Ev"                                ; magicseg='TEXT32' len=36
  "__ZN6Xapian19InternalStemEnglishC2Ev"                                ; magicseg='TEXT32' len=36
  "__ZN6Xapian19InternalStemEnglishD0Ev"                                ; magicseg='TEXT32' len=36
  "__ZN6Xapian19InternalStemEnglishD1Ev"                                ; magicseg='TEXT32' len=36
  "__ZN6Xapian19InternalStemEnglishD2Ev"                                ; magicseg='TEXT32' len=36
  "__ZN6Xapian19InternalStemFinnish10r_i_pluralEv"                      ; magicseg='TEXT32' len=46
  "__ZN6Xapian19InternalStemFinnish10r_t_pluralEv"                      ; magicseg='TEXT32' len=46
  "__ZN6Xapian19InternalStemFinnish12r_possessiveEv"                    ; magicseg='TEXT32' len=48
  "__ZN6Xapian19InternalStemFinnish13r_case_endingEv"                   ; magicseg='TEXT32' len=49
  "__ZN6Xapian19InternalStemFinnish14r_mark_regionsEv"                  ; magicseg='TEXT32' len=50
  "__ZN6Xapian19InternalStemFinnish14r_particle_etcEv"                  ; magicseg='TEXT32' len=50
  "__ZN6Xapian19InternalStemFinnish15r_other_endingsEv"                 ; magicseg='TEXT32' len=51
  "__ZN6Xapian19InternalStemFinnish4r_R2Ev"                             ; magicseg='TEXT32' len=39
  "__ZN6Xapian19InternalStemFinnish4r_VIEv"                             ; magicseg='TEXT32' len=39
  "__ZN6Xapian19InternalStemFinnish4stemEv"                             ; magicseg='TEXT32' len=39
  "__ZN6Xapian19InternalStemFinnish6r_LONGEv"                           ; magicseg='TEXT32' len=41
  "__ZN6Xapian19InternalStemFinnish6r_tidyEv"                           ; magicseg='TEXT32' len=41
  "__ZN6Xapian19InternalStemFinnishC1Ev"                                ; magicseg='TEXT32' len=36
  "__ZN6Xapian19InternalStemFinnishC2Ev"                                ; magicseg='TEXT32' len=36
  "__ZN6Xapian19InternalStemFinnishD0Ev"                                ; magicseg='TEXT32' len=36
  "__ZN6Xapian19InternalStemFinnishD1Ev"                                ; magicseg='TEXT32' len=36
  "__ZN6Xapian19InternalStemFinnishD2Ev"                                ; magicseg='TEXT32' len=36
  "__ZN6Xapian19InternalStemGerman210r_postludeEv"                      ; magicseg='TEXT32' len=46
  "__ZN6Xapian19InternalStemGerman214r_mark_regionsEv"                  ; magicseg='TEXT32' len=50
  "__ZN6Xapian19InternalStemGerman217r_standard_suffixEv"               ; magicseg='TEXT32' len=53
  "__ZN6Xapian19InternalStemGerman24r_R1Ev"                             ; magicseg='TEXT32' len=39
  "__ZN6Xapian19InternalStemGerman24r_R2Ev"                             ; magicseg='TEXT32' len=39
  "__ZN6Xapian19InternalStemGerman24stemEv"                             ; magicseg='TEXT32' len=39
  "__ZN6Xapian19InternalStemGerman29r_preludeEv"                        ; magicseg='TEXT32' len=44
  "__ZN6Xapian19InternalStemGerman2C1Ev"                                ; magicseg='TEXT32' len=36
  "__ZN6Xapian19InternalStemGerman2C2Ev"                                ; magicseg='TEXT32' len=36
  "__ZN6Xapian19InternalStemGerman2D0Ev"                                ; magicseg='TEXT32' len=36
  "__ZN6Xapian19InternalStemGerman2D1Ev"                                ; magicseg='TEXT32' len=36
  "__ZN6Xapian19InternalStemGerman2D2Ev"                                ; magicseg='TEXT32' len=36
  "__ZN6Xapian19InternalStemItalian10r_postludeEv"                      ; magicseg='TEXT32' len=46
  "__ZN6Xapian19InternalStemItalian13r_verb_suffixEv"                   ; magicseg='TEXT32' len=49
  "__ZN6Xapian19InternalStemItalian14r_mark_regionsEv"                  ; magicseg='TEXT32' len=50
  "__ZN6Xapian19InternalStemItalian14r_vowel_suffixEv"                  ; magicseg='TEXT32' len=50
  "__ZN6Xapian19InternalStemItalian17r_standard_suffixEv"               ; magicseg='TEXT32' len=53
  "__ZN6Xapian19InternalStemItalian18r_attached_pronounEv"              ; magicseg='TEXT32' len=54
  "__ZN6Xapian19InternalStemItalian4r_R1Ev"                             ; magicseg='TEXT32' len=39
  "__ZN6Xapian19InternalStemItalian4r_R2Ev"                             ; magicseg='TEXT32' len=39
  "__ZN6Xapian19InternalStemItalian4r_RVEv"                             ; magicseg='TEXT32' len=39
  "__ZN6Xapian19InternalStemItalian4stemEv"                             ; magicseg='TEXT32' len=39
  "__ZN6Xapian19InternalStemItalian9r_preludeEv"                        ; magicseg='TEXT32' len=44
  "__ZN6Xapian19InternalStemItalianC1Ev"                                ; magicseg='TEXT32' len=36
  "__ZN6Xapian19InternalStemItalianC2Ev"                                ; magicseg='TEXT32' len=36
  "__ZN6Xapian19InternalStemItalianD0Ev"                                ; magicseg='TEXT32' len=36
  "__ZN6Xapian19InternalStemItalianD1Ev"                                ; magicseg='TEXT32' len=36
  "__ZN6Xapian19InternalStemItalianD2Ev"                                ; magicseg='TEXT32' len=36
  "__ZN6Xapian19InternalStemRussian11r_adjectiveEv"                     ; magicseg='TEXT32' len=47
  "__ZN6Xapian19InternalStemRussian11r_reflexiveEv"                     ; magicseg='TEXT32' len=47
  "__ZN6Xapian19InternalStemRussian12r_adjectivalEv"                    ; magicseg='TEXT32' len=48
  "__ZN6Xapian19InternalStemRussian14r_derivationalEv"                  ; magicseg='TEXT32' len=50
  "__ZN6Xapian19InternalStemRussian14r_mark_regionsEv"                  ; magicseg='TEXT32' len=50
  "__ZN6Xapian19InternalStemRussian19r_perfective_gerundEv"             ; magicseg='TEXT32' len=55
  "__ZN6Xapian19InternalStemRussian4r_R2Ev"                             ; magicseg='TEXT32' len=39
  "__ZN6Xapian19InternalStemRussian4stemEv"                             ; magicseg='TEXT32' len=39
  "__ZN6Xapian19InternalStemRussian6r_nounEv"                           ; magicseg='TEXT32' len=41
  "__ZN6Xapian19InternalStemRussian6r_verbEv"                           ; magicseg='TEXT32' len=41
  "__ZN6Xapian19InternalStemRussian9r_tidy_upEv"                        ; magicseg='TEXT32' len=44
  "__ZN6Xapian19InternalStemRussianC1Ev"                                ; magicseg='TEXT32' len=36
  "__ZN6Xapian19InternalStemRussianC2Ev"                                ; magicseg='TEXT32' len=36
  "__ZN6Xapian19InternalStemRussianD0Ev"                                ; magicseg='TEXT32' len=36
  "__ZN6Xapian19InternalStemRussianD1Ev"                                ; magicseg='TEXT32' len=36
  "__ZN6Xapian19InternalStemRussianD2Ev"                                ; magicseg='TEXT32' len=36
  "__ZN6Xapian19InternalStemSpanish10r_postludeEv"                      ; magicseg='TEXT32' len=46
  "__ZN6Xapian19InternalStemSpanish13r_verb_suffixEv"                   ; magicseg='TEXT32' len=49
  "__ZN6Xapian19InternalStemSpanish14r_mark_regionsEv"                  ; magicseg='TEXT32' len=50
  "__ZN6Xapian19InternalStemSpanish15r_y_verb_suffixEv"                 ; magicseg='TEXT32' len=51
  "__ZN6Xapian19InternalStemSpanish17r_residual_suffixEv"               ; magicseg='TEXT32' len=53
  "__ZN6Xapian19InternalStemSpanish17r_standard_suffixEv"               ; magicseg='TEXT32' len=53
  "__ZN6Xapian19InternalStemSpanish18r_attached_pronounEv"              ; magicseg='TEXT32' len=54
  "__ZN6Xapian19InternalStemSpanish4r_R1Ev"                             ; magicseg='TEXT32' len=39
  "__ZN6Xapian19InternalStemSpanish4r_R2Ev"                             ; magicseg='TEXT32' len=39
  "__ZN6Xapian19InternalStemSpanish4r_RVEv"                             ; magicseg='TEXT32' len=39
  "__ZN6Xapian19InternalStemSpanish4stemEv"                             ; magicseg='TEXT32' len=39
  "__ZN6Xapian19InternalStemSpanishC1Ev"                                ; magicseg='TEXT32' len=36
  "__ZN6Xapian19InternalStemSpanishC2Ev"                                ; magicseg='TEXT32' len=36
  "__ZN6Xapian19InternalStemSpanishD0Ev"                                ; magicseg='TEXT32' len=36
  "__ZN6Xapian19InternalStemSpanishD1Ev"                                ; magicseg='TEXT32' len=36
  "__ZN6Xapian19InternalStemSpanishD2Ev"                                ; magicseg='TEXT32' len=36
  "__ZN6Xapian19InternalStemSwedish13r_main_suffixEv"                   ; magicseg='TEXT32' len=49
  "__ZN6Xapian19InternalStemSwedish14r_mark_regionsEv"                  ; magicseg='TEXT32' len=50
  "__ZN6Xapian19InternalStemSwedish14r_other_suffixEv"                  ; magicseg='TEXT32' len=50
  "__ZN6Xapian19InternalStemSwedish16r_consonant_pairEv"                ; magicseg='TEXT32' len=52
  "__ZN6Xapian19InternalStemSwedish4stemEv"                             ; magicseg='TEXT32' len=39
  "__ZN6Xapian19InternalStemSwedishC1Ev"                                ; magicseg='TEXT32' len=36
  "__ZN6Xapian19InternalStemSwedishC2Ev"                                ; magicseg='TEXT32' len=36
  "__ZN6Xapian19InternalStemSwedishD0Ev"                                ; magicseg='TEXT32' len=36
  "__ZN6Xapian19InternalStemSwedishD1Ev"                                ; magicseg='TEXT32' len=36
  "__ZN6Xapian19InternalStemSwedishD2Ev"                                ; magicseg='TEXT32' len=36
  "__ZN6Xapian19InternalStemTurkish10r_mark_DAnEv"                      ; magicseg='TEXT32' len=46
  "__ZN6Xapian19InternalStemTurkish10r_mark_DUrEv"                      ; magicseg='TEXT32' len=46
  "__ZN6Xapian19InternalStemTurkish10r_mark_lArEv"                      ; magicseg='TEXT32' len=46
  "__ZN6Xapian19InternalStemTurkish10r_mark_ncAEv"                      ; magicseg='TEXT32' len=46
  "__ZN6Xapian19InternalStemTurkish10r_mark_ndAEv"                      ; magicseg='TEXT32' len=46
  "__ZN6Xapian19InternalStemTurkish10r_mark_nUnEv"                      ; magicseg='TEXT32' len=46
  "__ZN6Xapian19InternalStemTurkish10r_mark_nUzEv"                      ; magicseg='TEXT32' len=46
  "__ZN6Xapian19InternalStemTurkish10r_mark_sUnEv"                      ; magicseg='TEXT32' len=46
  "__ZN6Xapian19InternalStemTurkish10r_mark_yDUEv"                      ; magicseg='TEXT32' len=46
  "__ZN6Xapian19InternalStemTurkish10r_mark_ylAEv"                      ; magicseg='TEXT32' len=46
  "__ZN6Xapian19InternalStemTurkish10r_mark_ysAEv"                      ; magicseg='TEXT32' len=46
  "__ZN6Xapian19InternalStemTurkish10r_mark_yUmEv"                      ; magicseg='TEXT32' len=46
  "__ZN6Xapian19InternalStemTurkish10r_mark_yUzEv"                      ; magicseg='TEXT32' len=46
  "__ZN6Xapian19InternalStemTurkish10r_postludeEv"                      ; magicseg='TEXT32' len=46
  "__ZN6Xapian19InternalStemTurkish11r_mark_lArIEv"                     ; magicseg='TEXT32' len=47
  "__ZN6Xapian19InternalStemTurkish11r_mark_ndAnEv"                     ; magicseg='TEXT32' len=47
  "__ZN6Xapian19InternalStemTurkish11r_mark_ykenEv"                     ; magicseg='TEXT32' len=47
  "__ZN6Xapian19InternalStemTurkish12r_mark_sUnUzEv"                    ; magicseg='TEXT32' len=48
  "__ZN6Xapian19InternalStemTurkish12r_mark_ymUs_Ev"                    ; magicseg='TEXT32' len=48
  "__ZN6Xapian19InternalStemTurkish13r_mark_cAsInAEv"                   ; magicseg='TEXT32' len=49
  "__ZN6Xapian19InternalStemTurkish18r_is_reserved_wordEv"              ; magicseg='TEXT32' len=54
  "__ZN6Xapian19InternalStemTurkish18r_mark_possessivesEv"              ; magicseg='TEXT32' len=54
  "__ZN6Xapian19InternalStemTurkish20r_stem_noun_suffixesEv"            ; magicseg='TEXT32' len=56
  "__ZN6Xapian19InternalStemTurkish21r_check_vowel_harmonyEv"           ; magicseg='TEXT32' len=57
  "__ZN6Xapian19InternalStemTurkish28r_stem_nominal_verb_suffixesEv"    ; magicseg='TEXT32' len=64
  "__ZN6Xapian19InternalStemTurkish29r_more_than_one_syllable_wordEv"                       ; magicseg='TEXT32' len=65
  "__ZN6Xapian19InternalStemTurkish29r_stem_suffix_chain_before_kiEv"                       ; magicseg='TEXT32' len=65
  "__ZN6Xapian19InternalStemTurkish30r_post_process_last_consonantsEv"                      ; magicseg='TEXT32' len=66
  "__ZN6Xapian19InternalStemTurkish35r_mark_suffix_with_optional_U_vowelEv"                 ; magicseg='TEXT32' len=71
  "__ZN6Xapian19InternalStemTurkish38r_append_U_to_stems_ending_with_d_or_gEv"              ; magicseg='TEXT32' len=74
  "__ZN6Xapian19InternalStemTurkish39r_mark_suffix_with_optional_n_consonantEv"             ; magicseg='TEXT32' len=75
  "__ZN6Xapian19InternalStemTurkish39r_mark_suffix_with_optional_s_consonantEv"             ; magicseg='TEXT32' len=75
  "__ZN6Xapian19InternalStemTurkish39r_mark_suffix_with_optional_y_consonantEv"             ; magicseg='TEXT32' len=75
  "__ZN6Xapian19InternalStemTurkish4stemEv"                             ; magicseg='TEXT32' len=39
  "__ZN6Xapian19InternalStemTurkish9r_mark_DAEv"                        ; magicseg='TEXT32' len=44
  "__ZN6Xapian19InternalStemTurkish9r_mark_kiEv"                        ; magicseg='TEXT32' len=44
  "__ZN6Xapian19InternalStemTurkish9r_mark_nAEv"                        ; magicseg='TEXT32' len=44
  "__ZN6Xapian19InternalStemTurkish9r_mark_nUEv"                        ; magicseg='TEXT32' len=44
  "__ZN6Xapian19InternalStemTurkish9r_mark_sUEv"                        ; magicseg='TEXT32' len=44
  "__ZN6Xapian19InternalStemTurkish9r_mark_yAEv"                        ; magicseg='TEXT32' len=44
  "__ZN6Xapian19InternalStemTurkish9r_mark_yUEv"                        ; magicseg='TEXT32' len=44
  "__ZN6Xapian19InternalStemTurkishC1Ev"                                ; magicseg='TEXT32' len=36
  "__ZN6Xapian19InternalStemTurkishC2Ev"                                ; magicseg='TEXT32' len=36
  "__ZN6Xapian19InternalStemTurkishD0Ev"                                ; magicseg='TEXT32' len=36
  "__ZN6Xapian19InternalStemTurkishD1Ev"                                ; magicseg='TEXT32' len=36
  "__ZN6Xapian19InternalStemTurkishD2Ev"                                ; magicseg='TEXT32' len=36
  "__ZN6Xapian19ValueRangeProcessorD0Ev"                                ; magicseg='TEXT32' len=36
  "__ZN6Xapian19ValueRangeProcessorD1Ev"                                ; magicseg='TEXT32' len=36
  "__ZN6Xapian19ValueRangeProcessorD2Ev"                                ; magicseg='TEXT32' len=36
  "__ZN6Xapian20DatabaseCorruptErrorC1ERKSsS2_i"                        ; magicseg='TEXT32' len=44  weak
  "__ZN6Xapian20DatabaseCorruptErrorD1Ev"                               ; magicseg='TEXT32' len=37  weak
  "__ZN6Xapian20DatabaseOpeningErrorC1ERKSsi"                           ; magicseg='TEXT32' len=41  weak
  "__ZN6Xapian20DatabaseOpeningErrorC1ERKSsS2_i"                        ; magicseg='TEXT32' len=44  weak
  "__ZN6Xapian20DatabaseOpeningErrorC2ERKSsS2_PKci"                     ; magicseg='TEXT32' len=47  weak
  "__ZN6Xapian20DatabaseOpeningErrorD1Ev"                               ; magicseg='TEXT32' len=37  weak
  "__ZN6Xapian20DatabaseOpeningErrorD2Ev"                               ; magicseg='TEXT32' len=37  weak
  "__ZN6Xapian20DatabaseVersionErrorC1ERKSsS2_i"                        ; magicseg='TEXT32' len=44  weak
  "__ZN6Xapian20DatabaseVersionErrorD1Ev"                               ; magicseg='TEXT32' len=37  weak
  "__ZN6Xapian20InternalStemRomanian10r_postludeEv"                     ; magicseg='TEXT32' len=47
  "__ZN6Xapian20InternalStemRomanian13r_verb_suffixEv"                  ; magicseg='TEXT32' len=50
  "__ZN6Xapian20InternalStemRomanian14r_combo_suffixEv"                 ; magicseg='TEXT32' len=51
  "__ZN6Xapian20InternalStemRomanian14r_mark_regionsEv"                 ; magicseg='TEXT32' len=51
  "__ZN6Xapian20InternalStemRomanian14r_vowel_suffixEv"                 ; magicseg='TEXT32' len=51
  "__ZN6Xapian20InternalStemRomanian17r_standard_suffixEv"              ; magicseg='TEXT32' len=54
  "__ZN6Xapian20InternalStemRomanian4r_R1Ev"                            ; magicseg='TEXT32' len=40
  "__ZN6Xapian20InternalStemRomanian4r_R2Ev"                            ; magicseg='TEXT32' len=40
  "__ZN6Xapian20InternalStemRomanian4r_RVEv"                            ; magicseg='TEXT32' len=40
  "__ZN6Xapian20InternalStemRomanian4stemEv"                            ; magicseg='TEXT32' len=40
  "__ZN6Xapian20InternalStemRomanian8r_step_0Ev"                        ; magicseg='TEXT32' len=44
  "__ZN6Xapian20InternalStemRomanian9r_preludeEv"                       ; magicseg='TEXT32' len=45
  "__ZN6Xapian20InternalStemRomanianC1Ev"                               ; magicseg='TEXT32' len=37
  "__ZN6Xapian20InternalStemRomanianC2Ev"                               ; magicseg='TEXT32' len=37
  "__ZN6Xapian20InternalStemRomanianD0Ev"                               ; magicseg='TEXT32' len=37
  "__ZN6Xapian20InternalStemRomanianD1Ev"                               ; magicseg='TEXT32' len=37
  "__ZN6Xapian20InternalStemRomanianD2Ev"                               ; magicseg='TEXT32' len=37
  "__ZN6Xapian20InvalidArgumentErrorC1ERKSsS2_i"                        ; magicseg='TEXT32' len=44  weak
  "__ZN6Xapian20InvalidArgumentErrorD1Ev"                               ; magicseg='TEXT32' len=37  weak
  "__ZN6Xapian20sortable_unserialiseERKSs"                              ; magicseg='TEXT32' len=38
  "__ZN6Xapian20xapian_major_versionEv"                                 ; magicseg='TEXT32' len=35
  "__ZN6Xapian20xapian_minor_versionEv"                                 ; magicseg='TEXT32' len=35
  "__ZN6Xapian21DatabaseModifiedErrorC1ERKSsS2_i"                       ; magicseg='TEXT32' len=45  weak
  "__ZN6Xapian21DatabaseModifiedErrorD1Ev"                              ; magicseg='TEXT32' len=38  weak
  "__ZN6Xapian21InternalStemHungarian10r_undoubleEv"                    ; magicseg='TEXT32' len=48
  "__ZN6Xapian21InternalStemHungarian10r_v_endingEv"                    ; magicseg='TEXT32' len=48
  "__ZN6Xapian21InternalStemHungarian12r_case_otherEv"                  ; magicseg='TEXT32' len=50
  "__ZN6Xapian21InternalStemHungarian12r_plur_ownerEv"                  ; magicseg='TEXT32' len=50
  "__ZN6Xapian21InternalStemHungarian12r_sing_ownerEv"                  ; magicseg='TEXT32' len=50
  "__ZN6Xapian21InternalStemHungarian14r_case_specialEv"                ; magicseg='TEXT32' len=52
  "__ZN6Xapian21InternalStemHungarian14r_mark_regionsEv"                ; magicseg='TEXT32' len=52
  "__ZN6Xapian21InternalStemHungarian4r_R1Ev"                           ; magicseg='TEXT32' len=41
  "__ZN6Xapian21InternalStemHungarian4stemEv"                           ; magicseg='TEXT32' len=41
  "__ZN6Xapian21InternalStemHungarian6r_caseEv"                         ; magicseg='TEXT32' len=43
  "__ZN6Xapian21InternalStemHungarian7r_ownedEv"                        ; magicseg='TEXT32' len=44
  "__ZN6Xapian21InternalStemHungarian8r_doubleEv"                       ; magicseg='TEXT32' len=45
  "__ZN6Xapian21InternalStemHungarian8r_pluralEv"                       ; magicseg='TEXT32' len=45
  "__ZN6Xapian21InternalStemHungarian9r_factiveEv"                      ; magicseg='TEXT32' len=46
  "__ZN6Xapian21InternalStemHungarian9r_instrumEv"                      ; magicseg='TEXT32' len=46
  "__ZN6Xapian21InternalStemHungarianC1Ev"                              ; magicseg='TEXT32' len=38
  "__ZN6Xapian21InternalStemHungarianC2Ev"                              ; magicseg='TEXT32' len=38
  "__ZN6Xapian21InternalStemHungarianD0Ev"                              ; magicseg='TEXT32' len=38
  "__ZN6Xapian21InternalStemHungarianD1Ev"                              ; magicseg='TEXT32' len=38
  "__ZN6Xapian21InternalStemHungarianD2Ev"                              ; magicseg='TEXT32' len=38
  "__ZN6Xapian21InternalStemNorwegian13r_main_suffixEv"                 ; magicseg='TEXT32' len=51
  "__ZN6Xapian21InternalStemNorwegian14r_mark_regionsEv"                ; magicseg='TEXT32' len=52
  "__ZN6Xapian21InternalStemNorwegian14r_other_suffixEv"                ; magicseg='TEXT32' len=52
  "__ZN6Xapian21InternalStemNorwegian16r_consonant_pairEv"              ; magicseg='TEXT32' len=54
  "__ZN6Xapian21InternalStemNorwegian4stemEv"                           ; magicseg='TEXT32' len=41
  "__ZN6Xapian21InternalStemNorwegianC1Ev"                              ; magicseg='TEXT32' len=38
  "__ZN6Xapian21InternalStemNorwegianC2Ev"                              ; magicseg='TEXT32' len=38
  "__ZN6Xapian21InternalStemNorwegianD0Ev"                              ; magicseg='TEXT32' len=38
  "__ZN6Xapian21InternalStemNorwegianD1Ev"                              ; magicseg='TEXT32' len=38
  "__ZN6Xapian21InternalStemNorwegianD2Ev"                              ; magicseg='TEXT32' len=38
  "__ZN6Xapian21InvalidOperationErrorC1ERKSsS2_i"                       ; magicseg='TEXT32' len=45  weak
  "__ZN6Xapian21InvalidOperationErrorD1Ev"                              ; magicseg='TEXT32' len=38  weak
  "__ZN6Xapian21xapian_version_stringEv"                                ; magicseg='TEXT32' len=36
  "__ZN6Xapian22InternalStemPortuguese10r_postludeEv"                   ; magicseg='TEXT32' len=49
  "__ZN6Xapian22InternalStemPortuguese13r_verb_suffixEv"                ; magicseg='TEXT32' len=52
  "__ZN6Xapian22InternalStemPortuguese14r_mark_regionsEv"               ; magicseg='TEXT32' len=53
  "__ZN6Xapian22InternalStemPortuguese15r_residual_formEv"              ; magicseg='TEXT32' len=54
  "__ZN6Xapian22InternalStemPortuguese17r_residual_suffixEv"            ; magicseg='TEXT32' len=56
  "__ZN6Xapian22InternalStemPortuguese17r_standard_suffixEv"            ; magicseg='TEXT32' len=56
  "__ZN6Xapian22InternalStemPortuguese4r_R1Ev"                          ; magicseg='TEXT32' len=42
  "__ZN6Xapian22InternalStemPortuguese4r_R2Ev"                          ; magicseg='TEXT32' len=42
  "__ZN6Xapian22InternalStemPortuguese4r_RVEv"                          ; magicseg='TEXT32' len=42
  "__ZN6Xapian22InternalStemPortuguese4stemEv"                          ; magicseg='TEXT32' len=42
  "__ZN6Xapian22InternalStemPortuguese9r_preludeEv"                     ; magicseg='TEXT32' len=47
  "__ZN6Xapian22InternalStemPortugueseC1Ev"                             ; magicseg='TEXT32' len=39
  "__ZN6Xapian22InternalStemPortugueseC2Ev"                             ; magicseg='TEXT32' len=39
  "__ZN6Xapian22InternalStemPortugueseD0Ev"                             ; magicseg='TEXT32' len=39
  "__ZN6Xapian22InternalStemPortugueseD1Ev"                             ; magicseg='TEXT32' len=39
  "__ZN6Xapian22InternalStemPortugueseD2Ev"                             ; magicseg='TEXT32' len=39
  "__ZN6Xapian23DateValueRangeProcessorclERSsS1_"                       ; magicseg='TEXT32' len=45
  "__ZN6Xapian23DateValueRangeProcessorD0Ev"                            ; magicseg='TEXT32' len=40  weak
  "__ZN6Xapian23DateValueRangeProcessorD1Ev"                            ; magicseg='TEXT32' len=40  weak
  "__ZN6Xapian24ExpandDeciderFilterTermsC1INS_12TermIteratorEEET_S3_"                       ; magicseg='TEXT32' len=65  weak
  "__ZN6Xapian24ExpandDeciderFilterTermsD0Ev"                           ; magicseg='TEXT32' len=41  weak
  "__ZN6Xapian24ExpandDeciderFilterTermsD1Ev"                           ; magicseg='TEXT32' len=41  weak
  "__ZN6Xapian25NumberValueRangeProcessorclERSsS1_"                     ; magicseg='TEXT32' len=47
  "__ZN6Xapian25NumberValueRangeProcessorD0Ev"                          ; magicseg='TEXT32' len=42  weak
  "__ZN6Xapian25NumberValueRangeProcessorD1Ev"                          ; magicseg='TEXT32' len=42  weak
  "__ZN6Xapian27InternalStemKraaij_pohlmann12r_lengthen_VEv"            ; magicseg='TEXT32' len=56
  "__ZN6Xapian27InternalStemKraaij_pohlmann12r_Lose_infixEv"            ; magicseg='TEXT32' len=56
  "__ZN6Xapian27InternalStemKraaij_pohlmann13r_Lose_prefixEv"           ; magicseg='TEXT32' len=57
  "__ZN6Xapian27InternalStemKraaij_pohlmann3r_CEv"                      ; magicseg='TEXT32' len=46
  "__ZN6Xapian27InternalStemKraaij_pohlmann3r_VEv"                      ; magicseg='TEXT32' len=46
  "__ZN6Xapian27InternalStemKraaij_pohlmann4r_R1Ev"                     ; magicseg='TEXT32' len=47
  "__ZN6Xapian27InternalStemKraaij_pohlmann4r_R2Ev"                     ; magicseg='TEXT32' len=47
  "__ZN6Xapian27InternalStemKraaij_pohlmann4r_VXEv"                     ; magicseg='TEXT32' len=47
  "__ZN6Xapian27InternalStemKraaij_pohlmann4stemEv"                     ; magicseg='TEXT32' len=47
  "__ZN6Xapian27InternalStemKraaij_pohlmann8r_Step_1Ev"                 ; magicseg='TEXT32' len=51
  "__ZN6Xapian27InternalStemKraaij_pohlmann8r_Step_2Ev"                 ; magicseg='TEXT32' len=51
  "__ZN6Xapian27InternalStemKraaij_pohlmann8r_Step_3Ev"                 ; magicseg='TEXT32' len=51
  "__ZN6Xapian27InternalStemKraaij_pohlmann8r_Step_4Ev"                 ; magicseg='TEXT32' len=51
  "__ZN6Xapian27InternalStemKraaij_pohlmann8r_Step_6Ev"                 ; magicseg='TEXT32' len=51
  "__ZN6Xapian27InternalStemKraaij_pohlmann8r_Step_7Ev"                 ; magicseg='TEXT32' len=51
  "__ZN6Xapian27InternalStemKraaij_pohlmann9r_measureEv"                ; magicseg='TEXT32' len=52
  "__ZN6Xapian27InternalStemKraaij_pohlmann9r_Step_1cEv"                ; magicseg='TEXT32' len=52
  "__ZN6Xapian27InternalStemKraaij_pohlmannC1Ev"                        ; magicseg='TEXT32' len=44
  "__ZN6Xapian27InternalStemKraaij_pohlmannC2Ev"                        ; magicseg='TEXT32' len=44
  "__ZN6Xapian27InternalStemKraaij_pohlmannD0Ev"                        ; magicseg='TEXT32' len=44
  "__ZN6Xapian27InternalStemKraaij_pohlmannD1Ev"                        ; magicseg='TEXT32' len=44
  "__ZN6Xapian27InternalStemKraaij_pohlmannD2Ev"                        ; magicseg='TEXT32' len=44
  "__ZN6Xapian4Auto9open_stubERKSs"                                     ; magicseg='TEXT32' len=31
  "__ZN6Xapian4ESet4swapERS0_"                                          ; magicseg='TEXT32' len=26
  "__ZN6Xapian4ESet8InternalC1Ev"                                       ; magicseg='TEXT32' len=29  weak
  "__ZN6Xapian4ESet8InternalD1Ev"                                       ; magicseg='TEXT32' len=29  weak
  "__ZN6Xapian4ESetaSERKS0_"                                            ; magicseg='TEXT32' len=24
  "__ZN6Xapian4ESetC1ERKS0_"                                            ; magicseg='TEXT32' len=24
  "__ZN6Xapian4ESetC1Ev"                                                ; magicseg='TEXT32' len=20
  "__ZN6Xapian4ESetC2ERKS0_"                                            ; magicseg='TEXT32' len=24
  "__ZN6Xapian4ESetC2Ev"                                                ; magicseg='TEXT32' len=20
  "__ZN6Xapian4ESetD1Ev"                                                ; magicseg='TEXT32' len=20
  "__ZN6Xapian4ESetD2Ev"                                                ; magicseg='TEXT32' len=20
  "__ZN6Xapian4MSet4swapERS0_"                                          ; magicseg='TEXT32' len=26
  "__ZN6Xapian4MSet8InternalC1EjjjjddRKSt6vectorINS_8Internal8MSetItemESaIS4_EERKSt3mapISsNS1_17TermFreqAndWeightESt4lessISsESaISt4pairIKSsSA_EEEd"            ; magicseg='TEXT32' len=143  weak
  "__ZN6Xapian4MSet8InternalC1Ev"                                       ; magicseg='TEXT32' len=29  weak
  "__ZN6Xapian4MSet8InternalD1Ev"                                       ; magicseg='TEXT32' len=29  weak
  "__ZN6Xapian4MSetaSERKS0_"                                            ; magicseg='TEXT32' len=24
  "__ZN6Xapian4MSetC1EPNS0_8InternalE"                                  ; magicseg='TEXT32' len=34
  "__ZN6Xapian4MSetC1ERKS0_"                                            ; magicseg='TEXT32' len=24
  "__ZN6Xapian4MSetC1Ev"                                                ; magicseg='TEXT32' len=20
  "__ZN6Xapian4MSetC2EPNS0_8InternalE"                                  ; magicseg='TEXT32' len=34
  "__ZN6Xapian4MSetC2ERKS0_"                                            ; magicseg='TEXT32' len=24
  "__ZN6Xapian4MSetC2Ev"                                                ; magicseg='TEXT32' len=20
  "__ZN6Xapian4MSetD1Ev"                                                ; magicseg='TEXT32' len=20
  "__ZN6Xapian4MSetD2Ev"                                                ; magicseg='TEXT32' len=20
  "__ZN6Xapian4RSet12add_documentEj"                                    ; magicseg='TEXT32' len=32
  "__ZN6Xapian4RSet15remove_documentEj"                                 ; magicseg='TEXT32' len=35
  "__ZN6Xapian4RSet8InternalC1Ev"                                       ; magicseg='TEXT32' len=29  weak
  "__ZN6Xapian4RSet8InternalD1Ev"                                       ; magicseg='TEXT32' len=29  weak
  "__ZN6Xapian4RSetaSERKS0_"                                            ; magicseg='TEXT32' len=24
  "__ZN6Xapian4RSetC1ERKS0_"                                            ; magicseg='TEXT32' len=24
  "__ZN6Xapian4RSetC1Ev"                                                ; magicseg='TEXT32' len=20
  "__ZN6Xapian4RSetC2ERKS0_"                                            ; magicseg='TEXT32' len=24
  "__ZN6Xapian4RSetC2Ev"                                                ; magicseg='TEXT32' len=20
  "__ZN6Xapian4RSetD1Ev"                                                ; magicseg='TEXT32' len=20
  "__ZN6Xapian4RSetD2Ev"                                                ; magicseg='TEXT32' len=20
  "__ZN6Xapian4sqrdEd"                                                  ; magicseg='TEXT32' len=18  weak
  "__ZN6Xapian4Stem23get_available_languagesEv"                         ; magicseg='TEXT32' len=43
  "__ZN6Xapian4Stem8Internal10find_amongEPK5amongiPKhPKPFiPS1_E"        ; magicseg='TEXT32' len=60
  "__ZN6Xapian4Stem8Internal10get_b_utf8EPi"                            ; magicseg='TEXT32' len=40
  "__ZN6Xapian4Stem8Internal11slice_checkEv"                            ; magicseg='TEXT32' len=40
  "__ZN6Xapian4Stem8Internal12find_among_bEPK5amongiPKhPKPFiPS1_E"      ; magicseg='TEXT32' len=62
  "__ZN6Xapian4Stem8Internal12slice_from_sEiPKh"                        ; magicseg='TEXT32' len=44
  "__ZN6Xapian4Stem8Internal13in_grouping_UEPKhiii"                     ; magicseg='TEXT32' len=47
  "__ZN6Xapian4Stem8Internal14out_grouping_UEPKhiii"                    ; magicseg='TEXT32' len=48
  "__ZN6Xapian4Stem8Internal15in_grouping_b_UEPKhiii"                   ; magicseg='TEXT32' len=49
  "__ZN6Xapian4Stem8Internal16out_grouping_b_UEPKhiii"                  ; magicseg='TEXT32' len=50
  "__ZN6Xapian4Stem8Internal4eq_sEiPKh"                                 ; magicseg='TEXT32' len=35
  "__ZN6Xapian4Stem8Internal6eq_s_bEiPKh"                               ; magicseg='TEXT32' len=37
  "__ZN6Xapian4Stem8Internal6eq_v_bEPKh"                                ; magicseg='TEXT32' len=36  weak
  "__ZN6Xapian4Stem8Internal8get_utf8EPi"                               ; magicseg='TEXT32' len=37
  "__ZN6Xapian4Stem8Internal8insert_sEiiiPKh"                           ; magicseg='TEXT32' len=41
  "__ZN6Xapian4Stem8Internal8insert_vEiiPKh"                            ; magicseg='TEXT32' len=40  weak
  "__ZN6Xapian4Stem8Internal8slice_toEPh"                               ; magicseg='TEXT32' len=37
  "__ZN6Xapian4Stem8Internal9assign_toEPh"                              ; magicseg='TEXT32' len=38
  "__ZN6Xapian4Stem8Internal9replace_sEiiiPKh"                          ; magicseg='TEXT32' len=42
  "__ZN6Xapian4Stem8Internal9slice_delEv"                               ; magicseg='TEXT32' len=37  weak
  "__ZN6Xapian4Stem8InternalclERKSs"                                    ; magicseg='TEXT32' len=32
  "__ZN6Xapian4Stem8InternalC1Ev"                                       ; magicseg='TEXT32' len=29
  "__ZN6Xapian4Stem8InternalC2Ev"                                       ; magicseg='TEXT32' len=29
  "__ZN6Xapian4Stem8InternalD0Ev"                                       ; magicseg='TEXT32' len=29
  "__ZN6Xapian4Stem8InternalD1Ev"                                       ; magicseg='TEXT32' len=29
  "__ZN6Xapian4Stem8InternalD2Ev"                                       ; magicseg='TEXT32' len=29
  "__ZN6Xapian4StemaSERKS0_"                                            ; magicseg='TEXT32' len=24
  "__ZN6Xapian4StemC1ERKS0_"                                            ; magicseg='TEXT32' len=24
  "__ZN6Xapian4StemC1ERKSs"                                             ; magicseg='TEXT32' len=23
  "__ZN6Xapian4StemC1Ev"                                                ; magicseg='TEXT32' len=20
  "__ZN6Xapian4StemC2ERKS0_"                                            ; magicseg='TEXT32' len=24
  "__ZN6Xapian4StemC2ERKSs"                                             ; magicseg='TEXT32' len=23
  "__ZN6Xapian4StemC2Ev"                                                ; magicseg='TEXT32' len=20
  "__ZN6Xapian4StemD1Ev"                                                ; magicseg='TEXT32' len=20
  "__ZN6Xapian4StemD2Ev"                                                ; magicseg='TEXT32' len=20
  "__ZN6Xapian4v10225NumberValueRangeProcessorclERSsS2_"                ; magicseg='TEXT32' len=52
  "__ZN6Xapian4v10225NumberValueRangeProcessorD0Ev"                     ; magicseg='TEXT32' len=47  weak
  "__ZN6Xapian4v10225NumberValueRangeProcessorD1Ev"                     ; magicseg='TEXT32' len=47  weak
  "__ZN6Xapian5ErrorC1ERKS0_"                                           ; magicseg='TEXT32' len=25  weak
  "__ZN6Xapian5ErrorC1ERKSsS2_PKcS4_"                                   ; magicseg='TEXT32' len=33
  "__ZN6Xapian5ErrorC2ERKSsS2_PKci"                                     ; magicseg='TEXT32' len=31  weak
  "__ZN6Xapian5ErrorC2ERKSsS2_PKcS4_"                                   ; magicseg='TEXT32' len=33
  "__ZN6Xapian5ErrorD1Ev"                                               ; magicseg='TEXT32' len=21  weak
  "__ZN6Xapian5ErrorD2Ev"                                               ; magicseg='TEXT32' len=21  weak
  "__ZN6Xapian5Flint4openERKSs"                                         ; magicseg='TEXT32' len=27
  "__ZN6Xapian5Flint4openERKSsii"                                       ; magicseg='TEXT32' len=29
  "__ZN6Xapian5Query12add_subqueryEPKS0_"                               ; magicseg='TEXT32' len=37
  "__ZN6Xapian5Query12add_subqueryERKS0_"                               ; magicseg='TEXT32' len=37
  "__ZN6Xapian5Query12add_subqueryERKSs"                                ; magicseg='TEXT32' len=36
  "__ZN6Xapian5Query12MatchNothingE"                                    ; magicseg='BSS32' len=32
  "__ZN6Xapian5Query16end_constructionEv"                               ; magicseg='TEXT32' len=37
  "__ZN6Xapian5Query18abort_constructionEv"                             ; magicseg='TEXT32' len=39
  "__ZN6Xapian5Query18start_constructionENS0_2opEj"                     ; magicseg='TEXT32' len=47
  "__ZN6Xapian5Query8Internal11get_op_nameEi"                           ; magicseg='TEXT32' len=41
  "__ZN6Xapian5Query8Internal11unserialiseERKSs"                        ; magicseg='TEXT32' len=44
  "__ZN6Xapian5Query8Internal12add_subqueryEPKS1_"                      ; magicseg='TEXT32' len=46
  "__ZN6Xapian5Query8Internal13flatten_subqsEv"                         ; magicseg='TEXT32' len=43
  "__ZN6Xapian5Query8Internal14collapse_subqsEv"                        ; magicseg='TEXT32' len=44
  "__ZN6Xapian5Query8Internal14simplify_queryEv"                        ; magicseg='TEXT32' len=44
  "__ZN6Xapian5Query8Internal16end_constructionEv"                      ; magicseg='TEXT32' len=46
  "__ZN6Xapian5Query8Internal21simplify_matchnothingEv"                 ; magicseg='TEXT32' len=51
  "__ZN6Xapian5Query8Internal4swapERS1_"                                ; magicseg='TEXT32' len=36
  "__ZN6Xapian5Query8InternalC1Eij"                                     ; magicseg='TEXT32' len=31
  "__ZN6Xapian5Query8InternalC1EijRKSsS3_"                              ; magicseg='TEXT32' len=38
  "__ZN6Xapian5Query8InternalC1ERKS1_"                                  ; magicseg='TEXT32' len=34
  "__ZN6Xapian5Query8InternalC1ERKSsjj"                                 ; magicseg='TEXT32' len=35
  "__ZN6Xapian5Query8InternalC2Eij"                                     ; magicseg='TEXT32' len=31
  "__ZN6Xapian5Query8InternalC2EijRKSsS3_"                              ; magicseg='TEXT32' len=38
  "__ZN6Xapian5Query8InternalC2ERKS1_"                                  ; magicseg='TEXT32' len=34
  "__ZN6Xapian5Query8InternalC2ERKSsjj"                                 ; magicseg='TEXT32' len=35
  "__ZN6Xapian5Query8InternalD1Ev"                                      ; magicseg='TEXT32' len=30
  "__ZN6Xapian5Query8InternalD2Ev"                                      ; magicseg='TEXT32' len=30
  "__ZN6Xapian5Query8MatchAllE"                                         ; magicseg='BSS32' len=27
  "__ZN6Xapian5QueryaSERKS0_"                                           ; magicseg='TEXT32' len=25
  "__ZN6Xapian5QueryC1ENS0_2opEjRKSsS3_"                                ; magicseg='TEXT32' len=36
  "__ZN6Xapian5QueryC1ENS0_2opERKS0_S3_"                                ; magicseg='TEXT32' len=36
  "__ZN6Xapian5QueryC1ENS0_2opERKSsS3_"                                 ; magicseg='TEXT32' len=35
  "__ZN6Xapian5QueryC1ENS0_2opES0_"                                     ; magicseg='TEXT32' len=31
  "__ZN6Xapian5QueryC1ERKS0_"                                           ; magicseg='TEXT32' len=25
  "__ZN6Xapian5QueryC1ERKSsjj"                                          ; magicseg='TEXT32' len=26
  "__ZN6Xapian5QueryC1Ev"                                               ; magicseg='TEXT32' len=21
  "__ZN6Xapian5QueryC1ISt14_List_iteratorIS0_RKS0_PS3_EEENS0_2opET_S8_j"                    ; magicseg='TEXT32' len=68  weak
  "__ZN6Xapian5QueryC2ENS0_2opEjRKSsS3_"                                ; magicseg='TEXT32' len=36
  "__ZN6Xapian5QueryC2ENS0_2opERKS0_S3_"                                ; magicseg='TEXT32' len=36
  "__ZN6Xapian5QueryC2ENS0_2opERKSsS3_"                                 ; magicseg='TEXT32' len=35
  "__ZN6Xapian5QueryC2ENS0_2opES0_"                                     ; magicseg='TEXT32' len=31
  "__ZN6Xapian5QueryC2ERKS0_"                                           ; magicseg='TEXT32' len=25
  "__ZN6Xapian5QueryC2ERKSsjj"                                          ; magicseg='TEXT32' len=26
  "__ZN6Xapian5QueryC2Ev"                                               ; magicseg='TEXT32' len=21
  "__ZN6Xapian5QueryD1Ev"                                               ; magicseg='TEXT32' len=21
  "__ZN6Xapian5QueryD2Ev"                                               ; magicseg='TEXT32' len=21
  "__ZN6Xapian6Weight8Internal13take_my_statsEjd"                       ; magicseg='TEXT32' len=45  weak
  "__ZN6Xapian6Weight8Internal14my_termfreq_isERKSsj"                   ; magicseg='TEXT32' len=49  weak
  "__ZN6Xapian6Weight8Internal17my_reltermfreq_isERKSsj"                ; magicseg='TEXT32' len=52  weak
  "__ZN6Xapian6Weight8InternalC2EP13StatsGatherer"                      ; magicseg='TEXT32' len=46  weak
  "__ZN6Xapian6Weight8InternalD0Ev"                                     ; magicseg='TEXT32' len=31  weak
  "__ZN6Xapian6Weight8InternalD1Ev"                                     ; magicseg='TEXT32' len=31  weak
  "__ZN6Xapian6Weight8InternalD2Ev"                                     ; magicseg='TEXT32' len=31  weak
  "__ZN6Xapian6WeightC2Ev"                                              ; magicseg='TEXT32' len=22  weak
  "__ZN6Xapian6WeightD0Ev"                                              ; magicseg='TEXT32' len=22
  "__ZN6Xapian6WeightD1Ev"                                              ; magicseg='TEXT32' len=22
  "__ZN6Xapian6WeightD2Ev"                                              ; magicseg='TEXT32' len=22
  "__ZN6Xapian7Enquire10set_cutoffEid"                                  ; magicseg='TEXT32' len=34
  "__ZN6Xapian7Enquire15set_docid_orderENS0_11docid_orderE"             ; magicseg='TEXT32' len=55
  "__ZN6Xapian7Enquire16set_collapse_keyEj"                             ; magicseg='TEXT32' len=39
  "__ZN6Xapian7Enquire17set_sort_by_valueEjb"                           ; magicseg='TEXT32' len=41
  "__ZN6Xapian7Enquire20set_weighting_schemeERKNS_6WeightE"             ; magicseg='TEXT32' len=55
  "__ZN6Xapian7Enquire21set_sort_by_relevanceEv"                        ; magicseg='TEXT32' len=44
  "__ZN6Xapian7Enquire22register_match_deciderERKSsPKNS_12MatchDeciderE"                    ; magicseg='TEXT32' len=68
  "__ZN6Xapian7Enquire32set_sort_by_relevance_then_valueEjb"            ; magicseg='TEXT32' len=56
  "__ZN6Xapian7Enquire32set_sort_by_value_then_relevanceEjb"            ; magicseg='TEXT32' len=56
  "__ZN6Xapian7Enquire8Internal22register_match_deciderERKSsPKNS_12MatchDeciderE"           ; magicseg='TEXT32' len=77
  "__ZN6Xapian7Enquire8Internal9get_queryEv"                            ; magicseg='TEXT32' len=40
  "__ZN6Xapian7Enquire8Internal9set_queryERKNS_5QueryEj"                ; magicseg='TEXT32' len=52
  "__ZN6Xapian7Enquire8InternalC1ERKNS_8DatabaseEPNS_12ErrorHandlerE"                       ; magicseg='TEXT32' len=65
  "__ZN6Xapian7Enquire8InternalC2ERKNS_8DatabaseEPNS_12ErrorHandlerE"                       ; magicseg='TEXT32' len=65
  "__ZN6Xapian7Enquire8InternalD1Ev"                                    ; magicseg='TEXT32' len=32
  "__ZN6Xapian7Enquire8InternalD2Ev"                                    ; magicseg='TEXT32' len=32
  "__ZN6Xapian7Enquire9set_queryERKNS_5QueryEj"                         ; magicseg='TEXT32' len=43
  "__ZN6Xapian7EnquireC1ERKNS_8DatabaseEPNS_12ErrorHandlerE"            ; magicseg='TEXT32' len=56
  "__ZN6Xapian7EnquireC2ERKNS_8DatabaseEPNS_12ErrorHandlerE"            ; magicseg='TEXT32' len=56
  "__ZN6Xapian7EnquireD1Ev"                                             ; magicseg='TEXT32' len=23
  "__ZN6Xapian7EnquireD2Ev"                                             ; magicseg='TEXT32' len=23
  "__ZN6Xapian7StopperD0Ev"                                             ; magicseg='TEXT32' len=23  weak
  "__ZN6Xapian7StopperD1Ev"                                             ; magicseg='TEXT32' len=23  weak
  "__ZN6Xapian7StopperD2Ev"                                             ; magicseg='TEXT32' len=23  weak
  "__ZN6Xapian7Unicode11append_utf8ERSsj"                               ; magicseg='TEXT32' len=37  weak
  "__ZN6Xapian7Unicode11is_currencyEj"                                  ; magicseg='TEXT32' len=34  weak
  "__ZN6Xapian7Unicode11is_wordcharEj"                                  ; magicseg='TEXT32' len=34  weak
  "__ZN6Xapian7Unicode12get_categoryEj"                                 ; magicseg='TEXT32' len=35  weak
  "__ZN6Xapian7Unicode13is_whitespaceEj"                                ; magicseg='TEXT32' len=36  weak
  "__ZN6Xapian7Unicode16nonascii_to_utf8EjPc"                           ; magicseg='TEXT32' len=41
  "__ZN6Xapian7Unicode7to_utf8EjPc"                                     ; magicseg='TEXT32' len=31  weak
  "__ZN6Xapian7Unicode7tolowerEj"                                       ; magicseg='TEXT32' len=29  weak
  "__ZN6Xapian7Unicode7tolowerERKSs"                                    ; magicseg='TEXT32' len=32  weak
  "__ZN6Xapian7Unicode8Internal12get_categoryEi"                        ; magicseg='TEXT32' len=44  weak
  "__ZN6Xapian7Unicode8Internal13get_case_typeEi"                       ; magicseg='TEXT32' len=45  weak
  "__ZN6Xapian7Unicode8Internal18get_character_infoEj"                  ; magicseg='TEXT32' len=50
  "__ZN6Xapian7Unicode8Internal9get_deltaEi"                            ; magicseg='TEXT32' len=40  weak
  "__ZN6Xapian8Database10keep_aliveEv"                                  ; magicseg='TEXT32' len=34
  "__ZN6Xapian8Database12add_databaseERKS0_"                            ; magicseg='TEXT32' len=40
  "__ZN6Xapian8Database6reopenEv"                                       ; magicseg='TEXT32' len=29
  "__ZN6Xapian8Database8Internal10keep_aliveEv"                         ; magicseg='TEXT32' len=43
  "__ZN6Xapian8Database8Internal11dtor_calledEv"                        ; magicseg='TEXT32' len=44
  "__ZN6Xapian8Database8Internal12add_documentERKNS_8DocumentE"         ; magicseg='TEXT32' len=59
  "__ZN6Xapian8Database8Internal15delete_documentEj"                    ; magicseg='TEXT32' len=48
  "__ZN6Xapian8Database8Internal15delete_documentERKSs"                 ; magicseg='TEXT32' len=51
  "__ZN6Xapian8Database8Internal16replace_documentEjRKNS_8DocumentE"    ; magicseg='TEXT32' len=64
  "__ZN6Xapian8Database8Internal16replace_documentERKSsRKNS_8DocumentE"                     ; magicseg='TEXT32' len=67
  "__ZN6Xapian8Database8Internal17as_remotedatabaseEv"                  ; magicseg='TEXT32' len=50  weak
  "__ZN6Xapian8Database8Internal17begin_transactionEb"                  ; magicseg='TEXT32' len=50
  "__ZN6Xapian8Database8Internal18cancel_transactionEv"                 ; magicseg='TEXT32' len=51
  "__ZN6Xapian8Database8Internal18commit_transactionEv"                 ; magicseg='TEXT32' len=51
  "__ZN6Xapian8Database8Internal5flushEv"                               ; magicseg='TEXT32' len=37
  "__ZN6Xapian8Database8Internal6cancelEv"                              ; magicseg='TEXT32' len=38
  "__ZN6Xapian8Database8Internal6reopenEv"                              ; magicseg='TEXT32' len=38  weak
  "__ZN6Xapian8Database8InternalC1Ev"                                   ; magicseg='TEXT32' len=33
  "__ZN6Xapian8Database8InternalC2Ev"                                   ; magicseg='TEXT32' len=33
  "__ZN6Xapian8Database8InternalD0Ev"                                   ; magicseg='TEXT32' len=33
  "__ZN6Xapian8Database8InternalD1Ev"                                   ; magicseg='TEXT32' len=33
  "__ZN6Xapian8Database8InternalD2Ev"                                   ; magicseg='TEXT32' len=33
  "__ZN6Xapian8DatabaseaSERKS0_"                                        ; magicseg='TEXT32' len=28
  "__ZN6Xapian8DatabaseC1EPNS0_8InternalE"                              ; magicseg='TEXT32' len=38
  "__ZN6Xapian8DatabaseC1ERKS0_"                                        ; magicseg='TEXT32' len=28
  "__ZN6Xapian8DatabaseC1ERKSs"                                         ; magicseg='TEXT32' len=27
  "__ZN6Xapian8DatabaseC1Ev"                                            ; magicseg='TEXT32' len=24
  "__ZN6Xapian8DatabaseC2EPNS0_8InternalE"                              ; magicseg='TEXT32' len=38
  "__ZN6Xapian8DatabaseC2ERKS0_"                                        ; magicseg='TEXT32' len=28
  "__ZN6Xapian8DatabaseC2ERKSs"                                         ; magicseg='TEXT32' len=27
  "__ZN6Xapian8DatabaseC2Ev"                                            ; magicseg='TEXT32' len=24
  "__ZN6Xapian8DatabaseD0Ev"                                            ; magicseg='TEXT32' len=24
  "__ZN6Xapian8DatabaseD1Ev"                                            ; magicseg='TEXT32' len=24
  "__ZN6Xapian8DatabaseD2Ev"                                            ; magicseg='TEXT32' len=24
  "__ZN6Xapian8Document11add_postingERKSsjj"                            ; magicseg='TEXT32' len=40
  "__ZN6Xapian8Document11clear_termsEv"                                 ; magicseg='TEXT32' len=35
  "__ZN6Xapian8Document11remove_termERKSs"                              ; magicseg='TEXT32' len=38
  "__ZN6Xapian8Document12clear_valuesEv"                                ; magicseg='TEXT32' len=36
  "__ZN6Xapian8Document12remove_valueEj"                                ; magicseg='TEXT32' len=36
  "__ZN6Xapian8Document14remove_postingERKSsjj"                         ; magicseg='TEXT32' len=43
  "__ZN6Xapian8Document8add_termERKSsj"                                 ; magicseg='TEXT32' len=35
  "__ZN6Xapian8Document8Internal11add_postingERKSsjj"                   ; magicseg='TEXT32' len=49
  "__ZN6Xapian8Document8Internal11clear_termsEv"                        ; magicseg='TEXT32' len=44
  "__ZN6Xapian8Document8Internal11remove_termERKSs"                     ; magicseg='TEXT32' len=47
  "__ZN6Xapian8Document8Internal12clear_valuesEv"                       ; magicseg='TEXT32' len=45
  "__ZN6Xapian8Document8Internal12remove_valueEj"                       ; magicseg='TEXT32' len=45
  "__ZN6Xapian8Document8Internal14remove_postingERKSsjj"                ; magicseg='TEXT32' len=52
  "__ZN6Xapian8Document8Internal8add_termERKSsj"                        ; magicseg='TEXT32' len=44
  "__ZN6Xapian8Document8Internal8set_dataERKSs"                         ; magicseg='TEXT32' len=43
  "__ZN6Xapian8Document8Internal9add_valueEjRKSs"                       ; magicseg='TEXT32' len=45
  "__ZN6Xapian8Document8InternalC1Ev"                                   ; magicseg='TEXT32' len=33  weak
  "__ZN6Xapian8Document8InternalC2EPKNS_8Database8InternalEj"           ; magicseg='TEXT32' len=57  weak
  "__ZN6Xapian8Document8InternalD0Ev"                                   ; magicseg='TEXT32' len=33  weak
  "__ZN6Xapian8Document8InternalD1Ev"                                   ; magicseg='TEXT32' len=33  weak
  "__ZN6Xapian8Document8InternalD2Ev"                                   ; magicseg='TEXT32' len=33  weak
  "__ZN6Xapian8Document8set_dataERKSs"                                  ; magicseg='TEXT32' len=34
  "__ZN6Xapian8Document9add_valueEjRKSs"                                ; magicseg='TEXT32' len=36
  "__ZN6Xapian8DocumentaSERKS0_"                                        ; magicseg='TEXT32' len=28
  "__ZN6Xapian8DocumentC1EPNS0_8InternalE"                              ; magicseg='TEXT32' len=38
  "__ZN6Xapian8DocumentC1ERKS0_"                                        ; magicseg='TEXT32' len=28
  "__ZN6Xapian8DocumentC1Ev"                                            ; magicseg='TEXT32' len=24
  "__ZN6Xapian8DocumentC2EPNS0_8InternalE"                              ; magicseg='TEXT32' len=38
  "__ZN6Xapian8DocumentC2ERKS0_"                                        ; magicseg='TEXT32' len=28
  "__ZN6Xapian8DocumentC2Ev"                                            ; magicseg='TEXT32' len=24
  "__ZN6Xapian8DocumentD1Ev"                                            ; magicseg='TEXT32' len=24
  "__ZN6Xapian8DocumentD2Ev"                                            ; magicseg='TEXT32' len=24
  "__ZN6Xapian8is_digitEj"                                              ; magicseg='TEXT32' len=22  weak
  "__ZN6Xapian8InMemory4openEv"                                         ; magicseg='TEXT32' len=27
  "__ZN6Xapian8Internal10RefCntBaseC2Ev"                                ; magicseg='TEXT32' len=36  weak
  "__ZN6Xapian8Internal11ExpandStats10accumulateEjdjj"                  ; magicseg='TEXT32' len=50  weak
  "__ZN6Xapian8Internal11ExpandStatsC1Edd"                              ; magicseg='TEXT32' len=38  weak
  "__ZN6Xapian8Internal11ExpandStatsD1Ev"                               ; magicseg='TEXT32' len=37  weak
  "__ZN6Xapian8Internal12ExpandWeightC1ERKNS_8DatabaseEjbd"             ; magicseg='TEXT32' len=55
  "__ZN6Xapian8Internal12ExpandWeightC2ERKNS_8DatabaseEjbd"             ; magicseg='TEXT32' len=55
  "__ZN6Xapian8Internal12ExpandWeightD1Ev"                              ; magicseg='TEXT32' len=38  weak
  "__ZN6Xapian8Internal6is_tabE"                                        ; magicseg='TEXT32' len=28
  "__ZN6Xapian8Internal6lo_tabE"                                        ; magicseg='TEXT32' len=28
  "__ZN6Xapian8Internal6up_tabE"                                        ; magicseg='TEXT32' len=28
  "__ZN6Xapian8Internal8ESetItemaSERKS1_"                               ; magicseg='TEXT32' len=37  weak
  "__ZN6Xapian8Internal8ESetItemC1EdSs"                                 ; magicseg='TEXT32' len=35  weak
  "__ZN6Xapian8Internal8ESetItemC1ERKS1_"                               ; magicseg='TEXT32' len=37  weak
  "__ZN6Xapian8Internal8ESetItemD1Ev"                                   ; magicseg='TEXT32' len=33  weak
  "__ZN6Xapian8Internal8MSetItemaSERKS1_"                               ; magicseg='TEXT32' len=37  weak
  "__ZN6Xapian8Internal8MSetItemC1Edj"                                  ; magicseg='TEXT32' len=34  weak
  "__ZN6Xapian8Internal8MSetItemC1ERKS1_"                               ; magicseg='TEXT32' len=37  weak
  "__ZN6Xapian8Internal8MSetItemD1Ev"                                   ; magicseg='TEXT32' len=33  weak
  "__ZN6Xapian8Internal9RefCntPtrI12LeafPostListEC1EPS2_"               ; magicseg='TEXT32' len=53  weak
  "__ZN6Xapian8Internal9RefCntPtrI12LeafPostListED1Ev"                  ; magicseg='TEXT32' len=50  weak
  "__ZN6Xapian8Internal9RefCntPtrI8SubMatchEaSEPS2_"                    ; magicseg='TEXT32' len=48  weak
  "__ZN6Xapian8Internal9RefCntPtrI8SubMatchEaSERKS3_"                   ; magicseg='TEXT32' len=49  weak
  "__ZN6Xapian8Internal9RefCntPtrI8SubMatchEC1EPS2_"                    ; magicseg='TEXT32' len=48  weak
  "__ZN6Xapian8Internal9RefCntPtrI8SubMatchEC1ERKS3_"                   ; magicseg='TEXT32' len=49  weak
  "__ZN6Xapian8Internal9RefCntPtrI8SubMatchEC1Ev"                       ; magicseg='TEXT32' len=45  weak
  "__ZN6Xapian8Internal9RefCntPtrI8SubMatchED1Ev"                       ; magicseg='TEXT32' len=45  weak
  "__ZN6Xapian8Internal9RefCntPtrIK13FlintDatabaseEC1EPS3_"             ; magicseg='TEXT32' len=55  weak
  "__ZN6Xapian8Internal9RefCntPtrIK13FlintDatabaseED1Ev"                ; magicseg='TEXT32' len=52  weak
  "__ZN6Xapian8Internal9RefCntPtrIK16InMemoryDatabaseEC1EPS3_"          ; magicseg='TEXT32' len=58  weak
  "__ZN6Xapian8Internal9RefCntPtrIK16InMemoryDatabaseEC1ERKS4_"         ; magicseg='TEXT32' len=59  weak
  "__ZN6Xapian8Internal9RefCntPtrIK16InMemoryDatabaseED1Ev"             ; magicseg='TEXT32' len=55  weak
  "__ZN6Xapian8Internal9RefCntPtrIK21FlintWritableDatabaseEC1EPS3_"     ; magicseg='TEXT32' len=63  weak
  "__ZN6Xapian8Internal9RefCntPtrIK21FlintWritableDatabaseED1Ev"        ; magicseg='TEXT32' len=60  weak
  "__ZN6Xapian8Internal9RefCntPtrIKNS_7Enquire8InternalEEaSEPS4_"       ; magicseg='TEXT32' len=61  weak
  "__ZN6Xapian8Internal9RefCntPtrIKNS_7Enquire8InternalEEC1Ev"          ; magicseg='TEXT32' len=58  weak
  "__ZN6Xapian8Internal9RefCntPtrIKNS_7Enquire8InternalEED1Ev"          ; magicseg='TEXT32' len=58  weak
  "__ZN6Xapian8Internal9RefCntPtrIKNS_8Database8InternalEEaSEPS4_"      ; magicseg='TEXT32' len=62  weak
  "__ZN6Xapian8Internal9RefCntPtrIKNS_8Database8InternalEEC1EPS4_"      ; magicseg='TEXT32' len=62  weak
  "__ZN6Xapian8Internal9RefCntPtrIKNS_8Database8InternalEEC1ERKS5_"     ; magicseg='TEXT32' len=63  weak
  "__ZN6Xapian8Internal9RefCntPtrIKNS_8Database8InternalEEC1IK13FlintDatabaseEERKNS1_IT_EE"                               ; magicseg='TEXT32' len=87  weak
  "__ZN6Xapian8Internal9RefCntPtrIKNS_8Database8InternalEEC1IK21FlintWritableDatabaseEERKNS1_IT_EE"                       ; magicseg='TEXT32' len=95  weak
  "__ZN6Xapian8Internal9RefCntPtrIKNS_8Database8InternalEED1Ev"         ; magicseg='TEXT32' len=59  weak
  "__ZN6Xapian8Internal9RefCntPtrINS_11QueryParser8InternalEEaSEPS3_"                       ; magicseg='TEXT32' len=65  weak
  "__ZN6Xapian8Internal9RefCntPtrINS_11QueryParser8InternalEEaSERKS4_"                      ; magicseg='TEXT32' len=66  weak
  "__ZN6Xapian8Internal9RefCntPtrINS_11QueryParser8InternalEEC1EPS3_"                       ; magicseg='TEXT32' len=65  weak
  "__ZN6Xapian8Internal9RefCntPtrINS_11QueryParser8InternalEEC1ERKS4_"                      ; magicseg='TEXT32' len=66  weak
  "__ZN6Xapian8Internal9RefCntPtrINS_11QueryParser8InternalEED1Ev"      ; magicseg='TEXT32' len=62  weak
  "__ZN6Xapian8Internal9RefCntPtrINS_12TermIterator8InternalEEaSEPS3_"                      ; magicseg='TEXT32' len=66  weak
  "__ZN6Xapian8Internal9RefCntPtrINS_12TermIterator8InternalEEaSERKS4_"                     ; magicseg='TEXT32' len=67  weak
  "__ZN6Xapian8Internal9RefCntPtrINS_12TermIterator8InternalEEC1EPS3_"                      ; magicseg='TEXT32' len=66  weak
  "__ZN6Xapian8Internal9RefCntPtrINS_12TermIterator8InternalEEC1ERKS4_"                     ; magicseg='TEXT32' len=67  weak
  "__ZN6Xapian8Internal9RefCntPtrINS_12TermIterator8InternalEED1Ev"     ; magicseg='TEXT32' len=63  weak
  "__ZN6Xapian8Internal9RefCntPtrINS_13TermGenerator8InternalEEaSEPS3_"                     ; magicseg='TEXT32' len=67  weak
  "__ZN6Xapian8Internal9RefCntPtrINS_13TermGenerator8InternalEEaSERKS4_"                    ; magicseg='TEXT32' len=68  weak
  "__ZN6Xapian8Internal9RefCntPtrINS_13TermGenerator8InternalEEC1EPS3_"                     ; magicseg='TEXT32' len=67  weak
  "__ZN6Xapian8Internal9RefCntPtrINS_13TermGenerator8InternalEEC1ERKS4_"                    ; magicseg='TEXT32' len=68  weak
  "__ZN6Xapian8Internal9RefCntPtrINS_13TermGenerator8InternalEED1Ev"    ; magicseg='TEXT32' len=64  weak
  "__ZN6Xapian8Internal9RefCntPtrINS_15PostingIterator8InternalEEaSEPS3_"                   ; magicseg='TEXT32' len=69  weak
  "__ZN6Xapian8Internal9RefCntPtrINS_15PostingIterator8InternalEEaSERKS4_"                  ; magicseg='TEXT32' len=70  weak
  "__ZN6Xapian8Internal9RefCntPtrINS_15PostingIterator8InternalEEC1EPS3_"                   ; magicseg='TEXT32' len=69  weak
  "__ZN6Xapian8Internal9RefCntPtrINS_15PostingIterator8InternalEEC1ERKS4_"                  ; magicseg='TEXT32' len=70  weak
  "__ZN6Xapian8Internal9RefCntPtrINS_15PostingIterator8InternalEED1Ev"                      ; magicseg='TEXT32' len=66  weak
  "__ZN6Xapian8Internal9RefCntPtrINS_16PositionIterator8InternalEEaSEPS3_"                  ; magicseg='TEXT32' len=70  weak
  "__ZN6Xapian8Internal9RefCntPtrINS_16PositionIterator8InternalEEaSERKS4_"                 ; magicseg='TEXT32' len=71  weak
  "__ZN6Xapian8Internal9RefCntPtrINS_16PositionIterator8InternalEEC1EPS3_"                  ; magicseg='TEXT32' len=70  weak
  "__ZN6Xapian8Internal9RefCntPtrINS_16PositionIterator8InternalEEC1ERKS4_"                 ; magicseg='TEXT32' len=71  weak
  "__ZN6Xapian8Internal9RefCntPtrINS_16PositionIterator8InternalEED1Ev"                     ; magicseg='TEXT32' len=67  weak
  "__ZN6Xapian8Internal9RefCntPtrINS_4ESet8InternalEEaSEPS3_"           ; magicseg='TEXT32' len=57  weak
  "__ZN6Xapian8Internal9RefCntPtrINS_4ESet8InternalEEaSERKS4_"          ; magicseg='TEXT32' len=58  weak
  "__ZN6Xapian8Internal9RefCntPtrINS_4ESet8InternalEEC1EPS3_"           ; magicseg='TEXT32' len=57  weak
  "__ZN6Xapian8Internal9RefCntPtrINS_4ESet8InternalEEC1ERKS4_"          ; magicseg='TEXT32' len=58  weak
  "__ZN6Xapian8Internal9RefCntPtrINS_4ESet8InternalEED1Ev"              ; magicseg='TEXT32' len=54  weak
  "__ZN6Xapian8Internal9RefCntPtrINS_4MSet8InternalEEaSEPS3_"           ; magicseg='TEXT32' len=57  weak
  "__ZN6Xapian8Internal9RefCntPtrINS_4MSet8InternalEEaSERKS4_"          ; magicseg='TEXT32' len=58  weak
  "__ZN6Xapian8Internal9RefCntPtrINS_4MSet8InternalEEC1EPS3_"           ; magicseg='TEXT32' len=57  weak
  "__ZN6Xapian8Internal9RefCntPtrINS_4MSet8InternalEEC1ERKS4_"          ; magicseg='TEXT32' len=58  weak
  "__ZN6Xapian8Internal9RefCntPtrINS_4MSet8InternalEED1Ev"              ; magicseg='TEXT32' len=54  weak
  "__ZN6Xapian8Internal9RefCntPtrINS_4RSet8InternalEEaSEPS3_"           ; magicseg='TEXT32' len=57  weak
  "__ZN6Xapian8Internal9RefCntPtrINS_4RSet8InternalEEaSERKS4_"          ; magicseg='TEXT32' len=58  weak
  "__ZN6Xapian8Internal9RefCntPtrINS_4RSet8InternalEEC1EPS3_"           ; magicseg='TEXT32' len=57  weak
  "__ZN6Xapian8Internal9RefCntPtrINS_4RSet8InternalEEC1ERKS4_"          ; magicseg='TEXT32' len=58  weak
  "__ZN6Xapian8Internal9RefCntPtrINS_4RSet8InternalEED1Ev"              ; magicseg='TEXT32' len=54  weak
  "__ZN6Xapian8Internal9RefCntPtrINS_4Stem8InternalEEaSEPS3_"           ; magicseg='TEXT32' len=57  weak
  "__ZN6Xapian8Internal9RefCntPtrINS_4Stem8InternalEEaSERKS4_"          ; magicseg='TEXT32' len=58  weak
  "__ZN6Xapian8Internal9RefCntPtrINS_4Stem8InternalEEC1EPS3_"           ; magicseg='TEXT32' len=57  weak
  "__ZN6Xapian8Internal9RefCntPtrINS_4Stem8InternalEEC1ERKS4_"          ; magicseg='TEXT32' len=58  weak
  "__ZN6Xapian8Internal9RefCntPtrINS_4Stem8InternalEED1Ev"              ; magicseg='TEXT32' len=54  weak
  "__ZN6Xapian8Internal9RefCntPtrINS_5Query8InternalEEaSEPS3_"          ; magicseg='TEXT32' len=58  weak
  "__ZN6Xapian8Internal9RefCntPtrINS_5Query8InternalEEaSERKS4_"         ; magicseg='TEXT32' len=59  weak
  "__ZN6Xapian8Internal9RefCntPtrINS_5Query8InternalEEC1EPS3_"          ; magicseg='TEXT32' len=58  weak
  "__ZN6Xapian8Internal9RefCntPtrINS_5Query8InternalEEC1ERKS4_"         ; magicseg='TEXT32' len=59  weak
  "__ZN6Xapian8Internal9RefCntPtrINS_5Query8InternalEED1Ev"             ; magicseg='TEXT32' len=55  weak
  "__ZN6Xapian8Internal9RefCntPtrINS_7Enquire8InternalEEC1EPS3_"        ; magicseg='TEXT32' len=60  weak
  "__ZN6Xapian8Internal9RefCntPtrINS_7Enquire8InternalEED1Ev"           ; magicseg='TEXT32' len=57  weak
  "__ZN6Xapian8Internal9RefCntPtrINS_8Database8InternalEEaSEPS3_"       ; magicseg='TEXT32' len=61  weak
  "__ZN6Xapian8Internal9RefCntPtrINS_8Database8InternalEEaSERKS4_"      ; magicseg='TEXT32' len=62  weak
  "__ZN6Xapian8Internal9RefCntPtrINS_8Database8InternalEEC1EPS3_"       ; magicseg='TEXT32' len=61  weak
  "__ZN6Xapian8Internal9RefCntPtrINS_8Database8InternalEEC1ERKS4_"      ; magicseg='TEXT32' len=62  weak
  "__ZN6Xapian8Internal9RefCntPtrINS_8Database8InternalEED1Ev"          ; magicseg='TEXT32' len=58  weak
  "__ZN6Xapian8Internal9RefCntPtrINS_8Document8InternalEEaSEPS3_"       ; magicseg='TEXT32' len=61  weak
  "__ZN6Xapian8Internal9RefCntPtrINS_8Document8InternalEEaSERKS4_"      ; magicseg='TEXT32' len=62  weak
  "__ZN6Xapian8Internal9RefCntPtrINS_8Document8InternalEEC1EPS3_"       ; magicseg='TEXT32' len=61  weak
  "__ZN6Xapian8Internal9RefCntPtrINS_8Document8InternalEEC1ERKS4_"      ; magicseg='TEXT32' len=62  weak
  "__ZN6Xapian8Internal9RefCntPtrINS_8Document8InternalEEC1Ev"          ; magicseg='TEXT32' len=58  weak
  "__ZN6Xapian8Internal9RefCntPtrINS_8Document8InternalEED1Ev"          ; magicseg='TEXT32' len=58  weak
  "__ZN6Xapian8MatchSpy20build_numeric_rangesEjj"                       ; magicseg='TEXT32' len=45
  "__ZN6Xapian8MatchSpy20score_categorisationEjd"                       ; magicseg='TEXT32' len=45
  "__ZN6Xapian8MatchSpyD0Ev"                                            ; magicseg='TEXT32' len=24  weak
  "__ZN6Xapian8MatchSpyD1Ev"                                            ; magicseg='TEXT32' len=24  weak
  "__ZN6Xapian8revisionEv"                                              ; magicseg='TEXT32' len=22
  "__ZN6Xapian9bucketval6updateEjd"                                     ; magicseg='TEXT32' len=31  weak
  "__ZN6Xapian9bucketvalC1Ev"                                           ; magicseg='TEXT32' len=25  weak
  "__ZN6Xapian9BitReader20decode_interpolativeERSt6vectorIjSaIjEEii"    ; magicseg='TEXT32' len=64
  "__ZN6Xapian9BitReader6decodeEj"                                      ; magicseg='TEXT32' len=30  weak
  "__ZN6Xapian9BitReader9read_bitsEi"                                   ; magicseg='TEXT32' len=33  weak
  "__ZN6Xapian9BitReaderC1ERKSs"                                        ; magicseg='TEXT32' len=28  weak
  "__ZN6Xapian9BitReaderD1Ev"                                           ; magicseg='TEXT32' len=25  weak
  "__ZN6Xapian9U_isupperEj"                                             ; magicseg='TEXT32' len=23  weak
  "__ZN6XapianeqERKNS_12TermIteratorES2_"                               ; magicseg='TEXT32' len=37  weak
  "__ZN6XapianeqERKNS_16PositionIteratorES2_"                           ; magicseg='TEXT32' len=41  weak
  "__ZN6XapianneERKNS_12MSetIteratorES2_"                               ; magicseg='TEXT32' len=37  weak
  "__ZN6XapianneERKNS_12TermIteratorES2_"                               ; magicseg='TEXT32' len=37  weak
  "__ZN6XapianneERKNS_13ValueIteratorES2_"                              ; magicseg='TEXT32' len=38  weak
  "__ZN6XapianneERKNS_16PositionIteratorES2_"                           ; magicseg='TEXT32' len=41  weak
  "__ZN7AutoPtrI10OrTermListE7releaseEv"                                ; magicseg='TEXT32' len=36  weak
  "__ZN7AutoPtrI10OrTermListEC1EPS0_"                                   ; magicseg='TEXT32' len=33  weak
  "__ZN7AutoPtrI10OrTermListED1Ev"                                      ; magicseg='TEXT32' len=30  weak
  "__ZN7AutoPtrI11FlintCursorEC1EPS0_"                                  ; magicseg='TEXT32' len=34  weak
  "__ZN7AutoPtrI11FlintCursorED1Ev"                                     ; magicseg='TEXT32' len=31  weak
  "__ZN7AutoPtrI13StatsGathererEC1EPS0_"                                ; magicseg='TEXT32' len=36  weak
  "__ZN7AutoPtrI13StatsGathererED1Ev"                                   ; magicseg='TEXT32' len=33  weak
  "__ZN7AutoPtrI17FlintPositionListE7releaseEv"                         ; magicseg='TEXT32' len=43  weak
  "__ZN7AutoPtrI17FlintPositionListEC1EPS0_"                            ; magicseg='TEXT32' len=40  weak
  "__ZN7AutoPtrI17FlintPositionListED1Ev"                               ; magicseg='TEXT32' len=37  weak
  "__ZN7AutoPtrIN6Xapian12TermIterator8InternalEE7releaseEv"            ; magicseg='TEXT32' len=56  weak
  "__ZN7AutoPtrIN6Xapian12TermIterator8InternalEEaSE10AutoPtrRefIS2_E"                      ; magicseg='TEXT32' len=66  weak
  "__ZN7AutoPtrIN6Xapian12TermIterator8InternalEEcv10AutoPtrRefIT_EIS2_EEv"                 ; magicseg='TEXT32' len=71  weak
  "__ZN7AutoPtrIN6Xapian12TermIterator8InternalEEC1E10AutoPtrRefIS2_E"                      ; magicseg='TEXT32' len=66  weak
  "__ZN7AutoPtrIN6Xapian12TermIterator8InternalEEC1EPS2_"               ; magicseg='TEXT32' len=53  weak
  "__ZN7AutoPtrIN6Xapian12TermIterator8InternalEEC1ERS3_"               ; magicseg='TEXT32' len=53  weak
  "__ZN7AutoPtrIN6Xapian12TermIterator8InternalEED1Ev"                  ; magicseg='TEXT32' len=50  weak
  "__ZN7AutoPtrIN6Xapian13ExpandDeciderEE5resetEPS1_"                   ; magicseg='TEXT32' len=49  weak
  "__ZN7AutoPtrIN6Xapian13ExpandDeciderEE7releaseEv"                    ; magicseg='TEXT32' len=48  weak
  "__ZN7AutoPtrIN6Xapian13ExpandDeciderEEaSERS2_"                       ; magicseg='TEXT32' len=45  weak
  "__ZN7AutoPtrIN6Xapian13ExpandDeciderEEC1EPS1_"                       ; magicseg='TEXT32' len=45  weak
  "__ZN7AutoPtrIN6Xapian13ExpandDeciderEED1Ev"                          ; magicseg='TEXT32' len=42  weak
  "__ZN7AutoPtrIN6Xapian5Query8InternalEEC1EPS2_"                       ; magicseg='TEXT32' len=45  weak
  "__ZN7AutoPtrIN6Xapian5Query8InternalEED1Ev"                          ; magicseg='TEXT32' len=42  weak
  "__ZN7AutoPtrIN6Xapian8Document8InternalEEC1EPS2_"                    ; magicseg='TEXT32' len=48  weak
  "__ZN7AutoPtrIN6Xapian8Document8InternalEED1Ev"                       ; magicseg='TEXT32' len=45  weak
  "__ZN7Cursor_C1Ev"                                                    ; magicseg='TEXT32' len=16  weak
  "__ZN7MSetCmpC1EPFbRKN6Xapian8Internal8MSetItemES4_E"                 ; magicseg='TEXT32' len=51  weak
  "__ZN8fdcloserC1Ei"                                                   ; magicseg='TEXT32' len=17  weak
  "__ZN8fdcloserD1Ev"                                                   ; magicseg='TEXT32' len=17  weak
  "__ZN8fragmentC1Ev"                                                   ; magicseg='TEXT32' len=17  weak
  "__ZN8fragmentixEj"                                                   ; magicseg='TEXT32' len=17  weak
  "__ZN8Item_wr_11set_key_lenEi"                                        ; magicseg='TEXT32' len=28  weak
  "__ZN8Item_wr_13form_null_keyEm"                                      ; magicseg='TEXT32' len=30  weak
  "__ZN8Item_wr_14fake_root_itemEv"                                     ; magicseg='TEXT32' len=31  weak
  "__ZN8Item_wr_16set_component_ofEi"                                   ; magicseg='TEXT32' len=33  weak
  "__ZN8Item_wr_17set_components_ofEi"                                  ; magicseg='TEXT32' len=34  weak
  "__ZN8Item_wr_17set_key_and_blockE4Key_im"                            ; magicseg='TEXT32' len=40  weak
  "__ZN8Item_wr_18set_block_given_byEm"                                 ; magicseg='TEXT32' len=35  weak
  "__ZN8Item_wr_7set_tagEiPKcib"                                        ; magicseg='TEXT32' len=28  weak
  "__ZN8Item_wr_8form_keyERKSs"                                         ; magicseg='TEXT32' len=27  weak
  "__ZN8Item_wr_8set_sizeEi"                                            ; magicseg='TEXT32' len=24  weak
  "__ZN8Item_wr_C1EPh"                                                  ; magicseg='TEXT32' len=18  weak
  "__ZN8Item_wr_C1EPhi"                                                 ; magicseg='TEXT32' len=19  weak
  "__ZN8OmExpand10build_treeEPK5RSetI"                                  ; magicseg='TEXT32' len=34
  "__ZN8OmExpand6expandEjRN6Xapian4ESetEPK5RSetIPKNS0_13ExpandDeciderEbd"                   ; magicseg='TEXT32' len=69
  "__ZN8OmExpandC1ERKN6Xapian8DatabaseE"                                ; magicseg='TEXT32' len=36  weak
  "__ZN8PLPCmpGtclEPKN6Xapian15PostingIterator8InternalES4_"            ; magicseg='TEXT32' len=56  weak
  "__ZN8PLPCmpLtclEPKN6Xapian15PostingIterator8InternalES4_"            ; magicseg='TEXT32' len=56  weak
  "__ZN8SubMatchC2Ev"                                                   ; magicseg='TEXT32' len=17  weak
  "__ZN8SubMatchD0Ev"                                                   ; magicseg='TEXT32' len=17  weak
  "__ZN8SubMatchD1Ev"                                                   ; magicseg='TEXT32' len=17  weak
  "__ZN8SubMatchD2Ev"                                                   ; magicseg='TEXT32' len=17  weak
  "__ZN8TermList13adjust_windowEj"                                      ; magicseg='TEXT32' len=30  weak
  "__ZN8TermList18add_unstemmed_termEP4Term"                            ; magicseg='TEXT32' len=40  weak
  "__ZN8TermList7destroyEv"                                             ; magicseg='TEXT32' len=23  weak
  "__ZN8TermList8add_termEP4Term"                                       ; magicseg='TEXT32' len=29  weak
  "__ZN8TermListC1Ev"                                                   ; magicseg='TEXT32' len=17  weak
  "__ZN8TermListD1Ev"                                                   ; magicseg='TEXT32' len=17  weak
  "__ZN8TLPCmpGtclEPKN6Xapian12TermIterator8InternalES4_"               ; magicseg='TEXT32' len=53  weak
  "__ZN9__gnu_cxx17__normal_iteratorIP11InMemoryDocSt6vectorIS1_SaIS1_EEEC1ERKS2_"          ; magicseg='TEXT32' len=78  weak
  "__ZN9__gnu_cxx17__normal_iteratorIP11InMemoryDocSt6vectorIS1_SaIS1_EEEppEv"              ; magicseg='TEXT32' len=74  weak
  "__ZN9__gnu_cxx17__normal_iteratorIP15InMemoryPostingSt6vectorIS1_SaIS1_EEEC1ERKS2_"      ; magicseg='TEXT32' len=82  weak
  "__ZN9__gnu_cxx17__normal_iteratorIP15InMemoryPostingSt6vectorIS1_SaIS1_EEEC1Ev"          ; magicseg='TEXT32' len=78  weak
  "__ZN9__gnu_cxx17__normal_iteratorIP15InMemoryPostingSt6vectorIS1_SaIS1_EEEpLERKi"        ; magicseg='TEXT32' len=80  weak
  "__ZN9__gnu_cxx17__normal_iteratorIP15InMemoryPostingSt6vectorIS1_SaIS1_EEEppEv"          ; magicseg='TEXT32' len=78  weak
  "__ZN9__gnu_cxx17__normal_iteratorIP17InMemoryTermEntrySt6vectorIS1_SaIS1_EEEC1ERKS2_"    ; magicseg='TEXT32' len=84  weak
  "__ZN9__gnu_cxx17__normal_iteratorIP17InMemoryTermEntrySt6vectorIS1_SaIS1_EEEC1Ev"        ; magicseg='TEXT32' len=80  weak
  "__ZN9__gnu_cxx17__normal_iteratorIP17InMemoryTermEntrySt6vectorIS1_SaIS1_EEEpLERKi"      ; magicseg='TEXT32' len=82  weak
  "__ZN9__gnu_cxx17__normal_iteratorIP17InMemoryTermEntrySt6vectorIS1_SaIS1_EEEppEv"        ; magicseg='TEXT32' len=80  weak
  "__ZN9__gnu_cxx17__normal_iteratorIPcSsEppEv"                         ; magicseg='TEXT32' len=43  weak
  "__ZN9__gnu_cxx17__normal_iteratorIPdSt6vectorIdSaIdEEEC1ERKS1_"      ; magicseg='TEXT32' len=62  weak
  "__ZN9__gnu_cxx17__normal_iteratorIPdSt6vectorIdSaIdEEEppEv"          ; magicseg='TEXT32' len=58  weak
  "__ZN9__gnu_cxx17__normal_iteratorIPjSt6vectorIjSaIjEEEC1ERKS1_"      ; magicseg='TEXT32' len=62  weak
  "__ZN9__gnu_cxx17__normal_iteratorIPjSt6vectorIjSaIjEEEC1Ev"          ; magicseg='TEXT32' len=58  weak
  "__ZN9__gnu_cxx17__normal_iteratorIPjSt6vectorIjSaIjEEEmmEi"          ; magicseg='TEXT32' len=58  weak
  "__ZN9__gnu_cxx17__normal_iteratorIPjSt6vectorIjSaIjEEEmmEv"          ; magicseg='TEXT32' len=58  weak
  "__ZN9__gnu_cxx17__normal_iteratorIPjSt6vectorIjSaIjEEEpLERKi"        ; magicseg='TEXT32' len=60  weak
  "__ZN9__gnu_cxx17__normal_iteratorIPjSt6vectorIjSaIjEEEppEv"          ; magicseg='TEXT32' len=58  weak
  "__ZN9__gnu_cxx17__normal_iteratorIPK11InMemoryDocSt6vectorIS1_SaIS1_EEEC1ERKS3_"         ; magicseg='TEXT32' len=79  weak
  "__ZN9__gnu_cxx17__normal_iteratorIPK15InMemoryPostingSt6vectorIS1_SaIS1_EEEC1ERKS3_"     ; magicseg='TEXT32' len=83  weak
  "__ZN9__gnu_cxx17__normal_iteratorIPK15InMemoryPostingSt6vectorIS1_SaIS1_EEEppEv"         ; magicseg='TEXT32' len=79  weak
  "__ZN9__gnu_cxx17__normal_iteratorIPK17InMemoryTermEntrySt6vectorIS1_SaIS1_EEEC1ERKS3_"                                 ; magicseg='TEXT32' len=85  weak
  "__ZN9__gnu_cxx17__normal_iteratorIPK17InMemoryTermEntrySt6vectorIS1_SaIS1_EEEC1Ev"       ; magicseg='TEXT32' len=81  weak
  "__ZN9__gnu_cxx17__normal_iteratorIPK17InMemoryTermEntrySt6vectorIS1_SaIS1_EEEC1IPS1_EERKNS0_IT_S6_EE"                  ; magicseg='TEXT32' len=100  weak
  "__ZN9__gnu_cxx17__normal_iteratorIPK17InMemoryTermEntrySt6vectorIS1_SaIS1_EEEppEi"       ; magicseg='TEXT32' len=81  weak
  "__ZN9__gnu_cxx17__normal_iteratorIPK17InMemoryTermEntrySt6vectorIS1_SaIS1_EEEppEv"       ; magicseg='TEXT32' len=81  weak
  "__ZN9__gnu_cxx17__normal_iteratorIPKdSt6vectorIdSaIdEEEC1ERKS2_"     ; magicseg='TEXT32' len=63  weak
  "__ZN9__gnu_cxx17__normal_iteratorIPKjSt6vectorIjSaIjEEEC1ERKS2_"     ; magicseg='TEXT32' len=63  weak
  "__ZN9__gnu_cxx17__normal_iteratorIPKjSt6vectorIjSaIjEEEC1Ev"         ; magicseg='TEXT32' len=59  weak
  "__ZN9__gnu_cxx17__normal_iteratorIPKjSt6vectorIjSaIjEEEC1IPjEERKNS0_IT_S5_EE"            ; magicseg='TEXT32' len=76  weak
  "__ZN9__gnu_cxx17__normal_iteratorIPKjSt6vectorIjSaIjEEEpLERKi"       ; magicseg='TEXT32' len=61  weak
  "__ZN9__gnu_cxx17__normal_iteratorIPKjSt6vectorIjSaIjEEEppEi"         ; magicseg='TEXT32' len=59  weak
  "__ZN9__gnu_cxx17__normal_iteratorIPKjSt6vectorIjSaIjEEEppEv"         ; magicseg='TEXT32' len=59  weak
  "__ZN9__gnu_cxx17__normal_iteratorIPKN6Xapian4RSetESt6vectorIS2_SaIS2_EEEC1ERKS4_"        ; magicseg='TEXT32' len=80  weak
  "__ZN9__gnu_cxx17__normal_iteratorIPKN6Xapian8Internal8ESetItemESt6vectorIS3_SaIS3_EEEC1ERKS5_"                         ; magicseg='TEXT32' len=93  weak
  "__ZN9__gnu_cxx17__normal_iteratorIPKN6Xapian8Internal8ESetItemESt6vectorIS3_SaIS3_EEEppEi"                             ; magicseg='TEXT32' len=89  weak
  "__ZN9__gnu_cxx17__normal_iteratorIPKN6Xapian8Internal8MSetItemESt6vectorIS3_SaIS3_EEEC1ERKS5_"                         ; magicseg='TEXT32' len=93  weak
  "__ZN9__gnu_cxx17__normal_iteratorIPKN6Xapian8Internal8MSetItemESt6vectorIS3_SaIS3_EEEC1Ev"                             ; magicseg='TEXT32' len=89  weak
  "__ZN9__gnu_cxx17__normal_iteratorIPKN6Xapian8Internal8MSetItemESt6vectorIS3_SaIS3_EEEC1IPS3_EERKNS0_IT_S8_EE"          ; magicseg='TEXT32' len=108  weak
  "__ZN9__gnu_cxx17__normal_iteratorIPKN6Xapian8Internal8MSetItemESt6vectorIS3_SaIS3_EEEppEv"                             ; magicseg='TEXT32' len=89  weak
  "__ZN9__gnu_cxx17__normal_iteratorIPKN6Xapian8Internal9RefCntPtrI8SubMatchEESt6vectorIS5_SaIS5_EEEC1ERKS7_"             ; magicseg='TEXT32' len=105  weak
  "__ZN9__gnu_cxx17__normal_iteratorIPKN6Xapian8Internal9RefCntPtrINS1_8Database8InternalEEESt6vectorIS6_SaIS6_EEEC1ERKS8_"                                    ; magicseg='TEXT32' len=119  weak
  "__ZN9__gnu_cxx17__normal_iteratorIPKN6Xapian8Internal9RefCntPtrINS1_8Database8InternalEEESt6vectorIS6_SaIS6_EEEC1Ev"                                        ; magicseg='TEXT32' len=115  weak
  "__ZN9__gnu_cxx17__normal_iteratorIPKN6Xapian8Internal9RefCntPtrINS1_8Database8InternalEEESt6vectorIS6_SaIS6_EEEC1IPS6_EERKNS0_IT_SB_EE"                     ; magicseg='TEXT32' len=134  weak
  "__ZN9__gnu_cxx17__normal_iteratorIPKN6Xapian8Internal9RefCntPtrINS1_8Database8InternalEEESt6vectorIS6_SaIS6_EEEppEi"                                        ; magicseg='TEXT32' len=115  weak
  "__ZN9__gnu_cxx17__normal_iteratorIPKN6Xapian8Internal9RefCntPtrINS1_8Database8InternalEEESt6vectorIS6_SaIS6_EEEppEv"                                        ; magicseg='TEXT32' len=115  weak
  "__ZN9__gnu_cxx17__normal_iteratorIPKN6Xapian9bucketvalESt6vectorIS2_SaIS2_EEEC1ERKS4_"                                 ; magicseg='TEXT32' len=85  weak
  "__ZN9__gnu_cxx17__normal_iteratorIPKP12LeafPostListSt6vectorIS2_SaIS2_EEEC1ERKS4_"       ; magicseg='TEXT32' len=81  weak
  "__ZN9__gnu_cxx17__normal_iteratorIPKP12LeafPostListSt6vectorIS2_SaIS2_EEEC1Ev"           ; magicseg='TEXT32' len=77  weak
  "__ZN9__gnu_cxx17__normal_iteratorIPKP12LeafPostListSt6vectorIS2_SaIS2_EEEC1IPS2_EERKNS0_IT_S7_EE"                      ; magicseg='TEXT32' len=96  weak
  "__ZN9__gnu_cxx17__normal_iteratorIPKP12LeafPostListSt6vectorIS2_SaIS2_EEEppEi"           ; magicseg='TEXT32' len=77  weak
  "__ZN9__gnu_cxx17__normal_iteratorIPKPN6Xapian12TermIterator8InternalESt6vectorIS4_SaIS4_EEEC1ERKS6_"                   ; magicseg='TEXT32' len=99  weak
  "__ZN9__gnu_cxx17__normal_iteratorIPKPN6Xapian12TermIterator8InternalESt6vectorIS4_SaIS4_EEEC1Ev"                       ; magicseg='TEXT32' len=95  weak
  "__ZN9__gnu_cxx17__normal_iteratorIPKPN6Xapian12TermIterator8InternalESt6vectorIS4_SaIS4_EEEC1IPS4_EERKNS0_IT_S9_EE"    ; magicseg='TEXT32' len=114  weak
  "__ZN9__gnu_cxx17__normal_iteratorIPKPN6Xapian12TermIterator8InternalESt6vectorIS4_SaIS4_EEEppEv"                       ; magicseg='TEXT32' len=95  weak
  "__ZN9__gnu_cxx17__normal_iteratorIPKPN6Xapian15PostingIterator8InternalESt6vectorIS4_SaIS4_EEEC1ERKS6_"                ; magicseg='TEXT32' len=102  weak
  "__ZN9__gnu_cxx17__normal_iteratorIPKPN6Xapian15PostingIterator8InternalESt6vectorIS4_SaIS4_EEEC1Ev"                    ; magicseg='TEXT32' len=98  weak
  "__ZN9__gnu_cxx17__normal_iteratorIPKPN6Xapian15PostingIterator8InternalESt6vectorIS4_SaIS4_EEEC1IPS4_EERKNS0_IT_S9_EE"                                      ; magicseg='TEXT32' len=117  weak
  "__ZN9__gnu_cxx17__normal_iteratorIPKPN6Xapian15PostingIterator8InternalESt6vectorIS4_SaIS4_EEEppEi"                    ; magicseg='TEXT32' len=98  weak
  "__ZN9__gnu_cxx17__normal_iteratorIPKPN6Xapian15PostingIterator8InternalESt6vectorIS4_SaIS4_EEEppEv"                    ; magicseg='TEXT32' len=98  weak
  "__ZN9__gnu_cxx17__normal_iteratorIPKPN6Xapian16PositionIterator8InternalESt6vectorIS4_SaIS4_EEEC1ERKS6_"               ; magicseg='TEXT32' len=103  weak
  "__ZN9__gnu_cxx17__normal_iteratorIPKPN6Xapian5Query8InternalESt6vectorIS4_SaIS4_EEEC1ERKS6_"                           ; magicseg='TEXT32' len=91  weak
  "__ZN9__gnu_cxx17__normal_iteratorIPKPN6Xapian5Query8InternalESt6vectorIS4_SaIS4_EEEC1Ev"                               ; magicseg='TEXT32' len=87  weak
  "__ZN9__gnu_cxx17__normal_iteratorIPKPN6Xapian5Query8InternalESt6vectorIS4_SaIS4_EEEppEi"                               ; magicseg='TEXT32' len=87  weak
  "__ZN9__gnu_cxx17__normal_iteratorIPKPN6Xapian5Query8InternalESt6vectorIS4_SaIS4_EEEppEv"                               ; magicseg='TEXT32' len=87  weak
  "__ZN9__gnu_cxx17__normal_iteratorIPKSsSt6vectorISsSaISsEEEC1ERKS2_"                      ; magicseg='TEXT32' len=66  weak
  "__ZN9__gnu_cxx17__normal_iteratorIPKSsSt6vectorISsSaISsEEEC1IPSsEERKNS0_IT_S5_EE"        ; magicseg='TEXT32' len=80  weak
  "__ZN9__gnu_cxx17__normal_iteratorIPKSsSt6vectorISsSaISsEEEppEv"      ; magicseg='TEXT32' len=62  weak
  "__ZN9__gnu_cxx17__normal_iteratorIPKSt3mapIjSsSt4lessIjESaISt4pairIKjSsEEESt6vectorIS8_SaIS8_EEEC1ERKSA_"              ; magicseg='TEXT32' len=104  weak
  "__ZN9__gnu_cxx17__normal_iteratorIPKSt4pairISsjESt6vectorIS2_SaIS2_EEEC1ERKS4_"          ; magicseg='TEXT32' len=78  weak
  "__ZN9__gnu_cxx17__normal_iteratorIPKSt4pairISsjESt6vectorIS2_SaIS2_EEEC1Ev"              ; magicseg='TEXT32' len=74  weak
  "__ZN9__gnu_cxx17__normal_iteratorIPKSt4pairISsjESt6vectorIS2_SaIS2_EEEC1IPS2_EERKNS0_IT_S7_EE"                         ; magicseg='TEXT32' len=93  weak
  "__ZN9__gnu_cxx17__normal_iteratorIPKSt4pairISsjESt6vectorIS2_SaIS2_EEEppEv"              ; magicseg='TEXT32' len=74  weak
  "__ZN9__gnu_cxx17__normal_iteratorIPN6Xapian4RSetESt6vectorIS2_SaIS2_EEEC1ERKS3_"         ; magicseg='TEXT32' len=79  weak
  "__ZN9__gnu_cxx17__normal_iteratorIPN6Xapian4RSetESt6vectorIS2_SaIS2_EEEppEv"             ; magicseg='TEXT32' len=75  weak
  "__ZN9__gnu_cxx17__normal_iteratorIPN6Xapian8Internal8ESetItemESt6vectorIS3_SaIS3_EEEC1ERKS4_"                          ; magicseg='TEXT32' len=92  weak
  "__ZN9__gnu_cxx17__normal_iteratorIPN6Xapian8Internal8ESetItemESt6vectorIS3_SaIS3_EEEmmEi"                              ; magicseg='TEXT32' len=88  weak
  "__ZN9__gnu_cxx17__normal_iteratorIPN6Xapian8Internal8ESetItemESt6vectorIS3_SaIS3_EEEmmEv"                              ; magicseg='TEXT32' len=88  weak
  "__ZN9__gnu_cxx17__normal_iteratorIPN6Xapian8Internal8ESetItemESt6vectorIS3_SaIS3_EEEppEv"                              ; magicseg='TEXT32' len=88  weak
  "__ZN9__gnu_cxx17__normal_iteratorIPN6Xapian8Internal8MSetItemESt6vectorIS3_SaIS3_EEEC1ERKS4_"                          ; magicseg='TEXT32' len=92  weak
  "__ZN9__gnu_cxx17__normal_iteratorIPN6Xapian8Internal8MSetItemESt6vectorIS3_SaIS3_EEEC1Ev"                              ; magicseg='TEXT32' len=88  weak
  "__ZN9__gnu_cxx17__normal_iteratorIPN6Xapian8Internal8MSetItemESt6vectorIS3_SaIS3_EEEmmEi"                              ; magicseg='TEXT32' len=88  weak
  "__ZN9__gnu_cxx17__normal_iteratorIPN6Xapian8Internal8MSetItemESt6vectorIS3_SaIS3_EEEmmEv"                              ; magicseg='TEXT32' len=88  weak
  "__ZN9__gnu_cxx17__normal_iteratorIPN6Xapian8Internal8MSetItemESt6vectorIS3_SaIS3_EEEppEv"                              ; magicseg='TEXT32' len=88  weak
  "__ZN9__gnu_cxx17__normal_iteratorIPN6Xapian8Internal9RefCntPtrI8SubMatchEESt6vectorIS5_SaIS5_EEEC1ERKS6_"              ; magicseg='TEXT32' len=104  weak
  "__ZN9__gnu_cxx17__normal_iteratorIPN6Xapian8Internal9RefCntPtrI8SubMatchEESt6vectorIS5_SaIS5_EEEC1Ev"                  ; magicseg='TEXT32' len=100  weak
  "__ZN9__gnu_cxx17__normal_iteratorIPN6Xapian8Internal9RefCntPtrI8SubMatchEESt6vectorIS5_SaIS5_EEEppEv"                  ; magicseg='TEXT32' len=100  weak
  "__ZN9__gnu_cxx17__normal_iteratorIPN6Xapian8Internal9RefCntPtrINS1_8Database8InternalEEESt6vectorIS6_SaIS6_EEEC1ERKS7_"                                     ; magicseg='TEXT32' len=118  weak
  "__ZN9__gnu_cxx17__normal_iteratorIPN6Xapian8Internal9RefCntPtrINS1_8Database8InternalEEESt6vectorIS6_SaIS6_EEEC1Ev"    ; magicseg='TEXT32' len=114  weak
  "__ZN9__gnu_cxx17__normal_iteratorIPN6Xapian8Internal9RefCntPtrINS1_8Database8InternalEEESt6vectorIS6_SaIS6_EEEppEv"    ; magicseg='TEXT32' len=114  weak
  "__ZN9__gnu_cxx17__normal_iteratorIPN6Xapian9bucketvalESt6vectorIS2_SaIS2_EEEC1ERKS3_"    ; magicseg='TEXT32' len=84  weak
  "__ZN9__gnu_cxx17__normal_iteratorIPN6Xapian9bucketvalESt6vectorIS2_SaIS2_EEEppEv"        ; magicseg='TEXT32' len=80  weak
  "__ZN9__gnu_cxx17__normal_iteratorIPP12LeafPostListSt6vectorIS2_SaIS2_EEEC1ERKS3_"        ; magicseg='TEXT32' len=80  weak
  "__ZN9__gnu_cxx17__normal_iteratorIPP12LeafPostListSt6vectorIS2_SaIS2_EEEC1Ev"            ; magicseg='TEXT32' len=76  weak
  "__ZN9__gnu_cxx17__normal_iteratorIPP12LeafPostListSt6vectorIS2_SaIS2_EEEppEi"            ; magicseg='TEXT32' len=76  weak
  "__ZN9__gnu_cxx17__normal_iteratorIPP12LeafPostListSt6vectorIS2_SaIS2_EEEppEv"            ; magicseg='TEXT32' len=76  weak
  "__ZN9__gnu_cxx17__normal_iteratorIPPN6Xapian12TermIterator8InternalESt6vectorIS4_SaIS4_EEEC1ERKS5_"                    ; magicseg='TEXT32' len=98  weak
  "__ZN9__gnu_cxx17__normal_iteratorIPPN6Xapian12TermIterator8InternalESt6vectorIS4_SaIS4_EEEppEv"                        ; magicseg='TEXT32' len=94  weak
  "__ZN9__gnu_cxx17__normal_iteratorIPPN6Xapian15PostingIterator8InternalESt6vectorIS4_SaIS4_EEEC1ERKS5_"                 ; magicseg='TEXT32' len=101  weak
  "__ZN9__gnu_cxx17__normal_iteratorIPPN6Xapian15PostingIterator8InternalESt6vectorIS4_SaIS4_EEEC1Ev"                     ; magicseg='TEXT32' len=97  weak
  "__ZN9__gnu_cxx17__normal_iteratorIPPN6Xapian15PostingIterator8InternalESt6vectorIS4_SaIS4_EEEmIERKi"                   ; magicseg='TEXT32' len=99  weak
  "__ZN9__gnu_cxx17__normal_iteratorIPPN6Xapian15PostingIterator8InternalESt6vectorIS4_SaIS4_EEEmmEv"                     ; magicseg='TEXT32' len=97  weak
  "__ZN9__gnu_cxx17__normal_iteratorIPPN6Xapian15PostingIterator8InternalESt6vectorIS4_SaIS4_EEEpLERKi"                   ; magicseg='TEXT32' len=99  weak
  "__ZN9__gnu_cxx17__normal_iteratorIPPN6Xapian15PostingIterator8InternalESt6vectorIS4_SaIS4_EEEppEi"                     ; magicseg='TEXT32' len=97  weak
  "__ZN9__gnu_cxx17__normal_iteratorIPPN6Xapian15PostingIterator8InternalESt6vectorIS4_SaIS4_EEEppEv"                     ; magicseg='TEXT32' len=97  weak
  "__ZN9__gnu_cxx17__normal_iteratorIPPN6Xapian16PositionIterator8InternalESt6vectorIS4_SaIS4_EEEC1ERKS5_"                ; magicseg='TEXT32' len=102  weak
  "__ZN9__gnu_cxx17__normal_iteratorIPPN6Xapian16PositionIterator8InternalESt6vectorIS4_SaIS4_EEEmmEi"                    ; magicseg='TEXT32' len=98  weak
  "__ZN9__gnu_cxx17__normal_iteratorIPPN6Xapian16PositionIterator8InternalESt6vectorIS4_SaIS4_EEEmmEv"                    ; magicseg='TEXT32' len=98  weak
  "__ZN9__gnu_cxx17__normal_iteratorIPPN6Xapian16PositionIterator8InternalESt6vectorIS4_SaIS4_EEEppEv"                    ; magicseg='TEXT32' len=98  weak
  "__ZN9__gnu_cxx17__normal_iteratorIPPN6Xapian5Query8InternalESt6vectorIS4_SaIS4_EEEC1ERKS5_"                            ; magicseg='TEXT32' len=90  weak
  "__ZN9__gnu_cxx17__normal_iteratorIPPN6Xapian5Query8InternalESt6vectorIS4_SaIS4_EEEC1Ev"                                ; magicseg='TEXT32' len=86  weak
  "__ZN9__gnu_cxx17__normal_iteratorIPPN6Xapian5Query8InternalESt6vectorIS4_SaIS4_EEEppEi"                                ; magicseg='TEXT32' len=86  weak
  "__ZN9__gnu_cxx17__normal_iteratorIPPN6Xapian5Query8InternalESt6vectorIS4_SaIS4_EEEppEv"                                ; magicseg='TEXT32' len=86  weak
  "__ZN9__gnu_cxx17__normal_iteratorIPSsSt6vectorISsSaISsEEEC1ERKS1_"                       ; magicseg='TEXT32' len=65  weak
  "__ZN9__gnu_cxx17__normal_iteratorIPSsSt6vectorISsSaISsEEEmmEi"       ; magicseg='TEXT32' len=61  weak
  "__ZN9__gnu_cxx17__normal_iteratorIPSsSt6vectorISsSaISsEEEmmEv"       ; magicseg='TEXT32' len=61  weak
  "__ZN9__gnu_cxx17__normal_iteratorIPSsSt6vectorISsSaISsEEEppEv"       ; magicseg='TEXT32' len=61  weak
  "__ZN9__gnu_cxx17__normal_iteratorIPSt3mapIjSsSt4lessIjESaISt4pairIKjSsEEESt6vectorIS8_SaIS8_EEEC1ERKS9_"               ; magicseg='TEXT32' len=103  weak
  "__ZN9__gnu_cxx17__normal_iteratorIPSt3mapIjSsSt4lessIjESaISt4pairIKjSsEEESt6vectorIS8_SaIS8_EEEppEv"                   ; magicseg='TEXT32' len=99  weak
  "__ZN9__gnu_cxx17__normal_iteratorIPSt4pairISsjESt6vectorIS2_SaIS2_EEEC1ERKS3_"           ; magicseg='TEXT32' len=77  weak
  "__ZN9__gnu_cxx17__normal_iteratorIPSt4pairISsjESt6vectorIS2_SaIS2_EEEmmEi"               ; magicseg='TEXT32' len=73  weak
  "__ZN9__gnu_cxx17__normal_iteratorIPSt4pairISsjESt6vectorIS2_SaIS2_EEEmmEv"               ; magicseg='TEXT32' len=73  weak
  "__ZN9__gnu_cxx17__normal_iteratorIPSt4pairISsjESt6vectorIS2_SaIS2_EEEppEv"               ; magicseg='TEXT32' len=73  weak
  "__ZN9__gnu_cxxeqIP15InMemoryPostingSt6vectorIS1_SaIS1_EEEEbRKNS_17__normal_iteratorIT_T0_EESB_"                        ; magicseg='TEXT32' len=94  weak
  "__ZN9__gnu_cxxeqIP17InMemoryTermEntrySt6vectorIS1_SaIS1_EEEEbRKNS_17__normal_iteratorIT_T0_EESB_"                      ; magicseg='TEXT32' len=96  weak
  "__ZN9__gnu_cxxeqIPjSt6vectorIjSaIjEEEEbRKNS_17__normal_iteratorIT_T0_EESA_"              ; magicseg='TEXT32' len=74  weak
  "__ZN9__gnu_cxxeqIPK11InMemoryDocSt6vectorIS1_SaIS1_EEEEbRKNS_17__normal_iteratorIT_T0_EESC_"                           ; magicseg='TEXT32' len=91  weak
  "__ZN9__gnu_cxxeqIPK15InMemoryPostingSt6vectorIS1_SaIS1_EEEEbRKNS_17__normal_iteratorIT_T0_EESC_"                       ; magicseg='TEXT32' len=95  weak
  "__ZN9__gnu_cxxeqIPK17InMemoryTermEntrySt6vectorIS1_SaIS1_EEEEbRKNS_17__normal_iteratorIT_T0_EESC_"                     ; magicseg='TEXT32' len=97  weak
  "__ZN9__gnu_cxxeqIPKjSt6vectorIjSaIjEEEEbRKNS_17__normal_iteratorIT_T0_EESB_"             ; magicseg='TEXT32' len=75  weak
  "__ZN9__gnu_cxxeqIPKN6Xapian8Internal8ESetItemESt6vectorIS3_SaIS3_EEEEbRKNS_17__normal_iteratorIT_T0_EESE_"             ; magicseg='TEXT32' len=105  weak
  "__ZN9__gnu_cxxeqIPKN6Xapian8Internal8MSetItemESt6vectorIS3_SaIS3_EEEEbRKNS_17__normal_iteratorIT_T0_EESE_"             ; magicseg='TEXT32' len=105  weak
  "__ZN9__gnu_cxxeqIPKN6Xapian8Internal9RefCntPtrINS1_8Database8InternalEEESt6vectorIS6_SaIS6_EEEEbRKNS_17__normal_iteratorIT_T0_EESH_"                        ; magicseg='TEXT32' len=131  weak
  "__ZN9__gnu_cxxeqIPKPN6Xapian12TermIterator8InternalESt6vectorIS4_SaIS4_EEEEbRKNS_17__normal_iteratorIT_T0_EESF_"       ; magicseg='TEXT32' len=111  weak
  "__ZN9__gnu_cxxeqIPKPN6Xapian15PostingIterator8InternalESt6vectorIS4_SaIS4_EEEEbRKNS_17__normal_iteratorIT_T0_EESF_"    ; magicseg='TEXT32' len=114  weak
  "__ZN9__gnu_cxxeqIPKPN6Xapian5Query8InternalESt6vectorIS4_SaIS4_EEEEbRKNS_17__normal_iteratorIT_T0_EESF_"               ; magicseg='TEXT32' len=103  weak
  "__ZN9__gnu_cxxeqIPN6Xapian8Internal8ESetItemESt6vectorIS3_SaIS3_EEEEbRKNS_17__normal_iteratorIT_T0_EESD_"              ; magicseg='TEXT32' len=104  weak
  "__ZN9__gnu_cxxeqIPN6Xapian8Internal8MSetItemESt6vectorIS3_SaIS3_EEEEbRKNS_17__normal_iteratorIT_T0_EESD_"              ; magicseg='TEXT32' len=104  weak
  "__ZN9__gnu_cxxeqIPPN6Xapian15PostingIterator8InternalESt6vectorIS4_SaIS4_EEEEbRKNS_17__normal_iteratorIT_T0_EESE_"     ; magicseg='TEXT32' len=113  weak
  "__ZN9__gnu_cxxeqIPPN6Xapian16PositionIterator8InternalESt6vectorIS4_SaIS4_EEEEbRKNS_17__normal_iteratorIT_T0_EESE_"    ; magicseg='TEXT32' len=114  weak
  "__ZN9__gnu_cxxeqIPSsSt6vectorISsSaISsEEEEbRKNS_17__normal_iteratorIT_T0_EESA_"           ; magicseg='TEXT32' len=77  weak
  "__ZN9__gnu_cxxeqIPSt4pairISsjESt6vectorIS2_SaIS2_EEEEbRKNS_17__normal_iteratorIT_T0_EESC_"                             ; magicseg='TEXT32' len=89  weak
  "__ZN9__gnu_cxxgtIPPN6Xapian15PostingIterator8InternalESt6vectorIS4_SaIS4_EEEEbRKNS_17__normal_iteratorIT_T0_EESE_"     ; magicseg='TEXT32' len=113  weak
  "__ZN9__gnu_cxxleIPN6Xapian8Internal8ESetItemESt6vectorIS3_SaIS3_EEEEbRKNS_17__normal_iteratorIT_T0_EESD_"              ; magicseg='TEXT32' len=104  weak
  "__ZN9__gnu_cxxleIPN6Xapian8Internal8MSetItemESt6vectorIS3_SaIS3_EEEEbRKNS_17__normal_iteratorIT_T0_EESD_"              ; magicseg='TEXT32' len=104  weak
  "__ZN9__gnu_cxxleIPPN6Xapian15PostingIterator8InternalESt6vectorIS4_SaIS4_EEEEbRKNS_17__normal_iteratorIT_T0_EESE_"     ; magicseg='TEXT32' len=113  weak
  "__ZN9__gnu_cxxltIPjSt6vectorIjSaIjEEEEbRKNS_17__normal_iteratorIT_T0_EESA_"              ; magicseg='TEXT32' len=74  weak
  "__ZN9__gnu_cxxltIPN6Xapian8Internal8ESetItemESt6vectorIS3_SaIS3_EEEEbRKNS_17__normal_iteratorIT_T0_EESD_"              ; magicseg='TEXT32' len=104  weak
  "__ZN9__gnu_cxxltIPN6Xapian8Internal8MSetItemESt6vectorIS3_SaIS3_EEEEbRKNS_17__normal_iteratorIT_T0_EESD_"              ; magicseg='TEXT32' len=104  weak
  "__ZN9__gnu_cxxltIPPN6Xapian15PostingIterator8InternalESt6vectorIS4_SaIS4_EEEEbRKNS_17__normal_iteratorIT_T0_EESE_"     ; magicseg='TEXT32' len=113  weak
  "__ZN9__gnu_cxxltIPPN6Xapian16PositionIterator8InternalESt6vectorIS4_SaIS4_EEEEbRKNS_17__normal_iteratorIT_T0_EESE_"    ; magicseg='TEXT32' len=114  weak
  "__ZN9__gnu_cxxltIPSsSt6vectorISsSaISsEEEEbRKNS_17__normal_iteratorIT_T0_EESA_"           ; magicseg='TEXT32' len=77  weak
  "__ZN9__gnu_cxxltIPSt4pairISsjESt6vectorIS2_SaIS2_EEEEbRKNS_17__normal_iteratorIT_T0_EESC_"                             ; magicseg='TEXT32' len=89  weak
  "__ZN9__gnu_cxxmiIP11InMemoryDocS2_St6vectorIS1_SaIS1_EEEENS_17__normal_iteratorIT_T1_E15difference_typeERKS9_RKNS6_IT0_S8_EE"                               ; magicseg='TEXT32' len=124  weak
  "__ZN9__gnu_cxxmiIP15InMemoryPostingS2_St6vectorIS1_SaIS1_EEEENS_17__normal_iteratorIT_T1_E15difference_typeERKS9_RKNS6_IT0_S8_EE"                           ; magicseg='TEXT32' len=128  weak
  "__ZN9__gnu_cxxmiIP17InMemoryTermEntryS2_St6vectorIS1_SaIS1_EEEENS_17__normal_iteratorIT_T1_E15difference_typeERKS9_RKNS6_IT0_S8_EE"                         ; magicseg='TEXT32' len=130  weak
  "__ZN9__gnu_cxxmiIPdS1_St6vectorIdSaIdEEEENS_17__normal_iteratorIT_T1_E15difference_typeERKS8_RKNS5_IT0_S7_EE"          ; magicseg='TEXT32' len=108  weak
  "__ZN9__gnu_cxxmiIPjS1_St6vectorIjSaIjEEEENS_17__normal_iteratorIT_T1_E15difference_typeERKS8_RKNS5_IT0_S7_EE"          ; magicseg='TEXT32' len=108  weak
  "__ZN9__gnu_cxxmiIPK11InMemoryDocS3_St6vectorIS1_SaIS1_EEEENS_17__normal_iteratorIT_T1_E15difference_typeERKSA_RKNS7_IT0_S9_EE"                              ; magicseg='TEXT32' len=125  weak
  "__ZN9__gnu_cxxmiIPK15InMemoryPostingS3_St6vectorIS1_SaIS1_EEEENS_17__normal_iteratorIT_T1_E15difference_typeERKSA_RKNS7_IT0_S9_EE"                          ; magicseg='TEXT32' len=129  weak
  "__ZN9__gnu_cxxmiIPK17InMemoryTermEntryS3_St6vectorIS1_SaIS1_EEEENS_17__normal_iteratorIT_T1_E15difference_typeERKSA_RKNS7_IT0_S9_EE"                        ; magicseg='TEXT32' len=131  weak
  "__ZN9__gnu_cxxmiIPKdS2_St6vectorIdSaIdEEEENS_17__normal_iteratorIT_T1_E15difference_typeERKS9_RKNS6_IT0_S8_EE"         ; magicseg='TEXT32' len=109  weak
  "__ZN9__gnu_cxxmiIPKjS2_St6vectorIjSaIjEEEENS_17__normal_iteratorIT_T1_E15difference_typeERKS9_RKNS6_IT0_S8_EE"         ; magicseg='TEXT32' len=109  weak
  "__ZN9__gnu_cxxmiIPKN6Xapian4RSetES4_St6vectorIS2_SaIS2_EEEENS_17__normal_iteratorIT_T1_E15difference_typeERKSB_RKNS8_IT0_SA_EE"                             ; magicseg='TEXT32' len=126  weak
  "__ZN9__gnu_cxxmiIPKN6Xapian8Internal8ESetItemES5_St6vectorIS3_SaIS3_EEEENS_17__normal_iteratorIT_T1_E15difference_typeERKSC_RKNS9_IT0_SB_EE"                ; magicseg='TEXT32' len=139  weak
  "__ZN9__gnu_cxxmiIPKN6Xapian8Internal8MSetItemES5_St6vectorIS3_SaIS3_EEEENS_17__normal_iteratorIT_T1_E15difference_typeERKSC_RKNS9_IT0_SB_EE"                ; magicseg='TEXT32' len=139  weak
  "__ZN9__gnu_cxxmiIPKN6Xapian8Internal9RefCntPtrI8SubMatchEES7_St6vectorIS5_SaIS5_EEEENS_17__normal_iteratorIT_T1_E15difference_typeERKSE_RKNSB_IT0_SD_EE"    ; magicseg='TEXT32' len=151  weak
  "__ZN9__gnu_cxxmiIPKN6Xapian8Internal9RefCntPtrINS1_8Database8InternalEEES8_St6vectorIS6_SaIS6_EEEENS_17__normal_iteratorIT_T1_E15difference_typeERKSF_RKNSC_IT0_SE_EE"                             ; magicseg='TEXT32' len=165  weak
  "__ZN9__gnu_cxxmiIPKN6Xapian9bucketvalES4_St6vectorIS2_SaIS2_EEEENS_17__normal_iteratorIT_T1_E15difference_typeERKSB_RKNS8_IT0_SA_EE"                        ; magicseg='TEXT32' len=131  weak
  "__ZN9__gnu_cxxmiIPKP12LeafPostListS4_St6vectorIS2_SaIS2_EEEENS_17__normal_iteratorIT_T1_E15difference_typeERKSB_RKNS8_IT0_SA_EE"                            ; magicseg='TEXT32' len=127  weak
  "__ZN9__gnu_cxxmiIPKPN6Xapian12TermIterator8InternalES6_St6vectorIS4_SaIS4_EEEENS_17__normal_iteratorIT_T1_E15difference_typeERKSD_RKNSA_IT0_SC_EE"          ; magicseg='TEXT32' len=145  weak
  "__ZN9__gnu_cxxmiIPKPN6Xapian15PostingIterator8InternalES6_St6vectorIS4_SaIS4_EEEENS_17__normal_iteratorIT_T1_E15difference_typeERKSD_RKNSA_IT0_SC_EE"       ; magicseg='TEXT32' len=148  weak
  "__ZN9__gnu_cxxmiIPKPN6Xapian16PositionIterator8InternalES6_St6vectorIS4_SaIS4_EEEENS_17__normal_iteratorIT_T1_E15difference_typeERKSD_RKNSA_IT0_SC_EE"      ; magicseg='TEXT32' len=149  weak
  "__ZN9__gnu_cxxmiIPKPN6Xapian5Query8InternalES6_St6vectorIS4_SaIS4_EEEENS_17__normal_iteratorIT_T1_E15difference_typeERKSD_RKNSA_IT0_SC_EE"                  ; magicseg='TEXT32' len=137  weak
  "__ZN9__gnu_cxxmiIPKSsS2_St6vectorISsSaISsEEEENS_17__normal_iteratorIT_T1_E15difference_typeERKS9_RKNS6_IT0_S8_EE"      ; magicseg='TEXT32' len=112  weak
  "__ZN9__gnu_cxxmiIPKSt3mapIjSsSt4lessIjESaISt4pairIKjSsEEESA_St6vectorIS8_SaIS8_EEEENS_17__normal_iteratorIT_T1_E15difference_typeERKSH_RKNSE_IT0_SG_EE"     ; magicseg='TEXT32' len=150  weak
  "__ZN9__gnu_cxxmiIPKSt4pairISsjES4_St6vectorIS2_SaIS2_EEEENS_17__normal_iteratorIT_T1_E15difference_typeERKSB_RKNS8_IT0_SA_EE"                               ; magicseg='TEXT32' len=124  weak
  "__ZN9__gnu_cxxmiIPN6Xapian8Internal8ESetItemES4_St6vectorIS3_SaIS3_EEEENS_17__normal_iteratorIT_T1_E15difference_typeERKSB_RKNS8_IT0_SA_EE"                 ; magicseg='TEXT32' len=138  weak
  "__ZN9__gnu_cxxmiIPN6Xapian8Internal8MSetItemES4_St6vectorIS3_SaIS3_EEEENS_17__normal_iteratorIT_T1_E15difference_typeERKSB_RKNS8_IT0_SA_EE"                 ; magicseg='TEXT32' len=138  weak
  "__ZN9__gnu_cxxmiIPN6Xapian9bucketvalES3_St6vectorIS2_SaIS2_EEEENS_17__normal_iteratorIT_T1_E15difference_typeERKSA_RKNS7_IT0_S9_EE"                         ; magicseg='TEXT32' len=130  weak
  "__ZN9__gnu_cxxmiIPP12LeafPostListS3_St6vectorIS2_SaIS2_EEEENS_17__normal_iteratorIT_T1_E15difference_typeERKSA_RKNS7_IT0_S9_EE"                             ; magicseg='TEXT32' len=126  weak
  "__ZN9__gnu_cxxmiIPPN6Xapian12TermIterator8InternalES5_St6vectorIS4_SaIS4_EEEENS_17__normal_iteratorIT_T1_E15difference_typeERKSC_RKNS9_IT0_SB_EE"           ; magicseg='TEXT32' len=144  weak
  "__ZN9__gnu_cxxmiIPPN6Xapian15PostingIterator8InternalES5_St6vectorIS4_SaIS4_EEEENS_17__normal_iteratorIT_T1_E15difference_typeERKSC_RKNS9_IT0_SB_EE"        ; magicseg='TEXT32' len=147  weak
  "__ZN9__gnu_cxxmiIPPN6Xapian16PositionIterator8InternalES5_St6vectorIS4_SaIS4_EEEENS_17__normal_iteratorIT_T1_E15difference_typeERKSC_RKNS9_IT0_SB_EE"       ; magicseg='TEXT32' len=148  weak
  "__ZN9__gnu_cxxmiIPPN6Xapian5Query8InternalES5_St6vectorIS4_SaIS4_EEEENS_17__normal_iteratorIT_T1_E15difference_typeERKSC_RKNS9_IT0_SB_EE"                   ; magicseg='TEXT32' len=136  weak
  "__ZN9__gnu_cxxmiIPSsS1_St6vectorISsSaISsEEEENS_17__normal_iteratorIT_T1_E15difference_typeERKS8_RKNS5_IT0_S7_EE"       ; magicseg='TEXT32' len=111  weak
  "__ZN9__gnu_cxxmiIPSt3mapIjSsSt4lessIjESaISt4pairIKjSsEEES9_St6vectorIS8_SaIS8_EEEENS_17__normal_iteratorIT_T1_E15difference_typeERKSG_RKNSD_IT0_SF_EE"      ; magicseg='TEXT32' len=149  weak
  "__ZN9__gnu_cxxmiIPSt4pairISsjES3_St6vectorIS2_SaIS2_EEEENS_17__normal_iteratorIT_T1_E15difference_typeERKSA_RKNS7_IT0_S9_EE"                                ; magicseg='TEXT32' len=123  weak
  "__ZN9__gnu_cxxneIP11InMemoryDocSt6vectorIS1_SaIS1_EEEEbRKNS_17__normal_iteratorIT_T0_EESB_"                            ; magicseg='TEXT32' len=90  weak
  "__ZN9__gnu_cxxneIP15InMemoryPostingSt6vectorIS1_SaIS1_EEEEbRKNS_17__normal_iteratorIT_T0_EESB_"                        ; magicseg='TEXT32' len=94  weak
  "__ZN9__gnu_cxxneIP17InMemoryTermEntrySt6vectorIS1_SaIS1_EEEEbRKNS_17__normal_iteratorIT_T0_EESB_"                      ; magicseg='TEXT32' len=96  weak
  "__ZN9__gnu_cxxneIPcSsEEbRKNS_17__normal_iteratorIT_T0_EES7_"         ; magicseg='TEXT32' len=59  weak
  "__ZN9__gnu_cxxneIPdSt6vectorIdSaIdEEEEbRKNS_17__normal_iteratorIT_T0_EESA_"              ; magicseg='TEXT32' len=74  weak
  "__ZN9__gnu_cxxneIPjSt6vectorIjSaIjEEEEbRKNS_17__normal_iteratorIT_T0_EESA_"              ; magicseg='TEXT32' len=74  weak
  "__ZN9__gnu_cxxneIPK15InMemoryPostingSt6vectorIS1_SaIS1_EEEEbRKNS_17__normal_iteratorIT_T0_EESC_"                       ; magicseg='TEXT32' len=95  weak
  "__ZN9__gnu_cxxneIPK17InMemoryTermEntryPS1_St6vectorIS1_SaIS1_EEEEbRKNS_17__normal_iteratorIT_T1_EERKNS8_IT0_SA_EE"     ; magicseg='TEXT32' len=113  weak
  "__ZN9__gnu_cxxneIPK17InMemoryTermEntrySt6vectorIS1_SaIS1_EEEEbRKNS_17__normal_iteratorIT_T0_EESC_"                     ; magicseg='TEXT32' len=97  weak
  "__ZN9__gnu_cxxneIPKjSt6vectorIjSaIjEEEEbRKNS_17__normal_iteratorIT_T0_EESB_"             ; magicseg='TEXT32' len=75  weak
  "__ZN9__gnu_cxxneIPKN6Xapian8Internal8ESetItemESt6vectorIS3_SaIS3_EEEEbRKNS_17__normal_iteratorIT_T0_EESE_"             ; magicseg='TEXT32' len=105  weak
  "__ZN9__gnu_cxxneIPKN6Xapian8Internal8MSetItemESt6vectorIS3_SaIS3_EEEEbRKNS_17__normal_iteratorIT_T0_EESE_"             ; magicseg='TEXT32' len=105  weak
  "__ZN9__gnu_cxxneIPKN6Xapian8Internal9RefCntPtrINS1_8Database8InternalEEEPS6_St6vectorIS6_SaIS6_EEEEbRKNS_17__normal_iteratorIT_T1_EERKNSD_IT0_SF_EE"        ; magicseg='TEXT32' len=147  weak
  "__ZN9__gnu_cxxneIPKN6Xapian8Internal9RefCntPtrINS1_8Database8InternalEEESt6vectorIS6_SaIS6_EEEEbRKNS_17__normal_iteratorIT_T0_EESH_"                        ; magicseg='TEXT32' len=131  weak
  "__ZN9__gnu_cxxneIPKP12LeafPostListPS2_St6vectorIS2_SaIS2_EEEEbRKNS_17__normal_iteratorIT_T1_EERKNS9_IT0_SB_EE"         ; magicseg='TEXT32' len=109  weak
  "__ZN9__gnu_cxxneIPKP12LeafPostListSt6vectorIS2_SaIS2_EEEEbRKNS_17__normal_iteratorIT_T0_EESD_"                         ; magicseg='TEXT32' len=93  weak
  "__ZN9__gnu_cxxneIPKPN6Xapian12TermIterator8InternalEPS4_St6vectorIS4_SaIS4_EEEEbRKNS_17__normal_iteratorIT_T1_EERKNSB_IT0_SD_EE"                            ; magicseg='TEXT32' len=127  weak
  "__ZN9__gnu_cxxneIPKPN6Xapian12TermIterator8InternalESt6vectorIS4_SaIS4_EEEEbRKNS_17__normal_iteratorIT_T0_EESF_"       ; magicseg='TEXT32' len=111  weak
  "__ZN9__gnu_cxxneIPKPN6Xapian15PostingIterator8InternalEPS4_St6vectorIS4_SaIS4_EEEEbRKNS_17__normal_iteratorIT_T1_EERKNSB_IT0_SD_EE"                         ; magicseg='TEXT32' len=130  weak
  "__ZN9__gnu_cxxneIPKPN6Xapian15PostingIterator8InternalESt6vectorIS4_SaIS4_EEEEbRKNS_17__normal_iteratorIT_T0_EESF_"    ; magicseg='TEXT32' len=114  weak
  "__ZN9__gnu_cxxneIPKPN6Xapian5Query8InternalESt6vectorIS4_SaIS4_EEEEbRKNS_17__normal_iteratorIT_T0_EESF_"               ; magicseg='TEXT32' len=103  weak
  "__ZN9__gnu_cxxneIPKSsSt6vectorISsSaISsEEEEbRKNS_17__normal_iteratorIT_T0_EESB_"          ; magicseg='TEXT32' len=78  weak
  "__ZN9__gnu_cxxneIPKSt4pairISsjEPS2_St6vectorIS2_SaIS2_EEEEbRKNS_17__normal_iteratorIT_T1_EERKNS9_IT0_SB_EE"            ; magicseg='TEXT32' len=106  weak
  "__ZN9__gnu_cxxneIPN6Xapian4RSetESt6vectorIS2_SaIS2_EEEEbRKNS_17__normal_iteratorIT_T0_EESC_"                           ; magicseg='TEXT32' len=91  weak
  "__ZN9__gnu_cxxneIPN6Xapian8Internal8ESetItemESt6vectorIS3_SaIS3_EEEEbRKNS_17__normal_iteratorIT_T0_EESD_"              ; magicseg='TEXT32' len=104  weak
  "__ZN9__gnu_cxxneIPN6Xapian8Internal8MSetItemESt6vectorIS3_SaIS3_EEEEbRKNS_17__normal_iteratorIT_T0_EESD_"              ; magicseg='TEXT32' len=104  weak
  "__ZN9__gnu_cxxneIPN6Xapian8Internal9RefCntPtrI8SubMatchEESt6vectorIS5_SaIS5_EEEEbRKNS_17__normal_iteratorIT_T0_EESF_"                                       ; magicseg='TEXT32' len=116  weak
  "__ZN9__gnu_cxxneIPN6Xapian8Internal9RefCntPtrINS1_8Database8InternalEEESt6vectorIS6_SaIS6_EEEEbRKNS_17__normal_iteratorIT_T0_EESG_"                         ; magicseg='TEXT32' len=130  weak
  "__ZN9__gnu_cxxneIPN6Xapian9bucketvalESt6vectorIS2_SaIS2_EEEEbRKNS_17__normal_iteratorIT_T0_EESC_"                      ; magicseg='TEXT32' len=96  weak
  "__ZN9__gnu_cxxneIPP12LeafPostListSt6vectorIS2_SaIS2_EEEEbRKNS_17__normal_iteratorIT_T0_EESC_"                          ; magicseg='TEXT32' len=92  weak
  "__ZN9__gnu_cxxneIPPN6Xapian15PostingIterator8InternalESt6vectorIS4_SaIS4_EEEEbRKNS_17__normal_iteratorIT_T0_EESE_"     ; magicseg='TEXT32' len=113  weak
  "__ZN9__gnu_cxxneIPPN6Xapian16PositionIterator8InternalESt6vectorIS4_SaIS4_EEEEbRKNS_17__normal_iteratorIT_T0_EESE_"    ; magicseg='TEXT32' len=114  weak
  "__ZN9__gnu_cxxneIPPN6Xapian5Query8InternalESt6vectorIS4_SaIS4_EEEEbRKNS_17__normal_iteratorIT_T0_EESE_"                ; magicseg='TEXT32' len=102  weak
  "__ZN9__gnu_cxxneIPSsSt6vectorISsSaISsEEEEbRKNS_17__normal_iteratorIT_T0_EESA_"           ; magicseg='TEXT32' len=77  weak
  "__ZN9__gnu_cxxneIPSt3mapIjSsSt4lessIjESaISt4pairIKjSsEEESt6vectorIS8_SaIS8_EEEEbRKNS_17__normal_iteratorIT_T0_EESI_"                                        ; magicseg='TEXT32' len=115  weak
  "__ZN9__gnu_cxxneIPSt4pairISsjESt6vectorIS2_SaIS2_EEEEbRKNS_17__normal_iteratorIT_T0_EESC_"                             ; magicseg='TEXT32' len=89  weak
  "__ZN9BitWriter10write_bitsEii"                                       ; magicseg='TEXT32' len=29  weak
  "__ZN9BitWriter6encodeEjj"                                            ; magicseg='TEXT32' len=24  weak
  "__ZN9BitWriter6freezeEv"                                             ; magicseg='TEXT32' len=23  weak
  "__ZN9BitWriterC1ERKSs"                                               ; magicseg='TEXT32' len=21  weak
  "__ZN9BitWriterD1Ev"                                                  ; magicseg='TEXT32' len=18  weak
  "__ZN9edist_seqIjEC1EPKji"                                            ; magicseg='TEXT32' len=24  weak
  "__ZN9FlintLock4lockEb"                                               ; magicseg='TEXT32' len=21
  "__ZN9FlintLock7releaseEv"                                            ; magicseg='TEXT32' len=24
  "__ZN9FlintLockC1ERKSs"                                               ; magicseg='TEXT32' len=21  weak
  "__ZN9FlintLockD1Ev"                                                  ; magicseg='TEXT32' len=18  weak
  "__ZN9OmESetCmpclERKN6Xapian8Internal8ESetItemES4_"                   ; magicseg='TEXT32' len=49  weak
  "__ZN9ProbQueryC1Ev"                                                  ; magicseg='TEXT32' len=18  weak
  "__ZN9ProbQueryD1Ev"                                                  ; magicseg='TEXT32' len=18  weak
  "__ZN9TermGroup7destroyEv"                                            ; magicseg='TEXT32' len=24  weak
  "__ZN9TermGroup8add_termEP4Term"                                      ; magicseg='TEXT32' len=30  weak
  "__ZN9TermGroupC1Ev"                                                  ; magicseg='TEXT32' len=18  weak
  "__ZN9TermGroupD1Ev"                                                  ; magicseg='TEXT32' len=18  weak
  "__ZNK10FlintTable10cursor_getEv"                                     ; magicseg='TEXT32' len=31
  "__ZNK10FlintTable10key_existsERKSs"                                  ; magicseg='TEXT32' len=34
  "__ZNK10FlintTable10read_blockEmPh"                                   ; magicseg='TEXT32' len=33
  "__ZNK10FlintTable11is_modifiedEv"                                    ; magicseg='TEXT32' len=32  weak
  "__ZNK10FlintTable11write_blockEmPKh"                                 ; magicseg='TEXT32' len=35
  "__ZNK10FlintTable12next_defaultEP7Cursor_i"                          ; magicseg='TEXT32' len=42
  "__ZNK10FlintTable12prev_defaultEP7Cursor_i"                          ; magicseg='TEXT32' len=42
  "__ZNK10FlintTable14get_block_sizeEv"                                 ; magicseg='TEXT32' len=35  weak
  "__ZNK10FlintTable15block_to_cursorEP7Cursor_im"                      ; magicseg='TEXT32' len=46
  "__ZNK10FlintTable15get_entry_countEv"                                ; magicseg='TEXT32' len=36  weak
  "__ZNK10FlintTable15get_exact_entryERKSsRSs"                          ; magicseg='TEXT32' len=42
  "__ZNK10FlintTable15set_overwrittenEv"                                ; magicseg='TEXT32' len=36
  "__ZNK10FlintTable19next_for_sequentialEP7Cursor_i"                   ; magicseg='TEXT32' len=49
  "__ZNK10FlintTable19prev_for_sequentialEP7Cursor_i"                   ; magicseg='TEXT32' len=49
  "__ZNK10FlintTable24get_open_revision_numberEv"                       ; magicseg='TEXT32' len=45  weak
  "__ZNK10FlintTable26get_latest_revision_numberEv"                     ; magicseg='TEXT32' len=47  weak
  "__ZNK10FlintTable4findEP7Cursor_"                                    ; magicseg='TEXT32' len=32
  "__ZNK10FlintTable4nextEP7Cursor_i"                                   ; magicseg='TEXT32' len=33  weak
  "__ZNK10FlintTable4prevEP7Cursor_i"                                   ; magicseg='TEXT32' len=33  weak
  "__ZNK10FlintTable6existsEv"                                          ; magicseg='TEXT32' len=26
  "__ZNK10FlintTable8find_tagERKSsPSs"                                  ; magicseg='TEXT32' len=34
  "__ZNK10FlintTable8form_keyERKSs"                                     ; magicseg='TEXT32' len=31
  "__ZNK10FlintTable8read_tagEP7Cursor_PSsb"                            ; magicseg='TEXT32' len=40
  "__ZNK10Item_base_IPhE11get_addressEv"                                ; magicseg='TEXT32' len=36  weak
  "__ZNK10Item_base_IPhE3keyEv"                                         ; magicseg='TEXT32' len=27  weak
  "__ZNK10Item_base_IPhE4sizeEv"                                        ; magicseg='TEXT32' len=28  weak
  "__ZNK10Item_base_IPKhE11get_addressEv"                               ; magicseg='TEXT32' len=37  weak
  "__ZNK10Item_base_IPKhE12append_chunkEPSs"                            ; magicseg='TEXT32' len=40  weak
  "__ZNK10Item_base_IPKhE12component_ofEv"                              ; magicseg='TEXT32' len=38  weak
  "__ZNK10Item_base_IPKhE13components_ofEv"                             ; magicseg='TEXT32' len=39  weak
  "__ZNK10Item_base_IPKhE14block_given_byEv"                            ; magicseg='TEXT32' len=40  weak
  "__ZNK10Item_base_IPKhE14get_compressedEv"                            ; magicseg='TEXT32' len=40  weak
  "__ZNK10Item_base_IPKhE3keyEv"                                        ; magicseg='TEXT32' len=28  weak
  "__ZNK10Item_base_IPKhE4sizeEv"                                       ; magicseg='TEXT32' len=29  weak
  "__ZNK10OrPostList10get_weightEv"                                     ; magicseg='TEXT32' len=31
  "__ZNK10OrPostList13get_doclengthEv"                                  ; magicseg='TEXT32' len=34
  "__ZNK10OrPostList13get_maxweightEv"                                  ; magicseg='TEXT32' len=34
  "__ZNK10OrPostList15get_descriptionEv"                                ; magicseg='TEXT32' len=36
  "__ZNK10OrPostList16get_termfreq_estEv"                               ; magicseg='TEXT32' len=37
  "__ZNK10OrPostList16get_termfreq_maxEv"                               ; magicseg='TEXT32' len=37
  "__ZNK10OrPostList16get_termfreq_minEv"                               ; magicseg='TEXT32' len=37
  "__ZNK10OrPostList6at_endEv"                                          ; magicseg='TEXT32' len=26
  "__ZNK10OrPostList9get_docidEv"                                       ; magicseg='TEXT32' len=29
  "__ZNK10OrTermList12get_termfreqEv"                                   ; magicseg='TEXT32' len=33
  "__ZNK10OrTermList12get_termnameEv"                                   ; magicseg='TEXT32' len=33
  "__ZNK10OrTermList13check_startedEv"                                  ; magicseg='TEXT32' len=34
  "__ZNK10OrTermList15get_approx_sizeEv"                                ; magicseg='TEXT32' len=36
  "__ZNK10OrTermList16accumulate_statsERN6Xapian8Internal11ExpandStatsE"                    ; magicseg='TEXT32' len=68
  "__ZNK10OrTermList18positionlist_beginEv"                             ; magicseg='TEXT32' len=39
  "__ZNK10OrTermList18positionlist_countEv"                             ; magicseg='TEXT32' len=39
  "__ZNK10OrTermList6at_endEv"                                          ; magicseg='TEXT32' len=26
  "__ZNK10OrTermList7get_wdfEv"                                         ; magicseg='TEXT32' len=27
  "__ZNK11AndPostList10get_weightEv"                                    ; magicseg='TEXT32' len=32
  "__ZNK11AndPostList13get_doclengthEv"                                 ; magicseg='TEXT32' len=35
  "__ZNK11AndPostList13get_maxweightEv"                                 ; magicseg='TEXT32' len=35
  "__ZNK11AndPostList15get_descriptionEv"                               ; magicseg='TEXT32' len=37
  "__ZNK11AndPostList16get_termfreq_estEv"                              ; magicseg='TEXT32' len=38
  "__ZNK11AndPostList16get_termfreq_maxEv"                              ; magicseg='TEXT32' len=38
  "__ZNK11AndPostList16get_termfreq_minEv"                              ; magicseg='TEXT32' len=38
  "__ZNK11AndPostList6at_endEv"                                         ; magicseg='TEXT32' len=27
  "__ZNK11AndPostList9get_docidEv"                                      ; magicseg='TEXT32' len=30
  "__ZNK11edist_stateIjE10calc_indexEii"                                ; magicseg='TEXT32' len=36  weak
  "__ZNK11edist_stateIjE8get_f_kpEii"                                   ; magicseg='TEXT32' len=33  weak
  "__ZNK11FlintCursor7get_keyEPSs"                                      ; magicseg='TEXT32' len=30
  "__ZNK11FlintCursor9after_endEv"                                      ; magicseg='TEXT32' len=30  weak
  "__ZNK11MapTermList12get_termfreqEv"                                  ; magicseg='TEXT32' len=34  weak
  "__ZNK11MapTermList12get_termnameEv"                                  ; magicseg='TEXT32' len=34  weak
  "__ZNK11MapTermList15get_approx_sizeEv"                               ; magicseg='TEXT32' len=37  weak
  "__ZNK11MapTermList16accumulate_statsERN6Xapian8Internal11ExpandStatsE"                   ; magicseg='TEXT32' len=69  weak
  "__ZNK11MapTermList18positionlist_beginEv"                            ; magicseg='TEXT32' len=40  weak
  "__ZNK11MapTermList18positionlist_countEv"                            ; magicseg='TEXT32' len=40  weak
  "__ZNK11MapTermList6at_endEv"                                         ; magicseg='TEXT32' len=27  weak
  "__ZNK11MapTermList7get_wdfEv"                                        ; magicseg='TEXT32' len=28  weak
  "__ZNK11SortPosNameclEPKN6Xapian5Query8InternalES4_"                  ; magicseg='TEXT32' len=50  weak
  "__ZNK11TermCompareclEjj"                                             ; magicseg='TEXT32' len=23  weak
  "__ZNK11XorPostList10get_weightEv"                                    ; magicseg='TEXT32' len=32
  "__ZNK11XorPostList13get_doclengthEv"                                 ; magicseg='TEXT32' len=35
  "__ZNK11XorPostList13get_maxweightEv"                                 ; magicseg='TEXT32' len=35
  "__ZNK11XorPostList15get_descriptionEv"                               ; magicseg='TEXT32' len=37
  "__ZNK11XorPostList16get_termfreq_estEv"                              ; magicseg='TEXT32' len=38
  "__ZNK11XorPostList16get_termfreq_maxEv"                              ; magicseg='TEXT32' len=38
  "__ZNK11XorPostList16get_termfreq_minEv"                              ; magicseg='TEXT32' len=38
  "__ZNK11XorPostList6at_endEv"                                         ; magicseg='TEXT32' len=27
  "__ZNK11XorPostList9get_docidEv"                                      ; magicseg='TEXT32' len=30
  "__ZNK12AllTermsList16accumulate_statsERN6Xapian8Internal11ExpandStatsE"                  ; magicseg='TEXT32' len=70
  "__ZNK12AllTermsList18positionlist_beginEv"                           ; magicseg='TEXT32' len=41
  "__ZNK12AllTermsList18positionlist_countEv"                           ; magicseg='TEXT32' len=41
  "__ZNK12AllTermsList7get_wdfEv"                                       ; magicseg='TEXT32' len=29
  "__ZNK12LeafPostList10get_weightEv"                                   ; magicseg='TEXT32' len=33  weak
  "__ZNK12LeafPostList13get_maxweightEv"                                ; magicseg='TEXT32' len=36  weak
  "__ZNK12LeafPostList16get_termfreq_estEv"                             ; magicseg='TEXT32' len=39  weak
  "__ZNK12LeafPostList16get_termfreq_maxEv"                             ; magicseg='TEXT32' len=39  weak
  "__ZNK12LeafPostList16get_termfreq_minEv"                             ; magicseg='TEXT32' len=39  weak
  "__ZNK12MSetPostList10get_weightEv"                                   ; magicseg='TEXT32' len=33
  "__ZNK12MSetPostList13get_doclengthEv"                                ; magicseg='TEXT32' len=36
  "__ZNK12MSetPostList13get_maxweightEv"                                ; magicseg='TEXT32' len=36
  "__ZNK12MSetPostList15get_descriptionEv"                              ; magicseg='TEXT32' len=38
  "__ZNK12MSetPostList16get_collapse_keyEv"                             ; magicseg='TEXT32' len=39
  "__ZNK12MSetPostList16get_termfreq_estEv"                             ; magicseg='TEXT32' len=39
  "__ZNK12MSetPostList16get_termfreq_maxEv"                             ; magicseg='TEXT32' len=39
  "__ZNK12MSetPostList16get_termfreq_minEv"                             ; magicseg='TEXT32' len=39
  "__ZNK12MSetPostList18open_position_listEv"                           ; magicseg='TEXT32' len=41
  "__ZNK12MSetPostList6at_endEv"                                        ; magicseg='TEXT32' len=28
  "__ZNK12MSetPostList9get_docidEv"                                     ; magicseg='TEXT32' len=31
  "__ZNK12NearPostList15get_descriptionEv"                              ; magicseg='TEXT32' len=38
  "__ZNK12NearPostList16get_termfreq_estEv"                             ; magicseg='TEXT32' len=39  weak
  "__ZNK12NearPostList7get_wdfEv"                                       ; magicseg='TEXT32' len=29
  "__ZNK13EmptyPostList10get_weightEv"                                  ; magicseg='TEXT32' len=34  weak
  "__ZNK13EmptyPostList12get_termfreqEv"                                ; magicseg='TEXT32' len=36  weak
  "__ZNK13EmptyPostList13get_doclengthEv"                               ; magicseg='TEXT32' len=37  weak
  "__ZNK13EmptyPostList13get_maxweightEv"                               ; magicseg='TEXT32' len=37  weak
  "__ZNK13EmptyPostList15get_descriptionEv"                             ; magicseg='TEXT32' len=39  weak
  "__ZNK13EmptyPostList18open_position_listEv"                          ; magicseg='TEXT32' len=42  weak
  "__ZNK13EmptyPostList6at_endEv"                                       ; magicseg='TEXT32' len=29  weak
  "__ZNK13EmptyPostList9get_docidEv"                                    ; magicseg='TEXT32' len=32  weak
  "__ZNK13FlintDatabase11term_existsERKSs"                              ; magicseg='TEXT32' len=38
  "__ZNK13FlintDatabase12get_avlengthEv"                                ; magicseg='TEXT32' len=36
  "__ZNK13FlintDatabase12get_doccountEv"                                ; magicseg='TEXT32' len=36
  "__ZNK13FlintDatabase12get_termfreqERKSs"                             ; magicseg='TEXT32' len=39
  "__ZNK13FlintDatabase13get_doclengthEj"                               ; magicseg='TEXT32' len=37
  "__ZNK13FlintDatabase13get_lastdocidEv"                               ; magicseg='TEXT32' len=37
  "__ZNK13FlintDatabase13has_positionsEv"                               ; magicseg='TEXT32' len=37
  "__ZNK13FlintDatabase13open_alltermsERKSs"                            ; magicseg='TEXT32' len=40
  "__ZNK13FlintDatabase13open_documentEjb"                              ; magicseg='TEXT32' len=38
  "__ZNK13FlintDatabase14open_post_listERKSs"                           ; magicseg='TEXT32' len=41
  "__ZNK13FlintDatabase14open_term_listEj"                              ; magicseg='TEXT32' len=38
  "__ZNK13FlintDatabase18open_position_listEjRKSs"                      ; magicseg='TEXT32' len=46
  "__ZNK13FlintDatabase19get_collection_freqERKSs"                      ; magicseg='TEXT32' len=46
  "__ZNK13FlintDatabase19get_revision_numberEv"                         ; magicseg='TEXT32' len=43
  "__ZNK13FlintDatabase20open_synonym_keylistERKSs"                     ; magicseg='TEXT32' len=47
  "__ZNK13FlintDatabase21open_synonym_termlistERKSs"                    ; magicseg='TEXT32' len=48
  "__ZNK13FlintDatabase22get_spelling_frequencyERKSs"                   ; magicseg='TEXT32' len=49
  "__ZNK13FlintDatabase22open_spelling_termlistERKSs"                   ; magicseg='TEXT32' len=49
  "__ZNK13FlintDatabase22open_spelling_wordlistEv"                      ; magicseg='TEXT32' len=46
  "__ZNK13FlintDatabase24get_next_revision_numberEv"                    ; magicseg='TEXT32' len=48
  "__ZNK13FlintDocument11do_get_dataEv"                                 ; magicseg='TEXT32' len=35
  "__ZNK13FlintDocument12do_get_valueEj"                                ; magicseg='TEXT32' len=36
  "__ZNK13FlintDocument17do_get_all_valuesEv"                           ; magicseg='TEXT32' len=41
  "__ZNK13FlintPostList12get_termfreqEv"                                ; magicseg='TEXT32' len=36  weak
  "__ZNK13FlintPostList13get_doclengthEv"                               ; magicseg='TEXT32' len=37  weak
  "__ZNK13FlintPostList15get_descriptionEv"                             ; magicseg='TEXT32' len=39
  "__ZNK13FlintPostList18open_position_listEv"                          ; magicseg='TEXT32' len=42
  "__ZNK13FlintPostList6at_endEv"                                       ; magicseg='TEXT32' len=29  weak
  "__ZNK13FlintPostList7get_wdfEv"                                      ; magicseg='TEXT32' len=30  weak
  "__ZNK13FlintPostList9get_docidEv"                                    ; magicseg='TEXT32' len=32  weak
  "__ZNK13FlintTermList12get_termfreqEv"                                ; magicseg='TEXT32' len=36
  "__ZNK13FlintTermList12get_termnameEv"                                ; magicseg='TEXT32' len=36
  "__ZNK13FlintTermList13get_doclengthEv"                               ; magicseg='TEXT32' len=37
  "__ZNK13FlintTermList15get_approx_sizeEv"                             ; magicseg='TEXT32' len=39
  "__ZNK13FlintTermList16accumulate_statsERN6Xapian8Internal11ExpandStatsE"                 ; magicseg='TEXT32' len=71
  "__ZNK13FlintTermList18positionlist_beginEv"                          ; magicseg='TEXT32' len=42
  "__ZNK13FlintTermList18positionlist_countEv"                          ; magicseg='TEXT32' len=42
  "__ZNK13FlintTermList6at_endEv"                                       ; magicseg='TEXT32' len=29
  "__ZNK13FlintTermList7get_wdfEv"                                      ; magicseg='TEXT32' len=30
  "__ZNK13MergePostList10get_weightEv"                                  ; magicseg='TEXT32' len=34
  "__ZNK13MergePostList13get_doclengthEv"                               ; magicseg='TEXT32' len=37
  "__ZNK13MergePostList13get_maxweightEv"                               ; magicseg='TEXT32' len=37
  "__ZNK13MergePostList15get_descriptionEv"                             ; magicseg='TEXT32' len=39
  "__ZNK13MergePostList16get_collapse_keyEv"                            ; magicseg='TEXT32' len=40
  "__ZNK13MergePostList16get_termfreq_estEv"                            ; magicseg='TEXT32' len=40
  "__ZNK13MergePostList16get_termfreq_maxEv"                            ; magicseg='TEXT32' len=40
  "__ZNK13MergePostList16get_termfreq_minEv"                            ; magicseg='TEXT32' len=40
  "__ZNK13MergePostList18open_position_listEv"                          ; magicseg='TEXT32' len=42
  "__ZNK13MergePostList6at_endEv"                                       ; magicseg='TEXT32' len=29
  "__ZNK13MergePostList7get_wdfEv"                                      ; magicseg='TEXT32' len=30
  "__ZNK13MergePostList9get_docidEv"                                    ; magicseg='TEXT32' len=32
  "__ZNK13MultiPostList12get_termfreqEv"                                ; magicseg='TEXT32' len=36
  "__ZNK13MultiPostList13get_doclengthEv"                               ; magicseg='TEXT32' len=37
  "__ZNK13MultiPostList15get_descriptionEv"                             ; magicseg='TEXT32' len=39
  "__ZNK13MultiPostList18open_position_listEv"                          ; magicseg='TEXT32' len=42
  "__ZNK13MultiPostList6at_endEv"                                       ; magicseg='TEXT32' len=29
  "__ZNK13MultiPostList7get_wdfEv"                                      ; magicseg='TEXT32' len=30
  "__ZNK13MultiPostList9get_docidEv"                                    ; magicseg='TEXT32' len=32
  "__ZNK13MultiTermList12get_termfreqEv"                                ; magicseg='TEXT32' len=36
  "__ZNK13MultiTermList12get_termnameEv"                                ; magicseg='TEXT32' len=36
  "__ZNK13MultiTermList15get_approx_sizeEv"                             ; magicseg='TEXT32' len=39
  "__ZNK13MultiTermList16accumulate_statsERN6Xapian8Internal11ExpandStatsE"                 ; magicseg='TEXT32' len=71
  "__ZNK13MultiTermList18positionlist_beginEv"                          ; magicseg='TEXT32' len=42
  "__ZNK13MultiTermList18positionlist_countEv"                          ; magicseg='TEXT32' len=42
  "__ZNK13MultiTermList6at_endEv"                                       ; magicseg='TEXT32' len=29
  "__ZNK13MultiTermList7get_wdfEv"                                      ; magicseg='TEXT32' len=30
  "__ZNK14AndNotPostList10get_weightEv"                                 ; magicseg='TEXT32' len=35
  "__ZNK14AndNotPostList13get_doclengthEv"                              ; magicseg='TEXT32' len=38
  "__ZNK14AndNotPostList13get_maxweightEv"                              ; magicseg='TEXT32' len=38
  "__ZNK14AndNotPostList15get_descriptionEv"                            ; magicseg='TEXT32' len=40
  "__ZNK14AndNotPostList16get_termfreq_estEv"                           ; magicseg='TEXT32' len=41
  "__ZNK14AndNotPostList16get_termfreq_maxEv"                           ; magicseg='TEXT32' len=41
  "__ZNK14AndNotPostList16get_termfreq_minEv"                           ; magicseg='TEXT32' len=41
  "__ZNK14AndNotPostList6at_endEv"                                      ; magicseg='TEXT32' len=30
  "__ZNK14AndNotPostList9get_docidEv"                                   ; magicseg='TEXT32' len=33
  "__ZNK14BranchPostList18open_position_listEv"                         ; magicseg='TEXT32' len=43
  "__ZNK14BranchPostList7get_wdfEv"                                     ; magicseg='TEXT32' len=31
  "__ZNK14FilterPostList10get_weightEv"                                 ; magicseg='TEXT32' len=35
  "__ZNK14FilterPostList13get_maxweightEv"                              ; magicseg='TEXT32' len=38
  "__ZNK14FilterPostList15get_descriptionEv"                            ; magicseg='TEXT32' len=40
  "__ZNK14OmDocumentTerm15get_descriptionEv"                            ; magicseg='TEXT32' len=40
  "__ZNK14PhrasePostList15get_descriptionEv"                            ; magicseg='TEXT32' len=40
  "__ZNK14PhrasePostList16get_termfreq_estEv"                           ; magicseg='TEXT32' len=41  weak
  "__ZNK14PhrasePostList7get_wdfEv"                                     ; magicseg='TEXT32' len=31
  "__ZNK14SelectPostList10get_weightEv"                                 ; magicseg='TEXT32' len=35  weak
  "__ZNK14SelectPostList13get_doclengthEv"                              ; magicseg='TEXT32' len=38  weak
  "__ZNK14SelectPostList13get_maxweightEv"                              ; magicseg='TEXT32' len=38  weak
  "__ZNK14SelectPostList15get_descriptionEv"                            ; magicseg='TEXT32' len=40  weak
  "__ZNK14SelectPostList16get_termfreq_maxEv"                           ; magicseg='TEXT32' len=41  weak
  "__ZNK14SelectPostList16get_termfreq_minEv"                           ; magicseg='TEXT32' len=41  weak
  "__ZNK14SelectPostList18open_position_listEv"                         ; magicseg='TEXT32' len=43  weak
  "__ZNK14SelectPostList6at_endEv"                                      ; magicseg='TEXT32' len=30  weak
  "__ZNK14SelectPostList9get_docidEv"                                   ; magicseg='TEXT32' len=33  weak
  "__ZNK14VectorTermList12get_termfreqEv"                               ; magicseg='TEXT32' len=37  weak
  "__ZNK14VectorTermList12get_termnameEv"                               ; magicseg='TEXT32' len=37  weak
  "__ZNK14VectorTermList15get_approx_sizeEv"                            ; magicseg='TEXT32' len=40  weak
  "__ZNK14VectorTermList16accumulate_statsERN6Xapian8Internal11ExpandStatsE"                ; magicseg='TEXT32' len=72  weak
  "__ZNK14VectorTermList18positionlist_beginEv"                         ; magicseg='TEXT32' len=43  weak
  "__ZNK14VectorTermList18positionlist_countEv"                         ; magicseg='TEXT32' len=43  weak
  "__ZNK14VectorTermList6at_endEv"                                      ; magicseg='TEXT32' len=30  weak
  "__ZNK14VectorTermList7get_wdfEv"                                     ; magicseg='TEXT32' len=31  weak
  "__ZNK15filter_group_idltERKS_"                                       ; magicseg='TEXT32' len=29  weak
  "__ZNK15FlintTable_base12get_revisionEv"                              ; magicseg='TEXT32' len=38  weak
  "__ZNK15FlintTable_base14get_block_sizeEv"                            ; magicseg='TEXT32' len=40  weak
  "__ZNK15FlintTable_base14get_item_countEv"                            ; magicseg='TEXT32' len=40  weak
  "__ZNK15FlintTable_base14get_last_blockEv"                            ; magicseg='TEXT32' len=40  weak
  "__ZNK15FlintTable_base14get_sequentialEv"                            ; magicseg='TEXT32' len=40  weak
  "__ZNK15FlintTable_base17get_have_fakerootEv"                         ; magicseg='TEXT32' len=43  weak
  "__ZNK15FlintTable_base19block_free_at_startEm"                       ; magicseg='TEXT32' len=45
  "__ZNK15FlintTable_base8get_rootEv"                                   ; magicseg='TEXT32' len=33  weak
  "__ZNK15FlintTable_base8is_emptyEv"                                   ; magicseg='TEXT32' len=33
  "__ZNK15FlintTable_base9get_levelEv"                                  ; magicseg='TEXT32' len=34  weak
  "__ZNK15FlintValueTable14get_all_valuesERSt3mapIjSsSt4lessIjESaISt4pairIKjSsEEEj"         ; magicseg='TEXT32' len=79
  "__ZNK15FlintValueTable9get_valueERSsjj"                              ; magicseg='TEXT32' len=38
  "__ZNK16AndMaybePostList10get_weightEv"                               ; magicseg='TEXT32' len=37
  "__ZNK16AndMaybePostList13get_doclengthEv"                            ; magicseg='TEXT32' len=40
  "__ZNK16AndMaybePostList13get_maxweightEv"                            ; magicseg='TEXT32' len=40
  "__ZNK16AndMaybePostList15get_descriptionEv"                          ; magicseg='TEXT32' len=42
  "__ZNK16AndMaybePostList16get_termfreq_estEv"                         ; magicseg='TEXT32' len=43
  "__ZNK16AndMaybePostList16get_termfreq_maxEv"                         ; magicseg='TEXT32' len=43
  "__ZNK16AndMaybePostList16get_termfreq_minEv"                         ; magicseg='TEXT32' len=43
  "__ZNK16AndMaybePostList6at_endEv"                                    ; magicseg='TEXT32' len=32
  "__ZNK16AndMaybePostList9get_docidEv"                                 ; magicseg='TEXT32' len=35
  "__ZNK16FlintRecordTable10get_recordEj"                               ; magicseg='TEXT32' len=37
  "__ZNK16FlintRecordTable12get_doccountEv"                             ; magicseg='TEXT32' len=39
  "__ZNK16InMemoryDatabase10doc_existsEj"                               ; magicseg='TEXT32' len=37
  "__ZNK16InMemoryDatabase11term_existsERKSs"                           ; magicseg='TEXT32' len=41
  "__ZNK16InMemoryDatabase12get_avlengthEv"                             ; magicseg='TEXT32' len=39
  "__ZNK16InMemoryDatabase12get_doccountEv"                             ; magicseg='TEXT32' len=39
  "__ZNK16InMemoryDatabase12get_termfreqERKSs"                          ; magicseg='TEXT32' len=42
  "__ZNK16InMemoryDatabase13get_doclengthEj"                            ; magicseg='TEXT32' len=40
  "__ZNK16InMemoryDatabase13get_lastdocidEv"                            ; magicseg='TEXT32' len=40
  "__ZNK16InMemoryDatabase13has_positionsEv"                            ; magicseg='TEXT32' len=40
  "__ZNK16InMemoryDatabase13open_alltermsERKSs"                         ; magicseg='TEXT32' len=43
  "__ZNK16InMemoryDatabase13open_documentEjb"                           ; magicseg='TEXT32' len=41
  "__ZNK16InMemoryDatabase14open_post_listERKSs"                        ; magicseg='TEXT32' len=44
  "__ZNK16InMemoryDatabase14open_term_listEj"                           ; magicseg='TEXT32' len=41
  "__ZNK16InMemoryDatabase18open_position_listEjRKSs"                   ; magicseg='TEXT32' len=49
  "__ZNK16InMemoryDatabase19get_collection_freqERKSs"                   ; magicseg='TEXT32' len=49
  "__ZNK16InMemoryDocument11do_get_dataEv"                              ; magicseg='TEXT32' len=38
  "__ZNK16InMemoryDocument12do_get_valueEj"                             ; magicseg='TEXT32' len=39
  "__ZNK16InMemoryDocument17do_get_all_valuesEv"                        ; magicseg='TEXT32' len=44
  "__ZNK16InMemoryPostList12get_termfreqEv"                             ; magicseg='TEXT32' len=39
  "__ZNK16InMemoryPostList13get_doclengthEv"                            ; magicseg='TEXT32' len=40
  "__ZNK16InMemoryPostList15get_descriptionEv"                          ; magicseg='TEXT32' len=42
  "__ZNK16InMemoryPostList18open_position_listEv"                       ; magicseg='TEXT32' len=45
  "__ZNK16InMemoryPostList6at_endEv"                                    ; magicseg='TEXT32' len=32
  "__ZNK16InMemoryPostList7get_wdfEv"                                   ; magicseg='TEXT32' len=33
  "__ZNK16InMemoryPostList9get_docidEv"                                 ; magicseg='TEXT32' len=35
  "__ZNK16InMemoryTermList12get_termfreqEv"                             ; magicseg='TEXT32' len=39
  "__ZNK16InMemoryTermList12get_termnameEv"                             ; magicseg='TEXT32' len=39
  "__ZNK16InMemoryTermList15get_approx_sizeEv"                          ; magicseg='TEXT32' len=42
  "__ZNK16InMemoryTermList16accumulate_statsERN6Xapian8Internal11ExpandStatsE"              ; magicseg='TEXT32' len=74
  "__ZNK16InMemoryTermList18positionlist_beginEv"                       ; magicseg='TEXT32' len=45
  "__ZNK16InMemoryTermList18positionlist_countEv"                       ; magicseg='TEXT32' len=45
  "__ZNK16InMemoryTermList6at_endEv"                                    ; magicseg='TEXT32' len=32
  "__ZNK16InMemoryTermList7get_wdfEv"                                   ; magicseg='TEXT32' len=33
  "__ZNK17FlintAllTermsList12get_termfreqEv"                            ; magicseg='TEXT32' len=40
  "__ZNK17FlintAllTermsList12get_termnameEv"                            ; magicseg='TEXT32' len=40
  "__ZNK17FlintAllTermsList15get_approx_sizeEv"                         ; magicseg='TEXT32' len=43
  "__ZNK17FlintAllTermsList19get_collection_freqEv"                     ; magicseg='TEXT32' len=47
  "__ZNK17FlintAllTermsList26read_termfreq_and_collfreqEv"              ; magicseg='TEXT32' len=54
  "__ZNK17FlintAllTermsList6at_endEv"                                   ; magicseg='TEXT32' len=33
  "__ZNK17FlintPositionList12get_positionEv"                            ; magicseg='TEXT32' len=40
  "__ZNK17FlintPositionList6at_endEv"                                   ; magicseg='TEXT32' len=33
  "__ZNK17FlintPositionList8get_sizeEv"                                 ; magicseg='TEXT32' len=35
  "__ZNK17FlintSynonymTable11is_modifiedEv"                             ; magicseg='TEXT32' len=39  weak
  "__ZNK17MultiAllTermsList12get_termfreqEv"                            ; magicseg='TEXT32' len=40
  "__ZNK17MultiAllTermsList12get_termnameEv"                            ; magicseg='TEXT32' len=40
  "__ZNK17MultiAllTermsList15get_approx_sizeEv"                         ; magicseg='TEXT32' len=43
  "__ZNK17MultiAllTermsList19get_collection_freqEv"                     ; magicseg='TEXT32' len=47
  "__ZNK17MultiAllTermsList6at_endEv"                                   ; magicseg='TEXT32' len=33
  "__ZNK18FlintPostListTable12get_termfreqERKSs"                        ; magicseg='TEXT32' len=44
  "__ZNK18FlintPostListTable13get_lastdocidEv"                          ; magicseg='TEXT32' len=42
  "__ZNK18FlintPostListTable16get_total_lengthEv"                       ; magicseg='TEXT32' len=45
  "__ZNK18FlintPostListTable19get_collection_freqERKSs"                 ; magicseg='TEXT32' len=51
  "__ZNK18FlintSpellingTable11is_modifiedEv"                            ; magicseg='TEXT32' len=40  weak
  "__ZNK18FlintSpellingTable18get_word_frequencyERKSs"                  ; magicseg='TEXT32' len=50
  "__ZNK18LocalStatsGatherer9get_statsEv"                               ; magicseg='TEXT32' len=37
  "__ZNK18ValueRangePostList10get_weightEv"                             ; magicseg='TEXT32' len=39
  "__ZNK18ValueRangePostList13get_doclengthEv"                          ; magicseg='TEXT32' len=42
  "__ZNK18ValueRangePostList13get_maxweightEv"                          ; magicseg='TEXT32' len=42
  "__ZNK18ValueRangePostList15get_descriptionEv"                        ; magicseg='TEXT32' len=44
  "__ZNK18ValueRangePostList16get_termfreq_estEv"                       ; magicseg='TEXT32' len=45
  "__ZNK18ValueRangePostList16get_termfreq_maxEv"                       ; magicseg='TEXT32' len=45
  "__ZNK18ValueRangePostList16get_termfreq_minEv"                       ; magicseg='TEXT32' len=45
  "__ZNK18ValueRangePostList18open_position_listEv"                     ; magicseg='TEXT32' len=47
  "__ZNK18ValueRangePostList6at_endEv"                                  ; magicseg='TEXT32' len=34
  "__ZNK18ValueRangePostList9get_docidEv"                               ; magicseg='TEXT32' len=37
  "__ZNK19ExactPhrasePostList15get_descriptionEv"                       ; magicseg='TEXT32' len=45
  "__ZNK19ExactPhrasePostList16get_termfreq_estEv"                      ; magicseg='TEXT32' len=46
  "__ZNK19ExactPhrasePostList7get_wdfEv"                                ; magicseg='TEXT32' len=36
  "__ZNK19ExtraWeightPostList10get_weightEv"                            ; magicseg='TEXT32' len=40  weak
  "__ZNK19ExtraWeightPostList13get_doclengthEv"                         ; magicseg='TEXT32' len=43  weak
  "__ZNK19ExtraWeightPostList13get_maxweightEv"                         ; magicseg='TEXT32' len=43  weak
  "__ZNK19ExtraWeightPostList15get_descriptionEv"                       ; magicseg='TEXT32' len=45  weak
  "__ZNK19ExtraWeightPostList16get_termfreq_estEv"                      ; magicseg='TEXT32' len=46  weak
  "__ZNK19ExtraWeightPostList16get_termfreq_maxEv"                      ; magicseg='TEXT32' len=46  weak
  "__ZNK19ExtraWeightPostList16get_termfreq_minEv"                      ; magicseg='TEXT32' len=46  weak
  "__ZNK19ExtraWeightPostList18open_position_listEv"                    ; magicseg='TEXT32' len=48  weak
  "__ZNK19ExtraWeightPostList6at_endEv"                                 ; magicseg='TEXT32' len=35  weak
  "__ZNK19ExtraWeightPostList9get_docidEv"                              ; magicseg='TEXT32' len=38  weak
  "__ZNK19FreqAdderOrTermList12get_termfreqEv"                          ; magicseg='TEXT32' len=42
  "__ZNK19PostlistChunkReader13get_doclengthEv"                         ; magicseg='TEXT32' len=43  weak
  "__ZNK19PostlistChunkReader7get_wdfEv"                                ; magicseg='TEXT32' len=36  weak
  "__ZNK19PostlistChunkReader9get_docidEv"                              ; magicseg='TEXT32' len=38  weak
  "__ZNK19PostlistChunkReader9is_at_endEv"                              ; magicseg='TEXT32' len=38  weak
  "__ZNK20FlintAllDocsPostList12get_termfreqEv"                         ; magicseg='TEXT32' len=43  weak
  "__ZNK20FlintAllDocsPostList13get_doclengthEv"                        ; magicseg='TEXT32' len=44  weak
  "__ZNK20FlintAllDocsPostList15get_descriptionEv"                      ; magicseg='TEXT32' len=46
  "__ZNK20FlintAllDocsPostList18open_position_listEv"                   ; magicseg='TEXT32' len=49  weak
  "__ZNK20FlintAllDocsPostList6at_endEv"                                ; magicseg='TEXT32' len=36  weak
  "__ZNK20FlintAllDocsPostList7get_wdfEv"                               ; magicseg='TEXT32' len=37  weak
  "__ZNK20FlintAllDocsPostList9get_docidEv"                             ; magicseg='TEXT32' len=39  weak
  "__ZNK20FlintSynonymTermList12get_termfreqEv"                         ; magicseg='TEXT32' len=43
  "__ZNK20FlintSynonymTermList12get_termnameEv"                         ; magicseg='TEXT32' len=43
  "__ZNK20FlintSynonymTermList15get_approx_sizeEv"                      ; magicseg='TEXT32' len=46
  "__ZNK20FlintSynonymTermList19get_collection_freqEv"                  ; magicseg='TEXT32' len=50
  "__ZNK20FlintSynonymTermList6at_endEv"                                ; magicseg='TEXT32' len=36
  "__ZNK20InMemoryAllTermsList12get_termfreqEv"                         ; magicseg='TEXT32' len=43
  "__ZNK20InMemoryAllTermsList12get_termnameEv"                         ; magicseg='TEXT32' len=43
  "__ZNK20InMemoryAllTermsList15get_approx_sizeEv"                      ; magicseg='TEXT32' len=46
  "__ZNK20InMemoryAllTermsList19get_collection_freqEv"                  ; magicseg='TEXT32' len=50
  "__ZNK20InMemoryAllTermsList6at_endEv"                                ; magicseg='TEXT32' len=36
  "__ZNK20InMemoryPositionList12get_positionEv"                         ; magicseg='TEXT32' len=43
  "__ZNK20InMemoryPositionList6at_endEv"                                ; magicseg='TEXT32' len=36
  "__ZNK20InMemoryPositionList8get_sizeEv"                              ; magicseg='TEXT32' len=38
  "__ZNK21FlintModifiedPostList12get_termfreqEv"                        ; magicseg='TEXT32' len=44
  "__ZNK21FlintModifiedPostList13get_doclengthEv"                       ; magicseg='TEXT32' len=45
  "__ZNK21FlintModifiedPostList15get_descriptionEv"                     ; magicseg='TEXT32' len=47
  "__ZNK21FlintModifiedPostList18open_position_listEv"                  ; magicseg='TEXT32' len=50
  "__ZNK21FlintModifiedPostList6at_endEv"                               ; magicseg='TEXT32' len=37
  "__ZNK21FlintModifiedPostList7get_wdfEv"                              ; magicseg='TEXT32' len=38
  "__ZNK21FlintModifiedPostList9get_docidEv"                            ; magicseg='TEXT32' len=40
  "__ZNK21FlintSpellingTermList12get_termfreqEv"                        ; magicseg='TEXT32' len=44
  "__ZNK21FlintSpellingTermList12get_termnameEv"                        ; magicseg='TEXT32' len=44
  "__ZNK21FlintSpellingTermList15get_approx_sizeEv"                     ; magicseg='TEXT32' len=47
  "__ZNK21FlintSpellingTermList16accumulate_statsERN6Xapian8Internal11ExpandStatsE"         ; magicseg='TEXT32' len=79
  "__ZNK21FlintSpellingTermList18positionlist_beginEv"                  ; magicseg='TEXT32' len=50
  "__ZNK21FlintSpellingTermList18positionlist_countEv"                  ; magicseg='TEXT32' len=50
  "__ZNK21FlintSpellingTermList19get_collection_freqEv"                 ; magicseg='TEXT32' len=51
  "__ZNK21FlintSpellingTermList6at_endEv"                               ; magicseg='TEXT32' len=37
  "__ZNK21FlintSpellingTermList7get_wdfEv"                              ; magicseg='TEXT32' len=38
  "__ZNK21FlintWritableDatabase11add_synonymERKSsS1_"                   ; magicseg='TEXT32' len=49
  "__ZNK21FlintWritableDatabase11term_existsERKSs"                      ; magicseg='TEXT32' len=46
  "__ZNK21FlintWritableDatabase12add_spellingERKSsj"                    ; magicseg='TEXT32' len=48
  "__ZNK21FlintWritableDatabase12get_avlengthEv"                        ; magicseg='TEXT32' len=44
  "__ZNK21FlintWritableDatabase12get_doccountEv"                        ; magicseg='TEXT32' len=44
  "__ZNK21FlintWritableDatabase12get_termfreqERKSs"                     ; magicseg='TEXT32' len=47
  "__ZNK21FlintWritableDatabase13get_doclengthEj"                       ; magicseg='TEXT32' len=45
  "__ZNK21FlintWritableDatabase13get_lastdocidEv"                       ; magicseg='TEXT32' len=45
  "__ZNK21FlintWritableDatabase13has_positionsEv"                       ; magicseg='TEXT32' len=45
  "__ZNK21FlintWritableDatabase13open_alltermsERKSs"                    ; magicseg='TEXT32' len=48
  "__ZNK21FlintWritableDatabase13open_documentEjb"                      ; magicseg='TEXT32' len=46
  "__ZNK21FlintWritableDatabase14clear_synonymsERKSs"                   ; magicseg='TEXT32' len=49
  "__ZNK21FlintWritableDatabase14do_flush_constEv"                      ; magicseg='TEXT32' len=46
  "__ZNK21FlintWritableDatabase14open_post_listERKSs"                   ; magicseg='TEXT32' len=49
  "__ZNK21FlintWritableDatabase14open_term_listEj"                      ; magicseg='TEXT32' len=46
  "__ZNK21FlintWritableDatabase14remove_synonymERKSsS1_"                ; magicseg='TEXT32' len=52
  "__ZNK21FlintWritableDatabase15remove_spellingERKSsj"                 ; magicseg='TEXT32' len=51
  "__ZNK21FlintWritableDatabase18open_position_listEjRKSs"              ; magicseg='TEXT32' len=54
  "__ZNK21FlintWritableDatabase19get_collection_freqERKSs"              ; magicseg='TEXT32' len=54
  "__ZNK21FlintWritableDatabase20open_synonym_keylistERKSs"             ; magicseg='TEXT32' len=55
  "__ZNK21FlintWritableDatabase21open_synonym_termlistERKSs"            ; magicseg='TEXT32' len=56
  "__ZNK21FlintWritableDatabase22get_spelling_frequencyERKSs"           ; magicseg='TEXT32' len=57
  "__ZNK21FlintWritableDatabase22open_spelling_termlistERKSs"           ; magicseg='TEXT32' len=57
  "__ZNK21FlintWritableDatabase22open_spelling_wordlistEv"              ; magicseg='TEXT32' len=54
  "__ZNK22FlintSpellingWordsList12get_termfreqEv"                       ; magicseg='TEXT32' len=45
  "__ZNK22FlintSpellingWordsList12get_termnameEv"                       ; magicseg='TEXT32' len=45
  "__ZNK22FlintSpellingWordsList15get_approx_sizeEv"                    ; magicseg='TEXT32' len=48
  "__ZNK22FlintSpellingWordsList19get_collection_freqEv"                ; magicseg='TEXT32' len=52
  "__ZNK22FlintSpellingWordsList6at_endEv"                              ; magicseg='TEXT32' len=38
  "__ZNK23InMemoryAllDocsPostList12get_termfreqEv"                      ; magicseg='TEXT32' len=46
  "__ZNK23InMemoryAllDocsPostList13get_doclengthEv"                     ; magicseg='TEXT32' len=47
  "__ZNK23InMemoryAllDocsPostList15get_descriptionEv"                   ; magicseg='TEXT32' len=49
  "__ZNK23InMemoryAllDocsPostList18open_position_listEv"                ; magicseg='TEXT32' len=52
  "__ZNK23InMemoryAllDocsPostList6at_endEv"                             ; magicseg='TEXT32' len=39
  "__ZNK23InMemoryAllDocsPostList7get_wdfEv"                            ; magicseg='TEXT32' len=40
  "__ZNK23InMemoryAllDocsPostList9get_docidEv"                          ; magicseg='TEXT32' len=42
  "__ZNK25ContiguousAllDocsPostList12get_termfreqEv"                    ; magicseg='TEXT32' len=48
  "__ZNK25ContiguousAllDocsPostList13get_doclengthEv"                   ; magicseg='TEXT32' len=49
  "__ZNK25ContiguousAllDocsPostList15get_descriptionEv"                 ; magicseg='TEXT32' len=51
  "__ZNK25ContiguousAllDocsPostList18open_position_listEv"              ; magicseg='TEXT32' len=54
  "__ZNK25ContiguousAllDocsPostList6at_endEv"                           ; magicseg='TEXT32' len=41
  "__ZNK25ContiguousAllDocsPostList7get_wdfEv"                          ; magicseg='TEXT32' len=42
  "__ZNK25ContiguousAllDocsPostList9get_docidEv"                        ; magicseg='TEXT32' len=44
  "__ZNK26PrefixCompressedStringItor6at_endEv"                          ; magicseg='TEXT32' len=42  weak
  "__ZNK26PrefixCompressedStringItordeEv"                               ; magicseg='TEXT32' len=37  weak
  "__ZNK4Key_11get_addressEv"                                           ; magicseg='TEXT32' len=25  weak
  "__ZNK4Key_4readEPSs"                                                 ; magicseg='TEXT32' len=19  weak
  "__ZNK4Key_6lengthEv"                                                 ; magicseg='TEXT32' len=19  weak
  "__ZNK4Key_eqES_"                                                     ; magicseg='TEXT32' len=15
  "__ZNK4Key_ixEj"                                                      ; magicseg='TEXT32' len=14  weak
  "__ZNK4Key_leES_"                                                     ; magicseg='TEXT32' len=15  weak
  "__ZNK4Key_ltES_"                                                     ; magicseg='TEXT32' len=15
  "__ZNK4Term11get_termposEv"                                           ; magicseg='TEXT32' len=25  weak
  "__ZNK4Term15as_query_objectEv"                                       ; magicseg='TEXT32' len=29  weak
  "__ZNK4Term16as_partial_queryEP5State"                                ; magicseg='TEXT32' len=36
  "__ZNK4Term19as_wildcarded_queryEP5State"                             ; magicseg='TEXT32' len=39
  "__ZNK4Term19get_filter_group_idEv"                                   ; magicseg='TEXT32' len=33  weak
  "__ZNK4Term22as_query_with_synonymsEv"                                ; magicseg='TEXT32' len=36
  "__ZNK4Term27as_query_with_auto_synonymsEv"                           ; magicseg='TEXT32' len=41
  "__ZNK4Term8as_queryEv"                                               ; magicseg='TEXT32' len=21  weak
  "__ZNK4Term9make_termEv"                                              ; magicseg='TEXT32' len=22
  "__ZNK5RSetI9get_rsizeEv"                                             ; magicseg='TEXT32' len=23  weak
  "__ZNK5State10default_opEv"                                           ; magicseg='TEXT32' len=25  weak
  "__ZNK5State11is_stopwordEPK4Term"                                    ; magicseg='TEXT32' len=32  weak
  "__ZNK5State12get_databaseEv"                                         ; magicseg='TEXT32' len=27  weak
  "__ZNK6Xapian10BM25Weight11get_maxpartEv"                             ; magicseg='TEXT32' len=39
  "__ZNK6Xapian10BM25Weight11get_sumpartEjd"                            ; magicseg='TEXT32' len=40
  "__ZNK6Xapian10BM25Weight11unserialiseERKSs"                          ; magicseg='TEXT32' len=42
  "__ZNK6Xapian10BM25Weight12get_maxextraEv"                            ; magicseg='TEXT32' len=40
  "__ZNK6Xapian10BM25Weight12get_sumextraEd"                            ; magicseg='TEXT32' len=40
  "__ZNK6Xapian10BM25Weight15calc_termweightEv"                         ; magicseg='TEXT32' len=43
  "__ZNK6Xapian10BM25Weight27get_sumpart_needs_doclengthEv"             ; magicseg='TEXT32' len=55
  "__ZNK6Xapian10BM25Weight4nameEv"                                     ; magicseg='TEXT32' len=31
  "__ZNK6Xapian10BM25Weight5cloneEv"                                    ; magicseg='TEXT32' len=32
  "__ZNK6Xapian10BM25Weight9serialiseEv"                                ; magicseg='TEXT32' len=36
  "__ZNK6Xapian10BoolWeight11get_maxpartEv"                             ; magicseg='TEXT32' len=39
  "__ZNK6Xapian10BoolWeight11get_sumpartEjd"                            ; magicseg='TEXT32' len=40
  "__ZNK6Xapian10BoolWeight11unserialiseERKSs"                          ; magicseg='TEXT32' len=42
  "__ZNK6Xapian10BoolWeight12get_maxextraEv"                            ; magicseg='TEXT32' len=40
  "__ZNK6Xapian10BoolWeight12get_sumextraEd"                            ; magicseg='TEXT32' len=40
  "__ZNK6Xapian10BoolWeight27get_sumpart_needs_doclengthEv"             ; magicseg='TEXT32' len=55
  "__ZNK6Xapian10BoolWeight4nameEv"                                     ; magicseg='TEXT32' len=31
  "__ZNK6Xapian10BoolWeight5cloneEv"                                    ; magicseg='TEXT32' len=32
  "__ZNK6Xapian10BoolWeight9serialiseEv"                                ; magicseg='TEXT32' len=36
  "__ZNK6Xapian10TradWeight11get_maxpartEv"                             ; magicseg='TEXT32' len=39
  "__ZNK6Xapian10TradWeight11get_sumpartEjd"                            ; magicseg='TEXT32' len=40
  "__ZNK6Xapian10TradWeight11unserialiseERKSs"                          ; magicseg='TEXT32' len=42
  "__ZNK6Xapian10TradWeight12get_maxextraEv"                            ; magicseg='TEXT32' len=40
  "__ZNK6Xapian10TradWeight12get_sumextraEd"                            ; magicseg='TEXT32' len=40
  "__ZNK6Xapian10TradWeight15calc_termweightEv"                         ; magicseg='TEXT32' len=43
  "__ZNK6Xapian10TradWeight27get_sumpart_needs_doclengthEv"             ; magicseg='TEXT32' len=55
  "__ZNK6Xapian10TradWeight4nameEv"                                     ; magicseg='TEXT32' len=31
  "__ZNK6Xapian10TradWeight5cloneEv"                                    ; magicseg='TEXT32' len=32
  "__ZNK6Xapian10TradWeight9serialiseEv"                                ; magicseg='TEXT32' len=36
  "__ZNK6Xapian11QueryParser12unstem_beginERKSs"                        ; magicseg='TEXT32' len=44
  "__ZNK6Xapian11QueryParser14get_default_opEv"                         ; magicseg='TEXT32' len=43
  "__ZNK6Xapian11QueryParser14stoplist_beginEv"                         ; magicseg='TEXT32' len=43
  "__ZNK6Xapian11QueryParser15get_descriptionEv"                        ; magicseg='TEXT32' len=44
  "__ZNK6Xapian11QueryParser26get_corrected_query_stringEv"             ; magicseg='TEXT32' len=55
  "__ZNK6Xapian12ESetIterator10get_weightEv"                            ; magicseg='TEXT32' len=40
  "__ZNK6Xapian12ESetIterator15get_descriptionEv"                       ; magicseg='TEXT32' len=45
  "__ZNK6Xapian12ESetIteratordeEv"                                      ; magicseg='TEXT32' len=30
  "__ZNK6Xapian12MSetIterator10get_weightEv"                            ; magicseg='TEXT32' len=40
  "__ZNK6Xapian12MSetIterator11get_percentEv"                           ; magicseg='TEXT32' len=41
  "__ZNK6Xapian12MSetIterator12get_documentEv"                          ; magicseg='TEXT32' len=42
  "__ZNK6Xapian12MSetIterator15get_descriptionEv"                       ; magicseg='TEXT32' len=45
  "__ZNK6Xapian12MSetIterator16get_collapse_keyEv"                      ; magicseg='TEXT32' len=46
  "__ZNK6Xapian12MSetIterator18get_collapse_countEv"                    ; magicseg='TEXT32' len=48
  "__ZNK6Xapian12MSetIteratordeEv"                                      ; magicseg='TEXT32' len=30
  "__ZNK6Xapian12TermIterator12get_termfreqEv"                          ; magicseg='TEXT32' len=42
  "__ZNK6Xapian12TermIterator15get_descriptionEv"                       ; magicseg='TEXT32' len=45
  "__ZNK6Xapian12TermIterator16positionlist_endEv"                      ; magicseg='TEXT32' len=46  weak
  "__ZNK6Xapian12TermIterator18positionlist_beginEv"                    ; magicseg='TEXT32' len=48
  "__ZNK6Xapian12TermIterator18positionlist_countEv"                    ; magicseg='TEXT32' len=48
  "__ZNK6Xapian12TermIterator7get_wdfEv"                                ; magicseg='TEXT32' len=36
  "__ZNK6Xapian12TermIterator8Internal19get_collection_freqEv"          ; magicseg='TEXT32' len=58
  "__ZNK6Xapian12TermIteratordeEv"                                      ; magicseg='TEXT32' len=30
  "__ZNK6Xapian12Utf8Iterator25calculate_sequence_lengthEv"             ; magicseg='TEXT32' len=55
  "__ZNK6Xapian12Utf8Iterator3rawEv"                                    ; magicseg='TEXT32' len=32  weak
  "__ZNK6Xapian12Utf8IteratordeEv"                                      ; magicseg='TEXT32' len=30
  "__ZNK6Xapian12Utf8IteratoreqERKS0_"                                  ; magicseg='TEXT32' len=34  weak
  "__ZNK6Xapian12Utf8IteratorneERKS0_"                                  ; magicseg='TEXT32' len=34  weak
  "__ZNK6Xapian13SimpleStopper15get_descriptionEv"                      ; magicseg='TEXT32' len=46
  "__ZNK6Xapian13SimpleStopperclERKSs"                                  ; magicseg='TEXT32' len=34  weak
  "__ZNK6Xapian13TermGenerator11get_termposEv"                          ; magicseg='TEXT32' len=42
  "__ZNK6Xapian13TermGenerator12get_documentEv"                         ; magicseg='TEXT32' len=43
  "__ZNK6Xapian13TermGenerator15get_descriptionEv"                      ; magicseg='TEXT32' len=46
  "__ZNK6Xapian13ValueIterator11get_valuenoEv"                          ; magicseg='TEXT32' len=42
  "__ZNK6Xapian13ValueIterator15get_descriptionEv"                      ; magicseg='TEXT32' len=46
  "__ZNK6Xapian13ValueIteratordeEv"                                     ; magicseg='TEXT32' len=31
  "__ZNK6Xapian13ValueIteratorptEv"                                     ; magicseg='TEXT32' len=31
  "__ZNK6Xapian15ByQueryIndexCmpclERKSsS2_"                             ; magicseg='TEXT32' len=39  weak
  "__ZNK6Xapian15PostingIterator13get_doclengthEv"                      ; magicseg='TEXT32' len=46
  "__ZNK6Xapian15PostingIterator15get_descriptionEv"                    ; magicseg='TEXT32' len=48
  "__ZNK6Xapian15PostingIterator18positionlist_beginEv"                 ; magicseg='TEXT32' len=51
  "__ZNK6Xapian15PostingIterator7get_wdfEv"                             ; magicseg='TEXT32' len=39
  "__ZNK6Xapian15PostingIterator8Internal16get_collapse_keyEv"          ; magicseg='TEXT32' len=58  weak
  "__ZNK6Xapian15PostingIterator8Internal7get_wdfEv"                    ; magicseg='TEXT32' len=48  weak
  "__ZNK6Xapian15PostingIteratordeEv"                                   ; magicseg='TEXT32' len=33
  "__ZNK6Xapian16ExpandDeciderAndclERKSs"                               ; magicseg='TEXT32' len=37
  "__ZNK6Xapian16PositionIterator15get_descriptionEv"                   ; magicseg='TEXT32' len=49
  "__ZNK6Xapian16PositionIteratordeEv"                                  ; magicseg='TEXT32' len=34
  "__ZNK6Xapian16WritableDatabase11add_synonymERKSsS2_"                 ; magicseg='TEXT32' len=51
  "__ZNK6Xapian16WritableDatabase12add_spellingERKSsj"                  ; magicseg='TEXT32' len=50
  "__ZNK6Xapian16WritableDatabase14clear_synonymsERKSs"                 ; magicseg='TEXT32' len=51
  "__ZNK6Xapian16WritableDatabase14remove_synonymERKSsS2_"              ; magicseg='TEXT32' len=54
  "__ZNK6Xapian16WritableDatabase15get_descriptionEv"                   ; magicseg='TEXT32' len=49
  "__ZNK6Xapian16WritableDatabase15remove_spellingERKSsj"               ; magicseg='TEXT32' len=53
  "__ZNK6Xapian17InternalStemDutch15get_descriptionEv"                  ; magicseg='TEXT32' len=50
  "__ZNK6Xapian18InternalStemDanish15get_descriptionEv"                 ; magicseg='TEXT32' len=51
  "__ZNK6Xapian18InternalStemFrench15get_descriptionEv"                 ; magicseg='TEXT32' len=51
  "__ZNK6Xapian18InternalStemGerman15get_descriptionEv"                 ; magicseg='TEXT32' len=51
  "__ZNK6Xapian18InternalStemLovins15get_descriptionEv"                 ; magicseg='TEXT32' len=51
  "__ZNK6Xapian18InternalStemPorter15get_descriptionEv"                 ; magicseg='TEXT32' len=51
  "__ZNK6Xapian19InternalStemEnglish15get_descriptionEv"                ; magicseg='TEXT32' len=52
  "__ZNK6Xapian19InternalStemFinnish15get_descriptionEv"                ; magicseg='TEXT32' len=52
  "__ZNK6Xapian19InternalStemGerman215get_descriptionEv"                ; magicseg='TEXT32' len=52
  "__ZNK6Xapian19InternalStemItalian15get_descriptionEv"                ; magicseg='TEXT32' len=52
  "__ZNK6Xapian19InternalStemRussian15get_descriptionEv"                ; magicseg='TEXT32' len=52
  "__ZNK6Xapian19InternalStemSpanish15get_descriptionEv"                ; magicseg='TEXT32' len=52
  "__ZNK6Xapian19InternalStemSwedish15get_descriptionEv"                ; magicseg='TEXT32' len=52
  "__ZNK6Xapian19InternalStemTurkish15get_descriptionEv"                ; magicseg='TEXT32' len=52
  "__ZNK6Xapian20InternalStemRomanian15get_descriptionEv"               ; magicseg='TEXT32' len=53
  "__ZNK6Xapian21InternalStemHungarian15get_descriptionEv"              ; magicseg='TEXT32' len=54
  "__ZNK6Xapian21InternalStemNorwegian15get_descriptionEv"              ; magicseg='TEXT32' len=54
  "__ZNK6Xapian22InternalStemPortuguese15get_descriptionEv"             ; magicseg='TEXT32' len=55
  "__ZNK6Xapian24ExpandDeciderFilterTermsclERKSs"                       ; magicseg='TEXT32' len=45
  "__ZNK6Xapian27InternalStemKraaij_pohlmann15get_descriptionEv"        ; magicseg='TEXT32' len=60
  "__ZNK6Xapian4ESet10get_eboundEv"                                     ; magicseg='TEXT32' len=31
  "__ZNK6Xapian4ESet15get_descriptionEv"                                ; magicseg='TEXT32' len=36
  "__ZNK6Xapian4ESet3endEv"                                             ; magicseg='TEXT32' len=23
  "__ZNK6Xapian4ESet4backEv"                                            ; magicseg='TEXT32' len=24
  "__ZNK6Xapian4ESet4sizeEv"                                            ; magicseg='TEXT32' len=24
  "__ZNK6Xapian4ESet5beginEv"                                           ; magicseg='TEXT32' len=25
  "__ZNK6Xapian4ESet5emptyEv"                                           ; magicseg='TEXT32' len=25
  "__ZNK6Xapian4ESet8Internal15get_descriptionEv"                       ; magicseg='TEXT32' len=45
  "__ZNK6Xapian4ESetixEj"                                               ; magicseg='TEXT32' len=21
  "__ZNK6Xapian4MSet12get_termfreqERKSs"                                ; magicseg='TEXT32' len=36
  "__ZNK6Xapian4MSet13get_firstitemEv"                                  ; magicseg='TEXT32' len=34
  "__ZNK6Xapian4MSet14get_termweightERKSs"                              ; magicseg='TEXT32' len=38
  "__ZNK6Xapian4MSet15get_descriptionEv"                                ; magicseg='TEXT32' len=36
  "__ZNK6Xapian4MSet16get_max_attainedEv"                               ; magicseg='TEXT32' len=37
  "__ZNK6Xapian4MSet16get_max_possibleEv"                               ; magicseg='TEXT32' len=37
  "__ZNK6Xapian4MSet18convert_to_percentEd"                             ; magicseg='TEXT32' len=39
  "__ZNK6Xapian4MSet18convert_to_percentERKNS_12MSetIteratorE"          ; magicseg='TEXT32' len=58
  "__ZNK6Xapian4MSet21get_matches_estimatedEv"                          ; magicseg='TEXT32' len=42
  "__ZNK6Xapian4MSet23get_matches_lower_boundEv"                        ; magicseg='TEXT32' len=44
  "__ZNK6Xapian4MSet23get_matches_upper_boundEv"                        ; magicseg='TEXT32' len=44
  "__ZNK6Xapian4MSet3endEv"                                             ; magicseg='TEXT32' len=23
  "__ZNK6Xapian4MSet4backEv"                                            ; magicseg='TEXT32' len=24
  "__ZNK6Xapian4MSet4sizeEv"                                            ; magicseg='TEXT32' len=24
  "__ZNK6Xapian4MSet5beginEv"                                           ; magicseg='TEXT32' len=25
  "__ZNK6Xapian4MSet5emptyEv"                                           ; magicseg='TEXT32' len=25
  "__ZNK6Xapian4MSet5fetchERKNS_12MSetIteratorE"                        ; magicseg='TEXT32' len=44
  "__ZNK6Xapian4MSet5fetchERKNS_12MSetIteratorES3_"                     ; magicseg='TEXT32' len=47
  "__ZNK6Xapian4MSet5fetchEv"                                           ; magicseg='TEXT32' len=25
  "__ZNK6Xapian4MSet8Internal11fetch_itemsEjj"                          ; magicseg='TEXT32' len=42
  "__ZNK6Xapian4MSet8Internal15get_descriptionEv"                       ; magicseg='TEXT32' len=45
  "__ZNK6Xapian4MSet8Internal16get_doc_by_indexEj"                      ; magicseg='TEXT32' len=46
  "__ZNK6Xapian4MSet8Internal27convert_to_percent_internalEd"           ; magicseg='TEXT32' len=57
  "__ZNK6Xapian4MSet8Internal9read_docsEv"                              ; magicseg='TEXT32' len=38
  "__ZNK6Xapian4MSetixEj"                                               ; magicseg='TEXT32' len=21
  "__ZNK6Xapian4RSet15get_descriptionEv"                                ; magicseg='TEXT32' len=36
  "__ZNK6Xapian4RSet4sizeEv"                                            ; magicseg='TEXT32' len=24
  "__ZNK6Xapian4RSet5emptyEv"                                           ; magicseg='TEXT32' len=25
  "__ZNK6Xapian4RSet8containsEj"                                        ; magicseg='TEXT32' len=28
  "__ZNK6Xapian4RSet8Internal15get_descriptionEv"                       ; magicseg='TEXT32' len=45
  "__ZNK6Xapian4RSet8Internal9get_itemsEv"                              ; magicseg='TEXT32' len=38  weak
  "__ZNK6Xapian4Stem15get_descriptionEv"                                ; magicseg='TEXT32' len=36
  "__ZNK6Xapian4StemclERKSs"                                            ; magicseg='TEXT32' len=24
  "__ZNK6Xapian5Error15get_descriptionEv"                               ; magicseg='TEXT32' len=37
  "__ZNK6Xapian5Error16get_error_stringEv"                              ; magicseg='TEXT32' len=38
  "__ZNK6Xapian5Error7get_msgEv"                                        ; magicseg='TEXT32' len=28  weak
  "__ZNK6Xapian5Query10get_lengthEv"                                    ; magicseg='TEXT32' len=32
  "__ZNK6Xapian5Query13get_terms_endEv"                                 ; magicseg='TEXT32' len=35  weak
  "__ZNK6Xapian5Query15get_descriptionEv"                               ; magicseg='TEXT32' len=37
  "__ZNK6Xapian5Query15get_terms_beginEv"                               ; magicseg='TEXT32' len=37
  "__ZNK6Xapian5Query5emptyEv"                                          ; magicseg='TEXT32' len=26
  "__ZNK6Xapian5Query8Internal10get_lengthEv"                           ; magicseg='TEXT32' len=41
  "__ZNK6Xapian5Query8Internal14validate_queryEv"                       ; magicseg='TEXT32' len=45
  "__ZNK6Xapian5Query8Internal15get_descriptionEv"                      ; magicseg='TEXT32' len=46
  "__ZNK6Xapian5Query8Internal16accumulate_termsERSt6vectorISt4pairISsjESaIS4_EE"           ; magicseg='TEXT32' len=77
  "__ZNK6Xapian5Query8Internal9get_termsEv"                             ; magicseg='TEXT32' len=39
  "__ZNK6Xapian5Query8Internal9serialiseERj"                            ; magicseg='TEXT32' len=40
  "__ZNK6Xapian6Weight27get_sumpart_needs_doclengthEv"                  ; magicseg='TEXT32' len=50
  "__ZNK6Xapian6Weight6createEPKNS0_8InternalEdjRKSs"                   ; magicseg='TEXT32' len=49
  "__ZNK6Xapian6Weight8Internal15perform_requestEv"                     ; magicseg='TEXT32' len=47
  "__ZNK6Xapian6Weight8Internal18get_total_termfreqERKSs"               ; magicseg='TEXT32' len=53  weak
  "__ZNK6Xapian6Weight8Internal19get_total_rset_sizeEv"                 ; magicseg='TEXT32' len=51  weak
  "__ZNK6Xapian6Weight8Internal21get_total_reltermfreqERKSs"            ; magicseg='TEXT32' len=56  weak
  "__ZNK6Xapian6Weight8Internal24get_total_average_lengthEv"            ; magicseg='TEXT32' len=56  weak
  "__ZNK6Xapian6Weight8Internal25get_total_collection_sizeEv"           ; magicseg='TEXT32' len=57  weak
  "__ZNK6Xapian7Enquire15get_descriptionEv"                             ; magicseg='TEXT32' len=39
  "__ZNK6Xapian7Enquire24get_matching_terms_beginEj"                    ; magicseg='TEXT32' len=48
  "__ZNK6Xapian7Enquire24get_matching_terms_beginERKNS_12MSetIteratorE"                     ; magicseg='TEXT32' len=67
  "__ZNK6Xapian7Enquire8get_esetEjRKNS_4RSetEidPKNS_13ExpandDeciderE"                       ; magicseg='TEXT32' len=65
  "__ZNK6Xapian7Enquire8get_msetEjjjPKNS_4RSetEPKNS_12MatchDeciderE"    ; magicseg='TEXT32' len=64
  "__ZNK6Xapian7Enquire8get_msetEjjjPKNS_4RSetEPKNS_12MatchDeciderES6_"                     ; magicseg='TEXT32' len=67
  "__ZNK6Xapian7Enquire8Internal11request_docERKNS_8Internal8MSetItemE"                     ; magicseg='TEXT32' len=67
  "__ZNK6Xapian7Enquire8Internal15get_descriptionEv"                    ; magicseg='TEXT32' len=48
  "__ZNK6Xapian7Enquire8Internal18get_matching_termsEj"                 ; magicseg='TEXT32' len=51
  "__ZNK6Xapian7Enquire8Internal18get_matching_termsERKNS_12MSetIteratorE"                  ; magicseg='TEXT32' len=70
  "__ZNK6Xapian7Enquire8Internal8get_esetEjRKNS_4RSetEidPKNS_13ExpandDeciderE"              ; magicseg='TEXT32' len=74
  "__ZNK6Xapian7Enquire8Internal8get_msetEjjjPKNS_4RSetEPKNS_12MatchDeciderES7_"            ; magicseg='TEXT32' len=76
  "__ZNK6Xapian7Enquire8Internal8read_docERKNS_8Internal8MSetItemE"     ; magicseg='TEXT32' len=63
  "__ZNK6Xapian7Enquire9get_queryEv"                                    ; magicseg='TEXT32' len=32
  "__ZNK6Xapian7Stopper15get_descriptionEv"                             ; magicseg='TEXT32' len=39
  "__ZNK6Xapian8Database11term_existsERKSs"                             ; magicseg='TEXT32' len=39
  "__ZNK6Xapian8Database12allterms_endERKSs"                            ; magicseg='TEXT32' len=40  weak
  "__ZNK6Xapian8Database12get_avlengthEv"                               ; magicseg='TEXT32' len=37
  "__ZNK6Xapian8Database12get_doccountEv"                               ; magicseg='TEXT32' len=37
  "__ZNK6Xapian8Database12get_documentEj"                               ; magicseg='TEXT32' len=37
  "__ZNK6Xapian8Database12get_termfreqERKSs"                            ; magicseg='TEXT32' len=40
  "__ZNK6Xapian8Database12synonyms_endERKSs"                            ; magicseg='TEXT32' len=40  weak
  "__ZNK6Xapian8Database12termlist_endEj"                               ; magicseg='TEXT32' len=37  weak
  "__ZNK6Xapian8Database13get_doclengthEj"                              ; magicseg='TEXT32' len=38
  "__ZNK6Xapian8Database13get_lastdocidEv"                              ; magicseg='TEXT32' len=38
  "__ZNK6Xapian8Database13has_positionsEv"                              ; magicseg='TEXT32' len=38
  "__ZNK6Xapian8Database14allterms_beginERKSs"                          ; magicseg='TEXT32' len=42
  "__ZNK6Xapian8Database14allterms_beginEv"                             ; magicseg='TEXT32' len=39
  "__ZNK6Xapian8Database14postlist_beginERKSs"                          ; magicseg='TEXT32' len=42
  "__ZNK6Xapian8Database14synonyms_beginERKSs"                          ; magicseg='TEXT32' len=42
  "__ZNK6Xapian8Database14termlist_beginEj"                             ; magicseg='TEXT32' len=39
  "__ZNK6Xapian8Database15get_descriptionEv"                            ; magicseg='TEXT32' len=40
  "__ZNK6Xapian8Database15spellings_beginEv"                            ; magicseg='TEXT32' len=40
  "__ZNK6Xapian8Database18positionlist_beginEjRKSs"                     ; magicseg='TEXT32' len=47
  "__ZNK6Xapian8Database18synonym_keys_beginERKSs"                      ; magicseg='TEXT32' len=46
  "__ZNK6Xapian8Database19get_collection_freqERKSs"                     ; magicseg='TEXT32' len=47
  "__ZNK6Xapian8Database23get_spelling_suggestionERKSsj"                ; magicseg='TEXT32' len=52
  "__ZNK6Xapian8Database8Internal11add_synonymERKSsS3_"                 ; magicseg='TEXT32' len=51
  "__ZNK6Xapian8Database8Internal12add_spellingERKSsj"                  ; magicseg='TEXT32' len=50
  "__ZNK6Xapian8Database8Internal14clear_synonymsERKSs"                 ; magicseg='TEXT32' len=51
  "__ZNK6Xapian8Database8Internal14remove_synonymERKSsS3_"              ; magicseg='TEXT32' len=54
  "__ZNK6Xapian8Database8Internal15remove_spellingERKSsj"               ; magicseg='TEXT32' len=53
  "__ZNK6Xapian8Database8Internal16collect_documentEj"                  ; magicseg='TEXT32' len=50  weak
  "__ZNK6Xapian8Database8Internal16request_documentEj"                  ; magicseg='TEXT32' len=50  weak
  "__ZNK6Xapian8Database8Internal18transaction_activeEv"                ; magicseg='TEXT32' len=52  weak
  "__ZNK6Xapian8Database8Internal20open_synonym_keylistERKSs"           ; magicseg='TEXT32' len=57
  "__ZNK6Xapian8Database8Internal21open_synonym_termlistERKSs"          ; magicseg='TEXT32' len=58
  "__ZNK6Xapian8Database8Internal22get_spelling_frequencyERKSs"         ; magicseg='TEXT32' len=59
  "__ZNK6Xapian8Database8Internal22open_spelling_termlistERKSs"         ; magicseg='TEXT32' len=59
  "__ZNK6Xapian8Database8Internal22open_spelling_wordlistEv"            ; magicseg='TEXT32' len=56
  "__ZNK6Xapian8Document10values_endEv"                                 ; magicseg='TEXT32' len=35
  "__ZNK6Xapian8Document12termlist_endEv"                               ; magicseg='TEXT32' len=37  weak
  "__ZNK6Xapian8Document12values_beginEv"                               ; magicseg='TEXT32' len=37
  "__ZNK6Xapian8Document12values_countEv"                               ; magicseg='TEXT32' len=37
  "__ZNK6Xapian8Document14termlist_beginEv"                             ; magicseg='TEXT32' len=39
  "__ZNK6Xapian8Document14termlist_countEv"                             ; magicseg='TEXT32' len=39
  "__ZNK6Xapian8Document15get_descriptionEv"                            ; magicseg='TEXT32' len=40
  "__ZNK6Xapian8Document8get_dataEv"                                    ; magicseg='TEXT32' len=32
  "__ZNK6Xapian8Document8Internal10need_termsEv"                        ; magicseg='TEXT32' len=44
  "__ZNK6Xapian8Document8Internal11do_get_dataEv"                       ; magicseg='TEXT32' len=45  weak
  "__ZNK6Xapian8Document8Internal11need_valuesEv"                       ; magicseg='TEXT32' len=45
  "__ZNK6Xapian8Document8Internal12do_get_valueEj"                      ; magicseg='TEXT32' len=46  weak
  "__ZNK6Xapian8Document8Internal12values_countEv"                      ; magicseg='TEXT32' len=46
  "__ZNK6Xapian8Document8Internal14get_all_valuesEv"                    ; magicseg='TEXT32' len=48
  "__ZNK6Xapian8Document8Internal14open_term_listEv"                    ; magicseg='TEXT32' len=48
  "__ZNK6Xapian8Document8Internal14termlist_countEv"                    ; magicseg='TEXT32' len=48
  "__ZNK6Xapian8Document8Internal15get_descriptionEv"                   ; magicseg='TEXT32' len=49
  "__ZNK6Xapian8Document8Internal17do_get_all_valuesEv"                 ; magicseg='TEXT32' len=51  weak
  "__ZNK6Xapian8Document8Internal8get_dataEv"                           ; magicseg='TEXT32' len=41
  "__ZNK6Xapian8Document8Internal9get_docidEv"                          ; magicseg='TEXT32' len=42  weak
  "__ZNK6Xapian8Document8Internal9get_valueEj"                          ; magicseg='TEXT32' len=42
  "__ZNK6Xapian8Document9get_docidEv"                                   ; magicseg='TEXT32' len=33
  "__ZNK6Xapian8Document9get_valueEj"                                   ; magicseg='TEXT32' len=33
  "__ZNK6Xapian8Internal12ExpandWeight10get_weightEPNS_12TermIterator8InternalERKSs"        ; magicseg='TEXT32' len=80
  "__ZNK6Xapian8Internal12ExpandWeight13get_maxweightEv"                ; magicseg='TEXT32' len=52
  "__ZNK6Xapian8Internal8ESetItem15get_descriptionEv"                   ; magicseg='TEXT32' len=49
  "__ZNK6Xapian8Internal8MSetItem15get_descriptionEv"                   ; magicseg='TEXT32' len=49
  "__ZNK6Xapian8Internal9RefCntPtrI12LeafPostListEptEv"                 ; magicseg='TEXT32' len=51  weak
  "__ZNK6Xapian8Internal9RefCntPtrI8SubMatchEptEv"                      ; magicseg='TEXT32' len=46  weak
  "__ZNK6Xapian8Internal9RefCntPtrIK13FlintDatabaseE3getEv"             ; magicseg='TEXT32' len=55  weak
  "__ZNK6Xapian8Internal9RefCntPtrIK16InMemoryDatabaseEptEv"            ; magicseg='TEXT32' len=56  weak
  "__ZNK6Xapian8Internal9RefCntPtrIK21FlintWritableDatabaseE3getEv"     ; magicseg='TEXT32' len=63  weak
  "__ZNK6Xapian8Internal9RefCntPtrIKNS_7Enquire8InternalEE3getEv"       ; magicseg='TEXT32' len=61  weak
  "__ZNK6Xapian8Internal9RefCntPtrIKNS_7Enquire8InternalEEptEv"         ; magicseg='TEXT32' len=59  weak
  "__ZNK6Xapian8Internal9RefCntPtrIKNS_8Database8InternalEE3getEv"      ; magicseg='TEXT32' len=62  weak
  "__ZNK6Xapian8Internal9RefCntPtrIKNS_8Database8InternalEEptEv"        ; magicseg='TEXT32' len=60  weak
  "__ZNK6Xapian8Internal9RefCntPtrINS_11QueryParser8InternalEEptEv"     ; magicseg='TEXT32' len=63  weak
  "__ZNK6Xapian8Internal9RefCntPtrINS_12TermIterator8InternalEE3getEv"                      ; magicseg='TEXT32' len=66  weak
  "__ZNK6Xapian8Internal9RefCntPtrINS_12TermIterator8InternalEEptEv"    ; magicseg='TEXT32' len=64  weak
  "__ZNK6Xapian8Internal9RefCntPtrINS_13TermGenerator8InternalEE3getEv"                     ; magicseg='TEXT32' len=67  weak
  "__ZNK6Xapian8Internal9RefCntPtrINS_13TermGenerator8InternalEEptEv"                       ; magicseg='TEXT32' len=65  weak
  "__ZNK6Xapian8Internal9RefCntPtrINS_15PostingIterator8InternalEE3getEv"                   ; magicseg='TEXT32' len=69  weak
  "__ZNK6Xapian8Internal9RefCntPtrINS_15PostingIterator8InternalEEptEv"                     ; magicseg='TEXT32' len=67  weak
  "__ZNK6Xapian8Internal9RefCntPtrINS_16PositionIterator8InternalEE3getEv"                  ; magicseg='TEXT32' len=70  weak
  "__ZNK6Xapian8Internal9RefCntPtrINS_16PositionIterator8InternalEEptEv"                    ; magicseg='TEXT32' len=68  weak
  "__ZNK6Xapian8Internal9RefCntPtrINS_4ESet8InternalEEptEv"             ; magicseg='TEXT32' len=55  weak
  "__ZNK6Xapian8Internal9RefCntPtrINS_4MSet8InternalEEptEv"             ; magicseg='TEXT32' len=55  weak
  "__ZNK6Xapian8Internal9RefCntPtrINS_4RSet8InternalEEptEv"             ; magicseg='TEXT32' len=55  weak
  "__ZNK6Xapian8Internal9RefCntPtrINS_4Stem8InternalEE3getEv"           ; magicseg='TEXT32' len=57  weak
  "__ZNK6Xapian8Internal9RefCntPtrINS_4Stem8InternalEEptEv"             ; magicseg='TEXT32' len=55  weak
  "__ZNK6Xapian8Internal9RefCntPtrINS_5Query8InternalEE3getEv"          ; magicseg='TEXT32' len=58  weak
  "__ZNK6Xapian8Internal9RefCntPtrINS_5Query8InternalEEptEv"            ; magicseg='TEXT32' len=56  weak
  "__ZNK6Xapian8Internal9RefCntPtrINS_7Enquire8InternalEEptEv"          ; magicseg='TEXT32' len=58  weak
  "__ZNK6Xapian8Internal9RefCntPtrINS_8Database8InternalEE3getEv"       ; magicseg='TEXT32' len=61  weak
  "__ZNK6Xapian8Internal9RefCntPtrINS_8Database8InternalEEptEv"         ; magicseg='TEXT32' len=59  weak
  "__ZNK6Xapian8Internal9RefCntPtrINS_8Document8InternalEE3getEv"       ; magicseg='TEXT32' len=61  weak
  "__ZNK6Xapian8Internal9RefCntPtrINS_8Document8InternalEEptEv"         ; magicseg='TEXT32' len=59  weak
  "__ZNK6Xapian8MatchSpyclERKNS_8DocumentE"                             ; magicseg='TEXT32' len=39
  "__ZNK7AutoPtrI10OrTermListE3getEv"                                   ; magicseg='TEXT32' len=33  weak
  "__ZNK7AutoPtrI11FlintCursorEptEv"                                    ; magicseg='TEXT32' len=32  weak
  "__ZNK7AutoPtrI13StatsGathererE3getEv"                                ; magicseg='TEXT32' len=36  weak
  "__ZNK7AutoPtrI13StatsGathererEptEv"                                  ; magicseg='TEXT32' len=34  weak
  "__ZNK7AutoPtrI17FlintPositionListEptEv"                              ; magicseg='TEXT32' len=38  weak
  "__ZNK7AutoPtrIN6Xapian12TermIterator8InternalEE3getEv"               ; magicseg='TEXT32' len=53  weak
  "__ZNK7AutoPtrIN6Xapian12TermIterator8InternalEEptEv"                 ; magicseg='TEXT32' len=51  weak
  "__ZNK7AutoPtrIN6Xapian13ExpandDeciderEE3getEv"                       ; magicseg='TEXT32' len=45  weak
  "__ZNK7AutoPtrIN6Xapian5Query8InternalEEptEv"                         ; magicseg='TEXT32' len=43  weak
  "__ZNK7AutoPtrIN6Xapian8Document8InternalEEptEv"                      ; magicseg='TEXT32' len=46  weak
  "__ZNK7MSetCmpclERKN6Xapian8Internal8MSetItemES4_"                    ; magicseg='TEXT32' len=48  weak
  "__ZNK8fragmentcvSsEv"                                                ; magicseg='TEXT32' len=20  weak
  "__ZNK8TermList12as_adj_queryEv"                                      ; magicseg='TEXT32' len=30  weak
  "__ZNK8TermList13as_near_queryEv"                                     ; magicseg='TEXT32' len=31  weak
  "__ZNK8TermList15as_phrase_queryEv"                                   ; magicseg='TEXT32' len=33  weak
  "__ZNK9__gnu_cxx17__normal_iteratorIP11InMemoryDocSt6vectorIS1_SaIS1_EEE4baseEv"          ; magicseg='TEXT32' len=78  weak
  "__ZNK9__gnu_cxx17__normal_iteratorIP11InMemoryDocSt6vectorIS1_SaIS1_EEEdeEv"             ; magicseg='TEXT32' len=75  weak
  "__ZNK9__gnu_cxx17__normal_iteratorIP11InMemoryDocSt6vectorIS1_SaIS1_EEEmiERKi"           ; magicseg='TEXT32' len=77  weak
  "__ZNK9__gnu_cxx17__normal_iteratorIP11InMemoryDocSt6vectorIS1_SaIS1_EEEplERKi"           ; magicseg='TEXT32' len=77  weak
  "__ZNK9__gnu_cxx17__normal_iteratorIP15InMemoryPostingSt6vectorIS1_SaIS1_EEE4baseEv"      ; magicseg='TEXT32' len=82  weak
  "__ZNK9__gnu_cxx17__normal_iteratorIP15InMemoryPostingSt6vectorIS1_SaIS1_EEEdeEv"         ; magicseg='TEXT32' len=79  weak
  "__ZNK9__gnu_cxx17__normal_iteratorIP15InMemoryPostingSt6vectorIS1_SaIS1_EEEplERKi"       ; magicseg='TEXT32' len=81  weak
  "__ZNK9__gnu_cxx17__normal_iteratorIP15InMemoryPostingSt6vectorIS1_SaIS1_EEEptEv"         ; magicseg='TEXT32' len=79  weak
  "__ZNK9__gnu_cxx17__normal_iteratorIP17InMemoryTermEntrySt6vectorIS1_SaIS1_EEE4baseEv"    ; magicseg='TEXT32' len=84  weak
  "__ZNK9__gnu_cxx17__normal_iteratorIP17InMemoryTermEntrySt6vectorIS1_SaIS1_EEEdeEv"       ; magicseg='TEXT32' len=81  weak
  "__ZNK9__gnu_cxx17__normal_iteratorIP17InMemoryTermEntrySt6vectorIS1_SaIS1_EEEplERKi"     ; magicseg='TEXT32' len=83  weak
  "__ZNK9__gnu_cxx17__normal_iteratorIPcSsE4baseEv"                     ; magicseg='TEXT32' len=47  weak
  "__ZNK9__gnu_cxx17__normal_iteratorIPcSsEdeEv"                        ; magicseg='TEXT32' len=44  weak
  "__ZNK9__gnu_cxx17__normal_iteratorIPdSt6vectorIdSaIdEEE4baseEv"      ; magicseg='TEXT32' len=62  weak
  "__ZNK9__gnu_cxx17__normal_iteratorIPdSt6vectorIdSaIdEEEdeEv"         ; magicseg='TEXT32' len=59  weak
  "__ZNK9__gnu_cxx17__normal_iteratorIPdSt6vectorIdSaIdEEEmiERKi"       ; magicseg='TEXT32' len=61  weak
  "__ZNK9__gnu_cxx17__normal_iteratorIPdSt6vectorIdSaIdEEEplERKi"       ; magicseg='TEXT32' len=61  weak
  "__ZNK9__gnu_cxx17__normal_iteratorIPjSt6vectorIjSaIjEEE4baseEv"      ; magicseg='TEXT32' len=62  weak
  "__ZNK9__gnu_cxx17__normal_iteratorIPjSt6vectorIjSaIjEEEdeEv"         ; magicseg='TEXT32' len=59  weak
  "__ZNK9__gnu_cxx17__normal_iteratorIPjSt6vectorIjSaIjEEEmiERKi"       ; magicseg='TEXT32' len=61  weak
  "__ZNK9__gnu_cxx17__normal_iteratorIPjSt6vectorIjSaIjEEEplERKi"       ; magicseg='TEXT32' len=61  weak
  "__ZNK9__gnu_cxx17__normal_iteratorIPK11InMemoryDocSt6vectorIS1_SaIS1_EEE4baseEv"         ; magicseg='TEXT32' len=79  weak
  "__ZNK9__gnu_cxx17__normal_iteratorIPK11InMemoryDocSt6vectorIS1_SaIS1_EEEdeEv"            ; magicseg='TEXT32' len=76  weak
  "__ZNK9__gnu_cxx17__normal_iteratorIPK11InMemoryDocSt6vectorIS1_SaIS1_EEEplERKi"          ; magicseg='TEXT32' len=78  weak
  "__ZNK9__gnu_cxx17__normal_iteratorIPK15InMemoryPostingSt6vectorIS1_SaIS1_EEE4baseEv"     ; magicseg='TEXT32' len=83  weak
  "__ZNK9__gnu_cxx17__normal_iteratorIPK15InMemoryPostingSt6vectorIS1_SaIS1_EEEdeEv"        ; magicseg='TEXT32' len=80  weak
  "__ZNK9__gnu_cxx17__normal_iteratorIPK15InMemoryPostingSt6vectorIS1_SaIS1_EEEptEv"        ; magicseg='TEXT32' len=80  weak
  "__ZNK9__gnu_cxx17__normal_iteratorIPK17InMemoryTermEntrySt6vectorIS1_SaIS1_EEE4baseEv"                                 ; magicseg='TEXT32' len=85  weak
  "__ZNK9__gnu_cxx17__normal_iteratorIPK17InMemoryTermEntrySt6vectorIS1_SaIS1_EEEdeEv"      ; magicseg='TEXT32' len=82  weak
  "__ZNK9__gnu_cxx17__normal_iteratorIPK17InMemoryTermEntrySt6vectorIS1_SaIS1_EEEplERKi"    ; magicseg='TEXT32' len=84  weak
  "__ZNK9__gnu_cxx17__normal_iteratorIPK17InMemoryTermEntrySt6vectorIS1_SaIS1_EEEptEv"      ; magicseg='TEXT32' len=82  weak
  "__ZNK9__gnu_cxx17__normal_iteratorIPKdSt6vectorIdSaIdEEE4baseEv"     ; magicseg='TEXT32' len=63  weak
  "__ZNK9__gnu_cxx17__normal_iteratorIPKdSt6vectorIdSaIdEEEdeEv"        ; magicseg='TEXT32' len=60  weak
  "__ZNK9__gnu_cxx17__normal_iteratorIPKdSt6vectorIdSaIdEEEplERKi"      ; magicseg='TEXT32' len=62  weak
  "__ZNK9__gnu_cxx17__normal_iteratorIPKjSt6vectorIjSaIjEEE4baseEv"     ; magicseg='TEXT32' len=63  weak
  "__ZNK9__gnu_cxx17__normal_iteratorIPKjSt6vectorIjSaIjEEEdeEv"        ; magicseg='TEXT32' len=60  weak
  "__ZNK9__gnu_cxx17__normal_iteratorIPKjSt6vectorIjSaIjEEEplERKi"      ; magicseg='TEXT32' len=62  weak
  "__ZNK9__gnu_cxx17__normal_iteratorIPKN6Xapian4RSetESt6vectorIS2_SaIS2_EEE4baseEv"        ; magicseg='TEXT32' len=80  weak
  "__ZNK9__gnu_cxx17__normal_iteratorIPKN6Xapian8Internal8ESetItemESt6vectorIS3_SaIS3_EEE4baseEv"                         ; magicseg='TEXT32' len=93  weak
  "__ZNK9__gnu_cxx17__normal_iteratorIPKN6Xapian8Internal8ESetItemESt6vectorIS3_SaIS3_EEEptEv"                            ; magicseg='TEXT32' len=90  weak
  "__ZNK9__gnu_cxx17__normal_iteratorIPKN6Xapian8Internal8MSetItemESt6vectorIS3_SaIS3_EEE4baseEv"                         ; magicseg='TEXT32' len=93  weak
  "__ZNK9__gnu_cxx17__normal_iteratorIPKN6Xapian8Internal8MSetItemESt6vectorIS3_SaIS3_EEEdeEv"                            ; magicseg='TEXT32' len=90  weak
  "__ZNK9__gnu_cxx17__normal_iteratorIPKN6Xapian8Internal8MSetItemESt6vectorIS3_SaIS3_EEEplERKi"                          ; magicseg='TEXT32' len=92  weak
  "__ZNK9__gnu_cxx17__normal_iteratorIPKN6Xapian8Internal8MSetItemESt6vectorIS3_SaIS3_EEEptEv"                            ; magicseg='TEXT32' len=90  weak
  "__ZNK9__gnu_cxx17__normal_iteratorIPKN6Xapian8Internal9RefCntPtrI8SubMatchEESt6vectorIS5_SaIS5_EEE4baseEv"             ; magicseg='TEXT32' len=105  weak
  "__ZNK9__gnu_cxx17__normal_iteratorIPKN6Xapian8Internal9RefCntPtrINS1_8Database8InternalEEESt6vectorIS6_SaIS6_EEE4baseEv"                                    ; magicseg='TEXT32' len=119  weak
  "__ZNK9__gnu_cxx17__normal_iteratorIPKN6Xapian8Internal9RefCntPtrINS1_8Database8InternalEEESt6vectorIS6_SaIS6_EEEdeEv"                                       ; magicseg='TEXT32' len=116  weak
  "__ZNK9__gnu_cxx17__normal_iteratorIPKN6Xapian8Internal9RefCntPtrINS1_8Database8InternalEEESt6vectorIS6_SaIS6_EEEplERKi"                                     ; magicseg='TEXT32' len=118  weak
  "__ZNK9__gnu_cxx17__normal_iteratorIPKN6Xapian9bucketvalESt6vectorIS2_SaIS2_EEE4baseEv"                                 ; magicseg='TEXT32' len=85  weak
  "__ZNK9__gnu_cxx17__normal_iteratorIPKP12LeafPostListSt6vectorIS2_SaIS2_EEE4baseEv"       ; magicseg='TEXT32' len=81  weak
  "__ZNK9__gnu_cxx17__normal_iteratorIPKP12LeafPostListSt6vectorIS2_SaIS2_EEEdeEv"          ; magicseg='TEXT32' len=78  weak
  "__ZNK9__gnu_cxx17__normal_iteratorIPKP12LeafPostListSt6vectorIS2_SaIS2_EEEplERKi"        ; magicseg='TEXT32' len=80  weak
  "__ZNK9__gnu_cxx17__normal_iteratorIPKPN6Xapian12TermIterator8InternalESt6vectorIS4_SaIS4_EEE4baseEv"                   ; magicseg='TEXT32' len=99  weak
  "__ZNK9__gnu_cxx17__normal_iteratorIPKPN6Xapian12TermIterator8InternalESt6vectorIS4_SaIS4_EEEdeEv"                      ; magicseg='TEXT32' len=96  weak
  "__ZNK9__gnu_cxx17__normal_iteratorIPKPN6Xapian15PostingIterator8InternalESt6vectorIS4_SaIS4_EEE4baseEv"                ; magicseg='TEXT32' len=102  weak
  "__ZNK9__gnu_cxx17__normal_iteratorIPKPN6Xapian15PostingIterator8InternalESt6vectorIS4_SaIS4_EEEdeEv"                   ; magicseg='TEXT32' len=99  weak
  "__ZNK9__gnu_cxx17__normal_iteratorIPKPN6Xapian15PostingIterator8InternalESt6vectorIS4_SaIS4_EEEplERKi"                 ; magicseg='TEXT32' len=101  weak
  "__ZNK9__gnu_cxx17__normal_iteratorIPKPN6Xapian16PositionIterator8InternalESt6vectorIS4_SaIS4_EEE4baseEv"               ; magicseg='TEXT32' len=103  weak
  "__ZNK9__gnu_cxx17__normal_iteratorIPKPN6Xapian5Query8InternalESt6vectorIS4_SaIS4_EEE4baseEv"                           ; magicseg='TEXT32' len=91  weak
  "__ZNK9__gnu_cxx17__normal_iteratorIPKPN6Xapian5Query8InternalESt6vectorIS4_SaIS4_EEEdeEv"                              ; magicseg='TEXT32' len=88  weak
  "__ZNK9__gnu_cxx17__normal_iteratorIPKPN6Xapian5Query8InternalESt6vectorIS4_SaIS4_EEEplERKi"                            ; magicseg='TEXT32' len=90  weak
  "__ZNK9__gnu_cxx17__normal_iteratorIPKSsSt6vectorISsSaISsEEE4baseEv"                      ; magicseg='TEXT32' len=66  weak
  "__ZNK9__gnu_cxx17__normal_iteratorIPKSsSt6vectorISsSaISsEEEdeEv"     ; magicseg='TEXT32' len=63  weak
  "__ZNK9__gnu_cxx17__normal_iteratorIPKSsSt6vectorISsSaISsEEEplERKi"                       ; magicseg='TEXT32' len=65  weak
  "__ZNK9__gnu_cxx17__normal_iteratorIPKSt3mapIjSsSt4lessIjESaISt4pairIKjSsEEESt6vectorIS8_SaIS8_EEE4baseEv"              ; magicseg='TEXT32' len=104  weak
  "__ZNK9__gnu_cxx17__normal_iteratorIPKSt3mapIjSsSt4lessIjESaISt4pairIKjSsEEESt6vectorIS8_SaIS8_EEEdeEv"                 ; magicseg='TEXT32' len=101  weak
  "__ZNK9__gnu_cxx17__normal_iteratorIPKSt3mapIjSsSt4lessIjESaISt4pairIKjSsEEESt6vectorIS8_SaIS8_EEEplERKi"               ; magicseg='TEXT32' len=103  weak
  "__ZNK9__gnu_cxx17__normal_iteratorIPKSt4pairISsjESt6vectorIS2_SaIS2_EEE4baseEv"          ; magicseg='TEXT32' len=78  weak
  "__ZNK9__gnu_cxx17__normal_iteratorIPKSt4pairISsjESt6vectorIS2_SaIS2_EEEptEv"             ; magicseg='TEXT32' len=75  weak
  "__ZNK9__gnu_cxx17__normal_iteratorIPN6Xapian4RSetESt6vectorIS2_SaIS2_EEE4baseEv"         ; magicseg='TEXT32' len=79  weak
  "__ZNK9__gnu_cxx17__normal_iteratorIPN6Xapian4RSetESt6vectorIS2_SaIS2_EEEdeEv"            ; magicseg='TEXT32' len=76  weak
  "__ZNK9__gnu_cxx17__normal_iteratorIPN6Xapian4RSetESt6vectorIS2_SaIS2_EEEplERKi"          ; magicseg='TEXT32' len=78  weak
  "__ZNK9__gnu_cxx17__normal_iteratorIPN6Xapian8Internal8ESetItemESt6vectorIS3_SaIS3_EEE4baseEv"                          ; magicseg='TEXT32' len=92  weak
  "__ZNK9__gnu_cxx17__normal_iteratorIPN6Xapian8Internal8ESetItemESt6vectorIS3_SaIS3_EEEdeEv"                             ; magicseg='TEXT32' len=89  weak
  "__ZNK9__gnu_cxx17__normal_iteratorIPN6Xapian8Internal8ESetItemESt6vectorIS3_SaIS3_EEEmiERKi"                           ; magicseg='TEXT32' len=91  weak
  "__ZNK9__gnu_cxx17__normal_iteratorIPN6Xapian8Internal8ESetItemESt6vectorIS3_SaIS3_EEEplERKi"                           ; magicseg='TEXT32' len=91  weak
  "__ZNK9__gnu_cxx17__normal_iteratorIPN6Xapian8Internal8MSetItemESt6vectorIS3_SaIS3_EEE4baseEv"                          ; magicseg='TEXT32' len=92  weak
  "__ZNK9__gnu_cxx17__normal_iteratorIPN6Xapian8Internal8MSetItemESt6vectorIS3_SaIS3_EEEdeEv"                             ; magicseg='TEXT32' len=89  weak
  "__ZNK9__gnu_cxx17__normal_iteratorIPN6Xapian8Internal8MSetItemESt6vectorIS3_SaIS3_EEEmiERKi"                           ; magicseg='TEXT32' len=91  weak
  "__ZNK9__gnu_cxx17__normal_iteratorIPN6Xapian8Internal8MSetItemESt6vectorIS3_SaIS3_EEEplERKi"                           ; magicseg='TEXT32' len=91  weak
  "__ZNK9__gnu_cxx17__normal_iteratorIPN6Xapian8Internal8MSetItemESt6vectorIS3_SaIS3_EEEptEv"                             ; magicseg='TEXT32' len=89  weak
  "__ZNK9__gnu_cxx17__normal_iteratorIPN6Xapian8Internal9RefCntPtrI8SubMatchEESt6vectorIS5_SaIS5_EEE4baseEv"              ; magicseg='TEXT32' len=104  weak
  "__ZNK9__gnu_cxx17__normal_iteratorIPN6Xapian8Internal9RefCntPtrI8SubMatchEESt6vectorIS5_SaIS5_EEEdeEv"                 ; magicseg='TEXT32' len=101  weak
  "__ZNK9__gnu_cxx17__normal_iteratorIPN6Xapian8Internal9RefCntPtrI8SubMatchEESt6vectorIS5_SaIS5_EEEplERKi"               ; magicseg='TEXT32' len=103  weak
  "__ZNK9__gnu_cxx17__normal_iteratorIPN6Xapian8Internal9RefCntPtrINS1_8Database8InternalEEESt6vectorIS6_SaIS6_EEE4baseEv"                                     ; magicseg='TEXT32' len=118  weak
  "__ZNK9__gnu_cxx17__normal_iteratorIPN6Xapian8Internal9RefCntPtrINS1_8Database8InternalEEESt6vectorIS6_SaIS6_EEEdeEv"                                        ; magicseg='TEXT32' len=115  weak
  "__ZNK9__gnu_cxx17__normal_iteratorIPN6Xapian8Internal9RefCntPtrINS1_8Database8InternalEEESt6vectorIS6_SaIS6_EEEplERKi"                                      ; magicseg='TEXT32' len=117  weak
  "__ZNK9__gnu_cxx17__normal_iteratorIPN6Xapian9bucketvalESt6vectorIS2_SaIS2_EEE4baseEv"    ; magicseg='TEXT32' len=84  weak
  "__ZNK9__gnu_cxx17__normal_iteratorIPN6Xapian9bucketvalESt6vectorIS2_SaIS2_EEEdeEv"       ; magicseg='TEXT32' len=81  weak
  "__ZNK9__gnu_cxx17__normal_iteratorIPN6Xapian9bucketvalESt6vectorIS2_SaIS2_EEEmiERKi"     ; magicseg='TEXT32' len=83  weak
  "__ZNK9__gnu_cxx17__normal_iteratorIPN6Xapian9bucketvalESt6vectorIS2_SaIS2_EEEplERKi"     ; magicseg='TEXT32' len=83  weak
  "__ZNK9__gnu_cxx17__normal_iteratorIPP12LeafPostListSt6vectorIS2_SaIS2_EEE4baseEv"        ; magicseg='TEXT32' len=80  weak
  "__ZNK9__gnu_cxx17__normal_iteratorIPP12LeafPostListSt6vectorIS2_SaIS2_EEEdeEv"           ; magicseg='TEXT32' len=77  weak
  "__ZNK9__gnu_cxx17__normal_iteratorIPP12LeafPostListSt6vectorIS2_SaIS2_EEEmiERKi"         ; magicseg='TEXT32' len=79  weak
  "__ZNK9__gnu_cxx17__normal_iteratorIPP12LeafPostListSt6vectorIS2_SaIS2_EEEplERKi"         ; magicseg='TEXT32' len=79  weak
  "__ZNK9__gnu_cxx17__normal_iteratorIPPN6Xapian12TermIterator8InternalESt6vectorIS4_SaIS4_EEE4baseEv"                    ; magicseg='TEXT32' len=98  weak
  "__ZNK9__gnu_cxx17__normal_iteratorIPPN6Xapian12TermIterator8InternalESt6vectorIS4_SaIS4_EEEdeEv"                       ; magicseg='TEXT32' len=95  weak
  "__ZNK9__gnu_cxx17__normal_iteratorIPPN6Xapian12TermIterator8InternalESt6vectorIS4_SaIS4_EEEmiERKi"                     ; magicseg='TEXT32' len=97  weak
  "__ZNK9__gnu_cxx17__normal_iteratorIPPN6Xapian12TermIterator8InternalESt6vectorIS4_SaIS4_EEEplERKi"                     ; magicseg='TEXT32' len=97  weak
  "__ZNK9__gnu_cxx17__normal_iteratorIPPN6Xapian15PostingIterator8InternalESt6vectorIS4_SaIS4_EEE4baseEv"                 ; magicseg='TEXT32' len=101  weak
  "__ZNK9__gnu_cxx17__normal_iteratorIPPN6Xapian15PostingIterator8InternalESt6vectorIS4_SaIS4_EEEdeEv"                    ; magicseg='TEXT32' len=98  weak
  "__ZNK9__gnu_cxx17__normal_iteratorIPPN6Xapian15PostingIterator8InternalESt6vectorIS4_SaIS4_EEEmiERKi"                  ; magicseg='TEXT32' len=100  weak
  "__ZNK9__gnu_cxx17__normal_iteratorIPPN6Xapian15PostingIterator8InternalESt6vectorIS4_SaIS4_EEEplERKi"                  ; magicseg='TEXT32' len=100  weak
  "__ZNK9__gnu_cxx17__normal_iteratorIPPN6Xapian16PositionIterator8InternalESt6vectorIS4_SaIS4_EEE4baseEv"                ; magicseg='TEXT32' len=102  weak
  "__ZNK9__gnu_cxx17__normal_iteratorIPPN6Xapian16PositionIterator8InternalESt6vectorIS4_SaIS4_EEEdeEv"                   ; magicseg='TEXT32' len=99  weak
  "__ZNK9__gnu_cxx17__normal_iteratorIPPN6Xapian16PositionIterator8InternalESt6vectorIS4_SaIS4_EEEmiERKi"                 ; magicseg='TEXT32' len=101  weak
  "__ZNK9__gnu_cxx17__normal_iteratorIPPN6Xapian16PositionIterator8InternalESt6vectorIS4_SaIS4_EEEplERKi"                 ; magicseg='TEXT32' len=101  weak
  "__ZNK9__gnu_cxx17__normal_iteratorIPPN6Xapian5Query8InternalESt6vectorIS4_SaIS4_EEE4baseEv"                            ; magicseg='TEXT32' len=90  weak
  "__ZNK9__gnu_cxx17__normal_iteratorIPPN6Xapian5Query8InternalESt6vectorIS4_SaIS4_EEEdeEv"                               ; magicseg='TEXT32' len=87  weak
  "__ZNK9__gnu_cxx17__normal_iteratorIPPN6Xapian5Query8InternalESt6vectorIS4_SaIS4_EEEplERKi"                             ; magicseg='TEXT32' len=89  weak
  "__ZNK9__gnu_cxx17__normal_iteratorIPSsSt6vectorISsSaISsEEE4baseEv"                       ; magicseg='TEXT32' len=65  weak
  "__ZNK9__gnu_cxx17__normal_iteratorIPSsSt6vectorISsSaISsEEEdeEv"      ; magicseg='TEXT32' len=62  weak
  "__ZNK9__gnu_cxx17__normal_iteratorIPSsSt6vectorISsSaISsEEEmiERKi"    ; magicseg='TEXT32' len=64  weak
  "__ZNK9__gnu_cxx17__normal_iteratorIPSsSt6vectorISsSaISsEEEplERKi"    ; magicseg='TEXT32' len=64  weak
  "__ZNK9__gnu_cxx17__normal_iteratorIPSt3mapIjSsSt4lessIjESaISt4pairIKjSsEEESt6vectorIS8_SaIS8_EEE4baseEv"               ; magicseg='TEXT32' len=103  weak
  "__ZNK9__gnu_cxx17__normal_iteratorIPSt3mapIjSsSt4lessIjESaISt4pairIKjSsEEESt6vectorIS8_SaIS8_EEEdeEv"                  ; magicseg='TEXT32' len=100  weak
  "__ZNK9__gnu_cxx17__normal_iteratorIPSt3mapIjSsSt4lessIjESaISt4pairIKjSsEEESt6vectorIS8_SaIS8_EEEmiERKi"                ; magicseg='TEXT32' len=102  weak
  "__ZNK9__gnu_cxx17__normal_iteratorIPSt3mapIjSsSt4lessIjESaISt4pairIKjSsEEESt6vectorIS8_SaIS8_EEEplERKi"                ; magicseg='TEXT32' len=102  weak
  "__ZNK9__gnu_cxx17__normal_iteratorIPSt4pairISsjESt6vectorIS2_SaIS2_EEE4baseEv"           ; magicseg='TEXT32' len=77  weak
  "__ZNK9__gnu_cxx17__normal_iteratorIPSt4pairISsjESt6vectorIS2_SaIS2_EEEdeEv"              ; magicseg='TEXT32' len=74  weak
  "__ZNK9__gnu_cxx17__normal_iteratorIPSt4pairISsjESt6vectorIS2_SaIS2_EEEmiERKi"            ; magicseg='TEXT32' len=76  weak
  "__ZNK9__gnu_cxx17__normal_iteratorIPSt4pairISsjESt6vectorIS2_SaIS2_EEEplERKi"            ; magicseg='TEXT32' len=76  weak
  "__ZNK9ProbQuery13merge_filtersEv"                                    ; magicseg='TEXT32' len=32  weak
  "__ZNK9TermGroup8as_groupEP5State"                                    ; magicseg='TEXT32' len=32
  "__ZNKSt10_Select1stISt4pairIK15filter_group_idN6Xapian5QueryEEEclERKS5_"                 ; magicseg='TEXT32' len=71  weak
  "__ZNKSt10_Select1stISt4pairIK15filter_group_idN6Xapian5QueryEEEclERS5_"                  ; magicseg='TEXT32' len=70  weak
  "__ZNKSt10_Select1stISt4pairIK8fragmentSt3setISsSt4lessISsESaISsEEEEclERKS8_"             ; magicseg='TEXT32' len=75  weak
  "__ZNKSt10_Select1stISt4pairIK8fragmentSt3setISsSt4lessISsESaISsEEEEclERS8_"              ; magicseg='TEXT32' len=74  weak
  "__ZNKSt10_Select1stISt4pairIKdjEEclERKS2_"                           ; magicseg='TEXT32' len=41  weak
  "__ZNKSt10_Select1stISt4pairIKdjEEclERS2_"                            ; magicseg='TEXT32' len=40  weak
  "__ZNKSt10_Select1stISt4pairIKjjEEclERKS2_"                           ; magicseg='TEXT32' len=41  weak
  "__ZNKSt10_Select1stISt4pairIKjjEEclERS2_"                            ; magicseg='TEXT32' len=40  weak
  "__ZNKSt10_Select1stISt4pairIKjN6Xapian8DocumentEEEclERKS4_"          ; magicseg='TEXT32' len=58  weak
  "__ZNKSt10_Select1stISt4pairIKjN6Xapian8DocumentEEEclERS4_"           ; magicseg='TEXT32' len=57  weak
  "__ZNKSt10_Select1stISt4pairIKjS0_IcjEEEclERKS3_"                     ; magicseg='TEXT32' len=47  weak
  "__ZNKSt10_Select1stISt4pairIKjS0_IcjEEEclERS3_"                      ; magicseg='TEXT32' len=46  weak
  "__ZNKSt10_Select1stISt4pairIKjSsEEclERKS2_"                          ; magicseg='TEXT32' len=42  weak
  "__ZNKSt10_Select1stISt4pairIKjSsEEclERS2_"                           ; magicseg='TEXT32' len=41  weak
  "__ZNKSt10_Select1stISt4pairIKjSt3mapISsjSt4lessISsESaIS0_IKSsjEEEEEclERKS9_"             ; magicseg='TEXT32' len=75  weak
  "__ZNKSt10_Select1stISt4pairIKjSt3mapISsjSt4lessISsESaIS0_IKSsjEEEEEclERS9_"              ; magicseg='TEXT32' len=74  weak
  "__ZNKSt10_Select1stISt4pairIKSs10PrefixInfoEEclERKS3_"               ; magicseg='TEXT32' len=53  weak
  "__ZNKSt10_Select1stISt4pairIKSs10PrefixInfoEEclERS3_"                ; magicseg='TEXT32' len=52  weak
  "__ZNKSt10_Select1stISt4pairIKSs12InMemoryTermEEclERKS3_"             ; magicseg='TEXT32' len=55  weak
  "__ZNKSt10_Select1stISt4pairIKSs12InMemoryTermEEclERS3_"              ; magicseg='TEXT32' len=54  weak
  "__ZNKSt10_Select1stISt4pairIKSs14OmDocumentTermEEclERKS3_"           ; magicseg='TEXT32' len=57  weak
  "__ZNKSt10_Select1stISt4pairIKSs14OmDocumentTermEEclERS3_"            ; magicseg='TEXT32' len=56  weak
  "__ZNKSt10_Select1stISt4pairIKSsjEEclERKS2_"                          ; magicseg='TEXT32' len=42  weak
  "__ZNKSt10_Select1stISt4pairIKSsjEEclERS2_"                           ; magicseg='TEXT32' len=41  weak
  "__ZNKSt10_Select1stISt4pairIKSsN6Xapian4MSet8Internal17TermFreqAndWeightEEEclERKS6_"     ; magicseg='TEXT32' len=83  weak
  "__ZNKSt10_Select1stISt4pairIKSsN6Xapian4MSet8Internal17TermFreqAndWeightEEEclERS6_"      ; magicseg='TEXT32' len=82  weak
  "__ZNKSt10_Select1stISt4pairIKSsPKN6Xapian12MatchDeciderEEEclERKS6_"                      ; magicseg='TEXT32' len=66  weak
  "__ZNKSt10_Select1stISt4pairIKSsPKN6Xapian12MatchDeciderEEEclERS6_"                       ; magicseg='TEXT32' len=65  weak
  "__ZNKSt10_Select1stISt4pairIKSsS0_IiiEEEclERKS3_"                    ; magicseg='TEXT32' len=48  weak
  "__ZNKSt10_Select1stISt4pairIKSsS0_IiiEEEclERS3_"                     ; magicseg='TEXT32' len=47  weak
  "__ZNKSt10_Select1stISt4pairIKSsS0_IN6Xapian8Internal8MSetItemEdEEEclERKS6_"              ; magicseg='TEXT32' len=74  weak
  "__ZNKSt10_Select1stISt4pairIKSsS0_IN6Xapian8Internal8MSetItemEdEEEclERS6_"               ; magicseg='TEXT32' len=73  weak
  "__ZNKSt10_Select1stISt4pairIKSsSsEEclERKS2_"                         ; magicseg='TEXT32' len=43  weak
  "__ZNKSt10_Select1stISt4pairIKSsSsEEclERS2_"                          ; magicseg='TEXT32' len=42  weak
  "__ZNKSt10_Select1stISt4pairIKSsSt3mapIjS0_IcjESt4lessIjESaIS0_IKjS3_EEEEEclERKSA_"       ; magicseg='TEXT32' len=81  weak
  "__ZNKSt10_Select1stISt4pairIKSsSt3mapIjS0_IcjESt4lessIjESaIS0_IKjS3_EEEEEclERSA_"        ; magicseg='TEXT32' len=80  weak
  "__ZNKSt13_Bit_iteratordeEv"                                          ; magicseg='TEXT32' len=26  weak
  "__ZNKSt13_Bit_iteratorplEi"                                          ; magicseg='TEXT32' len=26  weak
  "__ZNKSt14_Bit_referencecvbEv"                                        ; magicseg='TEXT32' len=28  weak
  "__ZNKSt14_List_iteratorIN6Xapian5QueryERKS1_PS2_EdeEv"               ; magicseg='TEXT32' len=53  weak
  "__ZNKSt14_List_iteratorIP4TermRKS1_PS2_EdeEv"                        ; magicseg='TEXT32' len=44  weak
  "__ZNKSt14_List_iteratorIPN6Xapian19ValueRangeProcessorERKS2_PS3_EdeEv"                   ; magicseg='TEXT32' len=69  weak
  "__ZNKSt14_List_iteratorISsRKSsPS0_EdeEv"                             ; magicseg='TEXT32' len=39  weak
  "__ZNKSt14_List_iteratorISsRSsPSsEdeEv"                               ; magicseg='TEXT32' len=37  weak
  "__ZNKSt14_List_iteratorISt4pairISsjERKS1_PS2_EdeEv"                  ; magicseg='TEXT32' len=50  weak
  "__ZNKSt14_List_iteratorISt4pairISsjERKS1_PS2_EptEv"                  ; magicseg='TEXT32' len=50  weak
  "__ZNKSt14priority_queueIPN6Xapian12TermIterator8InternalESt6vectorIS3_SaIS3_EE25TermListGreaterApproxSizeE3topEv"      ; magicseg='TEXT32' len=112  weak
  "__ZNKSt14priority_queueIPN6Xapian12TermIterator8InternalESt6vectorIS3_SaIS3_EE25TermListGreaterApproxSizeE4sizeEv"     ; magicseg='TEXT32' len=113  weak
  "__ZNKSt14priority_queueIPN6Xapian12TermIterator8InternalESt6vectorIS3_SaIS3_EE25TermListGreaterApproxSizeE5emptyEv"    ; magicseg='TEXT32' len=114  weak
  "__ZNKSt14priority_queueIPN6Xapian12TermIterator8InternalESt6vectorIS3_SaIS3_EE8TLPCmpGtE3topEv"                        ; magicseg='TEXT32' len=94  weak
  "__ZNKSt14priority_queueIPN6Xapian12TermIterator8InternalESt6vectorIS3_SaIS3_EE8TLPCmpGtE5emptyEv"                      ; magicseg='TEXT32' len=96  weak
  "__ZNKSt14priority_queueIPN6Xapian15PostingIterator8InternalESt6vectorIS3_SaIS3_EE8PLPCmpGtE3topEv"                     ; magicseg='TEXT32' len=97  weak
  "__ZNKSt14priority_queueIPN6Xapian15PostingIterator8InternalESt6vectorIS3_SaIS3_EE8PLPCmpGtE5emptyEv"                   ; magicseg='TEXT32' len=99  weak
  "__ZNKSt17_Rb_tree_iteratorIjRKjPS0_EdeEv"                            ; magicseg='TEXT32' len=40  weak
  "__ZNKSt17_Rb_tree_iteratorIPN6Xapian5Query8InternalERKS3_PS4_EdeEv"                      ; magicseg='TEXT32' len=66  weak
  "__ZNKSt17_Rb_tree_iteratorIPN6Xapian6Weight8InternalERKS3_PS4_EdeEv"                     ; magicseg='TEXT32' len=67  weak
  "__ZNKSt17_Rb_tree_iteratorISsRKSsPS0_EdeEv"                          ; magicseg='TEXT32' len=42  weak
  "__ZNKSt17_Rb_tree_iteratorISt4pairIK15filter_group_idN6Xapian5QueryEERKS5_PS6_EdeEv"     ; magicseg='TEXT32' len=83  weak
  "__ZNKSt17_Rb_tree_iteratorISt4pairIK15filter_group_idN6Xapian5QueryEERKS5_PS6_EptEv"     ; magicseg='TEXT32' len=83  weak
  "__ZNKSt17_Rb_tree_iteratorISt4pairIK15filter_group_idN6Xapian5QueryEERS5_PS5_EdeEv"      ; magicseg='TEXT32' len=82  weak
  "__ZNKSt17_Rb_tree_iteratorISt4pairIK8fragmentSt3setISsSt4lessISsESaISsEEERKS8_PS9_EdeEv"                               ; magicseg='TEXT32' len=87  weak
  "__ZNKSt17_Rb_tree_iteratorISt4pairIK8fragmentSt3setISsSt4lessISsESaISsEEERKS8_PS9_EptEv"                               ; magicseg='TEXT32' len=87  weak
  "__ZNKSt17_Rb_tree_iteratorISt4pairIK8fragmentSt3setISsSt4lessISsESaISsEEERS8_PS8_EdeEv"                                ; magicseg='TEXT32' len=86  weak
  "__ZNKSt17_Rb_tree_iteratorISt4pairIK8fragmentSt3setISsSt4lessISsESaISsEEERS8_PS8_EptEv"                                ; magicseg='TEXT32' len=86  weak
  "__ZNKSt17_Rb_tree_iteratorISt4pairIKdjERKS2_PS3_EdeEv"               ; magicseg='TEXT32' len=53  weak
  "__ZNKSt17_Rb_tree_iteratorISt4pairIKdjERKS2_PS3_EptEv"               ; magicseg='TEXT32' len=53  weak
  "__ZNKSt17_Rb_tree_iteratorISt4pairIKdjERS2_PS2_EdeEv"                ; magicseg='TEXT32' len=52  weak
  "__ZNKSt17_Rb_tree_iteratorISt4pairIKjjERKS2_PS3_EdeEv"               ; magicseg='TEXT32' len=53  weak
  "__ZNKSt17_Rb_tree_iteratorISt4pairIKjjERKS2_PS3_EptEv"               ; magicseg='TEXT32' len=53  weak
  "__ZNKSt17_Rb_tree_iteratorISt4pairIKjjERS2_PS2_EdeEv"                ; magicseg='TEXT32' len=52  weak
  "__ZNKSt17_Rb_tree_iteratorISt4pairIKjN6Xapian8DocumentEERKS4_PS5_EdeEv"                  ; magicseg='TEXT32' len=70  weak
  "__ZNKSt17_Rb_tree_iteratorISt4pairIKjN6Xapian8DocumentEERKS4_PS5_EptEv"                  ; magicseg='TEXT32' len=70  weak
  "__ZNKSt17_Rb_tree_iteratorISt4pairIKjN6Xapian8DocumentEERS4_PS4_EdeEv"                   ; magicseg='TEXT32' len=69  weak
  "__ZNKSt17_Rb_tree_iteratorISt4pairIKjN6Xapian8DocumentEERS4_PS4_EptEv"                   ; magicseg='TEXT32' len=69  weak
  "__ZNKSt17_Rb_tree_iteratorISt4pairIKjS0_IcjEERKS3_PS4_EdeEv"         ; magicseg='TEXT32' len=59  weak
  "__ZNKSt17_Rb_tree_iteratorISt4pairIKjS0_IcjEERKS3_PS4_EptEv"         ; magicseg='TEXT32' len=59  weak
  "__ZNKSt17_Rb_tree_iteratorISt4pairIKjS0_IcjEERS3_PS3_EdeEv"          ; magicseg='TEXT32' len=58  weak
  "__ZNKSt17_Rb_tree_iteratorISt4pairIKjS0_IcjEERS3_PS3_EptEv"          ; magicseg='TEXT32' len=58  weak
  "__ZNKSt17_Rb_tree_iteratorISt4pairIKjSsERKS2_PS3_EdeEv"              ; magicseg='TEXT32' len=54  weak
  "__ZNKSt17_Rb_tree_iteratorISt4pairIKjSsERKS2_PS3_EptEv"              ; magicseg='TEXT32' len=54  weak
  "__ZNKSt17_Rb_tree_iteratorISt4pairIKjSsERS2_PS2_EdeEv"               ; magicseg='TEXT32' len=53  weak
  "__ZNKSt17_Rb_tree_iteratorISt4pairIKjSt3mapISsjSt4lessISsESaIS0_IKSsjEEEERS9_PS9_EdeEv"                                ; magicseg='TEXT32' len=86  weak
  "__ZNKSt17_Rb_tree_iteratorISt4pairIKjSt3mapISsjSt4lessISsESaIS0_IKSsjEEEERS9_PS9_EptEv"                                ; magicseg='TEXT32' len=86  weak
  "__ZNKSt17_Rb_tree_iteratorISt4pairIKSs10PrefixInfoERKS3_PS4_EdeEv"                       ; magicseg='TEXT32' len=65  weak
  "__ZNKSt17_Rb_tree_iteratorISt4pairIKSs10PrefixInfoERKS3_PS4_EptEv"                       ; magicseg='TEXT32' len=65  weak
  "__ZNKSt17_Rb_tree_iteratorISt4pairIKSs12InMemoryTermERKS3_PS4_EdeEv"                     ; magicseg='TEXT32' len=67  weak
  "__ZNKSt17_Rb_tree_iteratorISt4pairIKSs12InMemoryTermERKS3_PS4_EptEv"                     ; magicseg='TEXT32' len=67  weak
  "__ZNKSt17_Rb_tree_iteratorISt4pairIKSs12InMemoryTermERS3_PS3_EdeEv"                      ; magicseg='TEXT32' len=66  weak
  "__ZNKSt17_Rb_tree_iteratorISt4pairIKSs12InMemoryTermERS3_PS3_EptEv"                      ; magicseg='TEXT32' len=66  weak
  "__ZNKSt17_Rb_tree_iteratorISt4pairIKSs14OmDocumentTermERKS3_PS4_EdeEv"                   ; magicseg='TEXT32' len=69  weak
  "__ZNKSt17_Rb_tree_iteratorISt4pairIKSs14OmDocumentTermERKS3_PS4_EptEv"                   ; magicseg='TEXT32' len=69  weak
  "__ZNKSt17_Rb_tree_iteratorISt4pairIKSs14OmDocumentTermERS3_PS3_EdeEv"                    ; magicseg='TEXT32' len=68  weak
  "__ZNKSt17_Rb_tree_iteratorISt4pairIKSs14OmDocumentTermERS3_PS3_EptEv"                    ; magicseg='TEXT32' len=68  weak
  "__ZNKSt17_Rb_tree_iteratorISt4pairIKSsjERKS2_PS3_EdeEv"              ; magicseg='TEXT32' len=54  weak
  "__ZNKSt17_Rb_tree_iteratorISt4pairIKSsjERKS2_PS3_EptEv"              ; magicseg='TEXT32' len=54  weak
  "__ZNKSt17_Rb_tree_iteratorISt4pairIKSsjERS2_PS2_EdeEv"               ; magicseg='TEXT32' len=53  weak
  "__ZNKSt17_Rb_tree_iteratorISt4pairIKSsjERS2_PS2_EptEv"               ; magicseg='TEXT32' len=53  weak
  "__ZNKSt17_Rb_tree_iteratorISt4pairIKSsN6Xapian4MSet8Internal17TermFreqAndWeightEERKS6_PS7_EdeEv"                       ; magicseg='TEXT32' len=95  weak
  "__ZNKSt17_Rb_tree_iteratorISt4pairIKSsN6Xapian4MSet8Internal17TermFreqAndWeightEERKS6_PS7_EptEv"                       ; magicseg='TEXT32' len=95  weak
  "__ZNKSt17_Rb_tree_iteratorISt4pairIKSsN6Xapian4MSet8Internal17TermFreqAndWeightEERS6_PS6_EdeEv"                        ; magicseg='TEXT32' len=94  weak
  "__ZNKSt17_Rb_tree_iteratorISt4pairIKSsN6Xapian4MSet8Internal17TermFreqAndWeightEERS6_PS6_EptEv"                        ; magicseg='TEXT32' len=94  weak
  "__ZNKSt17_Rb_tree_iteratorISt4pairIKSsPKN6Xapian12MatchDeciderEERS6_PS6_EdeEv"           ; magicseg='TEXT32' len=77  weak
  "__ZNKSt17_Rb_tree_iteratorISt4pairIKSsS0_IiiEERKS3_PS4_EdeEv"        ; magicseg='TEXT32' len=60  weak
  "__ZNKSt17_Rb_tree_iteratorISt4pairIKSsS0_IiiEERKS3_PS4_EptEv"        ; magicseg='TEXT32' len=60  weak
  "__ZNKSt17_Rb_tree_iteratorISt4pairIKSsS0_IiiEERS3_PS3_EdeEv"         ; magicseg='TEXT32' len=59  weak
  "__ZNKSt17_Rb_tree_iteratorISt4pairIKSsS0_IiiEERS3_PS3_EptEv"         ; magicseg='TEXT32' len=59  weak
  "__ZNKSt17_Rb_tree_iteratorISt4pairIKSsS0_IN6Xapian8Internal8MSetItemEdEERS6_PS6_EdeEv"                                 ; magicseg='TEXT32' len=85  weak
  "__ZNKSt17_Rb_tree_iteratorISt4pairIKSsS0_IN6Xapian8Internal8MSetItemEdEERS6_PS6_EptEv"                                 ; magicseg='TEXT32' len=85  weak
  "__ZNKSt17_Rb_tree_iteratorISt4pairIKSsSsERS2_PS2_EdeEv"              ; magicseg='TEXT32' len=54  weak
  "__ZNKSt17_Rb_tree_iteratorISt4pairIKSsSsERS2_PS2_EptEv"              ; magicseg='TEXT32' len=54  weak
  "__ZNKSt17_Rb_tree_iteratorISt4pairIKSsSt3mapIjS0_IcjESt4lessIjESaIS0_IKjS3_EEEERKSA_PSB_EdeEv"                         ; magicseg='TEXT32' len=93  weak
  "__ZNKSt17_Rb_tree_iteratorISt4pairIKSsSt3mapIjS0_IcjESt4lessIjESaIS0_IKjS3_EEEERKSA_PSB_EptEv"                         ; magicseg='TEXT32' len=93  weak
  "__ZNKSt17_Rb_tree_iteratorISt4pairIKSsSt3mapIjS0_IcjESt4lessIjESaIS0_IKjS3_EEEERSA_PSA_EdeEv"                          ; magicseg='TEXT32' len=92  weak
  "__ZNKSt17_Rb_tree_iteratorISt4pairIKSsSt3mapIjS0_IcjESt4lessIjESaIS0_IKjS3_EEEERSA_PSA_EptEv"                          ; magicseg='TEXT32' len=92  weak
  "__ZNKSt17_Temporary_bufferIN9__gnu_cxx17__normal_iteratorIPPN6Xapian15PostingIterator8InternalESt6vectorIS5_SaIS5_EEEES5_E4sizeEv"                          ; magicseg='TEXT32' len=129  weak
  "__ZNKSt18_Bit_iterator_baseeqERKS_"                                  ; magicseg='TEXT32' len=34  weak
  "__ZNKSt18_Bit_iterator_baseneERKS_"                                  ; magicseg='TEXT32' len=34  weak
  "__ZNKSt18_Vector_alloc_baseI15InMemoryPostingSaIS0_ELb1EE13get_allocatorEv"              ; magicseg='TEXT32' len=74  weak
  "__ZNKSt18_Vector_alloc_baseI17InMemoryTermEntrySaIS0_ELb1EE13get_allocatorEv"            ; magicseg='TEXT32' len=76  weak
  "__ZNKSt18_Vector_alloc_baseIjSaIjELb1EE13get_allocatorEv"            ; magicseg='TEXT32' len=56  weak
  "__ZNKSt18_Vector_alloc_baseIN6Xapian8Internal8MSetItemESaIS2_ELb1EE13get_allocatorEv"    ; magicseg='TEXT32' len=84  weak
  "__ZNKSt18_Vector_alloc_baseIP12LeafPostListSaIS1_ELb1EE13get_allocatorEv"                ; magicseg='TEXT32' len=72  weak
  "__ZNKSt18_Vector_alloc_baseIPN6Xapian12TermIterator8InternalESaIS3_ELb1EE13get_allocatorEv"                            ; magicseg='TEXT32' len=90  weak
  "__ZNKSt18_Vector_alloc_baseIPN6Xapian15PostingIterator8InternalESaIS3_ELb1EE13get_allocatorEv"                         ; magicseg='TEXT32' len=93  weak
  "__ZNKSt19_List_iterator_baseeqERKS_"                                 ; magicseg='TEXT32' len=35  weak
  "__ZNKSt19_List_iterator_baseneERKS_"                                 ; magicseg='TEXT32' len=35  weak
  "__ZNKSt19_Rb_tree_alloc_baseIjSaIjELb1EE13get_allocatorEv"           ; magicseg='TEXT32' len=57  weak
  "__ZNKSt19_Rb_tree_alloc_baseISsSaISsELb1EE13get_allocatorEv"         ; magicseg='TEXT32' len=59  weak
  "__ZNKSt19_Rb_tree_alloc_baseISt4pairIKjS0_IcjEESaIS3_ELb1EE13get_allocatorEv"            ; magicseg='TEXT32' len=76  weak
  "__ZNKSt19_Rb_tree_alloc_baseISt4pairIKjSsESaIS2_ELb1EE13get_allocatorEv"                 ; magicseg='TEXT32' len=71  weak
  "__ZNKSt19_Rb_tree_alloc_baseISt4pairIKSsjESaIS2_ELb1EE13get_allocatorEv"                 ; magicseg='TEXT32' len=71  weak
  "__ZNKSt19_Rb_tree_alloc_baseISt4pairIKSsN6Xapian4MSet8Internal17TermFreqAndWeightEESaIS6_ELb1EE13get_allocatorEv"      ; magicseg='TEXT32' len=112  weak
  "__ZNKSt3mapI15filter_group_idN6Xapian5QueryESt4lessIS0_ESaISt4pairIKS0_S2_EEE3endEv"     ; magicseg='TEXT32' len=83  weak
  "__ZNKSt3mapI15filter_group_idN6Xapian5QueryESt4lessIS0_ESaISt4pairIKS0_S2_EEE5beginEv"                                 ; magicseg='TEXT32' len=85  weak
  "__ZNKSt3mapI15filter_group_idN6Xapian5QueryESt4lessIS0_ESaISt4pairIKS0_S2_EEE5emptyEv"                                 ; magicseg='TEXT32' len=85  weak
  "__ZNKSt3mapI15filter_group_idN6Xapian5QueryESt4lessIS0_ESaISt4pairIKS0_S2_EEE8key_compEv"                              ; magicseg='TEXT32' len=88  weak
  "__ZNKSt3mapIdjSt4lessIdESaISt4pairIKdjEEE8key_compEv"                ; magicseg='TEXT32' len=52  weak
  "__ZNKSt3mapIjjSt4lessIjESaISt4pairIKjjEEE4findERS3_"                 ; magicseg='TEXT32' len=51  weak
  "__ZNKSt3mapIjjSt4lessIjESaISt4pairIKjjEEE8key_compEv"                ; magicseg='TEXT32' len=52  weak
  "__ZNKSt3mapIjN6Xapian8DocumentESt4lessIjESaISt4pairIKjS1_EEE8key_compEv"                 ; magicseg='TEXT32' len=71  weak
  "__ZNKSt3mapIjS_ISsjSt4lessISsESaISt4pairIKSsjEEES0_IjESaIS2_IKjS6_EEE8key_compEv"        ; magicseg='TEXT32' len=80  weak
  "__ZNKSt3mapIjSsSt4lessIjESaISt4pairIKjSsEEE3endEv"                   ; magicseg='TEXT32' len=49  weak
  "__ZNKSt3mapIjSsSt4lessIjESaISt4pairIKjSsEEE4findERS3_"               ; magicseg='TEXT32' len=53  weak
  "__ZNKSt3mapIjSsSt4lessIjESaISt4pairIKjSsEEE4sizeEv"                  ; magicseg='TEXT32' len=50  weak
  "__ZNKSt3mapIjSsSt4lessIjESaISt4pairIKjSsEEE8key_compEv"              ; magicseg='TEXT32' len=54  weak
  "__ZNKSt3mapIjSt4pairIcjESt4lessIjESaIS0_IKjS1_EEE3endEv"             ; magicseg='TEXT32' len=55  weak
  "__ZNKSt3mapIjSt4pairIcjESt4lessIjESaIS0_IKjS1_EEE5beginEv"           ; magicseg='TEXT32' len=57  weak
  "__ZNKSt3mapIjSt4pairIcjESt4lessIjESaIS0_IKjS1_EEE5emptyEv"           ; magicseg='TEXT32' len=57  weak
  "__ZNKSt3mapISs10PrefixInfoSt4lessISsESaISt4pairIKSsS0_EEE5emptyEv"                       ; magicseg='TEXT32' len=65  weak
  "__ZNKSt3mapISs12InMemoryTermSt4lessISsESaISt4pairIKSsS0_EEE11lower_boundERS4_"           ; magicseg='TEXT32' len=77  weak
  "__ZNKSt3mapISs12InMemoryTermSt4lessISsESaISt4pairIKSsS0_EEE3endEv"                       ; magicseg='TEXT32' len=65  weak
  "__ZNKSt3mapISs12InMemoryTermSt4lessISsESaISt4pairIKSsS0_EEE4findERS4_"                   ; magicseg='TEXT32' len=69  weak
  "__ZNKSt3mapISs12InMemoryTermSt4lessISsESaISt4pairIKSsS0_EEE4sizeEv"                      ; magicseg='TEXT32' len=66  weak
  "__ZNKSt3mapISs12InMemoryTermSt4lessISsESaISt4pairIKSsS0_EEE8key_compEv"                  ; magicseg='TEXT32' len=70  weak
  "__ZNKSt3mapISs14OmDocumentTermSt4lessISsESaISt4pairIKSsS0_EEE4sizeEv"                    ; magicseg='TEXT32' len=68  weak
  "__ZNKSt3mapISsjSt4lessISsESaISt4pairIKSsjEEE3endEv"                  ; magicseg='TEXT32' len=50  weak
  "__ZNKSt3mapISsjSt4lessISsESaISt4pairIKSsjEEE4findERS3_"              ; magicseg='TEXT32' len=54  weak
  "__ZNKSt3mapISsjSt4lessISsESaISt4pairIKSsjEEE4sizeEv"                 ; magicseg='TEXT32' len=51  weak
  "__ZNKSt3mapISsjSt4lessISsESaISt4pairIKSsjEEE5beginEv"                ; magicseg='TEXT32' len=52  weak
  "__ZNKSt3mapISsjSt4lessISsESaISt4pairIKSsjEEE5emptyEv"                ; magicseg='TEXT32' len=52  weak
  "__ZNKSt3mapISsjSt4lessISsESaISt4pairIKSsjEEE8key_compEv"             ; magicseg='TEXT32' len=55  weak
  "__ZNKSt3mapISsN6Xapian4MSet8Internal17TermFreqAndWeightESt4lessISsESaISt4pairIKSsS3_EEE4sizeEv"                        ; magicseg='TEXT32' len=94  weak
  "__ZNKSt3mapISsN6Xapian4MSet8Internal17TermFreqAndWeightESt4lessISsESaISt4pairIKSsS3_EEE5emptyEv"                       ; magicseg='TEXT32' len=95  weak
  "__ZNKSt3mapISsPKN6Xapian12MatchDeciderESt4lessISsESaISt4pairIKSsS3_EEE8key_compEv"       ; magicseg='TEXT32' len=81  weak
  "__ZNKSt3mapISsS_IjSt4pairIcjESt4lessIjESaIS0_IKjS1_EEES2_ISsESaIS0_IKSsS7_EEE3endEv"     ; magicseg='TEXT32' len=83  weak
  "__ZNKSt3mapISsS_IjSt4pairIcjESt4lessIjESaIS0_IKjS1_EEES2_ISsESaIS0_IKSsS7_EEE5beginEv"                                 ; magicseg='TEXT32' len=85  weak
  "__ZNKSt3mapISsSt4pairIiiESt4lessISsESaIS0_IKSsS1_EEE4findERS4_"      ; magicseg='TEXT32' len=62  weak
  "__ZNKSt3mapISsSt4pairIN6Xapian8Internal8MSetItemEdESt4lessISsESaIS0_IKSsS4_EEE4sizeEv"                                 ; magicseg='TEXT32' len=85  weak
  "__ZNKSt3mapISsSt4pairIN6Xapian8Internal8MSetItemEdESt4lessISsESaIS0_IKSsS4_EEE5emptyEv"                                ; magicseg='TEXT32' len=86  weak
  "__ZNKSt3setIjSt4lessIjESaIjEE3endEv"                                 ; magicseg='TEXT32' len=35  weak
  "__ZNKSt3setIjSt4lessIjESaIjEE4sizeEv"                                ; magicseg='TEXT32' len=36  weak
  "__ZNKSt3setIjSt4lessIjESaIjEE5beginEv"                               ; magicseg='TEXT32' len=37  weak
  "__ZNKSt3setIjSt4lessIjESaIjEE5emptyEv"                               ; magicseg='TEXT32' len=37  weak
  "__ZNKSt3setIPN6Xapian5Query8InternalE11SortPosNameSaIS3_EE3endEv"    ; magicseg='TEXT32' len=64  weak
  "__ZNKSt3setIPN6Xapian6Weight8InternalESt4lessIS3_ESaIS3_EE3endEv"    ; magicseg='TEXT32' len=64  weak
  "__ZNKSt3setIPN6Xapian6Weight8InternalESt4lessIS3_ESaIS3_EE5beginEv"                      ; magicseg='TEXT32' len=66  weak
  "__ZNKSt3setISsSt4lessISsESaISsEE3endEv"                              ; magicseg='TEXT32' len=38  weak
  "__ZNKSt3setISsSt4lessISsESaISsEE4findERKSs"                          ; magicseg='TEXT32' len=42  weak
  "__ZNKSt3setISsSt4lessISsESaISsEE4sizeEv"                             ; magicseg='TEXT32' len=39  weak
  "__ZNKSt3setISsSt4lessISsESaISsEE5beginEv"                            ; magicseg='TEXT32' len=40  weak
  "__ZNKSt3setISsSt4lessISsESaISsEE5emptyEv"                            ; magicseg='TEXT32' len=40  weak
  "__ZNKSt4lessI15filter_group_idEclERKS0_S3_"                          ; magicseg='TEXT32' len=42  weak
  "__ZNKSt4lessI8fragmentEclERKS0_S3_"                                  ; magicseg='TEXT32' len=34  weak
  "__ZNKSt4lessIdEclERKdS2_"                                            ; magicseg='TEXT32' len=24  weak
  "__ZNKSt4lessIjEclERKjS2_"                                            ; magicseg='TEXT32' len=24  weak
  "__ZNKSt4lessIPN6Xapian6Weight8InternalEEclERKS3_S6_"                 ; magicseg='TEXT32' len=51  weak
  "__ZNKSt4lessISsEclERKSsS2_"                                          ; magicseg='TEXT32' len=26  weak
  "__ZNKSt4listIN6Xapian5QueryESaIS1_EE3endEv"                          ; magicseg='TEXT32' len=42  weak
  "__ZNKSt4listIN6Xapian5QueryESaIS1_EE4sizeEv"                         ; magicseg='TEXT32' len=43  weak
  "__ZNKSt4listIN6Xapian5QueryESaIS1_EE5beginEv"                        ; magicseg='TEXT32' len=44  weak
  "__ZNKSt4listIP4TermSaIS1_EE3endEv"                                   ; magicseg='TEXT32' len=33  weak
  "__ZNKSt4listIP4TermSaIS1_EE5beginEv"                                 ; magicseg='TEXT32' len=35  weak
  "__ZNKSt4listIPN6Xapian19ValueRangeProcessorESaIS2_EE5emptyEv"        ; magicseg='TEXT32' len=60  weak
  "__ZNKSt4listISsSaISsEE3endEv"                                        ; magicseg='TEXT32' len=28  weak
  "__ZNKSt4listISsSaISsEE4sizeEv"                                       ; magicseg='TEXT32' len=29  weak
  "__ZNKSt4listISsSaISsEE5beginEv"                                      ; magicseg='TEXT32' len=30  weak
  "__ZNKSt6vectorI11InMemoryDocSaIS0_EE3endEv"                          ; magicseg='TEXT32' len=42  weak
  "__ZNKSt6vectorI11InMemoryDocSaIS0_EE4sizeEv"                         ; magicseg='TEXT32' len=43  weak
  "__ZNKSt6vectorI11InMemoryDocSaIS0_EE5beginEv"                        ; magicseg='TEXT32' len=44  weak
  "__ZNKSt6vectorI11InMemoryDocSaIS0_EE5emptyEv"                        ; magicseg='TEXT32' len=44  weak
  "__ZNKSt6vectorI11InMemoryDocSaIS0_EEixEj"                            ; magicseg='TEXT32' len=40  weak
  "__ZNKSt6vectorI15InMemoryPostingSaIS0_EE13get_allocatorEv"           ; magicseg='TEXT32' len=57  weak
  "__ZNKSt6vectorI15InMemoryPostingSaIS0_EE3endEv"                      ; magicseg='TEXT32' len=46  weak
  "__ZNKSt6vectorI15InMemoryPostingSaIS0_EE4sizeEv"                     ; magicseg='TEXT32' len=47  weak
  "__ZNKSt6vectorI15InMemoryPostingSaIS0_EE5beginEv"                    ; magicseg='TEXT32' len=48  weak
  "__ZNKSt6vectorI17InMemoryTermEntrySaIS0_EE13get_allocatorEv"         ; magicseg='TEXT32' len=59  weak
  "__ZNKSt6vectorI17InMemoryTermEntrySaIS0_EE3endEv"                    ; magicseg='TEXT32' len=48  weak
  "__ZNKSt6vectorI17InMemoryTermEntrySaIS0_EE4sizeEv"                   ; magicseg='TEXT32' len=49  weak
  "__ZNKSt6vectorI17InMemoryTermEntrySaIS0_EE5beginEv"                  ; magicseg='TEXT32' len=50  weak
  "__ZNKSt6vectorI17InMemoryTermEntrySaIS0_EE8capacityEv"               ; magicseg='TEXT32' len=53  weak
  "__ZNKSt6vectorIbSaIbEE3endEv"                                        ; magicseg='TEXT32' len=28  weak
  "__ZNKSt6vectorIbSaIbEE4sizeEv"                                       ; magicseg='TEXT32' len=29  weak
  "__ZNKSt6vectorIbSaIbEE5beginEv"                                      ; magicseg='TEXT32' len=30  weak
  "__ZNKSt6vectorIbSaIbEE8capacityEv"                                   ; magicseg='TEXT32' len=33  weak
  "__ZNKSt6vectorIdSaIdEE3endEv"                                        ; magicseg='TEXT32' len=28  weak
  "__ZNKSt6vectorIdSaIdEE4sizeEv"                                       ; magicseg='TEXT32' len=29  weak
  "__ZNKSt6vectorIdSaIdEE5beginEv"                                      ; magicseg='TEXT32' len=30  weak
  "__ZNKSt6vectorIdSaIdEEixEj"                                          ; magicseg='TEXT32' len=26  weak
  "__ZNKSt6vectorIjSaIjEE13get_allocatorEv"                             ; magicseg='TEXT32' len=39  weak
  "__ZNKSt6vectorIjSaIjEE3endEv"                                        ; magicseg='TEXT32' len=28  weak
  "__ZNKSt6vectorIjSaIjEE4sizeEv"                                       ; magicseg='TEXT32' len=29  weak
  "__ZNKSt6vectorIjSaIjEE5beginEv"                                      ; magicseg='TEXT32' len=30  weak
  "__ZNKSt6vectorIjSaIjEE5emptyEv"                                      ; magicseg='TEXT32' len=30  weak
  "__ZNKSt6vectorIjSaIjEE8capacityEv"                                   ; magicseg='TEXT32' len=33  weak
  "__ZNKSt6vectorIjSaIjEE8max_sizeEv"                                   ; magicseg='TEXT32' len=33  weak
  "__ZNKSt6vectorIjSaIjEEixEj"                                          ; magicseg='TEXT32' len=26  weak
  "__ZNKSt6vectorIN6Xapian4RSetESaIS1_EE3endEv"                         ; magicseg='TEXT32' len=43  weak
  "__ZNKSt6vectorIN6Xapian4RSetESaIS1_EE4sizeEv"                        ; magicseg='TEXT32' len=44  weak
  "__ZNKSt6vectorIN6Xapian4RSetESaIS1_EE5beginEv"                       ; magicseg='TEXT32' len=45  weak
  "__ZNKSt6vectorIN6Xapian4RSetESaIS1_EE8capacityEv"                    ; magicseg='TEXT32' len=48  weak
  "__ZNKSt6vectorIN6Xapian4RSetESaIS1_EE8max_sizeEv"                    ; magicseg='TEXT32' len=48  weak
  "__ZNKSt6vectorIN6Xapian8Internal8ESetItemESaIS2_EE3endEv"            ; magicseg='TEXT32' len=56  weak
  "__ZNKSt6vectorIN6Xapian8Internal8ESetItemESaIS2_EE4sizeEv"           ; magicseg='TEXT32' len=57  weak
  "__ZNKSt6vectorIN6Xapian8Internal8ESetItemESaIS2_EE5beginEv"          ; magicseg='TEXT32' len=58  weak
  "__ZNKSt6vectorIN6Xapian8Internal8ESetItemESaIS2_EE5emptyEv"          ; magicseg='TEXT32' len=58  weak
  "__ZNKSt6vectorIN6Xapian8Internal8MSetItemESaIS2_EE13get_allocatorEv"                     ; magicseg='TEXT32' len=67  weak
  "__ZNKSt6vectorIN6Xapian8Internal8MSetItemESaIS2_EE3endEv"            ; magicseg='TEXT32' len=56  weak
  "__ZNKSt6vectorIN6Xapian8Internal8MSetItemESaIS2_EE4sizeEv"           ; magicseg='TEXT32' len=57  weak
  "__ZNKSt6vectorIN6Xapian8Internal8MSetItemESaIS2_EE5beginEv"          ; magicseg='TEXT32' len=58  weak
  "__ZNKSt6vectorIN6Xapian8Internal8MSetItemESaIS2_EE5emptyEv"          ; magicseg='TEXT32' len=58  weak
  "__ZNKSt6vectorIN6Xapian8Internal8MSetItemESaIS2_EE8capacityEv"       ; magicseg='TEXT32' len=61  weak
  "__ZNKSt6vectorIN6Xapian8Internal8MSetItemESaIS2_EE8max_sizeEv"       ; magicseg='TEXT32' len=61  weak
  "__ZNKSt6vectorIN6Xapian8Internal8MSetItemESaIS2_EEixEj"              ; magicseg='TEXT32' len=54  weak
  "__ZNKSt6vectorIN6Xapian8Internal9RefCntPtrI8SubMatchEESaIS4_EE3endEv"                    ; magicseg='TEXT32' len=68  weak
  "__ZNKSt6vectorIN6Xapian8Internal9RefCntPtrI8SubMatchEESaIS4_EE4sizeEv"                   ; magicseg='TEXT32' len=69  weak
  "__ZNKSt6vectorIN6Xapian8Internal9RefCntPtrI8SubMatchEESaIS4_EE5beginEv"                  ; magicseg='TEXT32' len=70  weak
  "__ZNKSt6vectorIN6Xapian8Internal9RefCntPtrINS0_8Database8InternalEEESaIS5_EE3endEv"      ; magicseg='TEXT32' len=82  weak
  "__ZNKSt6vectorIN6Xapian8Internal9RefCntPtrINS0_8Database8InternalEEESaIS5_EE4sizeEv"     ; magicseg='TEXT32' len=83  weak
  "__ZNKSt6vectorIN6Xapian8Internal9RefCntPtrINS0_8Database8InternalEEESaIS5_EE5beginEv"    ; magicseg='TEXT32' len=84  weak
  "__ZNKSt6vectorIN6Xapian8Internal9RefCntPtrINS0_8Database8InternalEEESaIS5_EE5emptyEv"    ; magicseg='TEXT32' len=84  weak
  "__ZNKSt6vectorIN6Xapian8Internal9RefCntPtrINS0_8Database8InternalEEESaIS5_EE8capacityEv"                               ; magicseg='TEXT32' len=87  weak
  "__ZNKSt6vectorIN6Xapian8Internal9RefCntPtrINS0_8Database8InternalEEESaIS5_EEixEj"        ; magicseg='TEXT32' len=80  weak
  "__ZNKSt6vectorIN6Xapian9bucketvalESaIS1_EE3endEv"                    ; magicseg='TEXT32' len=48  weak
  "__ZNKSt6vectorIN6Xapian9bucketvalESaIS1_EE4sizeEv"                   ; magicseg='TEXT32' len=49  weak
  "__ZNKSt6vectorIN6Xapian9bucketvalESaIS1_EE5beginEv"                  ; magicseg='TEXT32' len=50  weak
  "__ZNKSt6vectorIP12LeafPostListSaIS1_EE13get_allocatorEv"             ; magicseg='TEXT32' len=55  weak
  "__ZNKSt6vectorIP12LeafPostListSaIS1_EE3endEv"                        ; magicseg='TEXT32' len=44  weak
  "__ZNKSt6vectorIP12LeafPostListSaIS1_EE4sizeEv"                       ; magicseg='TEXT32' len=45  weak
  "__ZNKSt6vectorIP12LeafPostListSaIS1_EE5beginEv"                      ; magicseg='TEXT32' len=46  weak
  "__ZNKSt6vectorIP12LeafPostListSaIS1_EEixEj"                          ; magicseg='TEXT32' len=42  weak
  "__ZNKSt6vectorIPN6Xapian12TermIterator8InternalESaIS3_EE13get_allocatorEv"               ; magicseg='TEXT32' len=73  weak
  "__ZNKSt6vectorIPN6Xapian12TermIterator8InternalESaIS3_EE3endEv"      ; magicseg='TEXT32' len=62  weak
  "__ZNKSt6vectorIPN6Xapian12TermIterator8InternalESaIS3_EE4sizeEv"     ; magicseg='TEXT32' len=63  weak
  "__ZNKSt6vectorIPN6Xapian12TermIterator8InternalESaIS3_EE5beginEv"    ; magicseg='TEXT32' len=64  weak
  "__ZNKSt6vectorIPN6Xapian12TermIterator8InternalESaIS3_EE5emptyEv"    ; magicseg='TEXT32' len=64  weak
  "__ZNKSt6vectorIPN6Xapian12TermIterator8InternalESaIS3_EE5frontEv"    ; magicseg='TEXT32' len=64  weak
  "__ZNKSt6vectorIPN6Xapian15PostingIterator8InternalESaIS3_EE13get_allocatorEv"            ; magicseg='TEXT32' len=76  weak
  "__ZNKSt6vectorIPN6Xapian15PostingIterator8InternalESaIS3_EE3endEv"                       ; magicseg='TEXT32' len=65  weak
  "__ZNKSt6vectorIPN6Xapian15PostingIterator8InternalESaIS3_EE4sizeEv"                      ; magicseg='TEXT32' len=66  weak
  "__ZNKSt6vectorIPN6Xapian15PostingIterator8InternalESaIS3_EE5beginEv"                     ; magicseg='TEXT32' len=67  weak
  "__ZNKSt6vectorIPN6Xapian15PostingIterator8InternalESaIS3_EE5emptyEv"                     ; magicseg='TEXT32' len=67  weak
  "__ZNKSt6vectorIPN6Xapian15PostingIterator8InternalESaIS3_EE5frontEv"                     ; magicseg='TEXT32' len=67  weak
  "__ZNKSt6vectorIPN6Xapian15PostingIterator8InternalESaIS3_EE8capacityEv"                  ; magicseg='TEXT32' len=70  weak
  "__ZNKSt6vectorIPN6Xapian15PostingIterator8InternalESaIS3_EE8max_sizeEv"                  ; magicseg='TEXT32' len=70  weak
  "__ZNKSt6vectorIPN6Xapian15PostingIterator8InternalESaIS3_EEixEj"     ; magicseg='TEXT32' len=63  weak
  "__ZNKSt6vectorIPN6Xapian16PositionIterator8InternalESaIS3_EE3endEv"                      ; magicseg='TEXT32' len=66  weak
  "__ZNKSt6vectorIPN6Xapian16PositionIterator8InternalESaIS3_EE4sizeEv"                     ; magicseg='TEXT32' len=67  weak
  "__ZNKSt6vectorIPN6Xapian16PositionIterator8InternalESaIS3_EE5beginEv"                    ; magicseg='TEXT32' len=68  weak
  "__ZNKSt6vectorIPN6Xapian5Query8InternalESaIS3_EE3endEv"              ; magicseg='TEXT32' len=54  weak
  "__ZNKSt6vectorIPN6Xapian5Query8InternalESaIS3_EE4sizeEv"             ; magicseg='TEXT32' len=55  weak
  "__ZNKSt6vectorIPN6Xapian5Query8InternalESaIS3_EE5beginEv"            ; magicseg='TEXT32' len=56  weak
  "__ZNKSt6vectorIPN6Xapian5Query8InternalESaIS3_EE5emptyEv"            ; magicseg='TEXT32' len=56  weak
  "__ZNKSt6vectorIPN6Xapian5Query8InternalESaIS3_EEixEj"                ; magicseg='TEXT32' len=52  weak
  "__ZNKSt6vectorISsSaISsEE3endEv"                                      ; magicseg='TEXT32' len=30  weak
  "__ZNKSt6vectorISsSaISsEE4sizeEv"                                     ; magicseg='TEXT32' len=31  weak
  "__ZNKSt6vectorISsSaISsEE5beginEv"                                    ; magicseg='TEXT32' len=32  weak
  "__ZNKSt6vectorISsSaISsEE8capacityEv"                                 ; magicseg='TEXT32' len=35  weak
  "__ZNKSt6vectorISsSaISsEE8max_sizeEv"                                 ; magicseg='TEXT32' len=35  weak
  "__ZNKSt6vectorISsSaISsEEixEj"                                        ; magicseg='TEXT32' len=28  weak
  "__ZNKSt6vectorISt3mapIjSsSt4lessIjESaISt4pairIKjSsEEESaIS7_EE3endEv"                     ; magicseg='TEXT32' len=67  weak
  "__ZNKSt6vectorISt3mapIjSsSt4lessIjESaISt4pairIKjSsEEESaIS7_EE4sizeEv"                    ; magicseg='TEXT32' len=68  weak
  "__ZNKSt6vectorISt3mapIjSsSt4lessIjESaISt4pairIKjSsEEESaIS7_EE5beginEv"                   ; magicseg='TEXT32' len=69  weak
  "__ZNKSt6vectorISt3mapIjSsSt4lessIjESaISt4pairIKjSsEEESaIS7_EEixEj"                       ; magicseg='TEXT32' len=65  weak
  "__ZNKSt6vectorISt4pairISsjESaIS1_EE3endEv"                           ; magicseg='TEXT32' len=41  weak
  "__ZNKSt6vectorISt4pairISsjESaIS1_EE4sizeEv"                          ; magicseg='TEXT32' len=42  weak
  "__ZNKSt6vectorISt4pairISsjESaIS1_EE5beginEv"                         ; magicseg='TEXT32' len=43  weak
  "__ZNKSt8_Rb_treeI15filter_group_idSt4pairIKS0_N6Xapian5QueryEESt10_Select1stIS5_ESt4lessIS0_ESaIS5_EE11_M_leftmostEv"                                       ; magicseg='TEXT32' len=116  weak
  "__ZNKSt8_Rb_treeI15filter_group_idSt4pairIKS0_N6Xapian5QueryEESt10_Select1stIS5_ESt4lessIS0_ESaIS5_EE12_M_rightmostEv"                                      ; magicseg='TEXT32' len=117  weak
  "__ZNKSt8_Rb_treeI15filter_group_idSt4pairIKS0_N6Xapian5QueryEESt10_Select1stIS5_ESt4lessIS0_ESaIS5_EE3endEv"           ; magicseg='TEXT32' len=107  weak
  "__ZNKSt8_Rb_treeI15filter_group_idSt4pairIKS0_N6Xapian5QueryEESt10_Select1stIS5_ESt4lessIS0_ESaIS5_EE4sizeEv"          ; magicseg='TEXT32' len=108  weak
  "__ZNKSt8_Rb_treeI15filter_group_idSt4pairIKS0_N6Xapian5QueryEESt10_Select1stIS5_ESt4lessIS0_ESaIS5_EE5beginEv"         ; magicseg='TEXT32' len=109  weak
  "__ZNKSt8_Rb_treeI15filter_group_idSt4pairIKS0_N6Xapian5QueryEESt10_Select1stIS5_ESt4lessIS0_ESaIS5_EE5emptyEv"         ; magicseg='TEXT32' len=109  weak
  "__ZNKSt8_Rb_treeI15filter_group_idSt4pairIKS0_N6Xapian5QueryEESt10_Select1stIS5_ESt4lessIS0_ESaIS5_EE7_M_rootEv"       ; magicseg='TEXT32' len=111  weak
  "__ZNKSt8_Rb_treeI15filter_group_idSt4pairIKS0_N6Xapian5QueryEESt10_Select1stIS5_ESt4lessIS0_ESaIS5_EE8key_compEv"      ; magicseg='TEXT32' len=112  weak
  "__ZNKSt8_Rb_treeI8fragmentSt4pairIKS0_St3setISsSt4lessISsESaISsEEESt10_Select1stIS8_ES4_IS0_ESaIS8_EE11_M_leftmostEv"                                       ; magicseg='TEXT32' len=116  weak
  "__ZNKSt8_Rb_treeI8fragmentSt4pairIKS0_St3setISsSt4lessISsESaISsEEESt10_Select1stIS8_ES4_IS0_ESaIS8_EE12_M_rightmostEv"                                      ; magicseg='TEXT32' len=117  weak
  "__ZNKSt8_Rb_treeI8fragmentSt4pairIKS0_St3setISsSt4lessISsESaISsEEESt10_Select1stIS8_ES4_IS0_ESaIS8_EE7_M_rootEv"       ; magicseg='TEXT32' len=111  weak
  "__ZNKSt8_Rb_treeIdSt4pairIKdjESt10_Select1stIS2_ESt4lessIdESaIS2_EE11_M_leftmostEv"      ; magicseg='TEXT32' len=82  weak
  "__ZNKSt8_Rb_treeIdSt4pairIKdjESt10_Select1stIS2_ESt4lessIdESaIS2_EE12_M_rightmostEv"     ; magicseg='TEXT32' len=83  weak
  "__ZNKSt8_Rb_treeIdSt4pairIKdjESt10_Select1stIS2_ESt4lessIdESaIS2_EE4sizeEv"              ; magicseg='TEXT32' len=74  weak
  "__ZNKSt8_Rb_treeIdSt4pairIKdjESt10_Select1stIS2_ESt4lessIdESaIS2_EE7_M_rootEv"           ; magicseg='TEXT32' len=77  weak
  "__ZNKSt8_Rb_treeIdSt4pairIKdjESt10_Select1stIS2_ESt4lessIdESaIS2_EE8key_compEv"          ; magicseg='TEXT32' len=78  weak
  "__ZNKSt8_Rb_treeIjjSt9_IdentityIjESt4lessIjESaIjEE11_M_leftmostEv"                       ; magicseg='TEXT32' len=65  weak
  "__ZNKSt8_Rb_treeIjjSt9_IdentityIjESt4lessIjESaIjEE12_M_rightmostEv"                      ; magicseg='TEXT32' len=66  weak
  "__ZNKSt8_Rb_treeIjjSt9_IdentityIjESt4lessIjESaIjEE13get_allocatorEv"                     ; magicseg='TEXT32' len=67  weak
  "__ZNKSt8_Rb_treeIjjSt9_IdentityIjESt4lessIjESaIjEE3endEv"            ; magicseg='TEXT32' len=56  weak
  "__ZNKSt8_Rb_treeIjjSt9_IdentityIjESt4lessIjESaIjEE4sizeEv"           ; magicseg='TEXT32' len=57  weak
  "__ZNKSt8_Rb_treeIjjSt9_IdentityIjESt4lessIjESaIjEE5beginEv"          ; magicseg='TEXT32' len=58  weak
  "__ZNKSt8_Rb_treeIjjSt9_IdentityIjESt4lessIjESaIjEE5emptyEv"          ; magicseg='TEXT32' len=58  weak
  "__ZNKSt8_Rb_treeIjjSt9_IdentityIjESt4lessIjESaIjEE7_M_rootEv"        ; magicseg='TEXT32' len=60  weak
  "__ZNKSt8_Rb_treeIjSt4pairIKjjESt10_Select1stIS2_ESt4lessIjESaIS2_EE11_M_leftmostEv"      ; magicseg='TEXT32' len=82  weak
  "__ZNKSt8_Rb_treeIjSt4pairIKjjESt10_Select1stIS2_ESt4lessIjESaIS2_EE12_M_rightmostEv"     ; magicseg='TEXT32' len=83  weak
  "__ZNKSt8_Rb_treeIjSt4pairIKjjESt10_Select1stIS2_ESt4lessIjESaIS2_EE3endEv"               ; magicseg='TEXT32' len=73  weak
  "__ZNKSt8_Rb_treeIjSt4pairIKjjESt10_Select1stIS2_ESt4lessIjESaIS2_EE4findERS1_"           ; magicseg='TEXT32' len=77  weak
  "__ZNKSt8_Rb_treeIjSt4pairIKjjESt10_Select1stIS2_ESt4lessIjESaIS2_EE4sizeEv"              ; magicseg='TEXT32' len=74  weak
  "__ZNKSt8_Rb_treeIjSt4pairIKjjESt10_Select1stIS2_ESt4lessIjESaIS2_EE7_M_rootEv"           ; magicseg='TEXT32' len=77  weak
  "__ZNKSt8_Rb_treeIjSt4pairIKjjESt10_Select1stIS2_ESt4lessIjESaIS2_EE8key_compEv"          ; magicseg='TEXT32' len=78  weak
  "__ZNKSt8_Rb_treeIjSt4pairIKjN6Xapian8DocumentEESt10_Select1stIS4_ESt4lessIjESaIS4_EE11_M_leftmostEv"                   ; magicseg='TEXT32' len=99  weak
  "__ZNKSt8_Rb_treeIjSt4pairIKjN6Xapian8DocumentEESt10_Select1stIS4_ESt4lessIjESaIS4_EE12_M_rightmostEv"                  ; magicseg='TEXT32' len=100  weak
  "__ZNKSt8_Rb_treeIjSt4pairIKjN6Xapian8DocumentEESt10_Select1stIS4_ESt4lessIjESaIS4_EE4sizeEv"                           ; magicseg='TEXT32' len=91  weak
  "__ZNKSt8_Rb_treeIjSt4pairIKjN6Xapian8DocumentEESt10_Select1stIS4_ESt4lessIjESaIS4_EE7_M_rootEv"                        ; magicseg='TEXT32' len=94  weak
  "__ZNKSt8_Rb_treeIjSt4pairIKjN6Xapian8DocumentEESt10_Select1stIS4_ESt4lessIjESaIS4_EE8key_compEv"                       ; magicseg='TEXT32' len=95  weak
  "__ZNKSt8_Rb_treeIjSt4pairIKjS0_IcjEESt10_Select1stIS3_ESt4lessIjESaIS3_EE11_M_leftmostEv"                              ; magicseg='TEXT32' len=88  weak
  "__ZNKSt8_Rb_treeIjSt4pairIKjS0_IcjEESt10_Select1stIS3_ESt4lessIjESaIS3_EE12_M_rightmostEv"                             ; magicseg='TEXT32' len=89  weak
  "__ZNKSt8_Rb_treeIjSt4pairIKjS0_IcjEESt10_Select1stIS3_ESt4lessIjESaIS3_EE13get_allocatorEv"                            ; magicseg='TEXT32' len=90  weak
  "__ZNKSt8_Rb_treeIjSt4pairIKjS0_IcjEESt10_Select1stIS3_ESt4lessIjESaIS3_EE3endEv"         ; magicseg='TEXT32' len=79  weak
  "__ZNKSt8_Rb_treeIjSt4pairIKjS0_IcjEESt10_Select1stIS3_ESt4lessIjESaIS3_EE5beginEv"       ; magicseg='TEXT32' len=81  weak
  "__ZNKSt8_Rb_treeIjSt4pairIKjS0_IcjEESt10_Select1stIS3_ESt4lessIjESaIS3_EE5emptyEv"       ; magicseg='TEXT32' len=81  weak
  "__ZNKSt8_Rb_treeIjSt4pairIKjS0_IcjEESt10_Select1stIS3_ESt4lessIjESaIS3_EE7_M_rootEv"     ; magicseg='TEXT32' len=83  weak
  "__ZNKSt8_Rb_treeIjSt4pairIKjSsESt10_Select1stIS2_ESt4lessIjESaIS2_EE11_M_leftmostEv"     ; magicseg='TEXT32' len=83  weak
  "__ZNKSt8_Rb_treeIjSt4pairIKjSsESt10_Select1stIS2_ESt4lessIjESaIS2_EE12_M_rightmostEv"    ; magicseg='TEXT32' len=84  weak
  "__ZNKSt8_Rb_treeIjSt4pairIKjSsESt10_Select1stIS2_ESt4lessIjESaIS2_EE13get_allocatorEv"                                 ; magicseg='TEXT32' len=85  weak
  "__ZNKSt8_Rb_treeIjSt4pairIKjSsESt10_Select1stIS2_ESt4lessIjESaIS2_EE3endEv"              ; magicseg='TEXT32' len=74  weak
  "__ZNKSt8_Rb_treeIjSt4pairIKjSsESt10_Select1stIS2_ESt4lessIjESaIS2_EE4findERS1_"          ; magicseg='TEXT32' len=78  weak
  "__ZNKSt8_Rb_treeIjSt4pairIKjSsESt10_Select1stIS2_ESt4lessIjESaIS2_EE4sizeEv"             ; magicseg='TEXT32' len=75  weak
  "__ZNKSt8_Rb_treeIjSt4pairIKjSsESt10_Select1stIS2_ESt4lessIjESaIS2_EE7_M_rootEv"          ; magicseg='TEXT32' len=78  weak
  "__ZNKSt8_Rb_treeIjSt4pairIKjSsESt10_Select1stIS2_ESt4lessIjESaIS2_EE8key_compEv"         ; magicseg='TEXT32' len=79  weak
  "__ZNKSt8_Rb_treeIjSt4pairIKjSt3mapISsjSt4lessISsESaIS0_IKSsjEEEESt10_Select1stIS9_ES3_IjESaIS9_EE11_M_leftmostEv"      ; magicseg='TEXT32' len=112  weak
  "__ZNKSt8_Rb_treeIjSt4pairIKjSt3mapISsjSt4lessISsESaIS0_IKSsjEEEESt10_Select1stIS9_ES3_IjESaIS9_EE12_M_rightmostEv"     ; magicseg='TEXT32' len=113  weak
  "__ZNKSt8_Rb_treeIjSt4pairIKjSt3mapISsjSt4lessISsESaIS0_IKSsjEEEESt10_Select1stIS9_ES3_IjESaIS9_EE4sizeEv"              ; magicseg='TEXT32' len=104  weak
  "__ZNKSt8_Rb_treeIjSt4pairIKjSt3mapISsjSt4lessISsESaIS0_IKSsjEEEESt10_Select1stIS9_ES3_IjESaIS9_EE7_M_rootEv"           ; magicseg='TEXT32' len=107  weak
  "__ZNKSt8_Rb_treeIjSt4pairIKjSt3mapISsjSt4lessISsESaIS0_IKSsjEEEESt10_Select1stIS9_ES3_IjESaIS9_EE8key_compEv"          ; magicseg='TEXT32' len=108  weak
  "__ZNKSt8_Rb_treeIPN6Xapian5Query8InternalES3_St9_IdentityIS3_E11SortPosNameSaIS3_EE11_M_leftmostEv"                    ; magicseg='TEXT32' len=98  weak
  "__ZNKSt8_Rb_treeIPN6Xapian5Query8InternalES3_St9_IdentityIS3_E11SortPosNameSaIS3_EE12_M_rightmostEv"                   ; magicseg='TEXT32' len=99  weak
  "__ZNKSt8_Rb_treeIPN6Xapian5Query8InternalES3_St9_IdentityIS3_E11SortPosNameSaIS3_EE3endEv"                             ; magicseg='TEXT32' len=89  weak
  "__ZNKSt8_Rb_treeIPN6Xapian5Query8InternalES3_St9_IdentityIS3_E11SortPosNameSaIS3_EE7_M_rootEv"                         ; magicseg='TEXT32' len=93  weak
  "__ZNKSt8_Rb_treeIPN6Xapian6Weight8InternalES3_St9_IdentityIS3_ESt4lessIS3_ESaIS3_EE11_M_leftmostEv"                    ; magicseg='TEXT32' len=98  weak
  "__ZNKSt8_Rb_treeIPN6Xapian6Weight8InternalES3_St9_IdentityIS3_ESt4lessIS3_ESaIS3_EE12_M_rightmostEv"                   ; magicseg='TEXT32' len=99  weak
  "__ZNKSt8_Rb_treeIPN6Xapian6Weight8InternalES3_St9_IdentityIS3_ESt4lessIS3_ESaIS3_EE3endEv"                             ; magicseg='TEXT32' len=89  weak
  "__ZNKSt8_Rb_treeIPN6Xapian6Weight8InternalES3_St9_IdentityIS3_ESt4lessIS3_ESaIS3_EE5beginEv"                           ; magicseg='TEXT32' len=91  weak
  "__ZNKSt8_Rb_treeIPN6Xapian6Weight8InternalES3_St9_IdentityIS3_ESt4lessIS3_ESaIS3_EE7_M_rootEv"                         ; magicseg='TEXT32' len=93  weak
  "__ZNKSt8_Rb_treeISsSsSt9_IdentityISsESt4lessISsESaISsEE11_M_leftmostEv"                  ; magicseg='TEXT32' len=70  weak
  "__ZNKSt8_Rb_treeISsSsSt9_IdentityISsESt4lessISsESaISsEE12_M_rightmostEv"                 ; magicseg='TEXT32' len=71  weak
  "__ZNKSt8_Rb_treeISsSsSt9_IdentityISsESt4lessISsESaISsEE13get_allocatorEv"                ; magicseg='TEXT32' len=72  weak
  "__ZNKSt8_Rb_treeISsSsSt9_IdentityISsESt4lessISsESaISsEE3endEv"       ; magicseg='TEXT32' len=61  weak
  "__ZNKSt8_Rb_treeISsSsSt9_IdentityISsESt4lessISsESaISsEE4findERKSs"                       ; magicseg='TEXT32' len=65  weak
  "__ZNKSt8_Rb_treeISsSsSt9_IdentityISsESt4lessISsESaISsEE4sizeEv"      ; magicseg='TEXT32' len=62  weak
  "__ZNKSt8_Rb_treeISsSsSt9_IdentityISsESt4lessISsESaISsEE5beginEv"     ; magicseg='TEXT32' len=63  weak
  "__ZNKSt8_Rb_treeISsSsSt9_IdentityISsESt4lessISsESaISsEE5emptyEv"     ; magicseg='TEXT32' len=63  weak
  "__ZNKSt8_Rb_treeISsSsSt9_IdentityISsESt4lessISsESaISsEE7_M_rootEv"                       ; magicseg='TEXT32' len=65  weak
  "__ZNKSt8_Rb_treeISsSt4pairIKSs10PrefixInfoESt10_Select1stIS3_ESt4lessISsESaIS3_EE11_M_leftmostEv"                      ; magicseg='TEXT32' len=96  weak
  "__ZNKSt8_Rb_treeISsSt4pairIKSs10PrefixInfoESt10_Select1stIS3_ESt4lessISsESaIS3_EE12_M_rightmostEv"                     ; magicseg='TEXT32' len=97  weak
  "__ZNKSt8_Rb_treeISsSt4pairIKSs10PrefixInfoESt10_Select1stIS3_ESt4lessISsESaIS3_EE5emptyEv"                             ; magicseg='TEXT32' len=89  weak
  "__ZNKSt8_Rb_treeISsSt4pairIKSs10PrefixInfoESt10_Select1stIS3_ESt4lessISsESaIS3_EE7_M_rootEv"                           ; magicseg='TEXT32' len=91  weak
  "__ZNKSt8_Rb_treeISsSt4pairIKSs12InMemoryTermESt10_Select1stIS3_ESt4lessISsESaIS3_EE11_M_leftmostEv"                    ; magicseg='TEXT32' len=98  weak
  "__ZNKSt8_Rb_treeISsSt4pairIKSs12InMemoryTermESt10_Select1stIS3_ESt4lessISsESaIS3_EE11lower_boundERS1_"                 ; magicseg='TEXT32' len=101  weak
  "__ZNKSt8_Rb_treeISsSt4pairIKSs12InMemoryTermESt10_Select1stIS3_ESt4lessISsESaIS3_EE12_M_rightmostEv"                   ; magicseg='TEXT32' len=99  weak
  "__ZNKSt8_Rb_treeISsSt4pairIKSs12InMemoryTermESt10_Select1stIS3_ESt4lessISsESaIS3_EE3endEv"                             ; magicseg='TEXT32' len=89  weak
  "__ZNKSt8_Rb_treeISsSt4pairIKSs12InMemoryTermESt10_Select1stIS3_ESt4lessISsESaIS3_EE4findERS1_"                         ; magicseg='TEXT32' len=93  weak
  "__ZNKSt8_Rb_treeISsSt4pairIKSs12InMemoryTermESt10_Select1stIS3_ESt4lessISsESaIS3_EE4sizeEv"                            ; magicseg='TEXT32' len=90  weak
  "__ZNKSt8_Rb_treeISsSt4pairIKSs12InMemoryTermESt10_Select1stIS3_ESt4lessISsESaIS3_EE7_M_rootEv"                         ; magicseg='TEXT32' len=93  weak
  "__ZNKSt8_Rb_treeISsSt4pairIKSs12InMemoryTermESt10_Select1stIS3_ESt4lessISsESaIS3_EE8key_compEv"                        ; magicseg='TEXT32' len=94  weak
  "__ZNKSt8_Rb_treeISsSt4pairIKSs14OmDocumentTermESt10_Select1stIS3_ESt4lessISsESaIS3_EE11_M_leftmostEv"                  ; magicseg='TEXT32' len=100  weak
  "__ZNKSt8_Rb_treeISsSt4pairIKSs14OmDocumentTermESt10_Select1stIS3_ESt4lessISsESaIS3_EE12_M_rightmostEv"                 ; magicseg='TEXT32' len=101  weak
  "__ZNKSt8_Rb_treeISsSt4pairIKSs14OmDocumentTermESt10_Select1stIS3_ESt4lessISsESaIS3_EE4sizeEv"                          ; magicseg='TEXT32' len=92  weak
  "__ZNKSt8_Rb_treeISsSt4pairIKSs14OmDocumentTermESt10_Select1stIS3_ESt4lessISsESaIS3_EE7_M_rootEv"                       ; magicseg='TEXT32' len=95  weak
  "__ZNKSt8_Rb_treeISsSt4pairIKSsjESt10_Select1stIS2_ESt4lessISsESaIS2_EE11_M_leftmostEv"                                 ; magicseg='TEXT32' len=85  weak
  "__ZNKSt8_Rb_treeISsSt4pairIKSsjESt10_Select1stIS2_ESt4lessISsESaIS2_EE12_M_rightmostEv"                                ; magicseg='TEXT32' len=86  weak
  "__ZNKSt8_Rb_treeISsSt4pairIKSsjESt10_Select1stIS2_ESt4lessISsESaIS2_EE13get_allocatorEv"                               ; magicseg='TEXT32' len=87  weak
  "__ZNKSt8_Rb_treeISsSt4pairIKSsjESt10_Select1stIS2_ESt4lessISsESaIS2_EE3endEv"            ; magicseg='TEXT32' len=76  weak
  "__ZNKSt8_Rb_treeISsSt4pairIKSsjESt10_Select1stIS2_ESt4lessISsESaIS2_EE4findERS1_"        ; magicseg='TEXT32' len=80  weak
  "__ZNKSt8_Rb_treeISsSt4pairIKSsjESt10_Select1stIS2_ESt4lessISsESaIS2_EE4sizeEv"           ; magicseg='TEXT32' len=77  weak
  "__ZNKSt8_Rb_treeISsSt4pairIKSsjESt10_Select1stIS2_ESt4lessISsESaIS2_EE5beginEv"          ; magicseg='TEXT32' len=78  weak
  "__ZNKSt8_Rb_treeISsSt4pairIKSsjESt10_Select1stIS2_ESt4lessISsESaIS2_EE5emptyEv"          ; magicseg='TEXT32' len=78  weak
  "__ZNKSt8_Rb_treeISsSt4pairIKSsjESt10_Select1stIS2_ESt4lessISsESaIS2_EE7_M_rootEv"        ; magicseg='TEXT32' len=80  weak
  "__ZNKSt8_Rb_treeISsSt4pairIKSsjESt10_Select1stIS2_ESt4lessISsESaIS2_EE8key_compEv"       ; magicseg='TEXT32' len=81  weak
  "__ZNKSt8_Rb_treeISsSt4pairIKSsN6Xapian4MSet8Internal17TermFreqAndWeightEESt10_Select1stIS6_ESt4lessISsESaIS6_EE11_M_leftmostEv"                             ; magicseg='TEXT32' len=126  weak
  "__ZNKSt8_Rb_treeISsSt4pairIKSsN6Xapian4MSet8Internal17TermFreqAndWeightEESt10_Select1stIS6_ESt4lessISsESaIS6_EE12_M_rightmostEv"                            ; magicseg='TEXT32' len=127  weak
  "__ZNKSt8_Rb_treeISsSt4pairIKSsN6Xapian4MSet8Internal17TermFreqAndWeightEESt10_Select1stIS6_ESt4lessISsESaIS6_EE13get_allocatorEv"                           ; magicseg='TEXT32' len=128  weak
  "__ZNKSt8_Rb_treeISsSt4pairIKSsN6Xapian4MSet8Internal17TermFreqAndWeightEESt10_Select1stIS6_ESt4lessISsESaIS6_EE4sizeEv"                                     ; magicseg='TEXT32' len=118  weak
  "__ZNKSt8_Rb_treeISsSt4pairIKSsN6Xapian4MSet8Internal17TermFreqAndWeightEESt10_Select1stIS6_ESt4lessISsESaIS6_EE5emptyEv"                                    ; magicseg='TEXT32' len=119  weak
  "__ZNKSt8_Rb_treeISsSt4pairIKSsN6Xapian4MSet8Internal17TermFreqAndWeightEESt10_Select1stIS6_ESt4lessISsESaIS6_EE7_M_rootEv"                                  ; magicseg='TEXT32' len=121  weak
  "__ZNKSt8_Rb_treeISsSt4pairIKSsPKN6Xapian12MatchDeciderEESt10_Select1stIS6_ESt4lessISsESaIS6_EE11_M_leftmostEv"         ; magicseg='TEXT32' len=109  weak
  "__ZNKSt8_Rb_treeISsSt4pairIKSsPKN6Xapian12MatchDeciderEESt10_Select1stIS6_ESt4lessISsESaIS6_EE12_M_rightmostEv"        ; magicseg='TEXT32' len=110  weak
  "__ZNKSt8_Rb_treeISsSt4pairIKSsPKN6Xapian12MatchDeciderEESt10_Select1stIS6_ESt4lessISsESaIS6_EE4sizeEv"                 ; magicseg='TEXT32' len=101  weak
  "__ZNKSt8_Rb_treeISsSt4pairIKSsPKN6Xapian12MatchDeciderEESt10_Select1stIS6_ESt4lessISsESaIS6_EE7_M_rootEv"              ; magicseg='TEXT32' len=104  weak
  "__ZNKSt8_Rb_treeISsSt4pairIKSsPKN6Xapian12MatchDeciderEESt10_Select1stIS6_ESt4lessISsESaIS6_EE8key_compEv"             ; magicseg='TEXT32' len=105  weak
  "__ZNKSt8_Rb_treeISsSt4pairIKSsS0_IiiEESt10_Select1stIS3_ESt4lessISsESaIS3_EE11_M_leftmostEv"                           ; magicseg='TEXT32' len=91  weak
  "__ZNKSt8_Rb_treeISsSt4pairIKSsS0_IiiEESt10_Select1stIS3_ESt4lessISsESaIS3_EE12_M_rightmostEv"                          ; magicseg='TEXT32' len=92  weak
  "__ZNKSt8_Rb_treeISsSt4pairIKSsS0_IiiEESt10_Select1stIS3_ESt4lessISsESaIS3_EE3endEv"      ; magicseg='TEXT32' len=82  weak
  "__ZNKSt8_Rb_treeISsSt4pairIKSsS0_IiiEESt10_Select1stIS3_ESt4lessISsESaIS3_EE4findERS1_"                                ; magicseg='TEXT32' len=86  weak
  "__ZNKSt8_Rb_treeISsSt4pairIKSsS0_IiiEESt10_Select1stIS3_ESt4lessISsESaIS3_EE7_M_rootEv"                                ; magicseg='TEXT32' len=86  weak
  "__ZNKSt8_Rb_treeISsSt4pairIKSsS0_IN6Xapian8Internal8MSetItemEdEESt10_Select1stIS6_ESt4lessISsESaIS6_EE11_M_leftmostEv"                                      ; magicseg='TEXT32' len=117  weak
  "__ZNKSt8_Rb_treeISsSt4pairIKSsS0_IN6Xapian8Internal8MSetItemEdEESt10_Select1stIS6_ESt4lessISsESaIS6_EE12_M_rightmostEv"                                     ; magicseg='TEXT32' len=118  weak
  "__ZNKSt8_Rb_treeISsSt4pairIKSsS0_IN6Xapian8Internal8MSetItemEdEESt10_Select1stIS6_ESt4lessISsESaIS6_EE4sizeEv"         ; magicseg='TEXT32' len=109  weak
  "__ZNKSt8_Rb_treeISsSt4pairIKSsS0_IN6Xapian8Internal8MSetItemEdEESt10_Select1stIS6_ESt4lessISsESaIS6_EE5emptyEv"        ; magicseg='TEXT32' len=110  weak
  "__ZNKSt8_Rb_treeISsSt4pairIKSsS0_IN6Xapian8Internal8MSetItemEdEESt10_Select1stIS6_ESt4lessISsESaIS6_EE7_M_rootEv"      ; magicseg='TEXT32' len=112  weak
  "__ZNKSt8_Rb_treeISsSt4pairIKSsSsESt10_Select1stIS2_ESt4lessISsESaIS2_EE11_M_leftmostEv"                                ; magicseg='TEXT32' len=86  weak
  "__ZNKSt8_Rb_treeISsSt4pairIKSsSsESt10_Select1stIS2_ESt4lessISsESaIS2_EE12_M_rightmostEv"                               ; magicseg='TEXT32' len=87  weak
  "__ZNKSt8_Rb_treeISsSt4pairIKSsSsESt10_Select1stIS2_ESt4lessISsESaIS2_EE7_M_rootEv"       ; magicseg='TEXT32' len=81  weak
  "__ZNKSt8_Rb_treeISsSt4pairIKSsSt3mapIjS0_IcjESt4lessIjESaIS0_IKjS3_EEEESt10_Select1stISA_ES4_ISsESaISA_EE11_M_leftmostEv"                                   ; magicseg='TEXT32' len=120  weak
  "__ZNKSt8_Rb_treeISsSt4pairIKSsSt3mapIjS0_IcjESt4lessIjESaIS0_IKjS3_EEEESt10_Select1stISA_ES4_ISsESaISA_EE12_M_rightmostEv"                                  ; magicseg='TEXT32' len=121  weak
  "__ZNKSt8_Rb_treeISsSt4pairIKSsSt3mapIjS0_IcjESt4lessIjESaIS0_IKjS3_EEEESt10_Select1stISA_ES4_ISsESaISA_EE3endEv"       ; magicseg='TEXT32' len=111  weak
  "__ZNKSt8_Rb_treeISsSt4pairIKSsSt3mapIjS0_IcjESt4lessIjESaIS0_IKjS3_EEEESt10_Select1stISA_ES4_ISsESaISA_EE5beginEv"     ; magicseg='TEXT32' len=113  weak
  "__ZNKSt8_Rb_treeISsSt4pairIKSsSt3mapIjS0_IcjESt4lessIjESaIS0_IKjS3_EEEESt10_Select1stISA_ES4_ISsESaISA_EE7_M_rootEv"                                        ; magicseg='TEXT32' len=115  weak
  "__ZNKSt9_IdentityIjEclERj"                                           ; magicseg='TEXT32' len=25  weak
  "__ZNKSt9_IdentityIjEclERKj"                                          ; magicseg='TEXT32' len=26  weak
  "__ZNKSt9_IdentityIPN6Xapian5Query8InternalEEclERKS3_"                ; magicseg='TEXT32' len=52  weak
  "__ZNKSt9_IdentityIPN6Xapian5Query8InternalEEclERS3_"                 ; magicseg='TEXT32' len=51  weak
  "__ZNKSt9_IdentityIPN6Xapian6Weight8InternalEEclERKS3_"               ; magicseg='TEXT32' len=53  weak
  "__ZNKSt9_IdentityIPN6Xapian6Weight8InternalEEclERS3_"                ; magicseg='TEXT32' len=52  weak
  "__ZNKSt9_IdentityISsEclERKSs"                                        ; magicseg='TEXT32' len=28  weak
  "__ZNKSt9_IdentityISsEclERSs"                                         ; magicseg='TEXT32' len=27  weak
  "__ZNSaI11InMemoryDocEC1Ev"                                           ; magicseg='TEXT32' len=25  weak
  "__ZNSaI11InMemoryDocED1Ev"                                           ; magicseg='TEXT32' len=25  weak
  "__ZNSaI15InMemoryPostingEC1Ev"                                       ; magicseg='TEXT32' len=29  weak
  "__ZNSaI15InMemoryPostingED1Ev"                                       ; magicseg='TEXT32' len=29  weak
  "__ZNSaI17InMemoryTermEntryEC1Ev"                                     ; magicseg='TEXT32' len=31  weak
  "__ZNSaI17InMemoryTermEntryED1Ev"                                     ; magicseg='TEXT32' len=31  weak
  "__ZNSaIbEC1Ev"                                                       ; magicseg='TEXT32' len=13  weak
  "__ZNSaIbED1Ev"                                                       ; magicseg='TEXT32' len=13  weak
  "__ZNSaIdEC1Ev"                                                       ; magicseg='TEXT32' len=13  weak
  "__ZNSaIdED1Ev"                                                       ; magicseg='TEXT32' len=13  weak
  "__ZNSaIjEC1Ev"                                                       ; magicseg='TEXT32' len=13  weak
  "__ZNSaIjED1Ev"                                                       ; magicseg='TEXT32' len=13  weak
  "__ZNSaIN6Xapian4RSetEEC1Ev"                                          ; magicseg='TEXT32' len=26  weak
  "__ZNSaIN6Xapian4RSetEED1Ev"                                          ; magicseg='TEXT32' len=26  weak
  "__ZNSaIN6Xapian5QueryEEC1Ev"                                         ; magicseg='TEXT32' len=27  weak
  "__ZNSaIN6Xapian5QueryEED1Ev"                                         ; magicseg='TEXT32' len=27  weak
  "__ZNSaIN6Xapian8Internal8ESetItemEEC1Ev"                             ; magicseg='TEXT32' len=39  weak
  "__ZNSaIN6Xapian8Internal8ESetItemEED1Ev"                             ; magicseg='TEXT32' len=39  weak
  "__ZNSaIN6Xapian8Internal8MSetItemEEC1Ev"                             ; magicseg='TEXT32' len=39  weak
  "__ZNSaIN6Xapian8Internal8MSetItemEED1Ev"                             ; magicseg='TEXT32' len=39  weak
  "__ZNSaIN6Xapian8Internal9RefCntPtrI8SubMatchEEEC1Ev"                 ; magicseg='TEXT32' len=51  weak
  "__ZNSaIN6Xapian8Internal9RefCntPtrI8SubMatchEEED1Ev"                 ; magicseg='TEXT32' len=51  weak
  "__ZNSaIN6Xapian8Internal9RefCntPtrINS_8Database8InternalEEEEC1Ev"    ; magicseg='TEXT32' len=64  weak
  "__ZNSaIN6Xapian8Internal9RefCntPtrINS_8Database8InternalEEEED1Ev"    ; magicseg='TEXT32' len=64  weak
  "__ZNSaIN6Xapian9bucketvalEEC1Ev"                                     ; magicseg='TEXT32' len=31  weak
  "__ZNSaIN6Xapian9bucketvalEED1Ev"                                     ; magicseg='TEXT32' len=31  weak
  "__ZNSaIP12LeafPostListEC1Ev"                                         ; magicseg='TEXT32' len=27  weak
  "__ZNSaIP12LeafPostListED1Ev"                                         ; magicseg='TEXT32' len=27  weak
  "__ZNSaIP4TermEC1Ev"                                                  ; magicseg='TEXT32' len=18  weak
  "__ZNSaIP4TermED1Ev"                                                  ; magicseg='TEXT32' len=18  weak
  "__ZNSaIPN6Xapian12TermIterator8InternalEEC1Ev"                       ; magicseg='TEXT32' len=45  weak
  "__ZNSaIPN6Xapian12TermIterator8InternalEED1Ev"                       ; magicseg='TEXT32' len=45  weak
  "__ZNSaIPN6Xapian15PostingIterator8InternalEEC1Ev"                    ; magicseg='TEXT32' len=48  weak
  "__ZNSaIPN6Xapian15PostingIterator8InternalEED1Ev"                    ; magicseg='TEXT32' len=48  weak
  "__ZNSaIPN6Xapian16PositionIterator8InternalEEC1Ev"                   ; magicseg='TEXT32' len=49  weak
  "__ZNSaIPN6Xapian16PositionIterator8InternalEED1Ev"                   ; magicseg='TEXT32' len=49  weak
  "__ZNSaIPN6Xapian19ValueRangeProcessorEEC1Ev"                         ; magicseg='TEXT32' len=43  weak
  "__ZNSaIPN6Xapian19ValueRangeProcessorEED1Ev"                         ; magicseg='TEXT32' len=43  weak
  "__ZNSaIPN6Xapian5Query8InternalEEC1Ev"                               ; magicseg='TEXT32' len=37  weak
  "__ZNSaIPN6Xapian5Query8InternalEED1Ev"                               ; magicseg='TEXT32' len=37  weak
  "__ZNSaIPN6Xapian6Weight8InternalEEC1Ev"                              ; magicseg='TEXT32' len=38  weak
  "__ZNSaIPN6Xapian6Weight8InternalEED1Ev"                              ; magicseg='TEXT32' len=38  weak
  "__ZNSaISsEC1Ev"                                                      ; magicseg='TEXT32' len=14  weak
  "__ZNSaISsED1Ev"                                                      ; magicseg='TEXT32' len=14  weak
  "__ZNSaISt3mapIjSsSt4lessIjESaISt4pairIKjSsEEEEC1Ev"                  ; magicseg='TEXT32' len=50  weak
  "__ZNSaISt3mapIjSsSt4lessIjESaISt4pairIKjSsEEEED1Ev"                  ; magicseg='TEXT32' len=50  weak
  "__ZNSaISt4pairIK15filter_group_idN6Xapian5QueryEEEC1Ev"              ; magicseg='TEXT32' len=54  weak
  "__ZNSaISt4pairIK15filter_group_idN6Xapian5QueryEEED1Ev"              ; magicseg='TEXT32' len=54  weak
  "__ZNSaISt4pairIK8fragmentSt3setISsSt4lessISsESaISsEEEEC1Ev"          ; magicseg='TEXT32' len=58  weak
  "__ZNSaISt4pairIK8fragmentSt3setISsSt4lessISsESaISsEEEED1Ev"          ; magicseg='TEXT32' len=58  weak
  "__ZNSaISt4pairIKdjEEC1Ev"                                            ; magicseg='TEXT32' len=24  weak
  "__ZNSaISt4pairIKdjEED1Ev"                                            ; magicseg='TEXT32' len=24  weak
  "__ZNSaISt4pairIKjjEEC1Ev"                                            ; magicseg='TEXT32' len=24  weak
  "__ZNSaISt4pairIKjjEED1Ev"                                            ; magicseg='TEXT32' len=24  weak
  "__ZNSaISt4pairIKjN6Xapian8DocumentEEEC1Ev"                           ; magicseg='TEXT32' len=41  weak
  "__ZNSaISt4pairIKjN6Xapian8DocumentEEED1Ev"                           ; magicseg='TEXT32' len=41  weak
  "__ZNSaISt4pairIKjS_IcjEEEC1Ev"                                       ; magicseg='TEXT32' len=29  weak
  "__ZNSaISt4pairIKjS_IcjEEED1Ev"                                       ; magicseg='TEXT32' len=29  weak
  "__ZNSaISt4pairIKjSsEEC1Ev"                                           ; magicseg='TEXT32' len=25  weak
  "__ZNSaISt4pairIKjSsEED1Ev"                                           ; magicseg='TEXT32' len=25  weak
  "__ZNSaISt4pairIKSs10PrefixInfoEEC1Ev"                                ; magicseg='TEXT32' len=36  weak
  "__ZNSaISt4pairIKSs10PrefixInfoEED1Ev"                                ; magicseg='TEXT32' len=36  weak
  "__ZNSaISt4pairIKSs12InMemoryTermEEC1Ev"                              ; magicseg='TEXT32' len=38  weak
  "__ZNSaISt4pairIKSs12InMemoryTermEED1Ev"                              ; magicseg='TEXT32' len=38  weak
  "__ZNSaISt4pairIKSs14OmDocumentTermEEC1Ev"                            ; magicseg='TEXT32' len=40  weak
  "__ZNSaISt4pairIKSs14OmDocumentTermEED1Ev"                            ; magicseg='TEXT32' len=40  weak
  "__ZNSaISt4pairIKSsjEEC1Ev"                                           ; magicseg='TEXT32' len=25  weak
  "__ZNSaISt4pairIKSsjEED1Ev"                                           ; magicseg='TEXT32' len=25  weak
  "__ZNSaISt4pairIKSsN6Xapian4MSet8Internal17TermFreqAndWeightEEEC1Ev"                      ; magicseg='TEXT32' len=66  weak
  "__ZNSaISt4pairIKSsN6Xapian4MSet8Internal17TermFreqAndWeightEEED1Ev"                      ; magicseg='TEXT32' len=66  weak
  "__ZNSaISt4pairIKSsPKN6Xapian12MatchDeciderEEEC1Ev"                   ; magicseg='TEXT32' len=49  weak
  "__ZNSaISt4pairIKSsPKN6Xapian12MatchDeciderEEED1Ev"                   ; magicseg='TEXT32' len=49  weak
  "__ZNSaISt4pairIKSsS_IiiEEEC1Ev"                                      ; magicseg='TEXT32' len=30  weak
  "__ZNSaISt4pairIKSsS_IiiEEED1Ev"                                      ; magicseg='TEXT32' len=30  weak
  "__ZNSaISt4pairIKSsS_IN6Xapian8Internal8MSetItemEdEEEC1Ev"            ; magicseg='TEXT32' len=56  weak
  "__ZNSaISt4pairIKSsS_IN6Xapian8Internal8MSetItemEdEEED1Ev"            ; magicseg='TEXT32' len=56  weak
  "__ZNSaISt4pairIKSsSsEEC1Ev"                                          ; magicseg='TEXT32' len=26  weak
  "__ZNSaISt4pairIKSsSsEED1Ev"                                          ; magicseg='TEXT32' len=26  weak
  "__ZNSaISt4pairIKSsSt3mapIjS_IcjESt4lessIjESaIS_IKjS2_EEEEEC1Ev"      ; magicseg='TEXT32' len=62  weak
  "__ZNSaISt4pairIKSsSt3mapIjS_IcjESt4lessIjESaIS_IKjS2_EEEEED1Ev"      ; magicseg='TEXT32' len=62  weak
  "__ZNSaISt4pairISsjEEC1Ev"                                            ; magicseg='TEXT32' len=24  weak
  "__ZNSaISt4pairISsjEED1Ev"                                            ; magicseg='TEXT32' len=24  weak
  "__ZNSs12_S_constructIPKcEEPcT_S3_RKSaIcE"                            ; magicseg='TEXT32' len=40  weak
  "__ZNSs12_S_constructIPKcEEPcT_S3_RKSaIcESt20forward_iterator_tag"    ; magicseg='TEXT32' len=64  weak
  "__ZNSs16_S_construct_auxIPKcEEPcT_S3_RKSaIcE12__false_type"          ; magicseg='TEXT32' len=58  weak
  "__ZNSs6appendIPKcEERSsT_S3_"                                         ; magicseg='TEXT32' len=27  weak
  "__ZNSsC1IPKcEET_S2_RKSaIcE"                                          ; magicseg='TEXT32' len=26  weak
  "__ZNSt10_List_baseIN6Xapian5QueryESaIS1_EE7__clearEv"                ; magicseg='TEXT32' len=52  weak
  "__ZNSt10_List_baseIN6Xapian5QueryESaIS1_EEC2ERKS2_"                  ; magicseg='TEXT32' len=50  weak
  "__ZNSt10_List_baseIN6Xapian5QueryESaIS1_EED2Ev"                      ; magicseg='TEXT32' len=46  weak
  "__ZNSt10_List_baseIP4TermSaIS1_EE7__clearEv"                         ; magicseg='TEXT32' len=43  weak
  "__ZNSt10_List_baseIP4TermSaIS1_EEC2ERKS2_"                           ; magicseg='TEXT32' len=41  weak
  "__ZNSt10_List_baseIP4TermSaIS1_EED2Ev"                               ; magicseg='TEXT32' len=37  weak
  "__ZNSt10_List_baseIPN6Xapian19ValueRangeProcessorESaIS2_EE7__clearEv"                    ; magicseg='TEXT32' len=68  weak
  "__ZNSt10_List_baseIPN6Xapian19ValueRangeProcessorESaIS2_EEC2ERKS3_"                      ; magicseg='TEXT32' len=66  weak
  "__ZNSt10_List_baseIPN6Xapian19ValueRangeProcessorESaIS2_EED2Ev"      ; magicseg='TEXT32' len=62  weak
  "__ZNSt10_List_baseISsSaISsEE7__clearEv"                              ; magicseg='TEXT32' len=38  weak
  "__ZNSt10_List_baseISsSaISsEEC2ERKS0_"                                ; magicseg='TEXT32' len=36  weak
  "__ZNSt10_List_baseISsSaISsEED2Ev"                                    ; magicseg='TEXT32' len=32  weak
  "__ZNSt10_List_baseISt4pairISsjESaIS1_EE7__clearEv"                   ; magicseg='TEXT32' len=49  weak
  "__ZNSt10_List_baseISt4pairISsjESaIS1_EEC2ERKS2_"                     ; magicseg='TEXT32' len=47  weak
  "__ZNSt10_List_baseISt4pairISsjESaIS1_EED2Ev"                         ; magicseg='TEXT32' len=43  weak
  "__ZNSt11char_traitsIcE6lengthEPKc"                                   ; magicseg='TEXT32' len=33  weak
  "__ZNSt12_Vector_baseI11InMemoryDocSaIS0_EEC2ERKS1_"                  ; magicseg='TEXT32' len=50  weak
  "__ZNSt12_Vector_baseI11InMemoryDocSaIS0_EED2Ev"                      ; magicseg='TEXT32' len=46  weak
  "__ZNSt12_Vector_baseI15InMemoryPostingSaIS0_EEC2EjRKS1_"             ; magicseg='TEXT32' len=55  weak
  "__ZNSt12_Vector_baseI15InMemoryPostingSaIS0_EEC2ERKS1_"              ; magicseg='TEXT32' len=54  weak
  "__ZNSt12_Vector_baseI15InMemoryPostingSaIS0_EED2Ev"                  ; magicseg='TEXT32' len=50  weak
  "__ZNSt12_Vector_baseI17InMemoryTermEntrySaIS0_EEC2EjRKS1_"           ; magicseg='TEXT32' len=57  weak
  "__ZNSt12_Vector_baseI17InMemoryTermEntrySaIS0_EEC2ERKS1_"            ; magicseg='TEXT32' len=56  weak
  "__ZNSt12_Vector_baseI17InMemoryTermEntrySaIS0_EED2Ev"                ; magicseg='TEXT32' len=52  weak
  "__ZNSt12_Vector_baseIdSaIdEEC2ERKS0_"                                ; magicseg='TEXT32' len=36  weak
  "__ZNSt12_Vector_baseIdSaIdEED2Ev"                                    ; magicseg='TEXT32' len=32  weak
  "__ZNSt12_Vector_baseIjSaIjEEC2EjRKS0_"                               ; magicseg='TEXT32' len=37  weak
  "__ZNSt12_Vector_baseIjSaIjEEC2ERKS0_"                                ; magicseg='TEXT32' len=36  weak
  "__ZNSt12_Vector_baseIjSaIjEED2Ev"                                    ; magicseg='TEXT32' len=32  weak
  "__ZNSt12_Vector_baseIN6Xapian4RSetESaIS1_EEC2ERKS2_"                 ; magicseg='TEXT32' len=51  weak
  "__ZNSt12_Vector_baseIN6Xapian4RSetESaIS1_EED2Ev"                     ; magicseg='TEXT32' len=47  weak
  "__ZNSt12_Vector_baseIN6Xapian8Internal8ESetItemESaIS2_EEC2ERKS3_"    ; magicseg='TEXT32' len=64  weak
  "__ZNSt12_Vector_baseIN6Xapian8Internal8ESetItemESaIS2_EED2Ev"        ; magicseg='TEXT32' len=60  weak
  "__ZNSt12_Vector_baseIN6Xapian8Internal8MSetItemESaIS2_EEC2EjRKS3_"                       ; magicseg='TEXT32' len=65  weak
  "__ZNSt12_Vector_baseIN6Xapian8Internal8MSetItemESaIS2_EEC2ERKS3_"    ; magicseg='TEXT32' len=64  weak
  "__ZNSt12_Vector_baseIN6Xapian8Internal8MSetItemESaIS2_EED2Ev"        ; magicseg='TEXT32' len=60  weak
  "__ZNSt12_Vector_baseIN6Xapian8Internal9RefCntPtrI8SubMatchEESaIS4_EEC2ERKS5_"            ; magicseg='TEXT32' len=76  weak
  "__ZNSt12_Vector_baseIN6Xapian8Internal9RefCntPtrI8SubMatchEESaIS4_EED2Ev"                ; magicseg='TEXT32' len=72  weak
  "__ZNSt12_Vector_baseIN6Xapian8Internal9RefCntPtrINS0_8Database8InternalEEESaIS5_EEC2ERKS6_"                            ; magicseg='TEXT32' len=90  weak
  "__ZNSt12_Vector_baseIN6Xapian8Internal9RefCntPtrINS0_8Database8InternalEEESaIS5_EED2Ev"                                ; magicseg='TEXT32' len=86  weak
  "__ZNSt12_Vector_baseIN6Xapian9bucketvalESaIS1_EEC2EjRKS2_"           ; magicseg='TEXT32' len=57  weak
  "__ZNSt12_Vector_baseIN6Xapian9bucketvalESaIS1_EED2Ev"                ; magicseg='TEXT32' len=52  weak
  "__ZNSt12_Vector_baseIP12LeafPostListSaIS1_EEC2EjRKS2_"               ; magicseg='TEXT32' len=53  weak
  "__ZNSt12_Vector_baseIP12LeafPostListSaIS1_EEC2ERKS2_"                ; magicseg='TEXT32' len=52  weak
  "__ZNSt12_Vector_baseIP12LeafPostListSaIS1_EED2Ev"                    ; magicseg='TEXT32' len=48  weak
  "__ZNSt12_Vector_baseIPN6Xapian12TermIterator8InternalESaIS3_EEC2EjRKS4_"                 ; magicseg='TEXT32' len=71  weak
  "__ZNSt12_Vector_baseIPN6Xapian12TermIterator8InternalESaIS3_EEC2ERKS4_"                  ; magicseg='TEXT32' len=70  weak
  "__ZNSt12_Vector_baseIPN6Xapian12TermIterator8InternalESaIS3_EED2Ev"                      ; magicseg='TEXT32' len=66  weak
  "__ZNSt12_Vector_baseIPN6Xapian15PostingIterator8InternalESaIS3_EEC2EjRKS4_"              ; magicseg='TEXT32' len=74  weak
  "__ZNSt12_Vector_baseIPN6Xapian15PostingIterator8InternalESaIS3_EEC2ERKS4_"               ; magicseg='TEXT32' len=73  weak
  "__ZNSt12_Vector_baseIPN6Xapian15PostingIterator8InternalESaIS3_EED2Ev"                   ; magicseg='TEXT32' len=69  weak
  "__ZNSt12_Vector_baseIPN6Xapian16PositionIterator8InternalESaIS3_EEC2ERKS4_"              ; magicseg='TEXT32' len=74  weak
  "__ZNSt12_Vector_baseIPN6Xapian16PositionIterator8InternalESaIS3_EED2Ev"                  ; magicseg='TEXT32' len=70  weak
  "__ZNSt12_Vector_baseIPN6Xapian5Query8InternalESaIS3_EEC2ERKS4_"      ; magicseg='TEXT32' len=62  weak
  "__ZNSt12_Vector_baseIPN6Xapian5Query8InternalESaIS3_EED2Ev"          ; magicseg='TEXT32' len=58  weak
  "__ZNSt12_Vector_baseISsSaISsEEC2ERKS0_"                              ; magicseg='TEXT32' len=38  weak
  "__ZNSt12_Vector_baseISsSaISsEED2Ev"                                  ; magicseg='TEXT32' len=34  weak
  "__ZNSt12_Vector_baseISt3mapIjSsSt4lessIjESaISt4pairIKjSsEEESaIS7_EEC2ERKS8_"             ; magicseg='TEXT32' len=75  weak
  "__ZNSt12_Vector_baseISt3mapIjSsSt4lessIjESaISt4pairIKjSsEEESaIS7_EED2Ev"                 ; magicseg='TEXT32' len=71  weak
  "__ZNSt12_Vector_baseISt4pairISsjESaIS1_EEC2ERKS2_"                   ; magicseg='TEXT32' len=49  weak
  "__ZNSt12_Vector_baseISt4pairISsjESaIS1_EED2Ev"                       ; magicseg='TEXT32' len=45  weak
  "__ZNSt13_Bit_iteratorC1EPmj"                                         ; magicseg='TEXT32' len=27  weak
  "__ZNSt13_Bit_iteratorC1Ev"                                           ; magicseg='TEXT32' len=25  weak
  "__ZNSt13_Bit_iteratormmEv"                                           ; magicseg='TEXT32' len=25  weak
  "__ZNSt13_Bit_iteratorpLEi"                                           ; magicseg='TEXT32' len=25  weak
  "__ZNSt13_Bit_iteratorppEv"                                           ; magicseg='TEXT32' len=25  weak
  "__ZNSt13_Bvector_baseISaIbEEC2ERKS0_"                                ; magicseg='TEXT32' len=36  weak
  "__ZNSt13_Bvector_baseISaIbEED2Ev"                                    ; magicseg='TEXT32' len=32  weak
  "__ZNSt13_Rb_tree_baseIjSaIjEEC2ERKS0_"                               ; magicseg='TEXT32' len=37  weak
  "__ZNSt13_Rb_tree_baseIjSaIjEED2Ev"                                   ; magicseg='TEXT32' len=33  weak
  "__ZNSt13_Rb_tree_baseIPN6Xapian5Query8InternalESaIS3_EEC2ERKS4_"     ; magicseg='TEXT32' len=63  weak
  "__ZNSt13_Rb_tree_baseIPN6Xapian5Query8InternalESaIS3_EED2Ev"         ; magicseg='TEXT32' len=59  weak
  "__ZNSt13_Rb_tree_baseIPN6Xapian6Weight8InternalESaIS3_EEC2ERKS4_"    ; magicseg='TEXT32' len=64  weak
  "__ZNSt13_Rb_tree_baseIPN6Xapian6Weight8InternalESaIS3_EED2Ev"        ; magicseg='TEXT32' len=60  weak
  "__ZNSt13_Rb_tree_baseISsSaISsEEC2ERKS0_"                             ; magicseg='TEXT32' len=39  weak
  "__ZNSt13_Rb_tree_baseISsSaISsEED2Ev"                                 ; magicseg='TEXT32' len=35  weak
  "__ZNSt13_Rb_tree_baseISt4pairIK15filter_group_idN6Xapian5QueryEESaIS5_EEC2ERKS6_"        ; magicseg='TEXT32' len=80  weak
  "__ZNSt13_Rb_tree_baseISt4pairIK15filter_group_idN6Xapian5QueryEESaIS5_EED2Ev"            ; magicseg='TEXT32' len=76  weak
  "__ZNSt13_Rb_tree_baseISt4pairIK8fragmentSt3setISsSt4lessISsESaISsEEESaIS8_EEC2ERKS9_"    ; magicseg='TEXT32' len=84  weak
  "__ZNSt13_Rb_tree_baseISt4pairIK8fragmentSt3setISsSt4lessISsESaISsEEESaIS8_EED2Ev"        ; magicseg='TEXT32' len=80  weak
  "__ZNSt13_Rb_tree_baseISt4pairIKdjESaIS2_EEC2ERKS3_"                  ; magicseg='TEXT32' len=50  weak
  "__ZNSt13_Rb_tree_baseISt4pairIKdjESaIS2_EED2Ev"                      ; magicseg='TEXT32' len=46  weak
  "__ZNSt13_Rb_tree_baseISt4pairIKjjESaIS2_EEC2ERKS3_"                  ; magicseg='TEXT32' len=50  weak
  "__ZNSt13_Rb_tree_baseISt4pairIKjjESaIS2_EED2Ev"                      ; magicseg='TEXT32' len=46  weak
  "__ZNSt13_Rb_tree_baseISt4pairIKjN6Xapian8DocumentEESaIS4_EEC2ERKS5_"                     ; magicseg='TEXT32' len=67  weak
  "__ZNSt13_Rb_tree_baseISt4pairIKjN6Xapian8DocumentEESaIS4_EED2Ev"     ; magicseg='TEXT32' len=63  weak
  "__ZNSt13_Rb_tree_baseISt4pairIKjS0_IcjEESaIS3_EEC2ERKS4_"            ; magicseg='TEXT32' len=56  weak
  "__ZNSt13_Rb_tree_baseISt4pairIKjS0_IcjEESaIS3_EED2Ev"                ; magicseg='TEXT32' len=52  weak
  "__ZNSt13_Rb_tree_baseISt4pairIKjSsESaIS2_EEC2ERKS3_"                 ; magicseg='TEXT32' len=51  weak
  "__ZNSt13_Rb_tree_baseISt4pairIKjSsESaIS2_EED2Ev"                     ; magicseg='TEXT32' len=47  weak
  "__ZNSt13_Rb_tree_baseISt4pairIKjSt3mapISsjSt4lessISsESaIS0_IKSsjEEEESaIS9_EED2Ev"        ; magicseg='TEXT32' len=80  weak
  "__ZNSt13_Rb_tree_baseISt4pairIKSs10PrefixInfoESaIS3_EEC2ERKS4_"      ; magicseg='TEXT32' len=62  weak
  "__ZNSt13_Rb_tree_baseISt4pairIKSs10PrefixInfoESaIS3_EED2Ev"          ; magicseg='TEXT32' len=58  weak
  "__ZNSt13_Rb_tree_baseISt4pairIKSs12InMemoryTermESaIS3_EEC2ERKS4_"    ; magicseg='TEXT32' len=64  weak
  "__ZNSt13_Rb_tree_baseISt4pairIKSs12InMemoryTermESaIS3_EED2Ev"        ; magicseg='TEXT32' len=60  weak
  "__ZNSt13_Rb_tree_baseISt4pairIKSs14OmDocumentTermESaIS3_EEC2ERKS4_"                      ; magicseg='TEXT32' len=66  weak
  "__ZNSt13_Rb_tree_baseISt4pairIKSs14OmDocumentTermESaIS3_EED2Ev"      ; magicseg='TEXT32' len=62  weak
  "__ZNSt13_Rb_tree_baseISt4pairIKSsjESaIS2_EEC2ERKS3_"                 ; magicseg='TEXT32' len=51  weak
  "__ZNSt13_Rb_tree_baseISt4pairIKSsjESaIS2_EED2Ev"                     ; magicseg='TEXT32' len=47  weak
  "__ZNSt13_Rb_tree_baseISt4pairIKSsN6Xapian4MSet8Internal17TermFreqAndWeightEESaIS6_EEC2ERKS7_"                          ; magicseg='TEXT32' len=92  weak
  "__ZNSt13_Rb_tree_baseISt4pairIKSsN6Xapian4MSet8Internal17TermFreqAndWeightEESaIS6_EED2Ev"                              ; magicseg='TEXT32' len=88  weak
  "__ZNSt13_Rb_tree_baseISt4pairIKSsPKN6Xapian12MatchDeciderEESaIS6_EEC2ERKS7_"             ; magicseg='TEXT32' len=75  weak
  "__ZNSt13_Rb_tree_baseISt4pairIKSsPKN6Xapian12MatchDeciderEESaIS6_EED2Ev"                 ; magicseg='TEXT32' len=71  weak
  "__ZNSt13_Rb_tree_baseISt4pairIKSsS0_IiiEESaIS3_EEC2ERKS4_"           ; magicseg='TEXT32' len=57  weak
  "__ZNSt13_Rb_tree_baseISt4pairIKSsS0_IiiEESaIS3_EED2Ev"               ; magicseg='TEXT32' len=53  weak
  "__ZNSt13_Rb_tree_baseISt4pairIKSsS0_IN6Xapian8Internal8MSetItemEdEESaIS6_EEC2ERKS7_"     ; magicseg='TEXT32' len=83  weak
  "__ZNSt13_Rb_tree_baseISt4pairIKSsS0_IN6Xapian8Internal8MSetItemEdEESaIS6_EED2Ev"         ; magicseg='TEXT32' len=79  weak
  "__ZNSt13_Rb_tree_baseISt4pairIKSsSsESaIS2_EEC2ERKS3_"                ; magicseg='TEXT32' len=52  weak
  "__ZNSt13_Rb_tree_baseISt4pairIKSsSsESaIS2_EED2Ev"                    ; magicseg='TEXT32' len=48  weak
  "__ZNSt13_Rb_tree_baseISt4pairIKSsSt3mapIjS0_IcjESt4lessIjESaIS0_IKjS3_EEEESaISA_EEC2ERKSB_"                            ; magicseg='TEXT32' len=90  weak
  "__ZNSt13_Rb_tree_baseISt4pairIKSsSt3mapIjS0_IcjESt4lessIjESaIS0_IKjS3_EEEESaISA_EED2Ev"                                ; magicseg='TEXT32' len=86  weak
  "__ZNSt14__simple_allocI11InMemoryDocSt24__default_alloc_templateILb1ELi0EEE10deallocateEPS0_j"                         ; magicseg='TEXT32' len=93  weak
  "__ZNSt14__simple_allocI11InMemoryDocSt24__default_alloc_templateILb1ELi0EEE8allocateEj"                                ; magicseg='TEXT32' len=86  weak
  "__ZNSt14__simple_allocI15InMemoryPostingSt24__default_alloc_templateILb1ELi0EEE10deallocateEPS0_j"                     ; magicseg='TEXT32' len=97  weak
  "__ZNSt14__simple_allocI15InMemoryPostingSt24__default_alloc_templateILb1ELi0EEE8allocateEj"                            ; magicseg='TEXT32' len=90  weak
  "__ZNSt14__simple_allocI17InMemoryTermEntrySt24__default_alloc_templateILb1ELi0EEE10deallocateEPS0_j"                   ; magicseg='TEXT32' len=99  weak
  "__ZNSt14__simple_allocI17InMemoryTermEntrySt24__default_alloc_templateILb1ELi0EEE8allocateEj"                          ; magicseg='TEXT32' len=92  weak
  "__ZNSt14__simple_allocIdSt24__default_alloc_templateILb1ELi0EEE10deallocateEPdj"         ; magicseg='TEXT32' len=79  weak
  "__ZNSt14__simple_allocIdSt24__default_alloc_templateILb1ELi0EEE8allocateEj"              ; magicseg='TEXT32' len=74  weak
  "__ZNSt14__simple_allocIjSt24__default_alloc_templateILb1ELi0EEE10deallocateEPjj"         ; magicseg='TEXT32' len=79  weak
  "__ZNSt14__simple_allocIjSt24__default_alloc_templateILb1ELi0EEE8allocateEj"              ; magicseg='TEXT32' len=74  weak
  "__ZNSt14__simple_allocImSt24__default_alloc_templateILb1ELi0EEE10deallocateEPmj"         ; magicseg='TEXT32' len=79  weak
  "__ZNSt14__simple_allocImSt24__default_alloc_templateILb1ELi0EEE8allocateEj"              ; magicseg='TEXT32' len=74  weak
  "__ZNSt14__simple_allocIN6Xapian4RSetESt24__default_alloc_templateILb1ELi0EEE10deallocateEPS1_j"                        ; magicseg='TEXT32' len=94  weak
  "__ZNSt14__simple_allocIN6Xapian4RSetESt24__default_alloc_templateILb1ELi0EEE8allocateEj"                               ; magicseg='TEXT32' len=87  weak
  "__ZNSt14__simple_allocIN6Xapian8Internal8ESetItemESt24__default_alloc_templateILb1ELi0EEE10deallocateEPS2_j"           ; magicseg='TEXT32' len=107  weak
  "__ZNSt14__simple_allocIN6Xapian8Internal8ESetItemESt24__default_alloc_templateILb1ELi0EEE8allocateEj"                  ; magicseg='TEXT32' len=100  weak
  "__ZNSt14__simple_allocIN6Xapian8Internal8MSetItemESt24__default_alloc_templateILb1ELi0EEE10deallocateEPS2_j"           ; magicseg='TEXT32' len=107  weak
  "__ZNSt14__simple_allocIN6Xapian8Internal8MSetItemESt24__default_alloc_templateILb1ELi0EEE8allocateEj"                  ; magicseg='TEXT32' len=100  weak
  "__ZNSt14__simple_allocIN6Xapian8Internal9RefCntPtrI8SubMatchEESt24__default_alloc_templateILb1ELi0EEE10deallocateEPS4_j"                                    ; magicseg='TEXT32' len=119  weak
  "__ZNSt14__simple_allocIN6Xapian8Internal9RefCntPtrI8SubMatchEESt24__default_alloc_templateILb1ELi0EEE8allocateEj"      ; magicseg='TEXT32' len=112  weak
  "__ZNSt14__simple_allocIN6Xapian8Internal9RefCntPtrINS0_8Database8InternalEEESt24__default_alloc_templateILb1ELi0EEE10deallocateEPS5_j"                      ; magicseg='TEXT32' len=133  weak
  "__ZNSt14__simple_allocIN6Xapian8Internal9RefCntPtrINS0_8Database8InternalEEESt24__default_alloc_templateILb1ELi0EEE8allocateEj"                             ; magicseg='TEXT32' len=126  weak
  "__ZNSt14__simple_allocIN6Xapian9bucketvalESt24__default_alloc_templateILb1ELi0EEE10deallocateEPS1_j"                   ; magicseg='TEXT32' len=99  weak
  "__ZNSt14__simple_allocIN6Xapian9bucketvalESt24__default_alloc_templateILb1ELi0EEE8allocateEj"                          ; magicseg='TEXT32' len=92  weak
  "__ZNSt14__simple_allocIP12LeafPostListSt24__default_alloc_templateILb1ELi0EEE10deallocateEPS1_j"                       ; magicseg='TEXT32' len=95  weak
  "__ZNSt14__simple_allocIP12LeafPostListSt24__default_alloc_templateILb1ELi0EEE8allocateEj"                              ; magicseg='TEXT32' len=88  weak
  "__ZNSt14__simple_allocIPN6Xapian12TermIterator8InternalESt24__default_alloc_templateILb1ELi0EEE10deallocateEPS3_j"     ; magicseg='TEXT32' len=113  weak
  "__ZNSt14__simple_allocIPN6Xapian12TermIterator8InternalESt24__default_alloc_templateILb1ELi0EEE8allocateEj"            ; magicseg='TEXT32' len=106  weak
  "__ZNSt14__simple_allocIPN6Xapian15PostingIterator8InternalESt24__default_alloc_templateILb1ELi0EEE10deallocateEPS3_j"                                       ; magicseg='TEXT32' len=116  weak
  "__ZNSt14__simple_allocIPN6Xapian15PostingIterator8InternalESt24__default_alloc_templateILb1ELi0EEE8allocateEj"         ; magicseg='TEXT32' len=109  weak
  "__ZNSt14__simple_allocIPN6Xapian16PositionIterator8InternalESt24__default_alloc_templateILb1ELi0EEE10deallocateEPS3_j"                                      ; magicseg='TEXT32' len=117  weak
  "__ZNSt14__simple_allocIPN6Xapian16PositionIterator8InternalESt24__default_alloc_templateILb1ELi0EEE8allocateEj"        ; magicseg='TEXT32' len=110  weak
  "__ZNSt14__simple_allocIPN6Xapian5Query8InternalESt24__default_alloc_templateILb1ELi0EEE10deallocateEPS3_j"             ; magicseg='TEXT32' len=105  weak
  "__ZNSt14__simple_allocIPN6Xapian5Query8InternalESt24__default_alloc_templateILb1ELi0EEE8allocateEj"                    ; magicseg='TEXT32' len=98  weak
  "__ZNSt14__simple_allocISsSt24__default_alloc_templateILb1ELi0EEE10deallocateEPSsj"       ; magicseg='TEXT32' len=81  weak
  "__ZNSt14__simple_allocISsSt24__default_alloc_templateILb1ELi0EEE8allocateEj"             ; magicseg='TEXT32' len=75  weak
  "__ZNSt14__simple_allocISt10_List_nodeIN6Xapian5QueryEESt24__default_alloc_templateILb1ELi0EEE10deallocateEPS3_j"       ; magicseg='TEXT32' len=111  weak
  "__ZNSt14__simple_allocISt10_List_nodeIN6Xapian5QueryEESt24__default_alloc_templateILb1ELi0EEE8allocateEj"              ; magicseg='TEXT32' len=104  weak
  "__ZNSt14__simple_allocISt10_List_nodeIP4TermESt24__default_alloc_templateILb1ELi0EEE10deallocateEPS3_j"                ; magicseg='TEXT32' len=102  weak
  "__ZNSt14__simple_allocISt10_List_nodeIP4TermESt24__default_alloc_templateILb1ELi0EEE8allocateEj"                       ; magicseg='TEXT32' len=95  weak
  "__ZNSt14__simple_allocISt10_List_nodeIPN6Xapian19ValueRangeProcessorEESt24__default_alloc_templateILb1ELi0EEE10deallocateEPS4_j"                            ; magicseg='TEXT32' len=127  weak
  "__ZNSt14__simple_allocISt10_List_nodeIPN6Xapian19ValueRangeProcessorEESt24__default_alloc_templateILb1ELi0EEE8allocateEj"                                   ; magicseg='TEXT32' len=120  weak
  "__ZNSt14__simple_allocISt10_List_nodeISsESt24__default_alloc_templateILb1ELi0EEE10deallocateEPS1_j"                    ; magicseg='TEXT32' len=98  weak
  "__ZNSt14__simple_allocISt10_List_nodeISsESt24__default_alloc_templateILb1ELi0EEE8allocateEj"                           ; magicseg='TEXT32' len=91  weak
  "__ZNSt14__simple_allocISt10_List_nodeISt4pairISsjEESt24__default_alloc_templateILb1ELi0EEE10deallocateEPS3_j"          ; magicseg='TEXT32' len=108  weak
  "__ZNSt14__simple_allocISt10_List_nodeISt4pairISsjEESt24__default_alloc_templateILb1ELi0EEE8allocateEj"                 ; magicseg='TEXT32' len=101  weak
  "__ZNSt14__simple_allocISt13_Rb_tree_nodeIjESt24__default_alloc_templateILb1ELi0EEE10deallocateEPS1_j"                  ; magicseg='TEXT32' len=100  weak
  "__ZNSt14__simple_allocISt13_Rb_tree_nodeIjESt24__default_alloc_templateILb1ELi0EEE8allocateEj"                         ; magicseg='TEXT32' len=93  weak
  "__ZNSt14__simple_allocISt13_Rb_tree_nodeIPN6Xapian5Query8InternalEESt24__default_alloc_templateILb1ELi0EEE10deallocateEPS5_j"                               ; magicseg='TEXT32' len=124  weak
  "__ZNSt14__simple_allocISt13_Rb_tree_nodeIPN6Xapian5Query8InternalEESt24__default_alloc_templateILb1ELi0EEE8allocateEj"                                      ; magicseg='TEXT32' len=117  weak
  "__ZNSt14__simple_allocISt13_Rb_tree_nodeIPN6Xapian6Weight8InternalEESt24__default_alloc_templateILb1ELi0EEE10deallocateEPS5_j"                              ; magicseg='TEXT32' len=125  weak
  "__ZNSt14__simple_allocISt13_Rb_tree_nodeIPN6Xapian6Weight8InternalEESt24__default_alloc_templateILb1ELi0EEE8allocateEj"                                     ; magicseg='TEXT32' len=118  weak
  "__ZNSt14__simple_allocISt13_Rb_tree_nodeISsESt24__default_alloc_templateILb1ELi0EEE10deallocateEPS1_j"                 ; magicseg='TEXT32' len=101  weak
  "__ZNSt14__simple_allocISt13_Rb_tree_nodeISsESt24__default_alloc_templateILb1ELi0EEE8allocateEj"                        ; magicseg='TEXT32' len=94  weak
  "__ZNSt14__simple_allocISt13_Rb_tree_nodeISt4pairIK15filter_group_idN6Xapian5QueryEEESt24__default_alloc_templateILb1ELi0EEE10deallocateEPS7_j"              ; magicseg='TEXT32' len=141  weak
  "__ZNSt14__simple_allocISt13_Rb_tree_nodeISt4pairIK15filter_group_idN6Xapian5QueryEEESt24__default_alloc_templateILb1ELi0EEE8allocateEj"                     ; magicseg='TEXT32' len=134  weak
  "__ZNSt14__simple_allocISt13_Rb_tree_nodeISt4pairIK8fragmentSt3setISsSt4lessISsESaISsEEEESt24__default_alloc_templateILb1ELi0EEE10deallocateEPSA_j"          ; magicseg='TEXT32' len=145  weak
  "__ZNSt14__simple_allocISt13_Rb_tree_nodeISt4pairIK8fragmentSt3setISsSt4lessISsESaISsEEEESt24__default_alloc_templateILb1ELi0EEE8allocateEj"                 ; magicseg='TEXT32' len=138  weak
  "__ZNSt14__simple_allocISt13_Rb_tree_nodeISt4pairIKdjEESt24__default_alloc_templateILb1ELi0EEE10deallocateEPS4_j"       ; magicseg='TEXT32' len=111  weak
  "__ZNSt14__simple_allocISt13_Rb_tree_nodeISt4pairIKdjEESt24__default_alloc_templateILb1ELi0EEE8allocateEj"              ; magicseg='TEXT32' len=104  weak
  "__ZNSt14__simple_allocISt13_Rb_tree_nodeISt4pairIKjjEESt24__default_alloc_templateILb1ELi0EEE10deallocateEPS4_j"       ; magicseg='TEXT32' len=111  weak
  "__ZNSt14__simple_allocISt13_Rb_tree_nodeISt4pairIKjjEESt24__default_alloc_templateILb1ELi0EEE8allocateEj"              ; magicseg='TEXT32' len=104  weak
  "__ZNSt14__simple_allocISt13_Rb_tree_nodeISt4pairIKjN6Xapian8DocumentEEESt24__default_alloc_templateILb1ELi0EEE10deallocateEPS6_j"                           ; magicseg='TEXT32' len=128  weak
  "__ZNSt14__simple_allocISt13_Rb_tree_nodeISt4pairIKjN6Xapian8DocumentEEESt24__default_alloc_templateILb1ELi0EEE8allocateEj"                                  ; magicseg='TEXT32' len=121  weak
  "__ZNSt14__simple_allocISt13_Rb_tree_nodeISt4pairIKjS1_IcjEEESt24__default_alloc_templateILb1ELi0EEE10deallocateEPS5_j"                                      ; magicseg='TEXT32' len=117  weak
  "__ZNSt14__simple_allocISt13_Rb_tree_nodeISt4pairIKjS1_IcjEEESt24__default_alloc_templateILb1ELi0EEE8allocateEj"        ; magicseg='TEXT32' len=110  weak
  "__ZNSt14__simple_allocISt13_Rb_tree_nodeISt4pairIKjSsEESt24__default_alloc_templateILb1ELi0EEE10deallocateEPS4_j"      ; magicseg='TEXT32' len=112  weak
  "__ZNSt14__simple_allocISt13_Rb_tree_nodeISt4pairIKjSsEESt24__default_alloc_templateILb1ELi0EEE8allocateEj"             ; magicseg='TEXT32' len=105  weak
  "__ZNSt14__simple_allocISt13_Rb_tree_nodeISt4pairIKjSt3mapISsjSt4lessISsESaIS1_IKSsjEEEEESt24__default_alloc_templateILb1ELi0EEE10deallocateEPSB_j"          ; magicseg='TEXT32' len=145  weak
  "__ZNSt14__simple_allocISt13_Rb_tree_nodeISt4pairIKjSt3mapISsjSt4lessISsESaIS1_IKSsjEEEEESt24__default_alloc_templateILb1ELi0EEE8allocateEj"                 ; magicseg='TEXT32' len=138  weak
  "__ZNSt14__simple_allocISt13_Rb_tree_nodeISt4pairIKSs10PrefixInfoEESt24__default_alloc_templateILb1ELi0EEE10deallocateEPS5_j"                                ; magicseg='TEXT32' len=123  weak
  "__ZNSt14__simple_allocISt13_Rb_tree_nodeISt4pairIKSs10PrefixInfoEESt24__default_alloc_templateILb1ELi0EEE8allocateEj"                                       ; magicseg='TEXT32' len=116  weak
  "__ZNSt14__simple_allocISt13_Rb_tree_nodeISt4pairIKSs12InMemoryTermEESt24__default_alloc_templateILb1ELi0EEE10deallocateEPS5_j"                              ; magicseg='TEXT32' len=125  weak
  "__ZNSt14__simple_allocISt13_Rb_tree_nodeISt4pairIKSs12InMemoryTermEESt24__default_alloc_templateILb1ELi0EEE8allocateEj"                                     ; magicseg='TEXT32' len=118  weak
  "__ZNSt14__simple_allocISt13_Rb_tree_nodeISt4pairIKSs14OmDocumentTermEESt24__default_alloc_templateILb1ELi0EEE10deallocateEPS5_j"                            ; magicseg='TEXT32' len=127  weak
  "__ZNSt14__simple_allocISt13_Rb_tree_nodeISt4pairIKSs14OmDocumentTermEESt24__default_alloc_templateILb1ELi0EEE8allocateEj"                                   ; magicseg='TEXT32' len=120  weak
  "__ZNSt14__simple_allocISt13_Rb_tree_nodeISt4pairIKSsjEESt24__default_alloc_templateILb1ELi0EEE10deallocateEPS4_j"      ; magicseg='TEXT32' len=112  weak
  "__ZNSt14__simple_allocISt13_Rb_tree_nodeISt4pairIKSsjEESt24__default_alloc_templateILb1ELi0EEE8allocateEj"             ; magicseg='TEXT32' len=105  weak
  "__ZNSt14__simple_allocISt13_Rb_tree_nodeISt4pairIKSsN6Xapian4MSet8Internal17TermFreqAndWeightEEESt24__default_alloc_templateILb1ELi0EEE10deallocateEPS8_j"                                         ; magicseg='TEXT32' len=153  weak
  "__ZNSt14__simple_allocISt13_Rb_tree_nodeISt4pairIKSsN6Xapian4MSet8Internal17TermFreqAndWeightEEESt24__default_alloc_templateILb1ELi0EEE8allocateEj"         ; magicseg='TEXT32' len=146  weak
  "__ZNSt14__simple_allocISt13_Rb_tree_nodeISt4pairIKSsPKN6Xapian12MatchDeciderEEESt24__default_alloc_templateILb1ELi0EEE10deallocateEPS8_j"                   ; magicseg='TEXT32' len=136  weak
  "__ZNSt14__simple_allocISt13_Rb_tree_nodeISt4pairIKSsPKN6Xapian12MatchDeciderEEESt24__default_alloc_templateILb1ELi0EEE8allocateEj"                          ; magicseg='TEXT32' len=129  weak
  "__ZNSt14__simple_allocISt13_Rb_tree_nodeISt4pairIKSsS1_IiiEEESt24__default_alloc_templateILb1ELi0EEE10deallocateEPS5_j"                                     ; magicseg='TEXT32' len=118  weak
  "__ZNSt14__simple_allocISt13_Rb_tree_nodeISt4pairIKSsS1_IiiEEESt24__default_alloc_templateILb1ELi0EEE8allocateEj"       ; magicseg='TEXT32' len=111  weak
  "__ZNSt14__simple_allocISt13_Rb_tree_nodeISt4pairIKSsS1_IN6Xapian8Internal8MSetItemEdEEESt24__default_alloc_templateILb1ELi0EEE10deallocateEPS8_j"           ; magicseg='TEXT32' len=144  weak
  "__ZNSt14__simple_allocISt13_Rb_tree_nodeISt4pairIKSsS1_IN6Xapian8Internal8MSetItemEdEEESt24__default_alloc_templateILb1ELi0EEE8allocateEj"                  ; magicseg='TEXT32' len=137  weak
  "__ZNSt14__simple_allocISt13_Rb_tree_nodeISt4pairIKSsSsEESt24__default_alloc_templateILb1ELi0EEE10deallocateEPS4_j"     ; magicseg='TEXT32' len=113  weak
  "__ZNSt14__simple_allocISt13_Rb_tree_nodeISt4pairIKSsSsEESt24__default_alloc_templateILb1ELi0EEE8allocateEj"            ; magicseg='TEXT32' len=106  weak
  "__ZNSt14__simple_allocISt13_Rb_tree_nodeISt4pairIKSsSt3mapIjS1_IcjESt4lessIjESaIS1_IKjS4_EEEEESt24__default_alloc_templateILb1ELi0EEE10deallocateEPSC_j"    ; magicseg='TEXT32' len=151  weak
  "__ZNSt14__simple_allocISt13_Rb_tree_nodeISt4pairIKSsSt3mapIjS1_IcjESt4lessIjESaIS1_IKjS4_EEEEESt24__default_alloc_templateILb1ELi0EEE8allocateEj"           ; magicseg='TEXT32' len=144  weak
  "__ZNSt14__simple_allocISt3mapIjSsSt4lessIjESaISt4pairIKjSsEEESt24__default_alloc_templateILb1ELi0EEE10deallocateEPS7_j"                                     ; magicseg='TEXT32' len=118  weak
  "__ZNSt14__simple_allocISt3mapIjSsSt4lessIjESaISt4pairIKjSsEEESt24__default_alloc_templateILb1ELi0EEE8allocateEj"       ; magicseg='TEXT32' len=111  weak
  "__ZNSt14__simple_allocISt4pairISsjESt24__default_alloc_templateILb1ELi0EEE10deallocateEPS1_j"                          ; magicseg='TEXT32' len=92  weak
  "__ZNSt14__simple_allocISt4pairISsjESt24__default_alloc_templateILb1ELi0EEE8allocateEj"                                 ; magicseg='TEXT32' len=85  weak
  "__ZNSt14_Bit_referenceaSEb"                                          ; magicseg='TEXT32' len=26  weak
  "__ZNSt14_Bit_referenceaSERKS_"                                       ; magicseg='TEXT32' len=29  weak
  "__ZNSt14_Bit_referenceC1EPmm"                                        ; magicseg='TEXT32' len=28  weak
  "__ZNSt14_List_iteratorIN6Xapian5QueryERKS1_PS2_EC1EPSt10_List_nodeIS1_E"                 ; magicseg='TEXT32' len=71  weak
  "__ZNSt14_List_iteratorIN6Xapian5QueryERKS1_PS2_EppEv"                ; magicseg='TEXT32' len=52  weak
  "__ZNSt14_List_iteratorIN6Xapian5QueryERS1_PS1_EC1EPSt10_List_nodeIS1_E"                  ; magicseg='TEXT32' len=70  weak
  "__ZNSt14_List_iteratorIP4TermRKS1_PS2_EC1EPSt10_List_nodeIS1_E"      ; magicseg='TEXT32' len=62  weak
  "__ZNSt14_List_iteratorIP4TermRKS1_PS2_EC1ERKS_IS1_RS1_PS1_E"         ; magicseg='TEXT32' len=59  weak
  "__ZNSt14_List_iteratorIP4TermRKS1_PS2_EC1Ev"                         ; magicseg='TEXT32' len=43  weak
  "__ZNSt14_List_iteratorIP4TermRKS1_PS2_EmmEv"                         ; magicseg='TEXT32' len=43  weak
  "__ZNSt14_List_iteratorIP4TermRKS1_PS2_EppEv"                         ; magicseg='TEXT32' len=43  weak
  "__ZNSt14_List_iteratorIP4TermRS1_PS1_EC1EPSt10_List_nodeIS1_E"       ; magicseg='TEXT32' len=61  weak
  "__ZNSt14_List_iteratorIPN6Xapian19ValueRangeProcessorERKS2_PS3_EC1ERKS_IS2_RS2_PS2_E"    ; magicseg='TEXT32' len=84  weak
  "__ZNSt14_List_iteratorIPN6Xapian19ValueRangeProcessorERKS2_PS3_EC1Ev"                    ; magicseg='TEXT32' len=68  weak
  "__ZNSt14_List_iteratorIPN6Xapian19ValueRangeProcessorERKS2_PS3_EppEv"                    ; magicseg='TEXT32' len=68  weak
  "__ZNSt14_List_iteratorIPN6Xapian19ValueRangeProcessorERS2_PS2_EC1EPSt10_List_nodeIS2_E"                                ; magicseg='TEXT32' len=86  weak
  "__ZNSt14_List_iteratorISsRKSsPS0_EC1EPSt10_List_nodeISsE"            ; magicseg='TEXT32' len=56  weak
  "__ZNSt14_List_iteratorISsRKSsPS0_EC1ERKS_ISsRSsPSsE"                 ; magicseg='TEXT32' len=51  weak
  "__ZNSt14_List_iteratorISsRKSsPS0_EppEv"                              ; magicseg='TEXT32' len=38  weak
  "__ZNSt14_List_iteratorISsRSsPSsEC1EPSt10_List_nodeISsE"              ; magicseg='TEXT32' len=54  weak
  "__ZNSt14_List_iteratorISsRSsPSsEC1ERKS2_"                            ; magicseg='TEXT32' len=40  weak
  "__ZNSt14_List_iteratorISsRSsPSsEmmEv"                                ; magicseg='TEXT32' len=36  weak
  "__ZNSt14_List_iteratorISt4pairISsjERKS1_PS2_EC1ERKS_IS1_RS1_PS1_E"                       ; magicseg='TEXT32' len=65  weak
  "__ZNSt14_List_iteratorISt4pairISsjERKS1_PS2_EC1Ev"                   ; magicseg='TEXT32' len=49  weak
  "__ZNSt14_List_iteratorISt4pairISsjERKS1_PS2_EppEv"                   ; magicseg='TEXT32' len=49  weak
  "__ZNSt14_List_iteratorISt4pairISsjERS1_PS1_EC1EPSt10_List_nodeIS1_E"                     ; magicseg='TEXT32' len=67  weak
  "__ZNSt14priority_queueIPN6Xapian12TermIterator8InternalESt6vectorIS3_SaIS3_EE25TermListGreaterApproxSizeE3popEv"       ; magicseg='TEXT32' len=111  weak
  "__ZNSt14priority_queueIPN6Xapian12TermIterator8InternalESt6vectorIS3_SaIS3_EE25TermListGreaterApproxSizeE4pushERKS3_"                                       ; magicseg='TEXT32' len=116  weak
  "__ZNSt14priority_queueIPN6Xapian12TermIterator8InternalESt6vectorIS3_SaIS3_EE25TermListGreaterApproxSizeEC1ERKS7_RKS6_"                                     ; magicseg='TEXT32' len=118  weak
  "__ZNSt14priority_queueIPN6Xapian12TermIterator8InternalESt6vectorIS3_SaIS3_EE25TermListGreaterApproxSizeED1Ev"         ; magicseg='TEXT32' len=109  weak
  "__ZNSt14priority_queueIPN6Xapian12TermIterator8InternalESt6vectorIS3_SaIS3_EE8TLPCmpGtE3popEv"                         ; magicseg='TEXT32' len=93  weak
  "__ZNSt14priority_queueIPN6Xapian12TermIterator8InternalESt6vectorIS3_SaIS3_EE8TLPCmpGtE4pushERKS3_"                    ; magicseg='TEXT32' len=98  weak
  "__ZNSt14priority_queueIPN6Xapian12TermIterator8InternalESt6vectorIS3_SaIS3_EE8TLPCmpGtEC1ERKS7_RKS6_"                  ; magicseg='TEXT32' len=100  weak
  "__ZNSt14priority_queueIPN6Xapian12TermIterator8InternalESt6vectorIS3_SaIS3_EE8TLPCmpGtED1Ev"                           ; magicseg='TEXT32' len=91  weak
  "__ZNSt14priority_queueIPN6Xapian15PostingIterator8InternalESt6vectorIS3_SaIS3_EE8PLPCmpGtE3popEv"                      ; magicseg='TEXT32' len=96  weak
  "__ZNSt14priority_queueIPN6Xapian15PostingIterator8InternalESt6vectorIS3_SaIS3_EE8PLPCmpGtE4pushERKS3_"                 ; magicseg='TEXT32' len=101  weak
  "__ZNSt14priority_queueIPN6Xapian15PostingIterator8InternalESt6vectorIS3_SaIS3_EE8PLPCmpGtEC1ERKS7_RKS6_"               ; magicseg='TEXT32' len=103  weak
  "__ZNSt14priority_queueIPN6Xapian15PostingIterator8InternalESt6vectorIS3_SaIS3_EE8PLPCmpGtED1Ev"                        ; magicseg='TEXT32' len=94  weak
  "__ZNSt15basic_streambufIcSt11char_traitsIcEE13_S_pback_sizeE"        ; magicseg='TEXT32' len=60  weak
  "__ZNSt16_List_alloc_baseIN6Xapian5QueryESaIS1_ELb1EE11_M_get_nodeEv"                     ; magicseg='TEXT32' len=67  weak
  "__ZNSt16_List_alloc_baseIN6Xapian5QueryESaIS1_ELb1EE11_M_put_nodeEPSt10_List_nodeIS1_E"                                ; magicseg='TEXT32' len=86  weak
  "__ZNSt16_List_alloc_baseIN6Xapian5QueryESaIS1_ELb1EEC2ERKS2_"        ; magicseg='TEXT32' len=60  weak
  "__ZNSt16_List_alloc_baseIP4TermSaIS1_ELb1EE11_M_get_nodeEv"          ; magicseg='TEXT32' len=58  weak
  "__ZNSt16_List_alloc_baseIP4TermSaIS1_ELb1EE11_M_put_nodeEPSt10_List_nodeIS1_E"           ; magicseg='TEXT32' len=77  weak
  "__ZNSt16_List_alloc_baseIP4TermSaIS1_ELb1EEC2ERKS2_"                 ; magicseg='TEXT32' len=51  weak
  "__ZNSt16_List_alloc_baseIPN6Xapian19ValueRangeProcessorESaIS2_ELb1EE11_M_get_nodeEv"     ; magicseg='TEXT32' len=83  weak
  "__ZNSt16_List_alloc_baseIPN6Xapian19ValueRangeProcessorESaIS2_ELb1EE11_M_put_nodeEPSt10_List_nodeIS2_E"                ; magicseg='TEXT32' len=102  weak
  "__ZNSt16_List_alloc_baseIPN6Xapian19ValueRangeProcessorESaIS2_ELb1EEC2ERKS3_"            ; magicseg='TEXT32' len=76  weak
  "__ZNSt16_List_alloc_baseISsSaISsELb1EE11_M_get_nodeEv"               ; magicseg='TEXT32' len=53  weak
  "__ZNSt16_List_alloc_baseISsSaISsELb1EE11_M_put_nodeEPSt10_List_nodeISsE"                 ; magicseg='TEXT32' len=71  weak
  "__ZNSt16_List_alloc_baseISsSaISsELb1EEC2ERKS0_"                      ; magicseg='TEXT32' len=46  weak
  "__ZNSt16_List_alloc_baseISt4pairISsjESaIS1_ELb1EE11_M_get_nodeEv"    ; magicseg='TEXT32' len=64  weak
  "__ZNSt16_List_alloc_baseISt4pairISsjESaIS1_ELb1EE11_M_put_nodeEPSt10_List_nodeIS1_E"     ; magicseg='TEXT32' len=83  weak
  "__ZNSt16_List_alloc_baseISt4pairISsjESaIS1_ELb1EEC2ERKS2_"           ; magicseg='TEXT32' len=57  weak
  "__ZNSt17_Rb_tree_iteratorIjRjPjEC1EPSt13_Rb_tree_nodeIjE"            ; magicseg='TEXT32' len=56  weak
  "__ZNSt17_Rb_tree_iteratorIjRjPjEC1ERKS2_"                            ; magicseg='TEXT32' len=40  weak
  "__ZNSt17_Rb_tree_iteratorIjRjPjEmmEv"                                ; magicseg='TEXT32' len=36  weak
  "__ZNSt17_Rb_tree_iteratorIjRKjPS0_EC1EPSt13_Rb_tree_nodeIjE"         ; magicseg='TEXT32' len=59  weak
  "__ZNSt17_Rb_tree_iteratorIjRKjPS0_EC1ERKS_IjRjPjE"                   ; magicseg='TEXT32' len=49  weak
  "__ZNSt17_Rb_tree_iteratorIjRKjPS0_EC1Ev"                             ; magicseg='TEXT32' len=39  weak
  "__ZNSt17_Rb_tree_iteratorIjRKjPS0_EppEi"                             ; magicseg='TEXT32' len=39  weak
  "__ZNSt17_Rb_tree_iteratorIjRKjPS0_EppEv"                             ; magicseg='TEXT32' len=39  weak
  "__ZNSt17_Rb_tree_iteratorIPN6Xapian5Query8InternalERKS3_PS4_EC1EPSt13_Rb_tree_nodeIS3_E"                               ; magicseg='TEXT32' len=87  weak
  "__ZNSt17_Rb_tree_iteratorIPN6Xapian5Query8InternalERKS3_PS4_EC1ERKS_IS3_RS3_PS3_E"       ; magicseg='TEXT32' len=81  weak
  "__ZNSt17_Rb_tree_iteratorIPN6Xapian5Query8InternalERS3_PS3_EC1EPSt13_Rb_tree_nodeIS3_E"                                ; magicseg='TEXT32' len=86  weak
  "__ZNSt17_Rb_tree_iteratorIPN6Xapian5Query8InternalERS3_PS3_EC1ERKS6_"                    ; magicseg='TEXT32' len=68  weak
  "__ZNSt17_Rb_tree_iteratorIPN6Xapian5Query8InternalERS3_PS3_EmmEv"    ; magicseg='TEXT32' len=64  weak
  "__ZNSt17_Rb_tree_iteratorIPN6Xapian6Weight8InternalERKS3_PS4_EC1EPSt13_Rb_tree_nodeIS3_E"                              ; magicseg='TEXT32' len=88  weak
  "__ZNSt17_Rb_tree_iteratorIPN6Xapian6Weight8InternalERKS3_PS4_EC1ERKS_IS3_RS3_PS3_E"      ; magicseg='TEXT32' len=82  weak
  "__ZNSt17_Rb_tree_iteratorIPN6Xapian6Weight8InternalERKS3_PS4_EppEv"                      ; magicseg='TEXT32' len=66  weak
  "__ZNSt17_Rb_tree_iteratorIPN6Xapian6Weight8InternalERS3_PS3_EC1EPSt13_Rb_tree_nodeIS3_E"                               ; magicseg='TEXT32' len=87  weak
  "__ZNSt17_Rb_tree_iteratorIPN6Xapian6Weight8InternalERS3_PS3_EC1ERKS6_"                   ; magicseg='TEXT32' len=69  weak
  "__ZNSt17_Rb_tree_iteratorIPN6Xapian6Weight8InternalERS3_PS3_EmmEv"                       ; magicseg='TEXT32' len=65  weak
  "__ZNSt17_Rb_tree_iteratorIPN6Xapian6Weight8InternalERS3_PS3_EppEi"                       ; magicseg='TEXT32' len=65  weak
  "__ZNSt17_Rb_tree_iteratorIPN6Xapian6Weight8InternalERS3_PS3_EppEv"                       ; magicseg='TEXT32' len=65  weak
  "__ZNSt17_Rb_tree_iteratorISsRKSsPS0_EC1EPSt13_Rb_tree_nodeISsE"      ; magicseg='TEXT32' len=62  weak
  "__ZNSt17_Rb_tree_iteratorISsRKSsPS0_EC1ERKS_ISsRSsPSsE"              ; magicseg='TEXT32' len=54  weak
  "__ZNSt17_Rb_tree_iteratorISsRKSsPS0_EC1Ev"                           ; magicseg='TEXT32' len=41  weak
  "__ZNSt17_Rb_tree_iteratorISsRKSsPS0_EppEi"                           ; magicseg='TEXT32' len=41  weak
  "__ZNSt17_Rb_tree_iteratorISsRKSsPS0_EppEv"                           ; magicseg='TEXT32' len=41  weak
  "__ZNSt17_Rb_tree_iteratorISsRSsPSsEC1EPSt13_Rb_tree_nodeISsE"        ; magicseg='TEXT32' len=60  weak
  "__ZNSt17_Rb_tree_iteratorISsRSsPSsEC1ERKS2_"                         ; magicseg='TEXT32' len=43  weak
  "__ZNSt17_Rb_tree_iteratorISsRSsPSsEmmEv"                             ; magicseg='TEXT32' len=39  weak
  "__ZNSt17_Rb_tree_iteratorISsRSsPSsEppEi"                             ; magicseg='TEXT32' len=39  weak
  "__ZNSt17_Rb_tree_iteratorISsRSsPSsEppEv"                             ; magicseg='TEXT32' len=39  weak
  "__ZNSt17_Rb_tree_iteratorISt4pairIK15filter_group_idN6Xapian5QueryEERKS5_PS6_EC1EPSt13_Rb_tree_nodeIS5_E"              ; magicseg='TEXT32' len=104  weak
  "__ZNSt17_Rb_tree_iteratorISt4pairIK15filter_group_idN6Xapian5QueryEERKS5_PS6_EppEv"      ; magicseg='TEXT32' len=82  weak
  "__ZNSt17_Rb_tree_iteratorISt4pairIK15filter_group_idN6Xapian5QueryEERS5_PS5_EC1EPSt13_Rb_tree_nodeIS5_E"               ; magicseg='TEXT32' len=103  weak
  "__ZNSt17_Rb_tree_iteratorISt4pairIK15filter_group_idN6Xapian5QueryEERS5_PS5_EC1ERKS8_"                                 ; magicseg='TEXT32' len=85  weak
  "__ZNSt17_Rb_tree_iteratorISt4pairIK15filter_group_idN6Xapian5QueryEERS5_PS5_EmmEv"       ; magicseg='TEXT32' len=81  weak
  "__ZNSt17_Rb_tree_iteratorISt4pairIK8fragmentSt3setISsSt4lessISsESaISsEEERKS8_PS9_EC1ERKS_IS8_RS8_PS8_E"                ; magicseg='TEXT32' len=102  weak
  "__ZNSt17_Rb_tree_iteratorISt4pairIK8fragmentSt3setISsSt4lessISsESaISsEEERKS8_PS9_EC1Ev"                                ; magicseg='TEXT32' len=86  weak
  "__ZNSt17_Rb_tree_iteratorISt4pairIK8fragmentSt3setISsSt4lessISsESaISsEEERKS8_PS9_EppEv"                                ; magicseg='TEXT32' len=86  weak
  "__ZNSt17_Rb_tree_iteratorISt4pairIK8fragmentSt3setISsSt4lessISsESaISsEEERS8_PS8_EC1EPSt13_Rb_tree_nodeIS8_E"           ; magicseg='TEXT32' len=107  weak
  "__ZNSt17_Rb_tree_iteratorISt4pairIK8fragmentSt3setISsSt4lessISsESaISsEEERS8_PS8_EC1ERKSB_"                             ; magicseg='TEXT32' len=89  weak
  "__ZNSt17_Rb_tree_iteratorISt4pairIK8fragmentSt3setISsSt4lessISsESaISsEEERS8_PS8_EmmEv"                                 ; magicseg='TEXT32' len=85  weak
  "__ZNSt17_Rb_tree_iteratorISt4pairIKdjERKS2_PS3_EC1ERKS_IS2_RS2_PS2_E"                    ; magicseg='TEXT32' len=68  weak
  "__ZNSt17_Rb_tree_iteratorISt4pairIKdjERKS2_PS3_EC1Ev"                ; magicseg='TEXT32' len=52  weak
  "__ZNSt17_Rb_tree_iteratorISt4pairIKdjERKS2_PS3_EppEv"                ; magicseg='TEXT32' len=52  weak
  "__ZNSt17_Rb_tree_iteratorISt4pairIKdjERS2_PS2_EC1EPSt13_Rb_tree_nodeIS2_E"               ; magicseg='TEXT32' len=73  weak
  "__ZNSt17_Rb_tree_iteratorISt4pairIKdjERS2_PS2_EC1ERKS5_"             ; magicseg='TEXT32' len=55  weak
  "__ZNSt17_Rb_tree_iteratorISt4pairIKdjERS2_PS2_EmmEv"                 ; magicseg='TEXT32' len=51  weak
  "__ZNSt17_Rb_tree_iteratorISt4pairIKjjERKS2_PS3_EC1EPSt13_Rb_tree_nodeIS2_E"              ; magicseg='TEXT32' len=74  weak
  "__ZNSt17_Rb_tree_iteratorISt4pairIKjjERKS2_PS3_EC1ERKS_IS2_RS2_PS2_E"                    ; magicseg='TEXT32' len=68  weak
  "__ZNSt17_Rb_tree_iteratorISt4pairIKjjERS2_PS2_EC1EPSt13_Rb_tree_nodeIS2_E"               ; magicseg='TEXT32' len=73  weak
  "__ZNSt17_Rb_tree_iteratorISt4pairIKjjERS2_PS2_EC1ERKS5_"             ; magicseg='TEXT32' len=55  weak
  "__ZNSt17_Rb_tree_iteratorISt4pairIKjjERS2_PS2_EmmEv"                 ; magicseg='TEXT32' len=51  weak
  "__ZNSt17_Rb_tree_iteratorISt4pairIKjjERS2_PS2_EppEi"                 ; magicseg='TEXT32' len=51  weak
  "__ZNSt17_Rb_tree_iteratorISt4pairIKjjERS2_PS2_EppEv"                 ; magicseg='TEXT32' len=51  weak
  "__ZNSt17_Rb_tree_iteratorISt4pairIKjN6Xapian8DocumentEERKS4_PS5_EC1ERKS_IS4_RS4_PS4_E"                                 ; magicseg='TEXT32' len=85  weak
  "__ZNSt17_Rb_tree_iteratorISt4pairIKjN6Xapian8DocumentEERKS4_PS5_EC1Ev"                   ; magicseg='TEXT32' len=69  weak
  "__ZNSt17_Rb_tree_iteratorISt4pairIKjN6Xapian8DocumentEERS4_PS4_EC1EPSt13_Rb_tree_nodeIS4_E"                            ; magicseg='TEXT32' len=90  weak
  "__ZNSt17_Rb_tree_iteratorISt4pairIKjN6Xapian8DocumentEERS4_PS4_EC1ERKS7_"                ; magicseg='TEXT32' len=72  weak
  "__ZNSt17_Rb_tree_iteratorISt4pairIKjN6Xapian8DocumentEERS4_PS4_EmmEv"                    ; magicseg='TEXT32' len=68  weak
  "__ZNSt17_Rb_tree_iteratorISt4pairIKjS0_IcjEERKS3_PS4_EC1EPSt13_Rb_tree_nodeIS3_E"        ; magicseg='TEXT32' len=80  weak
  "__ZNSt17_Rb_tree_iteratorISt4pairIKjS0_IcjEERKS3_PS4_EC1ERKS_IS3_RS3_PS3_E"              ; magicseg='TEXT32' len=74  weak
  "__ZNSt17_Rb_tree_iteratorISt4pairIKjS0_IcjEERKS3_PS4_EC1Ev"          ; magicseg='TEXT32' len=58  weak
  "__ZNSt17_Rb_tree_iteratorISt4pairIKjS0_IcjEERKS3_PS4_EppEv"          ; magicseg='TEXT32' len=58  weak
  "__ZNSt17_Rb_tree_iteratorISt4pairIKjS0_IcjEERS3_PS3_EC1EPSt13_Rb_tree_nodeIS3_E"         ; magicseg='TEXT32' len=79  weak
  "__ZNSt17_Rb_tree_iteratorISt4pairIKjS0_IcjEERS3_PS3_EC1ERKS6_"       ; magicseg='TEXT32' len=61  weak
  "__ZNSt17_Rb_tree_iteratorISt4pairIKjS0_IcjEERS3_PS3_EC1Ev"           ; magicseg='TEXT32' len=57  weak
  "__ZNSt17_Rb_tree_iteratorISt4pairIKjS0_IcjEERS3_PS3_EmmEv"           ; magicseg='TEXT32' len=57  weak
  "__ZNSt17_Rb_tree_iteratorISt4pairIKjSsERKS2_PS3_EC1EPSt13_Rb_tree_nodeIS2_E"             ; magicseg='TEXT32' len=75  weak
  "__ZNSt17_Rb_tree_iteratorISt4pairIKjSsERKS2_PS3_EC1ERKS_IS2_RS2_PS2_E"                   ; magicseg='TEXT32' len=69  weak
  "__ZNSt17_Rb_tree_iteratorISt4pairIKjSsERKS2_PS3_EC1Ev"               ; magicseg='TEXT32' len=53  weak
  "__ZNSt17_Rb_tree_iteratorISt4pairIKjSsERKS2_PS3_EppEv"               ; magicseg='TEXT32' len=53  weak
  "__ZNSt17_Rb_tree_iteratorISt4pairIKjSsERS2_PS2_EC1EPSt13_Rb_tree_nodeIS2_E"              ; magicseg='TEXT32' len=74  weak
  "__ZNSt17_Rb_tree_iteratorISt4pairIKjSsERS2_PS2_EC1ERKS5_"            ; magicseg='TEXT32' len=56  weak
  "__ZNSt17_Rb_tree_iteratorISt4pairIKjSsERS2_PS2_EmmEv"                ; magicseg='TEXT32' len=52  weak
  "__ZNSt17_Rb_tree_iteratorISt4pairIKjSt3mapISsjSt4lessISsESaIS0_IKSsjEEEERS9_PS9_EC1EPSt13_Rb_tree_nodeIS9_E"           ; magicseg='TEXT32' len=107  weak
  "__ZNSt17_Rb_tree_iteratorISt4pairIKjSt3mapISsjSt4lessISsESaIS0_IKSsjEEEERS9_PS9_EC1ERKSC_"                             ; magicseg='TEXT32' len=89  weak
  "__ZNSt17_Rb_tree_iteratorISt4pairIKjSt3mapISsjSt4lessISsESaIS0_IKSsjEEEERS9_PS9_EC1Ev"                                 ; magicseg='TEXT32' len=85  weak
  "__ZNSt17_Rb_tree_iteratorISt4pairIKjSt3mapISsjSt4lessISsESaIS0_IKSsjEEEERS9_PS9_EmmEv"                                 ; magicseg='TEXT32' len=85  weak
  "__ZNSt17_Rb_tree_iteratorISt4pairIKjSt3mapISsjSt4lessISsESaIS0_IKSsjEEEERS9_PS9_EppEv"                                 ; magicseg='TEXT32' len=85  weak
  "__ZNSt17_Rb_tree_iteratorISt4pairIKSs10PrefixInfoERKS3_PS4_EC1ERKS_IS3_RS3_PS3_E"        ; magicseg='TEXT32' len=80  weak
  "__ZNSt17_Rb_tree_iteratorISt4pairIKSs10PrefixInfoERKS3_PS4_EC1Ev"    ; magicseg='TEXT32' len=64  weak
  "__ZNSt17_Rb_tree_iteratorISt4pairIKSs10PrefixInfoERS3_PS3_EC1EPSt13_Rb_tree_nodeIS3_E"                                 ; magicseg='TEXT32' len=85  weak
  "__ZNSt17_Rb_tree_iteratorISt4pairIKSs10PrefixInfoERS3_PS3_EC1ERKS6_"                     ; magicseg='TEXT32' len=67  weak
  "__ZNSt17_Rb_tree_iteratorISt4pairIKSs10PrefixInfoERS3_PS3_EmmEv"     ; magicseg='TEXT32' len=63  weak
  "__ZNSt17_Rb_tree_iteratorISt4pairIKSs12InMemoryTermERKS3_PS4_EC1EPSt13_Rb_tree_nodeIS3_E"                              ; magicseg='TEXT32' len=88  weak
  "__ZNSt17_Rb_tree_iteratorISt4pairIKSs12InMemoryTermERKS3_PS4_EC1Ev"                      ; magicseg='TEXT32' len=66  weak
  "__ZNSt17_Rb_tree_iteratorISt4pairIKSs12InMemoryTermERKS3_PS4_EppEv"                      ; magicseg='TEXT32' len=66  weak
  "__ZNSt17_Rb_tree_iteratorISt4pairIKSs12InMemoryTermERS3_PS3_EC1EPSt13_Rb_tree_nodeIS3_E"                               ; magicseg='TEXT32' len=87  weak
  "__ZNSt17_Rb_tree_iteratorISt4pairIKSs12InMemoryTermERS3_PS3_EC1ERKS6_"                   ; magicseg='TEXT32' len=69  weak
  "__ZNSt17_Rb_tree_iteratorISt4pairIKSs12InMemoryTermERS3_PS3_EmmEv"                       ; magicseg='TEXT32' len=65  weak
  "__ZNSt17_Rb_tree_iteratorISt4pairIKSs14OmDocumentTermERKS3_PS4_EC1ERKS_IS3_RS3_PS3_E"    ; magicseg='TEXT32' len=84  weak
  "__ZNSt17_Rb_tree_iteratorISt4pairIKSs14OmDocumentTermERKS3_PS4_EppEi"                    ; magicseg='TEXT32' len=68  weak
  "__ZNSt17_Rb_tree_iteratorISt4pairIKSs14OmDocumentTermERS3_PS3_EC1EPSt13_Rb_tree_nodeIS3_E"                             ; magicseg='TEXT32' len=89  weak
  "__ZNSt17_Rb_tree_iteratorISt4pairIKSs14OmDocumentTermERS3_PS3_EC1ERKS6_"                 ; magicseg='TEXT32' len=71  weak
  "__ZNSt17_Rb_tree_iteratorISt4pairIKSs14OmDocumentTermERS3_PS3_EC1Ev"                     ; magicseg='TEXT32' len=67  weak
  "__ZNSt17_Rb_tree_iteratorISt4pairIKSs14OmDocumentTermERS3_PS3_EmmEv"                     ; magicseg='TEXT32' len=67  weak
  "__ZNSt17_Rb_tree_iteratorISt4pairIKSsjERKS2_PS3_EC1EPSt13_Rb_tree_nodeIS2_E"             ; magicseg='TEXT32' len=75  weak
  "__ZNSt17_Rb_tree_iteratorISt4pairIKSsjERKS2_PS3_EC1ERKS_IS2_RS2_PS2_E"                   ; magicseg='TEXT32' len=69  weak
  "__ZNSt17_Rb_tree_iteratorISt4pairIKSsjERKS2_PS3_EC1Ev"               ; magicseg='TEXT32' len=53  weak
  "__ZNSt17_Rb_tree_iteratorISt4pairIKSsjERKS2_PS3_EppEi"               ; magicseg='TEXT32' len=53  weak
  "__ZNSt17_Rb_tree_iteratorISt4pairIKSsjERKS2_PS3_EppEv"               ; magicseg='TEXT32' len=53  weak
  "__ZNSt17_Rb_tree_iteratorISt4pairIKSsjERS2_PS2_EC1EPSt13_Rb_tree_nodeIS2_E"              ; magicseg='TEXT32' len=74  weak
  "__ZNSt17_Rb_tree_iteratorISt4pairIKSsjERS2_PS2_EC1ERKS5_"            ; magicseg='TEXT32' len=56  weak
  "__ZNSt17_Rb_tree_iteratorISt4pairIKSsjERS2_PS2_EmmEv"                ; magicseg='TEXT32' len=52  weak
  "__ZNSt17_Rb_tree_iteratorISt4pairIKSsN6Xapian4MSet8Internal17TermFreqAndWeightEERKS6_PS7_EC1ERKS_IS6_RS6_PS6_E"        ; magicseg='TEXT32' len=110  weak
  "__ZNSt17_Rb_tree_iteratorISt4pairIKSsN6Xapian4MSet8Internal17TermFreqAndWeightEERKS6_PS7_EC1Ev"                        ; magicseg='TEXT32' len=94  weak
  "__ZNSt17_Rb_tree_iteratorISt4pairIKSsN6Xapian4MSet8Internal17TermFreqAndWeightEERKS6_PS7_EppEv"                        ; magicseg='TEXT32' len=94  weak
  "__ZNSt17_Rb_tree_iteratorISt4pairIKSsN6Xapian4MSet8Internal17TermFreqAndWeightEERS6_PS6_EC1EPSt13_Rb_tree_nodeIS6_E"                                        ; magicseg='TEXT32' len=115  weak
  "__ZNSt17_Rb_tree_iteratorISt4pairIKSsN6Xapian4MSet8Internal17TermFreqAndWeightEERS6_PS6_EC1ERKS9_"                     ; magicseg='TEXT32' len=97  weak
  "__ZNSt17_Rb_tree_iteratorISt4pairIKSsN6Xapian4MSet8Internal17TermFreqAndWeightEERS6_PS6_EC1Ev"                         ; magicseg='TEXT32' len=93  weak
  "__ZNSt17_Rb_tree_iteratorISt4pairIKSsN6Xapian4MSet8Internal17TermFreqAndWeightEERS6_PS6_EmmEv"                         ; magicseg='TEXT32' len=93  weak
  "__ZNSt17_Rb_tree_iteratorISt4pairIKSsPKN6Xapian12MatchDeciderEERS6_PS6_EC1EPSt13_Rb_tree_nodeIS6_E"                    ; magicseg='TEXT32' len=98  weak
  "__ZNSt17_Rb_tree_iteratorISt4pairIKSsPKN6Xapian12MatchDeciderEERS6_PS6_EC1ERKS9_"        ; magicseg='TEXT32' len=80  weak
  "__ZNSt17_Rb_tree_iteratorISt4pairIKSsPKN6Xapian12MatchDeciderEERS6_PS6_EmmEv"            ; magicseg='TEXT32' len=76  weak
  "__ZNSt17_Rb_tree_iteratorISt4pairIKSsPKN6Xapian12MatchDeciderEERS6_PS6_EppEi"            ; magicseg='TEXT32' len=76  weak
  "__ZNSt17_Rb_tree_iteratorISt4pairIKSsPKN6Xapian12MatchDeciderEERS6_PS6_EppEv"            ; magicseg='TEXT32' len=76  weak
  "__ZNSt17_Rb_tree_iteratorISt4pairIKSsS0_IiiEERKS3_PS4_EC1EPSt13_Rb_tree_nodeIS3_E"       ; magicseg='TEXT32' len=81  weak
  "__ZNSt17_Rb_tree_iteratorISt4pairIKSsS0_IiiEERKS3_PS4_EC1ERKS_IS3_RS3_PS3_E"             ; magicseg='TEXT32' len=75  weak
  "__ZNSt17_Rb_tree_iteratorISt4pairIKSsS0_IiiEERKS3_PS4_EC1Ev"         ; magicseg='TEXT32' len=59  weak
  "__ZNSt17_Rb_tree_iteratorISt4pairIKSsS0_IiiEERS3_PS3_EC1EPSt13_Rb_tree_nodeIS3_E"        ; magicseg='TEXT32' len=80  weak
  "__ZNSt17_Rb_tree_iteratorISt4pairIKSsS0_IiiEERS3_PS3_EC1ERKS6_"      ; magicseg='TEXT32' len=62  weak
  "__ZNSt17_Rb_tree_iteratorISt4pairIKSsS0_IiiEERS3_PS3_EC1Ev"          ; magicseg='TEXT32' len=58  weak
  "__ZNSt17_Rb_tree_iteratorISt4pairIKSsS0_IiiEERS3_PS3_EmmEv"          ; magicseg='TEXT32' len=58  weak
  "__ZNSt17_Rb_tree_iteratorISt4pairIKSsS0_IN6Xapian8Internal8MSetItemEdEERS6_PS6_EC1EPSt13_Rb_tree_nodeIS6_E"            ; magicseg='TEXT32' len=106  weak
  "__ZNSt17_Rb_tree_iteratorISt4pairIKSsS0_IN6Xapian8Internal8MSetItemEdEERS6_PS6_EC1ERKS9_"                              ; magicseg='TEXT32' len=88  weak
  "__ZNSt17_Rb_tree_iteratorISt4pairIKSsS0_IN6Xapian8Internal8MSetItemEdEERS6_PS6_EC1Ev"    ; magicseg='TEXT32' len=84  weak
  "__ZNSt17_Rb_tree_iteratorISt4pairIKSsS0_IN6Xapian8Internal8MSetItemEdEERS6_PS6_EmmEv"    ; magicseg='TEXT32' len=84  weak
  "__ZNSt17_Rb_tree_iteratorISt4pairIKSsSsERS2_PS2_EC1EPSt13_Rb_tree_nodeIS2_E"             ; magicseg='TEXT32' len=75  weak
  "__ZNSt17_Rb_tree_iteratorISt4pairIKSsSsERS2_PS2_EC1ERKS5_"           ; magicseg='TEXT32' len=57  weak
  "__ZNSt17_Rb_tree_iteratorISt4pairIKSsSsERS2_PS2_EC1Ev"               ; magicseg='TEXT32' len=53  weak
  "__ZNSt17_Rb_tree_iteratorISt4pairIKSsSsERS2_PS2_EppEv"               ; magicseg='TEXT32' len=53  weak
  "__ZNSt17_Rb_tree_iteratorISt4pairIKSsSt3mapIjS0_IcjESt4lessIjESaIS0_IKjS3_EEEERKSA_PSB_EC1EPSt13_Rb_tree_nodeISA_E"    ; magicseg='TEXT32' len=114  weak
  "__ZNSt17_Rb_tree_iteratorISt4pairIKSsSt3mapIjS0_IcjESt4lessIjESaIS0_IKjS3_EEEERKSA_PSB_EC1ERKS_ISA_RSA_PSA_E"          ; magicseg='TEXT32' len=108  weak
  "__ZNSt17_Rb_tree_iteratorISt4pairIKSsSt3mapIjS0_IcjESt4lessIjESaIS0_IKjS3_EEEERKSA_PSB_EC1Ev"                          ; magicseg='TEXT32' len=92  weak
  "__ZNSt17_Rb_tree_iteratorISt4pairIKSsSt3mapIjS0_IcjESt4lessIjESaIS0_IKjS3_EEEERKSA_PSB_EppEv"                          ; magicseg='TEXT32' len=92  weak
  "__ZNSt17_Rb_tree_iteratorISt4pairIKSsSt3mapIjS0_IcjESt4lessIjESaIS0_IKjS3_EEEERSA_PSA_EC1EPSt13_Rb_tree_nodeISA_E"     ; magicseg='TEXT32' len=113  weak
  "__ZNSt17_Rb_tree_iteratorISt4pairIKSsSt3mapIjS0_IcjESt4lessIjESaIS0_IKjS3_EEEERSA_PSA_EC1ERKSD_"                       ; magicseg='TEXT32' len=95  weak
  "__ZNSt17_Rb_tree_iteratorISt4pairIKSsSt3mapIjS0_IcjESt4lessIjESaIS0_IKjS3_EEEERSA_PSA_EC1Ev"                           ; magicseg='TEXT32' len=91  weak
  "__ZNSt17_Rb_tree_iteratorISt4pairIKSsSt3mapIjS0_IcjESt4lessIjESaIS0_IKjS3_EEEERSA_PSA_EmmEv"                           ; magicseg='TEXT32' len=91  weak
  "__ZNSt17_Temporary_bufferIN9__gnu_cxx17__normal_iteratorIPPN6Xapian15PostingIterator8InternalESt6vectorIS5_SaIS5_EEEES5_E18_M_allocate_bufferEv"            ; magicseg='TEXT32' len=143  weak
  "__ZNSt17_Temporary_bufferIN9__gnu_cxx17__normal_iteratorIPPN6Xapian15PostingIterator8InternalESt6vectorIS5_SaIS5_EEEES5_E20_M_initialize_bufferERKS5_11__true_type"                                ; magicseg='TEXT32' len=162  weak
  "__ZNSt17_Temporary_bufferIN9__gnu_cxx17__normal_iteratorIPPN6Xapian15PostingIterator8InternalESt6vectorIS5_SaIS5_EEEES5_E5beginEv"                          ; magicseg='TEXT32' len=129  weak
  "__ZNSt17_Temporary_bufferIN9__gnu_cxx17__normal_iteratorIPPN6Xapian15PostingIterator8InternalESt6vectorIS5_SaIS5_EEEES5_EC1ESA_SA_"                         ; magicseg='TEXT32' len=130  weak
  "__ZNSt17_Temporary_bufferIN9__gnu_cxx17__normal_iteratorIPPN6Xapian15PostingIterator8InternalESt6vectorIS5_SaIS5_EEEES5_ED1Ev"                              ; magicseg='TEXT32' len=125  weak
  "__ZNSt18_Bit_iterator_base10_M_bump_upEv"                            ; magicseg='TEXT32' len=40  weak
  "__ZNSt18_Bit_iterator_base12_M_bump_downEv"                          ; magicseg='TEXT32' len=42  weak
  "__ZNSt18_Bit_iterator_base7_M_incrEi"                                ; magicseg='TEXT32' len=36  weak
  "__ZNSt18_Bit_iterator_baseC2EPmj"                                    ; magicseg='TEXT32' len=32  weak
  "__ZNSt18_Rb_tree_node_base10_S_maximumEPS_"                          ; magicseg='TEXT32' len=42  weak
  "__ZNSt18_Rb_tree_node_base10_S_minimumEPS_"                          ; magicseg='TEXT32' len=42  weak
  "__ZNSt18_Vector_alloc_baseI11InMemoryDocSaIS0_ELb1EE11_M_allocateEj"                     ; magicseg='TEXT32' len=67  weak
  "__ZNSt18_Vector_alloc_baseI11InMemoryDocSaIS0_ELb1EE13_M_deallocateEPS0_j"               ; magicseg='TEXT32' len=73  weak
  "__ZNSt18_Vector_alloc_baseI11InMemoryDocSaIS0_ELb1EEC2ERKS1_"        ; magicseg='TEXT32' len=60  weak
  "__ZNSt18_Vector_alloc_baseI15InMemoryPostingSaIS0_ELb1EE11_M_allocateEj"                 ; magicseg='TEXT32' len=71  weak
  "__ZNSt18_Vector_alloc_baseI15InMemoryPostingSaIS0_ELb1EE13_M_deallocateEPS0_j"           ; magicseg='TEXT32' len=77  weak
  "__ZNSt18_Vector_alloc_baseI15InMemoryPostingSaIS0_ELb1EEC2ERKS1_"    ; magicseg='TEXT32' len=64  weak
  "__ZNSt18_Vector_alloc_baseI17InMemoryTermEntrySaIS0_ELb1EE11_M_allocateEj"               ; magicseg='TEXT32' len=73  weak
  "__ZNSt18_Vector_alloc_baseI17InMemoryTermEntrySaIS0_ELb1EE13_M_deallocateEPS0_j"         ; magicseg='TEXT32' len=79  weak
  "__ZNSt18_Vector_alloc_baseI17InMemoryTermEntrySaIS0_ELb1EEC2ERKS1_"                      ; magicseg='TEXT32' len=66  weak
  "__ZNSt18_Vector_alloc_baseIdSaIdELb1EE11_M_allocateEj"               ; magicseg='TEXT32' len=53  weak
  "__ZNSt18_Vector_alloc_baseIdSaIdELb1EE13_M_deallocateEPdj"           ; magicseg='TEXT32' len=57  weak
  "__ZNSt18_Vector_alloc_baseIdSaIdELb1EEC2ERKS0_"                      ; magicseg='TEXT32' len=46  weak
  "__ZNSt18_Vector_alloc_baseIjSaIjELb1EE11_M_allocateEj"               ; magicseg='TEXT32' len=53  weak
  "__ZNSt18_Vector_alloc_baseIjSaIjELb1EE13_M_deallocateEPjj"           ; magicseg='TEXT32' len=57  weak
  "__ZNSt18_Vector_alloc_baseIjSaIjELb1EEC2ERKS0_"                      ; magicseg='TEXT32' len=46  weak
  "__ZNSt18_Vector_alloc_baseIN6Xapian4RSetESaIS1_ELb1EE11_M_allocateEj"                    ; magicseg='TEXT32' len=68  weak
  "__ZNSt18_Vector_alloc_baseIN6Xapian4RSetESaIS1_ELb1EE13_M_deallocateEPS1_j"              ; magicseg='TEXT32' len=74  weak
  "__ZNSt18_Vector_alloc_baseIN6Xapian4RSetESaIS1_ELb1EEC2ERKS2_"       ; magicseg='TEXT32' len=61  weak
  "__ZNSt18_Vector_alloc_baseIN6Xapian8Internal8ESetItemESaIS2_ELb1EE11_M_allocateEj"       ; magicseg='TEXT32' len=81  weak
  "__ZNSt18_Vector_alloc_baseIN6Xapian8Internal8ESetItemESaIS2_ELb1EE13_M_deallocateEPS2_j"                               ; magicseg='TEXT32' len=87  weak
  "__ZNSt18_Vector_alloc_baseIN6Xapian8Internal8ESetItemESaIS2_ELb1EEC2ERKS3_"              ; magicseg='TEXT32' len=74  weak
  "__ZNSt18_Vector_alloc_baseIN6Xapian8Internal8MSetItemESaIS2_ELb1EE11_M_allocateEj"       ; magicseg='TEXT32' len=81  weak
  "__ZNSt18_Vector_alloc_baseIN6Xapian8Internal8MSetItemESaIS2_ELb1EE13_M_deallocateEPS2_j"                               ; magicseg='TEXT32' len=87  weak
  "__ZNSt18_Vector_alloc_baseIN6Xapian8Internal8MSetItemESaIS2_ELb1EEC2ERKS3_"              ; magicseg='TEXT32' len=74  weak
  "__ZNSt18_Vector_alloc_baseIN6Xapian8Internal9RefCntPtrI8SubMatchEESaIS4_ELb1EE11_M_allocateEj"                         ; magicseg='TEXT32' len=93  weak
  "__ZNSt18_Vector_alloc_baseIN6Xapian8Internal9RefCntPtrI8SubMatchEESaIS4_ELb1EE13_M_deallocateEPS4_j"                   ; magicseg='TEXT32' len=99  weak
  "__ZNSt18_Vector_alloc_baseIN6Xapian8Internal9RefCntPtrI8SubMatchEESaIS4_ELb1EEC2ERKS5_"                                ; magicseg='TEXT32' len=86  weak
  "__ZNSt18_Vector_alloc_baseIN6Xapian8Internal9RefCntPtrINS0_8Database8InternalEEESaIS5_ELb1EE11_M_allocateEj"           ; magicseg='TEXT32' len=107  weak
  "__ZNSt18_Vector_alloc_baseIN6Xapian8Internal9RefCntPtrINS0_8Database8InternalEEESaIS5_ELb1EE13_M_deallocateEPS5_j"     ; magicseg='TEXT32' len=113  weak
  "__ZNSt18_Vector_alloc_baseIN6Xapian8Internal9RefCntPtrINS0_8Database8InternalEEESaIS5_ELb1EEC2ERKS6_"                  ; magicseg='TEXT32' len=100  weak
  "__ZNSt18_Vector_alloc_baseIN6Xapian9bucketvalESaIS1_ELb1EE11_M_allocateEj"               ; magicseg='TEXT32' len=73  weak
  "__ZNSt18_Vector_alloc_baseIN6Xapian9bucketvalESaIS1_ELb1EE13_M_deallocateEPS1_j"         ; magicseg='TEXT32' len=79  weak
  "__ZNSt18_Vector_alloc_baseIN6Xapian9bucketvalESaIS1_ELb1EEC2ERKS2_"                      ; magicseg='TEXT32' len=66  weak
  "__ZNSt18_Vector_alloc_baseIP12LeafPostListSaIS1_ELb1EE11_M_allocateEj"                   ; magicseg='TEXT32' len=69  weak
  "__ZNSt18_Vector_alloc_baseIP12LeafPostListSaIS1_ELb1EE13_M_deallocateEPS1_j"             ; magicseg='TEXT32' len=75  weak
  "__ZNSt18_Vector_alloc_baseIP12LeafPostListSaIS1_ELb1EEC2ERKS2_"      ; magicseg='TEXT32' len=62  weak
  "__ZNSt18_Vector_alloc_baseIPN6Xapian12TermIterator8InternalESaIS3_ELb1EE11_M_allocateEj"                               ; magicseg='TEXT32' len=87  weak
  "__ZNSt18_Vector_alloc_baseIPN6Xapian12TermIterator8InternalESaIS3_ELb1EE13_M_deallocateEPS3_j"                         ; magicseg='TEXT32' len=93  weak
  "__ZNSt18_Vector_alloc_baseIPN6Xapian12TermIterator8InternalESaIS3_ELb1EEC2ERKS4_"        ; magicseg='TEXT32' len=80  weak
  "__ZNSt18_Vector_alloc_baseIPN6Xapian15PostingIterator8InternalESaIS3_ELb1EE11_M_allocateEj"                            ; magicseg='TEXT32' len=90  weak
  "__ZNSt18_Vector_alloc_baseIPN6Xapian15PostingIterator8InternalESaIS3_ELb1EE13_M_deallocateEPS3_j"                      ; magicseg='TEXT32' len=96  weak
  "__ZNSt18_Vector_alloc_baseIPN6Xapian15PostingIterator8InternalESaIS3_ELb1EEC2ERKS4_"     ; magicseg='TEXT32' len=83  weak
  "__ZNSt18_Vector_alloc_baseIPN6Xapian16PositionIterator8InternalESaIS3_ELb1EE11_M_allocateEj"                           ; magicseg='TEXT32' len=91  weak
  "__ZNSt18_Vector_alloc_baseIPN6Xapian16PositionIterator8InternalESaIS3_ELb1EE13_M_deallocateEPS3_j"                     ; magicseg='TEXT32' len=97  weak
  "__ZNSt18_Vector_alloc_baseIPN6Xapian16PositionIterator8InternalESaIS3_ELb1EEC2ERKS4_"    ; magicseg='TEXT32' len=84  weak
  "__ZNSt18_Vector_alloc_baseIPN6Xapian5Query8InternalESaIS3_ELb1EE11_M_allocateEj"         ; magicseg='TEXT32' len=79  weak
  "__ZNSt18_Vector_alloc_baseIPN6Xapian5Query8InternalESaIS3_ELb1EE13_M_deallocateEPS3_j"                                 ; magicseg='TEXT32' len=85  weak
  "__ZNSt18_Vector_alloc_baseIPN6Xapian5Query8InternalESaIS3_ELb1EEC2ERKS4_"                ; magicseg='TEXT32' len=72  weak
  "__ZNSt18_Vector_alloc_baseISsSaISsELb1EE11_M_allocateEj"             ; magicseg='TEXT32' len=55  weak
  "__ZNSt18_Vector_alloc_baseISsSaISsELb1EE13_M_deallocateEPSsj"        ; magicseg='TEXT32' len=60  weak
  "__ZNSt18_Vector_alloc_baseISsSaISsELb1EEC2ERKS0_"                    ; magicseg='TEXT32' len=48  weak
  "__ZNSt18_Vector_alloc_baseISt3mapIjSsSt4lessIjESaISt4pairIKjSsEEESaIS7_ELb1EE11_M_allocateEj"                          ; magicseg='TEXT32' len=92  weak
  "__ZNSt18_Vector_alloc_baseISt3mapIjSsSt4lessIjESaISt4pairIKjSsEEESaIS7_ELb1EE13_M_deallocateEPS7_j"                    ; magicseg='TEXT32' len=98  weak
  "__ZNSt18_Vector_alloc_baseISt3mapIjSsSt4lessIjESaISt4pairIKjSsEEESaIS7_ELb1EEC2ERKS8_"                                 ; magicseg='TEXT32' len=85  weak
  "__ZNSt18_Vector_alloc_baseISt4pairISsjESaIS1_ELb1EE11_M_allocateEj"                      ; magicseg='TEXT32' len=66  weak
  "__ZNSt18_Vector_alloc_baseISt4pairISsjESaIS1_ELb1EE13_M_deallocateEPS1_j"                ; magicseg='TEXT32' len=72  weak
  "__ZNSt18_Vector_alloc_baseISt4pairISsjESaIS1_ELb1EEC2ERKS2_"         ; magicseg='TEXT32' len=59  weak
  "__ZNSt19_Bit_const_iteratorC1EPmj"                                   ; magicseg='TEXT32' len=33  weak
  "__ZNSt19_Bit_const_iteratorC1ERKSt13_Bit_iterator"                   ; magicseg='TEXT32' len=49  weak
  "__ZNSt19_Bvector_alloc_baseISaIbELb1EE12_M_bit_allocEj"              ; magicseg='TEXT32' len=54  weak
  "__ZNSt19_Bvector_alloc_baseISaIbELb1EE13_M_deallocateEv"             ; magicseg='TEXT32' len=55  weak
  "__ZNSt19_Bvector_alloc_baseISaIbELb1EEC2ERKS0_"                      ; magicseg='TEXT32' len=46  weak
  "__ZNSt19_List_iterator_base7_M_decrEv"                               ; magicseg='TEXT32' len=37  weak
  "__ZNSt19_List_iterator_base7_M_incrEv"                               ; magicseg='TEXT32' len=37  weak
  "__ZNSt19_List_iterator_baseC2EPSt15_List_node_base"                  ; magicseg='TEXT32' len=50  weak
  "__ZNSt19_List_iterator_baseC2Ev"                                     ; magicseg='TEXT32' len=31  weak
  "__ZNSt19_Rb_tree_alloc_baseIjSaIjELb1EE11_M_get_nodeEv"              ; magicseg='TEXT32' len=54  weak
  "__ZNSt19_Rb_tree_alloc_baseIjSaIjELb1EE11_M_put_nodeEPSt13_Rb_tree_nodeIjE"              ; magicseg='TEXT32' len=74  weak
  "__ZNSt19_Rb_tree_alloc_baseIjSaIjELb1EEC2ERKS0_"                     ; magicseg='TEXT32' len=47  weak
  "__ZNSt19_Rb_tree_alloc_baseIPN6Xapian5Query8InternalESaIS3_ELb1EE11_M_get_nodeEv"        ; magicseg='TEXT32' len=80  weak
  "__ZNSt19_Rb_tree_alloc_baseIPN6Xapian5Query8InternalESaIS3_ELb1EE11_M_put_nodeEPSt13_Rb_tree_nodeIS3_E"                ; magicseg='TEXT32' len=102  weak
  "__ZNSt19_Rb_tree_alloc_baseIPN6Xapian5Query8InternalESaIS3_ELb1EEC2ERKS4_"               ; magicseg='TEXT32' len=73  weak
  "__ZNSt19_Rb_tree_alloc_baseIPN6Xapian6Weight8InternalESaIS3_ELb1EE11_M_get_nodeEv"       ; magicseg='TEXT32' len=81  weak
  "__ZNSt19_Rb_tree_alloc_baseIPN6Xapian6Weight8InternalESaIS3_ELb1EE11_M_put_nodeEPSt13_Rb_tree_nodeIS3_E"               ; magicseg='TEXT32' len=103  weak
  "__ZNSt19_Rb_tree_alloc_baseIPN6Xapian6Weight8InternalESaIS3_ELb1EEC2ERKS4_"              ; magicseg='TEXT32' len=74  weak
  "__ZNSt19_Rb_tree_alloc_baseISsSaISsELb1EE11_M_get_nodeEv"            ; magicseg='TEXT32' len=56  weak
  "__ZNSt19_Rb_tree_alloc_baseISsSaISsELb1EE11_M_put_nodeEPSt13_Rb_tree_nodeISsE"           ; magicseg='TEXT32' len=77  weak
  "__ZNSt19_Rb_tree_alloc_baseISsSaISsELb1EEC2ERKS0_"                   ; magicseg='TEXT32' len=49  weak
  "__ZNSt19_Rb_tree_alloc_baseISt4pairIK15filter_group_idN6Xapian5QueryEESaIS5_ELb1EE11_M_get_nodeEv"                     ; magicseg='TEXT32' len=97  weak
  "__ZNSt19_Rb_tree_alloc_baseISt4pairIK15filter_group_idN6Xapian5QueryEESaIS5_ELb1EE11_M_put_nodeEPSt13_Rb_tree_nodeIS5_E"                                    ; magicseg='TEXT32' len=119  weak
  "__ZNSt19_Rb_tree_alloc_baseISt4pairIK15filter_group_idN6Xapian5QueryEESaIS5_ELb1EEC2ERKS6_"                            ; magicseg='TEXT32' len=90  weak
  "__ZNSt19_Rb_tree_alloc_baseISt4pairIK8fragmentSt3setISsSt4lessISsESaISsEEESaIS8_ELb1EE11_M_get_nodeEv"                 ; magicseg='TEXT32' len=101  weak
  "__ZNSt19_Rb_tree_alloc_baseISt4pairIK8fragmentSt3setISsSt4lessISsESaISsEEESaIS8_ELb1EE11_M_put_nodeEPSt13_Rb_tree_nodeIS8_E"                                ; magicseg='TEXT32' len=123  weak
  "__ZNSt19_Rb_tree_alloc_baseISt4pairIK8fragmentSt3setISsSt4lessISsESaISsEEESaIS8_ELb1EEC2ERKS9_"                        ; magicseg='TEXT32' len=94  weak
  "__ZNSt19_Rb_tree_alloc_baseISt4pairIKdjESaIS2_ELb1EE11_M_get_nodeEv"                     ; magicseg='TEXT32' len=67  weak
  "__ZNSt19_Rb_tree_alloc_baseISt4pairIKdjESaIS2_ELb1EE11_M_put_nodeEPSt13_Rb_tree_nodeIS2_E"                             ; magicseg='TEXT32' len=89  weak
  "__ZNSt19_Rb_tree_alloc_baseISt4pairIKdjESaIS2_ELb1EEC2ERKS3_"        ; magicseg='TEXT32' len=60  weak
  "__ZNSt19_Rb_tree_alloc_baseISt4pairIKjjESaIS2_ELb1EE11_M_get_nodeEv"                     ; magicseg='TEXT32' len=67  weak
  "__ZNSt19_Rb_tree_alloc_baseISt4pairIKjjESaIS2_ELb1EE11_M_put_nodeEPSt13_Rb_tree_nodeIS2_E"                             ; magicseg='TEXT32' len=89  weak
  "__ZNSt19_Rb_tree_alloc_baseISt4pairIKjjESaIS2_ELb1EEC2ERKS3_"        ; magicseg='TEXT32' len=60  weak
  "__ZNSt19_Rb_tree_alloc_baseISt4pairIKjN6Xapian8DocumentEESaIS4_ELb1EE11_M_get_nodeEv"    ; magicseg='TEXT32' len=84  weak
  "__ZNSt19_Rb_tree_alloc_baseISt4pairIKjN6Xapian8DocumentEESaIS4_ELb1EE11_M_put_nodeEPSt13_Rb_tree_nodeIS4_E"            ; magicseg='TEXT32' len=106  weak
  "__ZNSt19_Rb_tree_alloc_baseISt4pairIKjN6Xapian8DocumentEESaIS4_ELb1EEC2ERKS5_"           ; magicseg='TEXT32' len=77  weak
  "__ZNSt19_Rb_tree_alloc_baseISt4pairIKjS0_IcjEESaIS3_ELb1EE11_M_get_nodeEv"               ; magicseg='TEXT32' len=73  weak
  "__ZNSt19_Rb_tree_alloc_baseISt4pairIKjS0_IcjEESaIS3_ELb1EE11_M_put_nodeEPSt13_Rb_tree_nodeIS3_E"                       ; magicseg='TEXT32' len=95  weak
  "__ZNSt19_Rb_tree_alloc_baseISt4pairIKjS0_IcjEESaIS3_ELb1EEC2ERKS4_"                      ; magicseg='TEXT32' len=66  weak
  "__ZNSt19_Rb_tree_alloc_baseISt4pairIKjSsESaIS2_ELb1EE11_M_get_nodeEv"                    ; magicseg='TEXT32' len=68  weak
  "__ZNSt19_Rb_tree_alloc_baseISt4pairIKjSsESaIS2_ELb1EE11_M_put_nodeEPSt13_Rb_tree_nodeIS2_E"                            ; magicseg='TEXT32' len=90  weak
  "__ZNSt19_Rb_tree_alloc_baseISt4pairIKjSsESaIS2_ELb1EEC2ERKS3_"       ; magicseg='TEXT32' len=61  weak
  "__ZNSt19_Rb_tree_alloc_baseISt4pairIKjSt3mapISsjSt4lessISsESaIS0_IKSsjEEEESaIS9_ELb1EE11_M_get_nodeEv"                 ; magicseg='TEXT32' len=101  weak
  "__ZNSt19_Rb_tree_alloc_baseISt4pairIKjSt3mapISsjSt4lessISsESaIS0_IKSsjEEEESaIS9_ELb1EE11_M_put_nodeEPSt13_Rb_tree_nodeIS9_E"                                ; magicseg='TEXT32' len=123  weak
  "__ZNSt19_Rb_tree_alloc_baseISt4pairIKSs10PrefixInfoESaIS3_ELb1EE11_M_get_nodeEv"         ; magicseg='TEXT32' len=79  weak
  "__ZNSt19_Rb_tree_alloc_baseISt4pairIKSs10PrefixInfoESaIS3_ELb1EE11_M_put_nodeEPSt13_Rb_tree_nodeIS3_E"                 ; magicseg='TEXT32' len=101  weak
  "__ZNSt19_Rb_tree_alloc_baseISt4pairIKSs10PrefixInfoESaIS3_ELb1EEC2ERKS4_"                ; magicseg='TEXT32' len=72  weak
  "__ZNSt19_Rb_tree_alloc_baseISt4pairIKSs12InMemoryTermESaIS3_ELb1EE11_M_get_nodeEv"       ; magicseg='TEXT32' len=81  weak
  "__ZNSt19_Rb_tree_alloc_baseISt4pairIKSs12InMemoryTermESaIS3_ELb1EE11_M_put_nodeEPSt13_Rb_tree_nodeIS3_E"               ; magicseg='TEXT32' len=103  weak
  "__ZNSt19_Rb_tree_alloc_baseISt4pairIKSs12InMemoryTermESaIS3_ELb1EEC2ERKS4_"              ; magicseg='TEXT32' len=74  weak
  "__ZNSt19_Rb_tree_alloc_baseISt4pairIKSs14OmDocumentTermESaIS3_ELb1EE11_M_get_nodeEv"     ; magicseg='TEXT32' len=83  weak
  "__ZNSt19_Rb_tree_alloc_baseISt4pairIKSs14OmDocumentTermESaIS3_ELb1EE11_M_put_nodeEPSt13_Rb_tree_nodeIS3_E"             ; magicseg='TEXT32' len=105  weak
  "__ZNSt19_Rb_tree_alloc_baseISt4pairIKSs14OmDocumentTermESaIS3_ELb1EEC2ERKS4_"            ; magicseg='TEXT32' len=76  weak
  "__ZNSt19_Rb_tree_alloc_baseISt4pairIKSsjESaIS2_ELb1EE11_M_get_nodeEv"                    ; magicseg='TEXT32' len=68  weak
  "__ZNSt19_Rb_tree_alloc_baseISt4pairIKSsjESaIS2_ELb1EE11_M_put_nodeEPSt13_Rb_tree_nodeIS2_E"                            ; magicseg='TEXT32' len=90  weak
  "__ZNSt19_Rb_tree_alloc_baseISt4pairIKSsjESaIS2_ELb1EEC2ERKS3_"       ; magicseg='TEXT32' len=61  weak
  "__ZNSt19_Rb_tree_alloc_baseISt4pairIKSsN6Xapian4MSet8Internal17TermFreqAndWeightEESaIS6_ELb1EE11_M_get_nodeEv"         ; magicseg='TEXT32' len=109  weak
  "__ZNSt19_Rb_tree_alloc_baseISt4pairIKSsN6Xapian4MSet8Internal17TermFreqAndWeightEESaIS6_ELb1EE11_M_put_nodeEPSt13_Rb_tree_nodeIS6_E"                        ; magicseg='TEXT32' len=131  weak
  "__ZNSt19_Rb_tree_alloc_baseISt4pairIKSsN6Xapian4MSet8Internal17TermFreqAndWeightEESaIS6_ELb1EEC2ERKS7_"                ; magicseg='TEXT32' len=102  weak
  "__ZNSt19_Rb_tree_alloc_baseISt4pairIKSsPKN6Xapian12MatchDeciderEESaIS6_ELb1EE11_M_get_nodeEv"                          ; magicseg='TEXT32' len=92  weak
  "__ZNSt19_Rb_tree_alloc_baseISt4pairIKSsPKN6Xapian12MatchDeciderEESaIS6_ELb1EE11_M_put_nodeEPSt13_Rb_tree_nodeIS6_E"    ; magicseg='TEXT32' len=114  weak
  "__ZNSt19_Rb_tree_alloc_baseISt4pairIKSsPKN6Xapian12MatchDeciderEESaIS6_ELb1EEC2ERKS7_"                                 ; magicseg='TEXT32' len=85  weak
  "__ZNSt19_Rb_tree_alloc_baseISt4pairIKSsS0_IiiEESaIS3_ELb1EE11_M_get_nodeEv"              ; magicseg='TEXT32' len=74  weak
  "__ZNSt19_Rb_tree_alloc_baseISt4pairIKSsS0_IiiEESaIS3_ELb1EE11_M_put_nodeEPSt13_Rb_tree_nodeIS3_E"                      ; magicseg='TEXT32' len=96  weak
  "__ZNSt19_Rb_tree_alloc_baseISt4pairIKSsS0_IiiEESaIS3_ELb1EEC2ERKS4_"                     ; magicseg='TEXT32' len=67  weak
  "__ZNSt19_Rb_tree_alloc_baseISt4pairIKSsS0_IN6Xapian8Internal8MSetItemEdEESaIS6_ELb1EE11_M_get_nodeEv"                  ; magicseg='TEXT32' len=100  weak
  "__ZNSt19_Rb_tree_alloc_baseISt4pairIKSsS0_IN6Xapian8Internal8MSetItemEdEESaIS6_ELb1EE11_M_put_nodeEPSt13_Rb_tree_nodeIS6_E"                                 ; magicseg='TEXT32' len=122  weak
  "__ZNSt19_Rb_tree_alloc_baseISt4pairIKSsS0_IN6Xapian8Internal8MSetItemEdEESaIS6_ELb1EEC2ERKS7_"                         ; magicseg='TEXT32' len=93  weak
  "__ZNSt19_Rb_tree_alloc_baseISt4pairIKSsSsESaIS2_ELb1EE11_M_get_nodeEv"                   ; magicseg='TEXT32' len=69  weak
  "__ZNSt19_Rb_tree_alloc_baseISt4pairIKSsSsESaIS2_ELb1EE11_M_put_nodeEPSt13_Rb_tree_nodeIS2_E"                           ; magicseg='TEXT32' len=91  weak
  "__ZNSt19_Rb_tree_alloc_baseISt4pairIKSsSsESaIS2_ELb1EEC2ERKS3_"      ; magicseg='TEXT32' len=62  weak
  "__ZNSt19_Rb_tree_alloc_baseISt4pairIKSsSt3mapIjS0_IcjESt4lessIjESaIS0_IKjS3_EEEESaISA_ELb1EE11_M_get_nodeEv"           ; magicseg='TEXT32' len=107  weak
  "__ZNSt19_Rb_tree_alloc_baseISt4pairIKSsSt3mapIjS0_IcjESt4lessIjESaIS0_IKjS3_EEEESaISA_ELb1EE11_M_put_nodeEPSt13_Rb_tree_nodeISA_E"                          ; magicseg='TEXT32' len=129  weak
  "__ZNSt19_Rb_tree_alloc_baseISt4pairIKSsSt3mapIjS0_IcjESt4lessIjESaIS0_IKjS3_EEEESaISA_ELb1EEC2ERKSB_"                  ; magicseg='TEXT32' len=100  weak
  "__ZNSt22_Rb_tree_base_iterator12_M_decrementEv"                      ; magicseg='TEXT32' len=46  weak
  "__ZNSt22_Rb_tree_base_iterator12_M_incrementEv"                      ; magicseg='TEXT32' len=46  weak
  "__ZNSt22_Rb_tree_base_iteratorC2Ev"                                  ; magicseg='TEXT32' len=34  weak
  "__ZNSt24__copy_backward_dispatchIP11InMemoryDocS1_12__false_typeE4copyES1_S1_S1_"        ; magicseg='TEXT32' len=80  weak
  "__ZNSt24__copy_backward_dispatchIP15InMemoryPostingS1_12__false_typeE4copyES1_S1_S1_"    ; magicseg='TEXT32' len=84  weak
  "__ZNSt24__copy_backward_dispatchIP17InMemoryTermEntryS1_12__false_typeE4copyES1_S1_S1_"                                ; magicseg='TEXT32' len=86  weak
  "__ZNSt24__copy_backward_dispatchIPdS0_11__true_typeE4copyEPKdS4_S0_"                     ; magicseg='TEXT32' len=67  weak
  "__ZNSt24__copy_backward_dispatchIPjS0_11__true_typeE4copyEPKjS4_S0_"                     ; magicseg='TEXT32' len=67  weak
  "__ZNSt24__copy_backward_dispatchIPN6Xapian4RSetES2_12__false_typeE4copyES2_S2_S2_"       ; magicseg='TEXT32' len=81  weak
  "__ZNSt24__copy_backward_dispatchIPN6Xapian8Internal8ESetItemES3_12__false_typeE4copyES3_S3_S3_"                        ; magicseg='TEXT32' len=94  weak
  "__ZNSt24__copy_backward_dispatchIPN6Xapian8Internal8MSetItemES3_12__false_typeE4copyES3_S3_S3_"                        ; magicseg='TEXT32' len=94  weak
  "__ZNSt24__copy_backward_dispatchIPN6Xapian8Internal9RefCntPtrI8SubMatchEES5_12__false_typeE4copyES5_S5_S5_"            ; magicseg='TEXT32' len=106  weak
  "__ZNSt24__copy_backward_dispatchIPN6Xapian8Internal9RefCntPtrINS0_8Database8InternalEEES6_12__false_typeE4copyES6_S6_S6_"                                   ; magicseg='TEXT32' len=120  weak
  "__ZNSt24__copy_backward_dispatchIPN6Xapian9bucketvalES2_12__false_typeE4copyES2_S2_S2_"                                ; magicseg='TEXT32' len=86  weak
  "__ZNSt24__copy_backward_dispatchIPP12LeafPostListS2_11__true_typeE4copyEPKS1_S6_S2_"     ; magicseg='TEXT32' len=83  weak
  "__ZNSt24__copy_backward_dispatchIPPN6Xapian12TermIterator8InternalES4_11__true_typeE4copyEPKS3_S8_S4_"                 ; magicseg='TEXT32' len=101  weak
  "__ZNSt24__copy_backward_dispatchIPPN6Xapian15PostingIterator8InternalES4_11__true_typeE4copyEPKS3_S8_S4_"              ; magicseg='TEXT32' len=104  weak
  "__ZNSt24__copy_backward_dispatchIPPN6Xapian16PositionIterator8InternalES4_11__true_typeE4copyEPKS3_S8_S4_"             ; magicseg='TEXT32' len=105  weak
  "__ZNSt24__copy_backward_dispatchIPPN6Xapian5Query8InternalES4_11__true_typeE4copyEPKS3_S8_S4_"                         ; magicseg='TEXT32' len=93  weak
  "__ZNSt24__copy_backward_dispatchIPSsS0_12__false_typeE4copyES0_S0_S0_"                   ; magicseg='TEXT32' len=69  weak
  "__ZNSt24__copy_backward_dispatchIPSt3mapIjSsSt4lessIjESaISt4pairIKjSsEEES8_12__false_typeE4copyES8_S8_S8_"             ; magicseg='TEXT32' len=105  weak
  "__ZNSt24__copy_backward_dispatchIPSt4pairISsjES2_12__false_typeE4copyES2_S2_S2_"         ; magicseg='TEXT32' len=79  weak
  "__ZNSt24__copy_backward_dispatchISt13_Bit_iteratorS0_11__true_typeE4copyES0_S0_S0_"      ; magicseg='TEXT32' len=82  weak
  "__ZNSt3mapI15filter_group_idN6Xapian5QueryESt4lessIS0_ESaISt4pairIKS0_S2_EEE11lower_boundERS6_"                        ; magicseg='TEXT32' len=94  weak
  "__ZNSt3mapI15filter_group_idN6Xapian5QueryESt4lessIS0_ESaISt4pairIKS0_S2_EEE3endEv"      ; magicseg='TEXT32' len=82  weak
  "__ZNSt3mapI15filter_group_idN6Xapian5QueryESt4lessIS0_ESaISt4pairIKS0_S2_EEE6insertESt17_Rb_tree_iteratorIS7_RS7_PS7_ERKS7_"                                ; magicseg='TEXT32' len=123  weak
  "__ZNSt3mapI15filter_group_idN6Xapian5QueryESt4lessIS0_ESaISt4pairIKS0_S2_EEEC1Ev"        ; magicseg='TEXT32' len=80  weak
  "__ZNSt3mapI15filter_group_idN6Xapian5QueryESt4lessIS0_ESaISt4pairIKS0_S2_EEED1Ev"        ; magicseg='TEXT32' len=80  weak
  "__ZNSt3mapI15filter_group_idN6Xapian5QueryESt4lessIS0_ESaISt4pairIKS0_S2_EEEixERS6_"     ; magicseg='TEXT32' len=83  weak
  "__ZNSt3mapI8fragmentSt3setISsSt4lessISsESaISsEES2_IS0_ESaISt4pairIKS0_S5_EEE3endEv"      ; magicseg='TEXT32' len=82  weak
  "__ZNSt3mapI8fragmentSt3setISsSt4lessISsESaISsEES2_IS0_ESaISt4pairIKS0_S5_EEE4findERS8_"                                ; magicseg='TEXT32' len=86  weak
  "__ZNSt3mapI8fragmentSt3setISsSt4lessISsESaISsEES2_IS0_ESaISt4pairIKS0_S5_EEE5beginEv"    ; magicseg='TEXT32' len=84  weak
  "__ZNSt3mapI8fragmentSt3setISsSt4lessISsESaISsEES2_IS0_ESaISt4pairIKS0_S5_EEE5clearEv"    ; magicseg='TEXT32' len=84  weak
  "__ZNSt3mapI8fragmentSt3setISsSt4lessISsESaISsEES2_IS0_ESaISt4pairIKS0_S5_EEE6insertERKS9_"                             ; magicseg='TEXT32' len=89  weak
  "__ZNSt3mapI8fragmentSt3setISsSt4lessISsESaISsEES2_IS0_ESaISt4pairIKS0_S5_EEEC1Ev"        ; magicseg='TEXT32' len=80  weak
  "__ZNSt3mapI8fragmentSt3setISsSt4lessISsESaISsEES2_IS0_ESaISt4pairIKS0_S5_EEED1Ev"        ; magicseg='TEXT32' len=80  weak
  "__ZNSt3mapIdjSt4lessIdESaISt4pairIKdjEEE11lower_boundERS3_"          ; magicseg='TEXT32' len=58  weak
  "__ZNSt3mapIdjSt4lessIdESaISt4pairIKdjEEE3endEv"                      ; magicseg='TEXT32' len=46  weak
  "__ZNSt3mapIdjSt4lessIdESaISt4pairIKdjEEE5beginEv"                    ; magicseg='TEXT32' len=48  weak
  "__ZNSt3mapIdjSt4lessIdESaISt4pairIKdjEEE6insertESt17_Rb_tree_iteratorIS4_RS4_PS4_ERKS4_"                               ; magicseg='TEXT32' len=87  weak
  "__ZNSt3mapIdjSt4lessIdESaISt4pairIKdjEEEC1Ev"                        ; magicseg='TEXT32' len=44  weak
  "__ZNSt3mapIdjSt4lessIdESaISt4pairIKdjEEED1Ev"                        ; magicseg='TEXT32' len=44  weak
  "__ZNSt3mapIdjSt4lessIdESaISt4pairIKdjEEEixERS3_"                     ; magicseg='TEXT32' len=47  weak
  "__ZNSt3mapIjjSt4lessIjESaISt4pairIKjjEEE11lower_boundERS3_"          ; magicseg='TEXT32' len=58  weak
  "__ZNSt3mapIjjSt4lessIjESaISt4pairIKjjEEE3endEv"                      ; magicseg='TEXT32' len=46  weak
  "__ZNSt3mapIjjSt4lessIjESaISt4pairIKjjEEE4findERS3_"                  ; magicseg='TEXT32' len=50  weak
  "__ZNSt3mapIjjSt4lessIjESaISt4pairIKjjEEE5clearEv"                    ; magicseg='TEXT32' len=48  weak
  "__ZNSt3mapIjjSt4lessIjESaISt4pairIKjjEEE5eraseERS3_"                 ; magicseg='TEXT32' len=51  weak
  "__ZNSt3mapIjjSt4lessIjESaISt4pairIKjjEEE6insertESt17_Rb_tree_iteratorIS4_RS4_PS4_ERKS4_"                               ; magicseg='TEXT32' len=87  weak
  "__ZNSt3mapIjjSt4lessIjESaISt4pairIKjjEEEC1Ev"                        ; magicseg='TEXT32' len=44  weak
  "__ZNSt3mapIjjSt4lessIjESaISt4pairIKjjEEED1Ev"                        ; magicseg='TEXT32' len=44  weak
  "__ZNSt3mapIjjSt4lessIjESaISt4pairIKjjEEEixERS3_"                     ; magicseg='TEXT32' len=47  weak
  "__ZNSt3mapIjN6Xapian8DocumentESt4lessIjESaISt4pairIKjS1_EEE11lower_boundERS5_"           ; magicseg='TEXT32' len=77  weak
  "__ZNSt3mapIjN6Xapian8DocumentESt4lessIjESaISt4pairIKjS1_EEE3endEv"                       ; magicseg='TEXT32' len=65  weak
  "__ZNSt3mapIjN6Xapian8DocumentESt4lessIjESaISt4pairIKjS1_EEE4findERS5_"                   ; magicseg='TEXT32' len=69  weak
  "__ZNSt3mapIjN6Xapian8DocumentESt4lessIjESaISt4pairIKjS1_EEE6insertESt17_Rb_tree_iteratorIS6_RS6_PS6_ERKS6_"            ; magicseg='TEXT32' len=106  weak
  "__ZNSt3mapIjN6Xapian8DocumentESt4lessIjESaISt4pairIKjS1_EEEC1Ev"     ; magicseg='TEXT32' len=63  weak
  "__ZNSt3mapIjN6Xapian8DocumentESt4lessIjESaISt4pairIKjS1_EEED1Ev"     ; magicseg='TEXT32' len=63  weak
  "__ZNSt3mapIjN6Xapian8DocumentESt4lessIjESaISt4pairIKjS1_EEEixERS5_"                      ; magicseg='TEXT32' len=66  weak
  "__ZNSt3mapIjS_ISsjSt4lessISsESaISt4pairIKSsjEEES0_IjESaIS2_IKjS6_EEE11lower_boundERS8_"                                ; magicseg='TEXT32' len=86  weak
  "__ZNSt3mapIjS_ISsjSt4lessISsESaISt4pairIKSsjEEES0_IjESaIS2_IKjS6_EEE3endEv"              ; magicseg='TEXT32' len=74  weak
  "__ZNSt3mapIjS_ISsjSt4lessISsESaISt4pairIKSsjEEES0_IjESaIS2_IKjS6_EEE5beginEv"            ; magicseg='TEXT32' len=76  weak
  "__ZNSt3mapIjS_ISsjSt4lessISsESaISt4pairIKSsjEEES0_IjESaIS2_IKjS6_EEE6insertESt17_Rb_tree_iteratorIS9_RS9_PS9_ERKS9_"                                        ; magicseg='TEXT32' len=115  weak
  "__ZNSt3mapIjS_ISsjSt4lessISsESaISt4pairIKSsjEEES0_IjESaIS2_IKjS6_EEED1Ev"                ; magicseg='TEXT32' len=72  weak
  "__ZNSt3mapIjS_ISsjSt4lessISsESaISt4pairIKSsjEEES0_IjESaIS2_IKjS6_EEEixERS8_"             ; magicseg='TEXT32' len=75  weak
  "__ZNSt3mapIjSsSt4lessIjESaISt4pairIKjSsEEE11lower_boundERS3_"        ; magicseg='TEXT32' len=60  weak
  "__ZNSt3mapIjSsSt4lessIjESaISt4pairIKjSsEEE3endEv"                    ; magicseg='TEXT32' len=48  weak
  "__ZNSt3mapIjSsSt4lessIjESaISt4pairIKjSsEEE4findERS3_"                ; magicseg='TEXT32' len=52  weak
  "__ZNSt3mapIjSsSt4lessIjESaISt4pairIKjSsEEE5beginEv"                  ; magicseg='TEXT32' len=50  weak
  "__ZNSt3mapIjSsSt4lessIjESaISt4pairIKjSsEEE5clearEv"                  ; magicseg='TEXT32' len=50  weak
  "__ZNSt3mapIjSsSt4lessIjESaISt4pairIKjSsEEE5eraseESt17_Rb_tree_iteratorIS4_RS4_PS4_E"     ; magicseg='TEXT32' len=83  weak
  "__ZNSt3mapIjSsSt4lessIjESaISt4pairIKjSsEEE6insertERKS4_"             ; magicseg='TEXT32' len=55  weak
  "__ZNSt3mapIjSsSt4lessIjESaISt4pairIKjSsEEE6insertESt17_Rb_tree_iteratorIS4_RS4_PS4_ERKS4_"                             ; magicseg='TEXT32' len=89  weak
  "__ZNSt3mapIjSsSt4lessIjESaISt4pairIKjSsEEEaSERKS6_"                  ; magicseg='TEXT32' len=50  weak
  "__ZNSt3mapIjSsSt4lessIjESaISt4pairIKjSsEEEC1ERKS6_"                  ; magicseg='TEXT32' len=50  weak
  "__ZNSt3mapIjSsSt4lessIjESaISt4pairIKjSsEEEC1Ev"                      ; magicseg='TEXT32' len=46  weak
  "__ZNSt3mapIjSsSt4lessIjESaISt4pairIKjSsEEED1Ev"                      ; magicseg='TEXT32' len=46  weak
  "__ZNSt3mapIjSsSt4lessIjESaISt4pairIKjSsEEEixERS3_"                   ; magicseg='TEXT32' len=49  weak
  "__ZNSt3mapIjSt4pairIcjESt4lessIjESaIS0_IKjS1_EEE3endEv"              ; magicseg='TEXT32' len=54  weak
  "__ZNSt3mapIjSt4pairIcjESt4lessIjESaIS0_IKjS1_EEE4findERS4_"          ; magicseg='TEXT32' len=58  weak
  "__ZNSt3mapIjSt4pairIcjESt4lessIjESaIS0_IKjS1_EEE5beginEv"            ; magicseg='TEXT32' len=56  weak
  "__ZNSt3mapIjSt4pairIcjESt4lessIjESaIS0_IKjS1_EEE6insertERKS5_"       ; magicseg='TEXT32' len=61  weak
  "__ZNSt3mapIjSt4pairIcjESt4lessIjESaIS0_IKjS1_EEEC1ERKS7_"            ; magicseg='TEXT32' len=56  weak
  "__ZNSt3mapIjSt4pairIcjESt4lessIjESaIS0_IKjS1_EEEC1Ev"                ; magicseg='TEXT32' len=52  weak
  "__ZNSt3mapIjSt4pairIcjESt4lessIjESaIS0_IKjS1_EEED1Ev"                ; magicseg='TEXT32' len=52  weak
  "__ZNSt3mapISs10PrefixInfoSt4lessISsESaISt4pairIKSsS0_EEE3endEv"      ; magicseg='TEXT32' len=62  weak
  "__ZNSt3mapISs10PrefixInfoSt4lessISsESaISt4pairIKSsS0_EEE4findERS4_"                      ; magicseg='TEXT32' len=66  weak
  "__ZNSt3mapISs10PrefixInfoSt4lessISsESaISt4pairIKSsS0_EEE6insertERKS5_"                   ; magicseg='TEXT32' len=69  weak
  "__ZNSt3mapISs10PrefixInfoSt4lessISsESaISt4pairIKSsS0_EEEC1Ev"        ; magicseg='TEXT32' len=60  weak
  "__ZNSt3mapISs10PrefixInfoSt4lessISsESaISt4pairIKSsS0_EEED1Ev"        ; magicseg='TEXT32' len=60  weak
  "__ZNSt3mapISs12InMemoryTermSt4lessISsESaISt4pairIKSsS0_EEE11lower_boundERS4_"            ; magicseg='TEXT32' len=76  weak
  "__ZNSt3mapISs12InMemoryTermSt4lessISsESaISt4pairIKSsS0_EEE3endEv"    ; magicseg='TEXT32' len=64  weak
  "__ZNSt3mapISs12InMemoryTermSt4lessISsESaISt4pairIKSsS0_EEE4findERS4_"                    ; magicseg='TEXT32' len=68  weak
  "__ZNSt3mapISs12InMemoryTermSt4lessISsESaISt4pairIKSsS0_EEE6insertESt17_Rb_tree_iteratorIS5_RS5_PS5_ERKS5_"             ; magicseg='TEXT32' len=105  weak
  "__ZNSt3mapISs12InMemoryTermSt4lessISsESaISt4pairIKSsS0_EEEC1Ev"      ; magicseg='TEXT32' len=62  weak
  "__ZNSt3mapISs12InMemoryTermSt4lessISsESaISt4pairIKSsS0_EEED1Ev"      ; magicseg='TEXT32' len=62  weak
  "__ZNSt3mapISs12InMemoryTermSt4lessISsESaISt4pairIKSsS0_EEEixERS4_"                       ; magicseg='TEXT32' len=65  weak
  "__ZNSt3mapISs14OmDocumentTermSt4lessISsESaISt4pairIKSsS0_EEE3endEv"                      ; magicseg='TEXT32' len=66  weak
  "__ZNSt3mapISs14OmDocumentTermSt4lessISsESaISt4pairIKSsS0_EEE4findERS4_"                  ; magicseg='TEXT32' len=70  weak
  "__ZNSt3mapISs14OmDocumentTermSt4lessISsESaISt4pairIKSsS0_EEE5beginEv"                    ; magicseg='TEXT32' len=68  weak
  "__ZNSt3mapISs14OmDocumentTermSt4lessISsESaISt4pairIKSsS0_EEE5clearEv"                    ; magicseg='TEXT32' len=68  weak
  "__ZNSt3mapISs14OmDocumentTermSt4lessISsESaISt4pairIKSsS0_EEE5eraseESt17_Rb_tree_iteratorIS5_RS5_PS5_E"                 ; magicseg='TEXT32' len=101  weak
  "__ZNSt3mapISs14OmDocumentTermSt4lessISsESaISt4pairIKSsS0_EEE6insertERKS5_"               ; magicseg='TEXT32' len=73  weak
  "__ZNSt3mapISs14OmDocumentTermSt4lessISsESaISt4pairIKSsS0_EEEC1Ev"    ; magicseg='TEXT32' len=64  weak
  "__ZNSt3mapISs14OmDocumentTermSt4lessISsESaISt4pairIKSsS0_EEED1Ev"    ; magicseg='TEXT32' len=64  weak
  "__ZNSt3mapISsjSt4lessISsESaISt4pairIKSsjEEE11lower_boundERS3_"       ; magicseg='TEXT32' len=61  weak
  "__ZNSt3mapISsjSt4lessISsESaISt4pairIKSsjEEE3endEv"                   ; magicseg='TEXT32' len=49  weak
  "__ZNSt3mapISsjSt4lessISsESaISt4pairIKSsjEEE4findERS3_"               ; magicseg='TEXT32' len=53  weak
  "__ZNSt3mapISsjSt4lessISsESaISt4pairIKSsjEEE4swapERS6_"               ; magicseg='TEXT32' len=53  weak
  "__ZNSt3mapISsjSt4lessISsESaISt4pairIKSsjEEE5beginEv"                 ; magicseg='TEXT32' len=51  weak
  "__ZNSt3mapISsjSt4lessISsESaISt4pairIKSsjEEE5clearEv"                 ; magicseg='TEXT32' len=51  weak
  "__ZNSt3mapISsjSt4lessISsESaISt4pairIKSsjEEE6insertESt17_Rb_tree_iteratorIS4_RS4_PS4_ERKS4_"                            ; magicseg='TEXT32' len=90  weak
  "__ZNSt3mapISsjSt4lessISsESaISt4pairIKSsjEEEC1ERKS6_"                 ; magicseg='TEXT32' len=51  weak
  "__ZNSt3mapISsjSt4lessISsESaISt4pairIKSsjEEEC1Ev"                     ; magicseg='TEXT32' len=47  weak
  "__ZNSt3mapISsjSt4lessISsESaISt4pairIKSsjEEED1Ev"                     ; magicseg='TEXT32' len=47  weak
  "__ZNSt3mapISsjSt4lessISsESaISt4pairIKSsjEEEixERS3_"                  ; magicseg='TEXT32' len=50  weak
  "__ZNSt3mapISsN6Xapian4MSet8Internal17TermFreqAndWeightESt4lessISsESaISt4pairIKSsS3_EEE3endEv"                          ; magicseg='TEXT32' len=92  weak
  "__ZNSt3mapISsN6Xapian4MSet8Internal17TermFreqAndWeightESt4lessISsESaISt4pairIKSsS3_EEE4findERS7_"                      ; magicseg='TEXT32' len=96  weak
  "__ZNSt3mapISsN6Xapian4MSet8Internal17TermFreqAndWeightESt4lessISsESaISt4pairIKSsS3_EEE5beginEv"                        ; magicseg='TEXT32' len=94  weak
  "__ZNSt3mapISsN6Xapian4MSet8Internal17TermFreqAndWeightESt4lessISsESaISt4pairIKSsS3_EEE6insertERKS8_"                   ; magicseg='TEXT32' len=99  weak
  "__ZNSt3mapISsN6Xapian4MSet8Internal17TermFreqAndWeightESt4lessISsESaISt4pairIKSsS3_EEEaSERKSA_"                        ; magicseg='TEXT32' len=94  weak
  "__ZNSt3mapISsN6Xapian4MSet8Internal17TermFreqAndWeightESt4lessISsESaISt4pairIKSsS3_EEEC1ERKSA_"                        ; magicseg='TEXT32' len=94  weak
  "__ZNSt3mapISsN6Xapian4MSet8Internal17TermFreqAndWeightESt4lessISsESaISt4pairIKSsS3_EEEC1Ev"                            ; magicseg='TEXT32' len=90  weak
  "__ZNSt3mapISsN6Xapian4MSet8Internal17TermFreqAndWeightESt4lessISsESaISt4pairIKSsS3_EEED1Ev"                            ; magicseg='TEXT32' len=90  weak
  "__ZNSt3mapISsPKN6Xapian12MatchDeciderESt4lessISsESaISt4pairIKSsS3_EEE11lower_boundERS7_"                               ; magicseg='TEXT32' len=87  weak
  "__ZNSt3mapISsPKN6Xapian12MatchDeciderESt4lessISsESaISt4pairIKSsS3_EEE3endEv"             ; magicseg='TEXT32' len=75  weak
  "__ZNSt3mapISsPKN6Xapian12MatchDeciderESt4lessISsESaISt4pairIKSsS3_EEE5eraseERS7_"        ; magicseg='TEXT32' len=80  weak
  "__ZNSt3mapISsPKN6Xapian12MatchDeciderESt4lessISsESaISt4pairIKSsS3_EEE6insertESt17_Rb_tree_iteratorIS8_RS8_PS8_ERKS8_"                                       ; magicseg='TEXT32' len=116  weak
  "__ZNSt3mapISsPKN6Xapian12MatchDeciderESt4lessISsESaISt4pairIKSsS3_EEEC1Ev"               ; magicseg='TEXT32' len=73  weak
  "__ZNSt3mapISsPKN6Xapian12MatchDeciderESt4lessISsESaISt4pairIKSsS3_EEED1Ev"               ; magicseg='TEXT32' len=73  weak
  "__ZNSt3mapISsPKN6Xapian12MatchDeciderESt4lessISsESaISt4pairIKSsS3_EEEixERS7_"            ; magicseg='TEXT32' len=76  weak
  "__ZNSt3mapISsS_IjSt4pairIcjESt4lessIjESaIS0_IKjS1_EEES2_ISsESaIS0_IKSsS7_EEE3endEv"      ; magicseg='TEXT32' len=82  weak
  "__ZNSt3mapISsS_IjSt4pairIcjESt4lessIjESaIS0_IKjS1_EEES2_ISsESaIS0_IKSsS7_EEE4findERS9_"                                ; magicseg='TEXT32' len=86  weak
  "__ZNSt3mapISsS_IjSt4pairIcjESt4lessIjESaIS0_IKjS1_EEES2_ISsESaIS0_IKSsS7_EEE5clearEv"    ; magicseg='TEXT32' len=84  weak
  "__ZNSt3mapISsS_IjSt4pairIcjESt4lessIjESaIS0_IKjS1_EEES2_ISsESaIS0_IKSsS7_EEE6insertERKSA_"                             ; magicseg='TEXT32' len=89  weak
  "__ZNSt3mapISsS_IjSt4pairIcjESt4lessIjESaIS0_IKjS1_EEES2_ISsESaIS0_IKSsS7_EEEC1Ev"        ; magicseg='TEXT32' len=80  weak
  "__ZNSt3mapISsS_IjSt4pairIcjESt4lessIjESaIS0_IKjS1_EEES2_ISsESaIS0_IKSsS7_EEED1Ev"        ; magicseg='TEXT32' len=80  weak
  "__ZNSt3mapISsSt4pairIiiESt4lessISsESaIS0_IKSsS1_EEE3endEv"           ; magicseg='TEXT32' len=57  weak
  "__ZNSt3mapISsSt4pairIiiESt4lessISsESaIS0_IKSsS1_EEE4findERS4_"       ; magicseg='TEXT32' len=61  weak
  "__ZNSt3mapISsSt4pairIiiESt4lessISsESaIS0_IKSsS1_EEE5clearEv"         ; magicseg='TEXT32' len=59  weak
  "__ZNSt3mapISsSt4pairIiiESt4lessISsESaIS0_IKSsS1_EEE6insertERKS5_"    ; magicseg='TEXT32' len=64  weak
  "__ZNSt3mapISsSt4pairIiiESt4lessISsESaIS0_IKSsS1_EEEC1Ev"             ; magicseg='TEXT32' len=55  weak
  "__ZNSt3mapISsSt4pairIiiESt4lessISsESaIS0_IKSsS1_EEED1Ev"             ; magicseg='TEXT32' len=55  weak
  "__ZNSt3mapISsSt4pairIN6Xapian8Internal8MSetItemEdESt4lessISsESaIS0_IKSsS4_EEE3endEv"     ; magicseg='TEXT32' len=83  weak
  "__ZNSt3mapISsSt4pairIN6Xapian8Internal8MSetItemEdESt4lessISsESaIS0_IKSsS4_EEE4findERS7_"                               ; magicseg='TEXT32' len=87  weak
  "__ZNSt3mapISsSt4pairIN6Xapian8Internal8MSetItemEdESt4lessISsESaIS0_IKSsS4_EEE5eraseESt17_Rb_tree_iteratorIS8_RS8_PS8_E"                                     ; magicseg='TEXT32' len=118  weak
  "__ZNSt3mapISsSt4pairIN6Xapian8Internal8MSetItemEdESt4lessISsESaIS0_IKSsS4_EEE6insertERKS8_"                            ; magicseg='TEXT32' len=90  weak
  "__ZNSt3mapISsSt4pairIN6Xapian8Internal8MSetItemEdESt4lessISsESaIS0_IKSsS4_EEEC1Ev"       ; magicseg='TEXT32' len=81  weak
  "__ZNSt3mapISsSt4pairIN6Xapian8Internal8MSetItemEdESt4lessISsESaIS0_IKSsS4_EEED1Ev"       ; magicseg='TEXT32' len=81  weak
  "__ZNSt3setIjSt4lessIjESaIjEE4findERKj"                               ; magicseg='TEXT32' len=37  weak
  "__ZNSt3setIjSt4lessIjESaIjEE5clearEv"                                ; magicseg='TEXT32' len=36  weak
  "__ZNSt3setIjSt4lessIjESaIjEE5eraseESt17_Rb_tree_iteratorIjRKjPS5_E"                      ; magicseg='TEXT32' len=66  weak
  "__ZNSt3setIjSt4lessIjESaIjEE6insertERKj"                             ; magicseg='TEXT32' len=39  weak
  "__ZNSt3setIjSt4lessIjESaIjEEC1ERKS3_"                                ; magicseg='TEXT32' len=36  weak
  "__ZNSt3setIjSt4lessIjESaIjEEC1Ev"                                    ; magicseg='TEXT32' len=32  weak
  "__ZNSt3setIjSt4lessIjESaIjEED1Ev"                                    ; magicseg='TEXT32' len=32  weak
  "__ZNSt3setIPN6Xapian5Query8InternalE11SortPosNameSaIS3_EE4findERKS3_"                    ; magicseg='TEXT32' len=68  weak
  "__ZNSt3setIPN6Xapian5Query8InternalE11SortPosNameSaIS3_EE6insertERKS3_"                  ; magicseg='TEXT32' len=70  weak
  "__ZNSt3setIPN6Xapian5Query8InternalE11SortPosNameSaIS3_EEC1Ev"       ; magicseg='TEXT32' len=61  weak
  "__ZNSt3setIPN6Xapian5Query8InternalE11SortPosNameSaIS3_EED1Ev"       ; magicseg='TEXT32' len=61  weak
  "__ZNSt3setIPN6Xapian6Weight8InternalESt4lessIS3_ESaIS3_EE5eraseERKS3_"                   ; magicseg='TEXT32' len=69  weak
  "__ZNSt3setIPN6Xapian6Weight8InternalESt4lessIS3_ESaIS3_EE6insertERKS3_"                  ; magicseg='TEXT32' len=70  weak
  "__ZNSt3setIPN6Xapian6Weight8InternalESt4lessIS3_ESaIS3_EEC1Ev"       ; magicseg='TEXT32' len=61  weak
  "__ZNSt3setIPN6Xapian6Weight8InternalESt4lessIS3_ESaIS3_EED1Ev"       ; magicseg='TEXT32' len=61  weak
  "__ZNSt3setISsSt4lessISsESaISsEE5clearEv"                             ; magicseg='TEXT32' len=39  weak
  "__ZNSt3setISsSt4lessISsESaISsEE5eraseERKSs"                          ; magicseg='TEXT32' len=42  weak
  "__ZNSt3setISsSt4lessISsESaISsEE6insertERKSs"                         ; magicseg='TEXT32' len=43  weak
  "__ZNSt3setISsSt4lessISsESaISsEEC1ERKS3_"                             ; magicseg='TEXT32' len=39  weak
  "__ZNSt3setISsSt4lessISsESaISsEEC1Ev"                                 ; magicseg='TEXT32' len=35  weak
  "__ZNSt3setISsSt4lessISsESaISsEEC1IN6Xapian12TermIteratorEEET_S7_"    ; magicseg='TEXT32' len=64  weak
  "__ZNSt3setISsSt4lessISsESaISsEED1Ev"                                 ; magicseg='TEXT32' len=35  weak
  "__ZNSt4listIN6Xapian5QueryESaIS1_EE14_M_create_nodeERKS1_"           ; magicseg='TEXT32' len=57  weak
  "__ZNSt4listIN6Xapian5QueryESaIS1_EE3endEv"                           ; magicseg='TEXT32' len=41  weak
  "__ZNSt4listIN6Xapian5QueryESaIS1_EE6insertESt14_List_iteratorIS1_RS1_PS1_ERKS1_"         ; magicseg='TEXT32' len=79  weak
  "__ZNSt4listIN6Xapian5QueryESaIS1_EE9push_backERKS1_"                 ; magicseg='TEXT32' len=51  weak
  "__ZNSt4listIN6Xapian5QueryESaIS1_EEC1ERKS2_"                         ; magicseg='TEXT32' len=43  weak
  "__ZNSt4listIN6Xapian5QueryESaIS1_EED1Ev"                             ; magicseg='TEXT32' len=39  weak
  "__ZNSt4listIP4TermSaIS1_EE14_M_create_nodeERKS1_"                    ; magicseg='TEXT32' len=48  weak
  "__ZNSt4listIP4TermSaIS1_EE3endEv"                                    ; magicseg='TEXT32' len=32  weak
  "__ZNSt4listIP4TermSaIS1_EE5beginEv"                                  ; magicseg='TEXT32' len=34  weak
  "__ZNSt4listIP4TermSaIS1_EE6insertESt14_List_iteratorIS1_RS1_PS1_ERKS1_"                  ; magicseg='TEXT32' len=70  weak
  "__ZNSt4listIP4TermSaIS1_EE9push_backERKS1_"                          ; magicseg='TEXT32' len=42  weak
  "__ZNSt4listIP4TermSaIS1_EEC1ERKS2_"                                  ; magicseg='TEXT32' len=34  weak
  "__ZNSt4listIP4TermSaIS1_EED1Ev"                                      ; magicseg='TEXT32' len=30  weak
  "__ZNSt4listIPN6Xapian19ValueRangeProcessorESaIS2_EE14_M_create_nodeERKS2_"               ; magicseg='TEXT32' len=73  weak
  "__ZNSt4listIPN6Xapian19ValueRangeProcessorESaIS2_EE3endEv"           ; magicseg='TEXT32' len=57  weak
  "__ZNSt4listIPN6Xapian19ValueRangeProcessorESaIS2_EE5beginEv"         ; magicseg='TEXT32' len=59  weak
  "__ZNSt4listIPN6Xapian19ValueRangeProcessorESaIS2_EE6insertESt14_List_iteratorIS2_RS2_PS2_ERKS2_"                       ; magicseg='TEXT32' len=95  weak
  "__ZNSt4listIPN6Xapian19ValueRangeProcessorESaIS2_EE9push_backERKS2_"                     ; magicseg='TEXT32' len=67  weak
  "__ZNSt4listIPN6Xapian19ValueRangeProcessorESaIS2_EEC1ERKS3_"         ; magicseg='TEXT32' len=59  weak
  "__ZNSt4listIPN6Xapian19ValueRangeProcessorESaIS2_EED1Ev"             ; magicseg='TEXT32' len=55  weak
  "__ZNSt4listISsSaISsEE14_M_create_nodeERKSs"                          ; magicseg='TEXT32' len=42  weak
  "__ZNSt4listISsSaISsEE3endEv"                                         ; magicseg='TEXT32' len=27  weak
  "__ZNSt4listISsSaISsEE4backEv"                                        ; magicseg='TEXT32' len=28  weak
  "__ZNSt4listISsSaISsEE5beginEv"                                       ; magicseg='TEXT32' len=29  weak
  "__ZNSt4listISsSaISsEE5clearEv"                                       ; magicseg='TEXT32' len=29  weak
  "__ZNSt4listISsSaISsEE5eraseESt14_List_iteratorISsRSsPSsE"            ; magicseg='TEXT32' len=56  weak
  "__ZNSt4listISsSaISsEE6insertESt14_List_iteratorISsRSsPSsERKSs"       ; magicseg='TEXT32' len=61  weak
  "__ZNSt4listISsSaISsEE8pop_backEv"                                    ; magicseg='TEXT32' len=32  weak
  "__ZNSt4listISsSaISsEE9push_backERKSs"                                ; magicseg='TEXT32' len=36  weak
  "__ZNSt4listISsSaISsEEC1ERKS0_"                                       ; magicseg='TEXT32' len=29  weak
  "__ZNSt4listISsSaISsEED1Ev"                                           ; magicseg='TEXT32' len=25  weak
  "__ZNSt4listISt4pairISsjESaIS1_EE14_M_create_nodeERKS1_"              ; magicseg='TEXT32' len=54  weak
  "__ZNSt4listISt4pairISsjESaIS1_EE3endEv"                              ; magicseg='TEXT32' len=38  weak
  "__ZNSt4listISt4pairISsjESaIS1_EE5beginEv"                            ; magicseg='TEXT32' len=40  weak
  "__ZNSt4listISt4pairISsjESaIS1_EE6insertESt14_List_iteratorIS1_RS1_PS1_ERKS1_"            ; magicseg='TEXT32' len=76  weak
  "__ZNSt4listISt4pairISsjESaIS1_EE9push_backERKS1_"                    ; magicseg='TEXT32' len=48  weak
  "__ZNSt4listISt4pairISsjESaIS1_EEC1ERKS2_"                            ; magicseg='TEXT32' len=40  weak
  "__ZNSt4listISt4pairISsjESaIS1_EED1Ev"                                ; magicseg='TEXT32' len=36  weak
  "__ZNSt4pairI8fragmentSt3setISsSt4lessISsESaISsEEEC1ERKS0_RKS5_"      ; magicseg='TEXT32' len=62  weak
  "__ZNSt4pairI8fragmentSt3setISsSt4lessISsESaISsEEED1Ev"               ; magicseg='TEXT32' len=53  weak
  "__ZNSt4pairIcjEC1ERKcRKj"                                            ; magicseg='TEXT32' len=24  weak
  "__ZNSt4pairIiiEC1ERKiS2_"                                            ; magicseg='TEXT32' len=24  weak
  "__ZNSt4pairIjS_IcjEEC1ERKjRKS0_"                                     ; magicseg='TEXT32' len=31  weak
  "__ZNSt4pairIjSsEC1ERKjRKSs"                                          ; magicseg='TEXT32' len=26  weak
  "__ZNSt4pairIjSsED1Ev"                                                ; magicseg='TEXT32' len=20  weak
  "__ZNSt4pairIK15filter_group_idN6Xapian5QueryEEC1ERKS4_"              ; magicseg='TEXT32' len=54  weak
  "__ZNSt4pairIK15filter_group_idN6Xapian5QueryEEC1ERS1_RKS3_"          ; magicseg='TEXT32' len=58  weak
  "__ZNSt4pairIK15filter_group_idN6Xapian5QueryEED1Ev"                  ; magicseg='TEXT32' len=50  weak
  "__ZNSt4pairIK8fragmentSt3setISsSt4lessISsESaISsEEEC1ERKS7_"          ; magicseg='TEXT32' len=58  weak
  "__ZNSt4pairIK8fragmentSt3setISsSt4lessISsESaISsEEEC1IS0_S6_EERKS_IT_T0_E"                ; magicseg='TEXT32' len=72  weak
  "__ZNSt4pairIK8fragmentSt3setISsSt4lessISsESaISsEEED1Ev"              ; magicseg='TEXT32' len=54  weak
  "__ZNSt4pairIKdjEC1ERS0_RKj"                                          ; magicseg='TEXT32' len=26  weak
  "__ZNSt4pairIKjjEC1ERS0_S2_"                                          ; magicseg='TEXT32' len=26  weak
  "__ZNSt4pairIKjN6Xapian8DocumentEEC1ERKS3_"                           ; magicseg='TEXT32' len=41  weak
  "__ZNSt4pairIKjN6Xapian8DocumentEEC1ERS0_RKS2_"                       ; magicseg='TEXT32' len=45  weak
  "__ZNSt4pairIKjN6Xapian8DocumentEED1Ev"                               ; magicseg='TEXT32' len=37  weak
  "__ZNSt4pairIKjS_IcjEEC1IjS1_EERKS_IT_T0_E"                           ; magicseg='TEXT32' len=41  weak
  "__ZNSt4pairIKjSsEC1ERKS1_"                                           ; magicseg='TEXT32' len=25  weak
  "__ZNSt4pairIKjSsEC1ERS0_RKSs"                                        ; magicseg='TEXT32' len=28  weak
  "__ZNSt4pairIKjSsEC1IjSsEERKS_IT_T0_E"                                ; magicseg='TEXT32' len=36  weak
  "__ZNSt4pairIKjSsED1Ev"                                               ; magicseg='TEXT32' len=21  weak
  "__ZNSt4pairIKjSt3mapISsjSt4lessISsESaIS_IKSsjEEEEC1ERKS8_"           ; magicseg='TEXT32' len=57  weak
  "__ZNSt4pairIKjSt3mapISsjSt4lessISsESaIS_IKSsjEEEEC1ERS0_RKS7_"       ; magicseg='TEXT32' len=61  weak
  "__ZNSt4pairIKjSt3mapISsjSt4lessISsESaIS_IKSsjEEEED1Ev"               ; magicseg='TEXT32' len=53  weak
  "__ZNSt4pairIKSs10PrefixInfoEC1ERKS2_"                                ; magicseg='TEXT32' len=36  weak
  "__ZNSt4pairIKSs10PrefixInfoEC1ISsS1_EERKS_IT_T0_E"                   ; magicseg='TEXT32' len=49  weak
  "__ZNSt4pairIKSs10PrefixInfoED1Ev"                                    ; magicseg='TEXT32' len=32  weak
  "__ZNSt4pairIKSs12InMemoryTermEC1ERKS2_"                              ; magicseg='TEXT32' len=38  weak
  "__ZNSt4pairIKSs12InMemoryTermEC1ERS0_RKS1_"                          ; magicseg='TEXT32' len=42  weak
  "__ZNSt4pairIKSs12InMemoryTermED1Ev"                                  ; magicseg='TEXT32' len=34  weak
  "__ZNSt4pairIKSs14OmDocumentTermEC1ERKS2_"                            ; magicseg='TEXT32' len=40  weak
  "__ZNSt4pairIKSs14OmDocumentTermEC1ISsS1_EERKS_IT_T0_E"               ; magicseg='TEXT32' len=53  weak
  "__ZNSt4pairIKSs14OmDocumentTermED1Ev"                                ; magicseg='TEXT32' len=36  weak
  "__ZNSt4pairIKSsjEC1ERKS1_"                                           ; magicseg='TEXT32' len=25  weak
  "__ZNSt4pairIKSsjEC1ERS0_RKj"                                         ; magicseg='TEXT32' len=27  weak
  "__ZNSt4pairIKSsjED1Ev"                                               ; magicseg='TEXT32' len=21  weak
  "__ZNSt4pairIKSsN6Xapian4MSet8Internal17TermFreqAndWeightEEC1ERKS5_"                      ; magicseg='TEXT32' len=66  weak
  "__ZNSt4pairIKSsN6Xapian4MSet8Internal17TermFreqAndWeightEEC1ISsS4_EERKS_IT_T0_E"         ; magicseg='TEXT32' len=79  weak
  "__ZNSt4pairIKSsN6Xapian4MSet8Internal17TermFreqAndWeightEED1Ev"      ; magicseg='TEXT32' len=62  weak
  "__ZNSt4pairIKSsPKN6Xapian12MatchDeciderEEC1ERKS5_"                   ; magicseg='TEXT32' len=49  weak
  "__ZNSt4pairIKSsPKN6Xapian12MatchDeciderEEC1ERS0_RKS4_"               ; magicseg='TEXT32' len=53  weak
  "__ZNSt4pairIKSsPKN6Xapian12MatchDeciderEED1Ev"                       ; magicseg='TEXT32' len=45  weak
  "__ZNSt4pairIKSsS_IiiEEC1ERKS2_"                                      ; magicseg='TEXT32' len=30  weak
  "__ZNSt4pairIKSsS_IiiEEC1ISsS1_EERKS_IT_T0_E"                         ; magicseg='TEXT32' len=43  weak
  "__ZNSt4pairIKSsS_IiiEED1Ev"                                          ; magicseg='TEXT32' len=26  weak
  "__ZNSt4pairIKSsS_IN6Xapian8Internal8MSetItemEdEEC1ERKS5_"            ; magicseg='TEXT32' len=56  weak
  "__ZNSt4pairIKSsS_IN6Xapian8Internal8MSetItemEdEEC1ISsS4_EERKS_IT_T0_E"                   ; magicseg='TEXT32' len=69  weak
  "__ZNSt4pairIKSsS_IN6Xapian8Internal8MSetItemEdEED1Ev"                ; magicseg='TEXT32' len=52  weak
  "__ZNSt4pairIKSsSsEC1ERKS1_"                                          ; magicseg='TEXT32' len=26  weak
  "__ZNSt4pairIKSsSsEC1ISsSsEERKS_IT_T0_E"                              ; magicseg='TEXT32' len=38  weak
  "__ZNSt4pairIKSsSsED1Ev"                                              ; magicseg='TEXT32' len=22  weak
  "__ZNSt4pairIKSsSt3mapIjS_IcjESt4lessIjESaIS_IKjS2_EEEEC1ERKS9_"      ; magicseg='TEXT32' len=62  weak
  "__ZNSt4pairIKSsSt3mapIjS_IcjESt4lessIjESaIS_IKjS2_EEEEC1ISsS8_EERKS_IT_T0_E"             ; magicseg='TEXT32' len=75  weak
  "__ZNSt4pairIKSsSt3mapIjS_IcjESt4lessIjESaIS_IKjS2_EEEED1Ev"          ; magicseg='TEXT32' len=58  weak
  "__ZNSt4pairIN6Xapian8Internal8MSetItemEdEaSERKS3_"                   ; magicseg='TEXT32' len=49  weak
  "__ZNSt4pairIN6Xapian8Internal8MSetItemEdEC1ERKS2_RKd"                ; magicseg='TEXT32' len=52  weak
  "__ZNSt4pairIN6Xapian8Internal8MSetItemEdEC1ERKS3_"                   ; magicseg='TEXT32' len=49  weak
  "__ZNSt4pairIN6Xapian8Internal8MSetItemEdED1Ev"                       ; magicseg='TEXT32' len=45  weak
  "__ZNSt4pairISs10PrefixInfoEC1ERKSsRKS0_"                             ; magicseg='TEXT32' len=39  weak
  "__ZNSt4pairISs10PrefixInfoED1Ev"                                     ; magicseg='TEXT32' len=31  weak
  "__ZNSt4pairISs14OmDocumentTermEC1ERKSsRKS0_"                         ; magicseg='TEXT32' len=43  weak
  "__ZNSt4pairISs14OmDocumentTermED1Ev"                                 ; magicseg='TEXT32' len=35  weak
  "__ZNSt4pairISsjEaSERKS0_"                                            ; magicseg='TEXT32' len=24  weak
  "__ZNSt4pairISsjEC1ERKS0_"                                            ; magicseg='TEXT32' len=24  weak
  "__ZNSt4pairISsjEC1ERKSsRKj"                                          ; magicseg='TEXT32' len=26  weak
  "__ZNSt4pairISsjED1Ev"                                                ; magicseg='TEXT32' len=20  weak
  "__ZNSt4pairISsN6Xapian4MSet8Internal17TermFreqAndWeightEEC1ERKSsRKS3_"                   ; magicseg='TEXT32' len=69  weak
  "__ZNSt4pairISsN6Xapian4MSet8Internal17TermFreqAndWeightEED1Ev"       ; magicseg='TEXT32' len=61  weak
  "__ZNSt4pairISsS_IiiEEC1ERKSsRKS0_"                                   ; magicseg='TEXT32' len=33  weak
  "__ZNSt4pairISsS_IiiEED1Ev"                                           ; magicseg='TEXT32' len=25  weak
  "__ZNSt4pairISsS_IN6Xapian8Internal8MSetItemEdEEC1ERKSsRKS3_"         ; magicseg='TEXT32' len=59  weak
  "__ZNSt4pairISsS_IN6Xapian8Internal8MSetItemEdEED1Ev"                 ; magicseg='TEXT32' len=51  weak
  "__ZNSt4pairISsSsEC1ERKSsS2_"                                         ; magicseg='TEXT32' len=27  weak
  "__ZNSt4pairISsSsED1Ev"                                               ; magicseg='TEXT32' len=21  weak
  "__ZNSt4pairISsSt3mapIjS_IcjESt4lessIjESaIS_IKjS1_EEEEC1ERKSsRKS7_"                       ; magicseg='TEXT32' len=65  weak
  "__ZNSt4pairISsSt3mapIjS_IcjESt4lessIjESaIS_IKjS1_EEEED1Ev"           ; magicseg='TEXT32' len=57  weak
  "__ZNSt4pairISt17_Rb_tree_iteratorIjRjPjEbEC1ERKS3_RKb"               ; magicseg='TEXT32' len=53  weak
  "__ZNSt4pairISt17_Rb_tree_iteratorIjRKjPS1_EbEC1ERKS4_RKb"            ; magicseg='TEXT32' len=56  weak
  "__ZNSt4pairISt17_Rb_tree_iteratorIPN6Xapian5Query8InternalERKS4_PS5_EbEC1ERKS8_RKb"      ; magicseg='TEXT32' len=82  weak
  "__ZNSt4pairISt17_Rb_tree_iteratorIPN6Xapian5Query8InternalERS4_PS4_EbEC1ERKS7_RKb"       ; magicseg='TEXT32' len=81  weak
  "__ZNSt4pairISt17_Rb_tree_iteratorIPN6Xapian6Weight8InternalERKS4_PS5_EbEC1ERKS8_RKb"     ; magicseg='TEXT32' len=83  weak
  "__ZNSt4pairISt17_Rb_tree_iteratorIPN6Xapian6Weight8InternalERS4_PS4_EbEC1ERKS7_RKb"      ; magicseg='TEXT32' len=82  weak
  "__ZNSt4pairISt17_Rb_tree_iteratorIPN6Xapian6Weight8InternalERS4_PS4_ES7_EC1ERKS7_SA_"    ; magicseg='TEXT32' len=84  weak
  "__ZNSt4pairISt17_Rb_tree_iteratorIS_IK15filter_group_idN6Xapian5QueryEERS5_PS5_EbEC1ERKS8_RKb"                         ; magicseg='TEXT32' len=93  weak
  "__ZNSt4pairISt17_Rb_tree_iteratorIS_IK8fragmentSt3setISsSt4lessISsESaISsEEERS8_PS8_EbEC1ERKSB_RKb"                     ; magicseg='TEXT32' len=97  weak
  "__ZNSt4pairISt17_Rb_tree_iteratorIS_IKdjERS2_PS2_EbEC1ERKS5_RKb"     ; magicseg='TEXT32' len=63  weak
  "__ZNSt4pairISt17_Rb_tree_iteratorIS_IKjjERS2_PS2_EbEC1ERKS5_RKb"     ; magicseg='TEXT32' len=63  weak
  "__ZNSt4pairISt17_Rb_tree_iteratorIS_IKjjERS2_PS2_ES5_EC1ERKS5_S8_"                       ; magicseg='TEXT32' len=65  weak
  "__ZNSt4pairISt17_Rb_tree_iteratorIS_IKjN6Xapian8DocumentEERS4_PS4_EbEC1ERKS7_RKb"        ; magicseg='TEXT32' len=80  weak
  "__ZNSt4pairISt17_Rb_tree_iteratorIS_IKjS_IcjEERS3_PS3_EbEC1ERKS6_RKb"                    ; magicseg='TEXT32' len=68  weak
  "__ZNSt4pairISt17_Rb_tree_iteratorIS_IKjSsERS2_PS2_EbEC1ERKS5_RKb"    ; magicseg='TEXT32' len=64  weak
  "__ZNSt4pairISt17_Rb_tree_iteratorIS_IKjSt3mapISsjSt4lessISsESaIS_IKSsjEEEERS9_PS9_EbEC1ERKSC_RKb"                      ; magicseg='TEXT32' len=96  weak
  "__ZNSt4pairISt17_Rb_tree_iteratorIS_IKSs10PrefixInfoERS3_PS3_EbEC1ERKS6_RKb"             ; magicseg='TEXT32' len=75  weak
  "__ZNSt4pairISt17_Rb_tree_iteratorIS_IKSs12InMemoryTermERS3_PS3_EbEC1ERKS6_RKb"           ; magicseg='TEXT32' len=77  weak
  "__ZNSt4pairISt17_Rb_tree_iteratorIS_IKSs14OmDocumentTermERS3_PS3_EbEC1ERKS6_RKb"         ; magicseg='TEXT32' len=79  weak
  "__ZNSt4pairISt17_Rb_tree_iteratorIS_IKSsjERS2_PS2_EbEC1ERKS5_RKb"    ; magicseg='TEXT32' len=64  weak
  "__ZNSt4pairISt17_Rb_tree_iteratorIS_IKSsN6Xapian4MSet8Internal17TermFreqAndWeightEERS6_PS6_EbEC1ERKS9_RKb"             ; magicseg='TEXT32' len=105  weak
  "__ZNSt4pairISt17_Rb_tree_iteratorIS_IKSsPKN6Xapian12MatchDeciderEERS6_PS6_EbEC1ERKS9_RKb"                              ; magicseg='TEXT32' len=88  weak
  "__ZNSt4pairISt17_Rb_tree_iteratorIS_IKSsPKN6Xapian12MatchDeciderEERS6_PS6_ES9_EC1ERKS9_SC_"                            ; magicseg='TEXT32' len=90  weak
  "__ZNSt4pairISt17_Rb_tree_iteratorIS_IKSsS_IiiEERS3_PS3_EbEC1ERKS6_RKb"                   ; magicseg='TEXT32' len=69  weak
  "__ZNSt4pairISt17_Rb_tree_iteratorIS_IKSsS_IN6Xapian8Internal8MSetItemEdEERS6_PS6_EbEC1ERKS9_RKb"                       ; magicseg='TEXT32' len=95  weak
  "__ZNSt4pairISt17_Rb_tree_iteratorIS_IKSsSsERS2_PS2_ES5_EC1ERKS5_S8_"                     ; magicseg='TEXT32' len=67  weak
  "__ZNSt4pairISt17_Rb_tree_iteratorIS_IKSsSsERS2_PS2_ES5_EC1Ev"        ; magicseg='TEXT32' len=60  weak
  "__ZNSt4pairISt17_Rb_tree_iteratorIS_IKSsSt3mapIjS_IcjESt4lessIjESaIS_IKjS3_EEEERSA_PSA_EbEC1ERKSD_RKb"                 ; magicseg='TEXT32' len=101  weak
  "__ZNSt4pairISt17_Rb_tree_iteratorISsRKSsPS1_EbEC1ERKS4_RKb"          ; magicseg='TEXT32' len=58  weak
  "__ZNSt4pairISt17_Rb_tree_iteratorISsRSsPSsEbEC1ERKS3_RKb"            ; magicseg='TEXT32' len=56  weak
  "__ZNSt4pairISt17_Rb_tree_iteratorISsRSsPSsES3_EC1ERKS3_S6_"          ; magicseg='TEXT32' len=58  weak
  "__ZNSt6vectorI11InMemoryDocSaIS0_EE13_M_insert_auxEN9__gnu_cxx17__normal_iteratorIPS0_S2_EERKS0_"                      ; magicseg='TEXT32' len=96  weak
  "__ZNSt6vectorI11InMemoryDocSaIS0_EE14_M_fill_insertEN9__gnu_cxx17__normal_iteratorIPS0_S2_EEjRKS0_"                    ; magicseg='TEXT32' len=98  weak
  "__ZNSt6vectorI11InMemoryDocSaIS0_EE3endEv"                           ; magicseg='TEXT32' len=41  weak
  "__ZNSt6vectorI11InMemoryDocSaIS0_EE5beginEv"                         ; magicseg='TEXT32' len=43  weak
  "__ZNSt6vectorI11InMemoryDocSaIS0_EE5eraseEN9__gnu_cxx17__normal_iteratorIPS0_S2_EES6_"                                 ; magicseg='TEXT32' len=85  weak
  "__ZNSt6vectorI11InMemoryDocSaIS0_EE6insertEN9__gnu_cxx17__normal_iteratorIPS0_S2_EEjRKS0_"                             ; magicseg='TEXT32' len=89  weak
  "__ZNSt6vectorI11InMemoryDocSaIS0_EE6resizeEj"                        ; magicseg='TEXT32' len=44  weak
  "__ZNSt6vectorI11InMemoryDocSaIS0_EE6resizeEjRKS0_"                   ; magicseg='TEXT32' len=49  weak
  "__ZNSt6vectorI11InMemoryDocSaIS0_EE9push_backERKS0_"                 ; magicseg='TEXT32' len=51  weak
  "__ZNSt6vectorI11InMemoryDocSaIS0_EEC1ERKS1_"                         ; magicseg='TEXT32' len=43  weak
  "__ZNSt6vectorI11InMemoryDocSaIS0_EED1Ev"                             ; magicseg='TEXT32' len=39  weak
  "__ZNSt6vectorI11InMemoryDocSaIS0_EEixEj"                             ; magicseg='TEXT32' len=39  weak
  "__ZNSt6vectorI15InMemoryPostingSaIS0_EE13_M_insert_auxEN9__gnu_cxx17__normal_iteratorIPS0_S2_EERKS0_"                  ; magicseg='TEXT32' len=100  weak
  "__ZNSt6vectorI15InMemoryPostingSaIS0_EE3endEv"                       ; magicseg='TEXT32' len=45  weak
  "__ZNSt6vectorI15InMemoryPostingSaIS0_EE5beginEv"                     ; magicseg='TEXT32' len=47  weak
  "__ZNSt6vectorI15InMemoryPostingSaIS0_EE6insertEN9__gnu_cxx17__normal_iteratorIPS0_S2_EERKS0_"                          ; magicseg='TEXT32' len=92  weak
  "__ZNSt6vectorI15InMemoryPostingSaIS0_EEC1ERKS1_"                     ; magicseg='TEXT32' len=47  weak
  "__ZNSt6vectorI15InMemoryPostingSaIS0_EEC1ERKS2_"                     ; magicseg='TEXT32' len=47  weak
  "__ZNSt6vectorI15InMemoryPostingSaIS0_EED1Ev"                         ; magicseg='TEXT32' len=43  weak
  "__ZNSt6vectorI17InMemoryTermEntrySaIS0_EE13_M_insert_auxEN9__gnu_cxx17__normal_iteratorIPS0_S2_EERKS0_"                ; magicseg='TEXT32' len=102  weak
  "__ZNSt6vectorI17InMemoryTermEntrySaIS0_EE20_M_allocate_and_copyIN9__gnu_cxx17__normal_iteratorIPKS0_S2_EEEEPS0_jT_SA_"                                      ; magicseg='TEXT32' len=117  weak
  "__ZNSt6vectorI17InMemoryTermEntrySaIS0_EE3endEv"                     ; magicseg='TEXT32' len=47  weak
  "__ZNSt6vectorI17InMemoryTermEntrySaIS0_EE5beginEv"                   ; magicseg='TEXT32' len=49  weak
  "__ZNSt6vectorI17InMemoryTermEntrySaIS0_EE5clearEv"                   ; magicseg='TEXT32' len=49  weak
  "__ZNSt6vectorI17InMemoryTermEntrySaIS0_EE5eraseEN9__gnu_cxx17__normal_iteratorIPS0_S2_EES6_"                           ; magicseg='TEXT32' len=91  weak
  "__ZNSt6vectorI17InMemoryTermEntrySaIS0_EE6insertEN9__gnu_cxx17__normal_iteratorIPS0_S2_EERKS0_"                        ; magicseg='TEXT32' len=94  weak
  "__ZNSt6vectorI17InMemoryTermEntrySaIS0_EEaSERKS2_"                   ; magicseg='TEXT32' len=49  weak
  "__ZNSt6vectorI17InMemoryTermEntrySaIS0_EEC1ERKS1_"                   ; magicseg='TEXT32' len=49  weak
  "__ZNSt6vectorI17InMemoryTermEntrySaIS0_EEC1ERKS2_"                   ; magicseg='TEXT32' len=49  weak
  "__ZNSt6vectorI17InMemoryTermEntrySaIS0_EED1Ev"                       ; magicseg='TEXT32' len=45  weak
  "__ZNSt6vectorIbSaIbEE13_M_initializeEj"                              ; magicseg='TEXT32' len=38  weak
  "__ZNSt6vectorIbSaIbEE14_M_fill_insertESt13_Bit_iteratorjb"           ; magicseg='TEXT32' len=57  weak
  "__ZNSt6vectorIbSaIbEE3endEv"                                         ; magicseg='TEXT32' len=27  weak
  "__ZNSt6vectorIbSaIbEE5beginEv"                                       ; magicseg='TEXT32' len=29  weak
  "__ZNSt6vectorIbSaIbEE5eraseESt13_Bit_iteratorS2_"                    ; magicseg='TEXT32' len=48  weak
  "__ZNSt6vectorIbSaIbEE6insertESt13_Bit_iteratorjb"                    ; magicseg='TEXT32' len=48  weak
  "__ZNSt6vectorIbSaIbEE6resizeEjb"                                     ; magicseg='TEXT32' len=31  weak
  "__ZNSt6vectorIbSaIbEEC1Ej"                                           ; magicseg='TEXT32' len=25  weak
  "__ZNSt6vectorIbSaIbEEC1ERKS0_"                                       ; magicseg='TEXT32' len=29  weak
  "__ZNSt6vectorIbSaIbEED1Ev"                                           ; magicseg='TEXT32' len=25  weak
  "__ZNSt6vectorIbSaIbEEixEj"                                           ; magicseg='TEXT32' len=25  weak
  "__ZNSt6vectorIdSaIdEE13_M_insert_auxEN9__gnu_cxx17__normal_iteratorIPdS1_EERKd"          ; magicseg='TEXT32' len=78  weak
  "__ZNSt6vectorIdSaIdEE14_M_fill_insertEN9__gnu_cxx17__normal_iteratorIPdS1_EEjRKd"        ; magicseg='TEXT32' len=80  weak
  "__ZNSt6vectorIdSaIdEE3endEv"                                         ; magicseg='TEXT32' len=27  weak
  "__ZNSt6vectorIdSaIdEE5beginEv"                                       ; magicseg='TEXT32' len=29  weak
  "__ZNSt6vectorIdSaIdEE5eraseEN9__gnu_cxx17__normal_iteratorIPdS1_EES5_"                   ; magicseg='TEXT32' len=69  weak
  "__ZNSt6vectorIdSaIdEE6insertEN9__gnu_cxx17__normal_iteratorIPdS1_EEjRKd"                 ; magicseg='TEXT32' len=71  weak
  "__ZNSt6vectorIdSaIdEE6resizeEj"                                      ; magicseg='TEXT32' len=30  weak
  "__ZNSt6vectorIdSaIdEE6resizeEjRKd"                                   ; magicseg='TEXT32' len=33  weak
  "__ZNSt6vectorIdSaIdEE9push_backERKd"                                 ; magicseg='TEXT32' len=35  weak
  "__ZNSt6vectorIdSaIdEEC1ERKS0_"                                       ; magicseg='TEXT32' len=29  weak
  "__ZNSt6vectorIdSaIdEED1Ev"                                           ; magicseg='TEXT32' len=25  weak
  "__ZNSt6vectorIdSaIdEEixEj"                                           ; magicseg='TEXT32' len=25  weak
  "__ZNSt6vectorIjSaIjEE13_M_assign_auxIN6Xapian12Utf8IteratorEEEvT_S5_St18input_iterator_tag"                            ; magicseg='TEXT32' len=90  weak
  "__ZNSt6vectorIjSaIjEE13_M_insert_auxEN9__gnu_cxx17__normal_iteratorIPjS1_EERKj"          ; magicseg='TEXT32' len=78  weak
  "__ZNSt6vectorIjSaIjEE14_M_fill_insertEN9__gnu_cxx17__normal_iteratorIPjS1_EEjRKj"        ; magicseg='TEXT32' len=80  weak
  "__ZNSt6vectorIjSaIjEE15_M_range_insertIN6Xapian12Utf8IteratorEEEvN9__gnu_cxx17__normal_iteratorIPjS1_EET_S9_St18input_iterator_tag"                         ; magicseg='TEXT32' len=130  weak
  "__ZNSt6vectorIjSaIjEE15_M_range_insertIN9__gnu_cxx17__normal_iteratorIPKjS1_EEEEvNS4_IPjS1_EET_SA_St20forward_iterator_tag"                                 ; magicseg='TEXT32' len=122  weak
  "__ZNSt6vectorIjSaIjEE18_M_assign_dispatchIN6Xapian12Utf8IteratorEEEvT_S5_12__false_type"                               ; magicseg='TEXT32' len=87  weak
  "__ZNSt6vectorIjSaIjEE18_M_insert_dispatchIN6Xapian12Utf8IteratorEEEvN9__gnu_cxx17__normal_iteratorIPjS1_EET_S9_12__false_type"                              ; magicseg='TEXT32' len=125  weak
  "__ZNSt6vectorIjSaIjEE18_M_insert_dispatchIN9__gnu_cxx17__normal_iteratorIPKjS1_EEEEvNS4_IPjS1_EET_SA_12__false_type"                                        ; magicseg='TEXT32' len=115  weak
  "__ZNSt6vectorIjSaIjEE19_M_range_initializeIN6Xapian16PositionIteratorEEEvT_S5_St18input_iterator_tag"                  ; magicseg='TEXT32' len=100  weak
  "__ZNSt6vectorIjSaIjEE20_M_allocate_and_copyIN9__gnu_cxx17__normal_iteratorIPKjS1_EEEEPjjT_S9_"                         ; magicseg='TEXT32' len=93  weak
  "__ZNSt6vectorIjSaIjEE20_M_allocate_and_copyIPjEES3_jT_S4_"           ; magicseg='TEXT32' len=57  weak
  "__ZNSt6vectorIjSaIjEE22_M_initialize_dispatchIN6Xapian16PositionIteratorEEEvT_S5_12__false_type"                       ; magicseg='TEXT32' len=95  weak
  "__ZNSt6vectorIjSaIjEE3endEv"                                         ; magicseg='TEXT32' len=27  weak
  "__ZNSt6vectorIjSaIjEE4backEv"                                        ; magicseg='TEXT32' len=28  weak
  "__ZNSt6vectorIjSaIjEE5beginEv"                                       ; magicseg='TEXT32' len=29  weak
  "__ZNSt6vectorIjSaIjEE5clearEv"                                       ; magicseg='TEXT32' len=29  weak
  "__ZNSt6vectorIjSaIjEE5eraseEN9__gnu_cxx17__normal_iteratorIPjS1_EE"                      ; magicseg='TEXT32' len=66  weak
  "__ZNSt6vectorIjSaIjEE5eraseEN9__gnu_cxx17__normal_iteratorIPjS1_EES5_"                   ; magicseg='TEXT32' len=69  weak
  "__ZNSt6vectorIjSaIjEE6assignIN6Xapian12Utf8IteratorEEEvT_S5_"        ; magicseg='TEXT32' len=60  weak
  "__ZNSt6vectorIjSaIjEE6insertEN9__gnu_cxx17__normal_iteratorIPjS1_EEjRKj"                 ; magicseg='TEXT32' len=71  weak
  "__ZNSt6vectorIjSaIjEE6insertEN9__gnu_cxx17__normal_iteratorIPjS1_EERKj"                  ; magicseg='TEXT32' len=70  weak
  "__ZNSt6vectorIjSaIjEE6insertIN6Xapian12Utf8IteratorEEEvN9__gnu_cxx17__normal_iteratorIPjS1_EET_S9_"                    ; magicseg='TEXT32' len=98  weak
  "__ZNSt6vectorIjSaIjEE6insertIN9__gnu_cxx17__normal_iteratorIPKjS1_EEEEvNS4_IPjS1_EET_SA_"                              ; magicseg='TEXT32' len=88  weak
  "__ZNSt6vectorIjSaIjEE6resizeEj"                                      ; magicseg='TEXT32' len=30  weak
  "__ZNSt6vectorIjSaIjEE6resizeEjRKj"                                   ; magicseg='TEXT32' len=33  weak
  "__ZNSt6vectorIjSaIjEE7reserveEj"                                     ; magicseg='TEXT32' len=31  weak
  "__ZNSt6vectorIjSaIjEE9push_backERKj"                                 ; magicseg='TEXT32' len=35  weak
  "__ZNSt6vectorIjSaIjEEaSERKS1_"                                       ; magicseg='TEXT32' len=29  weak
  "__ZNSt6vectorIjSaIjEEC1ERKS0_"                                       ; magicseg='TEXT32' len=29  weak
  "__ZNSt6vectorIjSaIjEEC1ERKS1_"                                       ; magicseg='TEXT32' len=29  weak
  "__ZNSt6vectorIjSaIjEEC1IN6Xapian16PositionIteratorEEET_S5_RKS0_"     ; magicseg='TEXT32' len=63  weak
  "__ZNSt6vectorIjSaIjEED1Ev"                                           ; magicseg='TEXT32' len=25  weak
  "__ZNSt6vectorIjSaIjEEixEj"                                           ; magicseg='TEXT32' len=25  weak
  "__ZNSt6vectorIN6Xapian4RSetESaIS1_EE13_M_insert_auxEN9__gnu_cxx17__normal_iteratorIPS1_S3_EERKS1_"                     ; magicseg='TEXT32' len=97  weak
  "__ZNSt6vectorIN6Xapian4RSetESaIS1_EE20_M_allocate_and_copyIPS1_EES5_jT_S6_"              ; magicseg='TEXT32' len=74  weak
  "__ZNSt6vectorIN6Xapian4RSetESaIS1_EE3endEv"                          ; magicseg='TEXT32' len=42  weak
  "__ZNSt6vectorIN6Xapian4RSetESaIS1_EE5beginEv"                        ; magicseg='TEXT32' len=44  weak
  "__ZNSt6vectorIN6Xapian4RSetESaIS1_EE7reserveEj"                      ; magicseg='TEXT32' len=46  weak
  "__ZNSt6vectorIN6Xapian4RSetESaIS1_EE9push_backERKS1_"                ; magicseg='TEXT32' len=52  weak
  "__ZNSt6vectorIN6Xapian4RSetESaIS1_EEC1ERKS2_"                        ; magicseg='TEXT32' len=44  weak
  "__ZNSt6vectorIN6Xapian4RSetESaIS1_EED1Ev"                            ; magicseg='TEXT32' len=40  weak
  "__ZNSt6vectorIN6Xapian4RSetESaIS1_EEixEj"                            ; magicseg='TEXT32' len=40  weak
  "__ZNSt6vectorIN6Xapian8Internal8ESetItemESaIS2_EE13_M_insert_auxEN9__gnu_cxx17__normal_iteratorIPS2_S4_EERKS2_"        ; magicseg='TEXT32' len=110  weak
  "__ZNSt6vectorIN6Xapian8Internal8ESetItemESaIS2_EE3endEv"             ; magicseg='TEXT32' len=55  weak
  "__ZNSt6vectorIN6Xapian8Internal8ESetItemESaIS2_EE4backEv"            ; magicseg='TEXT32' len=56  weak
  "__ZNSt6vectorIN6Xapian8Internal8ESetItemESaIS2_EE5beginEv"           ; magicseg='TEXT32' len=57  weak
  "__ZNSt6vectorIN6Xapian8Internal8ESetItemESaIS2_EE5clearEv"           ; magicseg='TEXT32' len=57  weak
  "__ZNSt6vectorIN6Xapian8Internal8ESetItemESaIS2_EE5eraseEN9__gnu_cxx17__normal_iteratorIPS2_S4_EES8_"                   ; magicseg='TEXT32' len=99  weak
  "__ZNSt6vectorIN6Xapian8Internal8ESetItemESaIS2_EE9push_backERKS2_"                       ; magicseg='TEXT32' len=65  weak
  "__ZNSt6vectorIN6Xapian8Internal8ESetItemESaIS2_EEC1ERKS3_"           ; magicseg='TEXT32' len=57  weak
  "__ZNSt6vectorIN6Xapian8Internal8ESetItemESaIS2_EED1Ev"               ; magicseg='TEXT32' len=53  weak
  "__ZNSt6vectorIN6Xapian8Internal8ESetItemESaIS2_EEixEj"               ; magicseg='TEXT32' len=53  weak
  "__ZNSt6vectorIN6Xapian8Internal8MSetItemESaIS2_EE13_M_insert_auxEN9__gnu_cxx17__normal_iteratorIPS2_S4_EERKS2_"        ; magicseg='TEXT32' len=110  weak
  "__ZNSt6vectorIN6Xapian8Internal8MSetItemESaIS2_EE20_M_allocate_and_copyIPS2_EES6_jT_S7_"                               ; magicseg='TEXT32' len=87  weak
  "__ZNSt6vectorIN6Xapian8Internal8MSetItemESaIS2_EE3endEv"             ; magicseg='TEXT32' len=55  weak
  "__ZNSt6vectorIN6Xapian8Internal8MSetItemESaIS2_EE5beginEv"           ; magicseg='TEXT32' len=57  weak
  "__ZNSt6vectorIN6Xapian8Internal8MSetItemESaIS2_EE5clearEv"           ; magicseg='TEXT32' len=57  weak
  "__ZNSt6vectorIN6Xapian8Internal8MSetItemESaIS2_EE5eraseEN9__gnu_cxx17__normal_iteratorIPS2_S4_EES8_"                   ; magicseg='TEXT32' len=99  weak
  "__ZNSt6vectorIN6Xapian8Internal8MSetItemESaIS2_EE5frontEv"           ; magicseg='TEXT32' len=57  weak
  "__ZNSt6vectorIN6Xapian8Internal8MSetItemESaIS2_EE7reserveEj"         ; magicseg='TEXT32' len=59  weak
  "__ZNSt6vectorIN6Xapian8Internal8MSetItemESaIS2_EE8pop_backEv"        ; magicseg='TEXT32' len=60  weak
  "__ZNSt6vectorIN6Xapian8Internal8MSetItemESaIS2_EE9push_backERKS2_"                       ; magicseg='TEXT32' len=65  weak
  "__ZNSt6vectorIN6Xapian8Internal8MSetItemESaIS2_EEC1ERKS3_"           ; magicseg='TEXT32' len=57  weak
  "__ZNSt6vectorIN6Xapian8Internal8MSetItemESaIS2_EEC1ERKS4_"           ; magicseg='TEXT32' len=57  weak
  "__ZNSt6vectorIN6Xapian8Internal8MSetItemESaIS2_EED1Ev"               ; magicseg='TEXT32' len=53  weak
  "__ZNSt6vectorIN6Xapian8Internal8MSetItemESaIS2_EEixEj"               ; magicseg='TEXT32' len=53  weak
  "__ZNSt6vectorIN6Xapian8Internal9RefCntPtrI8SubMatchEESaIS4_EE13_M_insert_auxEN9__gnu_cxx17__normal_iteratorIPS4_S6_EERKS4_"                                 ; magicseg='TEXT32' len=122  weak
  "__ZNSt6vectorIN6Xapian8Internal9RefCntPtrI8SubMatchEESaIS4_EE3endEv"                     ; magicseg='TEXT32' len=67  weak
  "__ZNSt6vectorIN6Xapian8Internal9RefCntPtrI8SubMatchEESaIS4_EE5beginEv"                   ; magicseg='TEXT32' len=69  weak
  "__ZNSt6vectorIN6Xapian8Internal9RefCntPtrI8SubMatchEESaIS4_EE9push_backERKS4_"           ; magicseg='TEXT32' len=77  weak
  "__ZNSt6vectorIN6Xapian8Internal9RefCntPtrI8SubMatchEESaIS4_EEC1ERKS5_"                   ; magicseg='TEXT32' len=69  weak
  "__ZNSt6vectorIN6Xapian8Internal9RefCntPtrI8SubMatchEESaIS4_EED1Ev"                       ; magicseg='TEXT32' len=65  weak
  "__ZNSt6vectorIN6Xapian8Internal9RefCntPtrI8SubMatchEESaIS4_EEixEj"                       ; magicseg='TEXT32' len=65  weak
  "__ZNSt6vectorIN6Xapian8Internal9RefCntPtrINS0_8Database8InternalEEESaIS5_EE13_M_insert_auxEN9__gnu_cxx17__normal_iteratorIPS5_S7_EERKS5_"                   ; magicseg='TEXT32' len=136  weak
  "__ZNSt6vectorIN6Xapian8Internal9RefCntPtrINS0_8Database8InternalEEESaIS5_EE20_M_allocate_and_copyIN9__gnu_cxx17__normal_iteratorIPKS5_S7_EEEEPS5_jT_SF_"    ; magicseg='TEXT32' len=151  weak
  "__ZNSt6vectorIN6Xapian8Internal9RefCntPtrINS0_8Database8InternalEEESaIS5_EE3endEv"       ; magicseg='TEXT32' len=81  weak
  "__ZNSt6vectorIN6Xapian8Internal9RefCntPtrINS0_8Database8InternalEEESaIS5_EE5beginEv"     ; magicseg='TEXT32' len=83  weak
  "__ZNSt6vectorIN6Xapian8Internal9RefCntPtrINS0_8Database8InternalEEESaIS5_EE9push_backERKS5_"                           ; magicseg='TEXT32' len=91  weak
  "__ZNSt6vectorIN6Xapian8Internal9RefCntPtrINS0_8Database8InternalEEESaIS5_EEaSERKS7_"     ; magicseg='TEXT32' len=83  weak
  "__ZNSt6vectorIN6Xapian8Internal9RefCntPtrINS0_8Database8InternalEEESaIS5_EEC1ERKS6_"     ; magicseg='TEXT32' len=83  weak
  "__ZNSt6vectorIN6Xapian8Internal9RefCntPtrINS0_8Database8InternalEEESaIS5_EED1Ev"         ; magicseg='TEXT32' len=79  weak
  "__ZNSt6vectorIN6Xapian8Internal9RefCntPtrINS0_8Database8InternalEEESaIS5_EEixEj"         ; magicseg='TEXT32' len=79  weak
  "__ZNSt6vectorIN6Xapian9bucketvalESaIS1_EE14_M_fill_insertEN9__gnu_cxx17__normal_iteratorIPS1_S3_EEjRKS1_"              ; magicseg='TEXT32' len=104  weak
  "__ZNSt6vectorIN6Xapian9bucketvalESaIS1_EE3endEv"                     ; magicseg='TEXT32' len=47  weak
  "__ZNSt6vectorIN6Xapian9bucketvalESaIS1_EE5beginEv"                   ; magicseg='TEXT32' len=49  weak
  "__ZNSt6vectorIN6Xapian9bucketvalESaIS1_EE5eraseEN9__gnu_cxx17__normal_iteratorIPS1_S3_EES7_"                           ; magicseg='TEXT32' len=91  weak
  "__ZNSt6vectorIN6Xapian9bucketvalESaIS1_EE6insertEN9__gnu_cxx17__normal_iteratorIPS1_S3_EEjRKS1_"                       ; magicseg='TEXT32' len=95  weak
  "__ZNSt6vectorIN6Xapian9bucketvalESaIS1_EE6resizeEj"                  ; magicseg='TEXT32' len=50  weak
  "__ZNSt6vectorIN6Xapian9bucketvalESaIS1_EE6resizeEjRKS1_"             ; magicseg='TEXT32' len=55  weak
  "__ZNSt6vectorIN6Xapian9bucketvalESaIS1_EEC1Ej"                       ; magicseg='TEXT32' len=45  weak
  "__ZNSt6vectorIN6Xapian9bucketvalESaIS1_EED1Ev"                       ; magicseg='TEXT32' len=45  weak
  "__ZNSt6vectorIN6Xapian9bucketvalESaIS1_EEixEj"                       ; magicseg='TEXT32' len=45  weak
  "__ZNSt6vectorIP12LeafPostListSaIS1_EE13_M_insert_auxEN9__gnu_cxx17__normal_iteratorIPS1_S3_EERKS1_"                    ; magicseg='TEXT32' len=98  weak
  "__ZNSt6vectorIP12LeafPostListSaIS1_EE3endEv"                         ; magicseg='TEXT32' len=43  weak
  "__ZNSt6vectorIP12LeafPostListSaIS1_EE4backEv"                        ; magicseg='TEXT32' len=44  weak
  "__ZNSt6vectorIP12LeafPostListSaIS1_EE5beginEv"                       ; magicseg='TEXT32' len=45  weak
  "__ZNSt6vectorIP12LeafPostListSaIS1_EE5clearEv"                       ; magicseg='TEXT32' len=45  weak
  "__ZNSt6vectorIP12LeafPostListSaIS1_EE5eraseEN9__gnu_cxx17__normal_iteratorIPS1_S3_EES7_"                               ; magicseg='TEXT32' len=87  weak
  "__ZNSt6vectorIP12LeafPostListSaIS1_EE9push_backERKS1_"               ; magicseg='TEXT32' len=53  weak
  "__ZNSt6vectorIP12LeafPostListSaIS1_EEC1ERKS2_"                       ; magicseg='TEXT32' len=45  weak
  "__ZNSt6vectorIP12LeafPostListSaIS1_EEC1ERKS3_"                       ; magicseg='TEXT32' len=45  weak
  "__ZNSt6vectorIP12LeafPostListSaIS1_EED1Ev"                           ; magicseg='TEXT32' len=41  weak
  "__ZNSt6vectorIP12LeafPostListSaIS1_EEixEj"                           ; magicseg='TEXT32' len=41  weak
  "__ZNSt6vectorIPN6Xapian12TermIterator8InternalESaIS3_EE13_M_insert_auxEN9__gnu_cxx17__normal_iteratorIPS3_S5_EERKS3_"                                       ; magicseg='TEXT32' len=116  weak
  "__ZNSt6vectorIPN6Xapian12TermIterator8InternalESaIS3_EE3endEv"       ; magicseg='TEXT32' len=61  weak
  "__ZNSt6vectorIPN6Xapian12TermIterator8InternalESaIS3_EE5beginEv"     ; magicseg='TEXT32' len=63  weak
  "__ZNSt6vectorIPN6Xapian12TermIterator8InternalESaIS3_EE5clearEv"     ; magicseg='TEXT32' len=63  weak
  "__ZNSt6vectorIPN6Xapian12TermIterator8InternalESaIS3_EE5eraseEN9__gnu_cxx17__normal_iteratorIPS3_S5_EES9_"             ; magicseg='TEXT32' len=105  weak
  "__ZNSt6vectorIPN6Xapian12TermIterator8InternalESaIS3_EE8pop_backEv"                      ; magicseg='TEXT32' len=66  weak
  "__ZNSt6vectorIPN6Xapian12TermIterator8InternalESaIS3_EE9push_backERKS3_"                 ; magicseg='TEXT32' len=71  weak
  "__ZNSt6vectorIPN6Xapian12TermIterator8InternalESaIS3_EEC1ERKS4_"     ; magicseg='TEXT32' len=63  weak
  "__ZNSt6vectorIPN6Xapian12TermIterator8InternalESaIS3_EEC1ERKS5_"     ; magicseg='TEXT32' len=63  weak
  "__ZNSt6vectorIPN6Xapian12TermIterator8InternalESaIS3_EED1Ev"         ; magicseg='TEXT32' len=59  weak
  "__ZNSt6vectorIPN6Xapian15PostingIterator8InternalESaIS3_EE13_M_insert_auxEN9__gnu_cxx17__normal_iteratorIPS3_S5_EERKS3_"                                    ; magicseg='TEXT32' len=119  weak
  "__ZNSt6vectorIPN6Xapian15PostingIterator8InternalESaIS3_EE20_M_allocate_and_copyIN9__gnu_cxx17__normal_iteratorIPKS3_S5_EEEEPS3_jT_SD_"                     ; magicseg='TEXT32' len=134  weak
  "__ZNSt6vectorIPN6Xapian15PostingIterator8InternalESaIS3_EE20_M_allocate_and_copyIPS3_EES7_jT_S8_"                      ; magicseg='TEXT32' len=96  weak
  "__ZNSt6vectorIPN6Xapian15PostingIterator8InternalESaIS3_EE3endEv"    ; magicseg='TEXT32' len=64  weak
  "__ZNSt6vectorIPN6Xapian15PostingIterator8InternalESaIS3_EE5beginEv"                      ; magicseg='TEXT32' len=66  weak
  "__ZNSt6vectorIPN6Xapian15PostingIterator8InternalESaIS3_EE5clearEv"                      ; magicseg='TEXT32' len=66  weak
  "__ZNSt6vectorIPN6Xapian15PostingIterator8InternalESaIS3_EE5eraseEN9__gnu_cxx17__normal_iteratorIPS3_S5_EES9_"          ; magicseg='TEXT32' len=108  weak
  "__ZNSt6vectorIPN6Xapian15PostingIterator8InternalESaIS3_EE5frontEv"                      ; magicseg='TEXT32' len=66  weak
  "__ZNSt6vectorIPN6Xapian15PostingIterator8InternalESaIS3_EE7reserveEj"                    ; magicseg='TEXT32' len=68  weak
  "__ZNSt6vectorIPN6Xapian15PostingIterator8InternalESaIS3_EE8pop_backEv"                   ; magicseg='TEXT32' len=69  weak
  "__ZNSt6vectorIPN6Xapian15PostingIterator8InternalESaIS3_EE9push_backERKS3_"              ; magicseg='TEXT32' len=74  weak
  "__ZNSt6vectorIPN6Xapian15PostingIterator8InternalESaIS3_EEaSERKS5_"                      ; magicseg='TEXT32' len=66  weak
  "__ZNSt6vectorIPN6Xapian15PostingIterator8InternalESaIS3_EEC1ERKS4_"                      ; magicseg='TEXT32' len=66  weak
  "__ZNSt6vectorIPN6Xapian15PostingIterator8InternalESaIS3_EEC1ERKS5_"                      ; magicseg='TEXT32' len=66  weak
  "__ZNSt6vectorIPN6Xapian15PostingIterator8InternalESaIS3_EED1Ev"      ; magicseg='TEXT32' len=62  weak
  "__ZNSt6vectorIPN6Xapian15PostingIterator8InternalESaIS3_EEixEj"      ; magicseg='TEXT32' len=62  weak
  "__ZNSt6vectorIPN6Xapian16PositionIterator8InternalESaIS3_EE13_M_insert_auxEN9__gnu_cxx17__normal_iteratorIPS3_S5_EERKS3_"                                   ; magicseg='TEXT32' len=120  weak
  "__ZNSt6vectorIPN6Xapian16PositionIterator8InternalESaIS3_EE3endEv"                       ; magicseg='TEXT32' len=65  weak
  "__ZNSt6vectorIPN6Xapian16PositionIterator8InternalESaIS3_EE5beginEv"                     ; magicseg='TEXT32' len=67  weak
  "__ZNSt6vectorIPN6Xapian16PositionIterator8InternalESaIS3_EE9push_backERKS3_"             ; magicseg='TEXT32' len=75  weak
  "__ZNSt6vectorIPN6Xapian16PositionIterator8InternalESaIS3_EEC1ERKS4_"                     ; magicseg='TEXT32' len=67  weak
  "__ZNSt6vectorIPN6Xapian16PositionIterator8InternalESaIS3_EED1Ev"     ; magicseg='TEXT32' len=63  weak
  "__ZNSt6vectorIPN6Xapian16PositionIterator8InternalESaIS3_EEixEj"     ; magicseg='TEXT32' len=63  weak
  "__ZNSt6vectorIPN6Xapian5Query8InternalESaIS3_EE13_M_insert_auxEN9__gnu_cxx17__normal_iteratorIPS3_S5_EERKS3_"          ; magicseg='TEXT32' len=108  weak
  "__ZNSt6vectorIPN6Xapian5Query8InternalESaIS3_EE3endEv"               ; magicseg='TEXT32' len=53  weak
  "__ZNSt6vectorIPN6Xapian5Query8InternalESaIS3_EE4swapERS5_"           ; magicseg='TEXT32' len=57  weak
  "__ZNSt6vectorIPN6Xapian5Query8InternalESaIS3_EE5beginEv"             ; magicseg='TEXT32' len=55  weak
  "__ZNSt6vectorIPN6Xapian5Query8InternalESaIS3_EE5clearEv"             ; magicseg='TEXT32' len=55  weak
  "__ZNSt6vectorIPN6Xapian5Query8InternalESaIS3_EE5eraseEN9__gnu_cxx17__normal_iteratorIPS3_S5_EE"                        ; magicseg='TEXT32' len=94  weak
  "__ZNSt6vectorIPN6Xapian5Query8InternalESaIS3_EE5eraseEN9__gnu_cxx17__normal_iteratorIPS3_S5_EES9_"                     ; magicseg='TEXT32' len=97  weak
  "__ZNSt6vectorIPN6Xapian5Query8InternalESaIS3_EE9push_backERKS3_"     ; magicseg='TEXT32' len=63  weak
  "__ZNSt6vectorIPN6Xapian5Query8InternalESaIS3_EEC1ERKS4_"             ; magicseg='TEXT32' len=55  weak
  "__ZNSt6vectorIPN6Xapian5Query8InternalESaIS3_EED1Ev"                 ; magicseg='TEXT32' len=51  weak
  "__ZNSt6vectorIPN6Xapian5Query8InternalESaIS3_EEixEj"                 ; magicseg='TEXT32' len=51  weak
  "__ZNSt6vectorISsSaISsEE13_M_insert_auxEN9__gnu_cxx17__normal_iteratorIPSsS1_EERKSs"      ; magicseg='TEXT32' len=82  weak
  "__ZNSt6vectorISsSaISsEE14_M_fill_insertEN9__gnu_cxx17__normal_iteratorIPSsS1_EEjRKSs"    ; magicseg='TEXT32' len=84  weak
  "__ZNSt6vectorISsSaISsEE19_M_range_initializeIN9__gnu_cxx17__normal_iteratorIPKSsS1_EEEEvT_S8_St20forward_iterator_tag"                                      ; magicseg='TEXT32' len=117  weak
  "__ZNSt6vectorISsSaISsEE19_M_range_initializeISt14_List_iteratorISsRKSsPS4_EEEvT_S8_St20forward_iterator_tag"           ; magicseg='TEXT32' len=107  weak
  "__ZNSt6vectorISsSaISsEE20_M_allocate_and_copyIPSsEES3_jT_S4_"        ; magicseg='TEXT32' len=60  weak
  "__ZNSt6vectorISsSaISsEE22_M_initialize_dispatchIN9__gnu_cxx17__normal_iteratorIPKSsS1_EEEEvT_S8_12__false_type"        ; magicseg='TEXT32' len=110  weak
  "__ZNSt6vectorISsSaISsEE22_M_initialize_dispatchISt14_List_iteratorISsRKSsPS4_EEEvT_S8_12__false_type"                  ; magicseg='TEXT32' len=100  weak
  "__ZNSt6vectorISsSaISsEE3endEv"                                       ; magicseg='TEXT32' len=29  weak
  "__ZNSt6vectorISsSaISsEE5beginEv"                                     ; magicseg='TEXT32' len=31  weak
  "__ZNSt6vectorISsSaISsEE5eraseEN9__gnu_cxx17__normal_iteratorIPSsS1_EES5_"                ; magicseg='TEXT32' len=72  weak
  "__ZNSt6vectorISsSaISsEE6insertEN9__gnu_cxx17__normal_iteratorIPSsS1_EEjRKSs"             ; magicseg='TEXT32' len=75  weak
  "__ZNSt6vectorISsSaISsEE6resizeEj"                                    ; magicseg='TEXT32' len=32  weak
  "__ZNSt6vectorISsSaISsEE6resizeEjRKSs"                                ; magicseg='TEXT32' len=36  weak
  "__ZNSt6vectorISsSaISsEE7reserveEj"                                   ; magicseg='TEXT32' len=33  weak
  "__ZNSt6vectorISsSaISsEE9push_backERKSs"                              ; magicseg='TEXT32' len=38  weak
  "__ZNSt6vectorISsSaISsEEC1ERKS0_"                                     ; magicseg='TEXT32' len=31  weak
  "__ZNSt6vectorISsSaISsEEC1IN9__gnu_cxx17__normal_iteratorIPKSsS1_EEEET_S8_RKS0_"          ; magicseg='TEXT32' len=78  weak
  "__ZNSt6vectorISsSaISsEEC1ISt14_List_iteratorISsRKSsPS4_EEET_S8_RKS0_"                    ; magicseg='TEXT32' len=68  weak
  "__ZNSt6vectorISsSaISsEED1Ev"                                         ; magicseg='TEXT32' len=27  weak
  "__ZNSt6vectorISsSaISsEEixEj"                                         ; magicseg='TEXT32' len=27  weak
  "__ZNSt6vectorISt3mapIjSsSt4lessIjESaISt4pairIKjSsEEESaIS7_EE13_M_insert_auxEN9__gnu_cxx17__normal_iteratorIPS7_S9_EERKS7_"                                  ; magicseg='TEXT32' len=121  weak
  "__ZNSt6vectorISt3mapIjSsSt4lessIjESaISt4pairIKjSsEEESaIS7_EE14_M_fill_insertEN9__gnu_cxx17__normal_iteratorIPS7_S9_EEjRKS7_"                                ; magicseg='TEXT32' len=123  weak
  "__ZNSt6vectorISt3mapIjSsSt4lessIjESaISt4pairIKjSsEEESaIS7_EE3endEv"                      ; magicseg='TEXT32' len=66  weak
  "__ZNSt6vectorISt3mapIjSsSt4lessIjESaISt4pairIKjSsEEESaIS7_EE5beginEv"                    ; magicseg='TEXT32' len=68  weak
  "__ZNSt6vectorISt3mapIjSsSt4lessIjESaISt4pairIKjSsEEESaIS7_EE5eraseEN9__gnu_cxx17__normal_iteratorIPS7_S9_EESD_"        ; magicseg='TEXT32' len=110  weak
  "__ZNSt6vectorISt3mapIjSsSt4lessIjESaISt4pairIKjSsEEESaIS7_EE6insertEN9__gnu_cxx17__normal_iteratorIPS7_S9_EEjRKS7_"    ; magicseg='TEXT32' len=114  weak
  "__ZNSt6vectorISt3mapIjSsSt4lessIjESaISt4pairIKjSsEEESaIS7_EE6resizeEj"                   ; magicseg='TEXT32' len=69  weak
  "__ZNSt6vectorISt3mapIjSsSt4lessIjESaISt4pairIKjSsEEESaIS7_EE6resizeEjRKS7_"              ; magicseg='TEXT32' len=74  weak
  "__ZNSt6vectorISt3mapIjSsSt4lessIjESaISt4pairIKjSsEEESaIS7_EE9push_backERKS7_"            ; magicseg='TEXT32' len=76  weak
  "__ZNSt6vectorISt3mapIjSsSt4lessIjESaISt4pairIKjSsEEESaIS7_EEC1ERKS8_"                    ; magicseg='TEXT32' len=68  weak
  "__ZNSt6vectorISt3mapIjSsSt4lessIjESaISt4pairIKjSsEEESaIS7_EED1Ev"    ; magicseg='TEXT32' len=64  weak
  "__ZNSt6vectorISt3mapIjSsSt4lessIjESaISt4pairIKjSsEEESaIS7_EEixEj"    ; magicseg='TEXT32' len=64  weak
  "__ZNSt6vectorISt4pairISsjESaIS1_EE13_M_insert_auxEN9__gnu_cxx17__normal_iteratorIPS1_S3_EERKS1_"                       ; magicseg='TEXT32' len=95  weak
  "__ZNSt6vectorISt4pairISsjESaIS1_EE3endEv"                            ; magicseg='TEXT32' len=40  weak
  "__ZNSt6vectorISt4pairISsjESaIS1_EE5beginEv"                          ; magicseg='TEXT32' len=42  weak
