** EXPERIMENTAL (HLL) ** Open Watcom Linker Version 1.6beta1 Limited Availability
Portions Copyright (c) 1985-2002 Sybase, Inc. All Rights Reserved.
Created on:       07/11/17 08:37:45
Executable Image: examples/simpleindex.exe
creating an OS/2 EMX executable


                        +------------+
                        |   Groups   |
                        +------------+

Group                           Address              Size
=====                           =======              ====

CGROUP                          0001:00000000        000b0e70
DGROUP                          0002:00000000        000159f0



                        +--------------+
                        |   Segments   |
                        +--------------+

Segment                Class          Group          Address         Size
=======                =====          =====          =======         ====

TEXT32                 CODE           CGROUP         0001:00000000   000b0e70
________TEXT           CODE           CGROUP         0001:000b0e70   00000000
DATA32                 DATA           DGROUP         0002:00000000   00015400
SET1__os2dll           DATA           DGROUP         0002:00015400   00000004
SET2__os2dll           DATA           DGROUP         0002:00015404   00000000
SET3__os2dll           DATA           DGROUP         0002:00015404   00000004
SET1___CTOR_LIST__     DATA           DGROUP         0002:00015408   00000004
SET2___CTOR_LIST__     DATA           DGROUP         0002:0001540c   0000000c
SET3___CTOR_LIST__     DATA           DGROUP         0002:00015418   00000004
SET1___DTOR_LIST__     DATA           DGROUP         0002:0001541c   00000004
SET2___DTOR_LIST__     DATA           DGROUP         0002:00015420   00000008
SET3___DTOR_LIST__     DATA           DGROUP         0002:00015428   00000004
SET1___crtinit1__      DATA           DGROUP         0002:0001542c   00000004
SET2___crtinit1__      DATA           DGROUP         0002:00015430   00000000
SET3___crtinit1__      DATA           DGROUP         0002:00015430   00000004
SET1___crtexit1__      DATA           DGROUP         0002:00015434   00000004
SET2___crtexit1__      DATA           DGROUP         0002:00015438   00000000
SET3___crtexit1__      DATA           DGROUP         0002:00015438   00000004
SET1___eh_frame__      DATA           DGROUP         0002:0001543c   00000004
SET2___eh_frame__      DATA           DGROUP         0002:00015440   00000104
SET3___eh_frame__      DATA           DGROUP         0002:00015544   00000004
SET1___eh_init__       DATA           DGROUP         0002:00015548   00000004
SET2___eh_init__       DATA           DGROUP         0002:0001554c   00000004
SET3___eh_init__       DATA           DGROUP         0002:00015550   00000004
SET1___eh_term__       DATA           DGROUP         0002:00015554   00000004
SET2___eh_term__       DATA           DGROUP         0002:00015558   00000004
SET3___eh_term__       DATA           DGROUP         0002:0001555c   00000004
SET1___fork_parent1__  DATA           DGROUP         0002:00015560   00000004
SET2___fork_parent1__  DATA           DGROUP         0002:00015564   00000000
SET3___fork_parent1__  DATA           DGROUP         0002:00015564   00000004
SET1___fork_child1__   DATA           DGROUP         0002:00015568   00000004
SET2___fork_child1__   DATA           DGROUP         0002:0001556c   00000004
SET3___fork_child1__   DATA           DGROUP         0002:00015570   00000004
________DATA           DATA           DGROUP         0002:00015580   00000000
BSS32                  BSS            DGROUP         0002:00015580   00000470
c_common               BSS            DGROUP         0002:000159f0   00000000
________BSS            BSS            DGROUP         0002:000159f0   00000000
STACK                  STACK          AUTO           0003:00000000   00100000


                        +----------------+
                        |   Memory Map   |
                        +----------------+

* = unreferenced symbol
+ = symbol only referenced locally

Address        Symbol
=======        ======

Module: F:\dev\gcc061\lib\crt0hiwildresp.obj({standard input})
0001:00000000* __text
0002:00000000* __data
0002:00000000* ___data_start
0002:00015580* ___bss_start
0002:00015400+ __os2dll
0002:00015408  ___CTOR_LIST__
0002:0001541c  ___DTOR_LIST__
0002:0001542c* ___crtinit1__
0002:00015434* ___crtexit1__
0002:0001543c  ___eh_frame__
0002:00015548  ___eh_init__
0002:00015554  ___eh_term__
0002:00015560+ ___fork_parent1__
0002:00015568+ ___fork_child1__
Module: F:\rd\dse\xapian-core-1.0.2\examples\simpleindex.o(examples\simpleindex.cc)
0001:000000c8  _main
0001:00000850  __ZTIN6Xapian5ErrorE$w$Jv2yOZsdFP5kdtJZ1
0001:0000084c  __ZNSt15basic_streambufIcSt11char_traitsIcEE13_S_pback_sizeE$w$Jv2yOZsdFP5kdtJZ1
0001:00000858  __ZTSN6Xapian5ErrorE$w$Jv2yOZsdFP5kdtJZ1
0002:00015580  __ZN16__Atomicity_lockILi0EE17_S_atomicity_lockE$w$Jv2yOZsdFP5kdtJZ1
0001:000000c8* main
Module: F:\dev\gcc061\lib\libend.lib(src/libend/386/endlink386.asm)
0002:000159f0  _end
0002:00015580  _edata
Module: F:\dev\gcc061\lib\libend.lib(src/libend/386/end.asm)
0001:000b0e70* _etext
0001:000b0e70* __etext
0000:00000000  WEAK$ZERO
0002:000159f0  __end
0002:00015580  __edata
Module: T:\tmp\ldconv_libgcc_so_d_a_5160473e9a4811e848.lib(__main.obj)
0001:000008b0* ___do_global_dtors
0001:000008b6* ___do_global_ctors
0001:000008c6* ___POST$__do_global_ctors
0001:000008c8  ___main
0001:000008d2* ___POST$__main
Module: F:\rd\dse\xapian-core-1.0.2\.libs\xapian.a(backends\database.cc)
0001:00001d56* __ZN6Xapian8Database8InternalD1Ev
0001:00001d64* __ZN6Xapian8Database8InternalD0Ev
0001:00001d76  __ZN6Xapian8Database8Internal10keep_aliveEv
0001:00002e56  __ZNK6Xapian8Database8Internal22open_spelling_termlistERKSs
0001:00002e5e  __ZNK6Xapian8Database8Internal22open_spelling_wordlistEv
0001:00002e66  __ZNK6Xapian8Database8Internal22get_spelling_frequencyERKSs
0001:00002ea0  __ZNK6Xapian8Database8Internal12add_spellingERKSsj
0001:000030d0  __ZNK6Xapian8Database8Internal15remove_spellingERKSsj
0001:00003300  __ZNK6Xapian8Database8Internal21open_synonym_termlistERKSs
0001:00003308  __ZNK6Xapian8Database8Internal20open_synonym_keylistERKSs
0001:00003338  __ZNK6Xapian8Database8Internal11add_synonymERKSsS3_
0001:00003568  __ZNK6Xapian8Database8Internal14remove_synonymERKSsS3_
0001:00003798  __ZNK6Xapian8Database8Internal14clear_synonymsERKSs
0001:00001db8  __ZN6Xapian8Database8Internal5flushEv
0001:00001dbe* __ZN6Xapian8Database8Internal6cancelEv
0001:00002c1e  __ZN6Xapian8Database8Internal12add_documentERKNS_8DocumentE
0001:00002c26  __ZN6Xapian8Database8Internal15delete_documentEj
0001:00002c38  __ZN6Xapian8Database8Internal15delete_documentERKSs
0001:00002cf6  __ZN6Xapian8Database8Internal16replace_documentEjRKNS_8DocumentE
0001:00002d08  __ZN6Xapian8Database8Internal16replace_documentERKSsRKNS_8DocumentE
0001:00000de0* __ZN6Xapian5Flint4openERKSs
0001:00000e5e* __ZN6Xapian5Flint4openERKSsii
0001:00000eda* __ZN6Xapian8InMemory4openEv
0001:00000f42* __ZN6Xapian4Auto9open_stubERKSs
0001:00000fc8* __ZN6Xapian8DatabaseC2ERKSs
0001:00001554* __ZN6Xapian8DatabaseC1ERKSs
0001:00001ae0* __ZN6Xapian16WritableDatabaseC2ERKSsi
0001:00001bf8  __ZN6Xapian16WritableDatabaseC1ERKSsi
0001:00001d10  __ZN6Xapian8Database8InternalC2Ev
0001:00001d2c* __ZN6Xapian8Database8InternalC1Ev
0001:00001d48  __ZN6Xapian8Database8InternalD2Ev
0001:00001d7c  __ZN6Xapian8Database8Internal11dtor_calledEv
0001:000027b2  __ZN6Xapian8Database8Internal18cancel_transactionEv
0001:00001e40  __ZN6Xapian8Database8Internal17begin_transactionEb
0001:000022fe  __ZN6Xapian8Database8Internal18commit_transactionEv
0001:000008e0  __ZTVN6Xapian8Database8InternalE$w$PcXKN6PcFP5L1eGp4
0001:00003c80  __ZTIN6Xapian8Database8InternalE$w$PcXKN6PcFP5L1eGp4
0001:000009d8  __ZN6Xapian8Database8Internal6reopenEv$w$PcXKN6PcFP5L1eGp4
0001:000009de  __ZNK6Xapian8Database8Internal16request_documentEj$w$PcXKN6PcFP5L1eGp4
0001:000009e4  __ZNK6Xapian8Database8Internal16collect_documentEj$w$PcXKN6PcFP5L1eGp4
0001:00000a08  __ZN6Xapian8Database8Internal17as_remotedatabaseEv$w$PcXKN6PcFP5L1eGp4
0001:00000980* __ZTV12LeafPostList$w$PcXKN6PcFP5L1eGp4
0001:00003ca0* __ZTI12LeafPostList$w$PcXKN6PcFP5L1eGp4
0001:00000c7e* __ZN12LeafPostListD1Ev$w$PcXKN6PcFP5L1eGp4
0001:00000cbc* __ZN12LeafPostListD0Ev$w$PcXKN6PcFP5L1eGp4
0001:00000d16* __ZNK12LeafPostList16get_termfreq_minEv$w$PcXKN6PcFP5L1eGp4
0001:00000d2c* __ZNK12LeafPostList16get_termfreq_estEv$w$PcXKN6PcFP5L1eGp4
0001:00000d00* __ZNK12LeafPostList16get_termfreq_maxEv$w$PcXKN6PcFP5L1eGp4
0001:00000db0* __ZNK12LeafPostList13get_maxweightEv$w$PcXKN6PcFP5L1eGp4
0001:00000d66* __ZNK12LeafPostList10get_weightEv$w$PcXKN6PcFP5L1eGp4
0001:00000a10* __ZNK6Xapian15PostingIterator8Internal16get_collapse_keyEv$w$PcXKN6PcFP5L1eGp4
0001:00000dc8* __ZN12LeafPostList16recalc_maxweightEv$w$PcXKN6PcFP5L1eGp4
0001:00000a4e* __ZNK6Xapian15PostingIterator8Internal7get_wdfEv$w$PcXKN6PcFP5L1eGp4
0001:00000d42* __ZN12LeafPostList14set_termweightEPKN6Xapian6WeightE$w$PcXKN6PcFP5L1eGp4
0001:00003e04* __ZN6Xapian18UnimplementedErrorD1Ev$w$PcXKN6PcFP5L1eGp4
0001:00004e20* __ZTIN6Xapian18UnimplementedErrorE$w$PcXKN6PcFP5L1eGp4
0001:00003ce0* __ZTVN6Xapian15PostingIterator8InternalE$w$PcXKN6PcFP5L1eGp4
0001:000039c8* __ZNSt6vectorIN6Xapian8Internal9RefCntPtrINS0_8Database8InternalEEESaIS5_EE13_M_insert_auxEN9__gnu_cxx17__normal_iteratorIPS5_S7_EERKS5_$w$PcXKN6PcFP5L1eGp4
0001:00003ed8  __ZN6Xapian20DatabaseOpeningErrorD1Ev$w$PcXKN6PcFP5L1eGp4
0001:00004e2c  __ZTIN6Xapian20DatabaseOpeningErrorE$w$PcXKN6PcFP5L1eGp4
0001:00003d30* __ZN6Xapian21InvalidOperationErrorD1Ev$w$PcXKN6PcFP5L1eGp4
0001:00004e38* __ZTIN6Xapian21InvalidOperationErrorE$w$PcXKN6PcFP5L1eGp4
0001:00003c0a* __ZN6Xapian8Internal9RefCntPtrINS_8Database8InternalEEaSEPS3_$w$PcXKN6PcFP5L1eGp4
0001:00003c46* __ZSt24__uninitialized_copy_auxIN9__gnu_cxx17__normal_iteratorIPN6Xapian8Internal9RefCntPtrINS2_8Database8InternalEEESt6vectorIS7_SaIS7_EEEESC_ET0_T_SE_SD_12__false_type$w$PcXKN6PcFP5L1eGp4
0001:00003cbb  __ZTSN6Xapian8Database8InternalE$w$PcXKN6PcFP5L1eGp4
0001:00004e44* __ZTIN6Xapian8Internal10RefCntBaseE$w$PcXKN6PcFP5L1eGp4
0001:00003cac* __ZTS12LeafPostList$w$PcXKN6PcFP5L1eGp4
0001:00004e00* __ZTIN6Xapian15PostingIterator8InternalE$w$PcXKN6PcFP5L1eGp4
0001:00003cd8* __ZNSt15basic_streambufIcSt11char_traitsIcEE13_S_pback_sizeE$w$PcXKN6PcFP5L1eGp4
0001:00003fac* __ZN6Xapian15PostingIterator8InternalD1Ev$w$PcXKN6PcFP5L1eGp4
0001:00003fba* __ZN6Xapian15PostingIterator8InternalD0Ev$w$PcXKN6PcFP5L1eGp4
0001:00004cf0* __ZStplIcSt11char_traitsIcESaIcEESbIT_T0_T1_EPKS3_RKS6_$w$PcXKN6PcFP5L1eGp4
0001:00004c70* __ZStplIcSt11char_traitsIcESaIcEESbIT_T0_T1_ERKS6_S8_$w$PcXKN6PcFP5L1eGp4
0001:00004f00* __ZTSN6Xapian15PostingIterator8InternalE$w$PcXKN6PcFP5L1eGp4
0001:00004ee0* __ZTSN6Xapian18UnimplementedErrorE$w$PcXKN6PcFP5L1eGp4
0001:00004f24* __ZTIN6Xapian10LogicErrorE$w$PcXKN6PcFP5L1eGp4
0001:00004ec0  __ZTSN6Xapian20DatabaseOpeningErrorE$w$PcXKN6PcFP5L1eGp4
0001:00004f30  __ZTIN6Xapian13DatabaseErrorE$w$PcXKN6PcFP5L1eGp4
0001:00004e80* __ZTSN6Xapian21InvalidOperationErrorE$w$PcXKN6PcFP5L1eGp4
0001:00004e4c* __ZTSN6Xapian8Internal10RefCntBaseE$w$PcXKN6PcFP5L1eGp4
0001:00004f55* __ZTSN6Xapian10LogicErrorE$w$PcXKN6PcFP5L1eGp4
0001:00004f78* __ZTIN6Xapian5ErrorE$w$PcXKN6PcFP5L1eGp4
0001:00004f3c  __ZTSN6Xapian13DatabaseErrorE$w$PcXKN6PcFP5L1eGp4
0001:00004f6c  __ZTIN6Xapian12RuntimeErrorE$w$PcXKN6PcFP5L1eGp4
0001:00004f90  __ZTSN6Xapian12RuntimeErrorE$w$PcXKN6PcFP5L1eGp4
0001:00004f80* __ZTSN6Xapian5ErrorE$w$PcXKN6PcFP5L1eGp4
0002:000155b0* __ZN16__Atomicity_lockILi0EE17_S_atomicity_lockE$w$PcXKN6PcFP5L1eGp4
Module: F:\rd\dse\xapian-core-1.0.2\.libs\xapian.a(queryparser\termgenerator.cc)
0001:00004fc0* __ZN6Xapian13TermGeneratorC2ERKS0_
0001:00004fd6* __ZN6Xapian13TermGeneratorC1ERKS0_
0001:00004fec* __ZN6Xapian13TermGeneratoraSERKS0_
0001:00005012* __ZN6Xapian13TermGeneratorC2Ev
0001:000050b0  __ZN6Xapian13TermGeneratorC1Ev
0001:0000514e* __ZN6Xapian13TermGeneratorD2Ev
0001:000051ce  __ZN6Xapian13TermGeneratorD1Ev
0001:0000524e  __ZN6Xapian13TermGenerator11set_stemmerERKNS_4StemE
0001:00005262* __ZN6Xapian13TermGenerator11set_stopperEPKNS_7StopperE
0001:00005272  __ZN6Xapian13TermGenerator12set_documentERKNS_8DocumentE
0001:000052a2* __ZNK6Xapian13TermGenerator12get_documentEv
0001:000052b0* __ZN6Xapian13TermGenerator12set_databaseERKNS_16WritableDatabaseE
0001:000052c4* __ZN6Xapian13TermGenerator9set_flagsENS0_5flagsES1_
0001:000052dc  __ZN6Xapian13TermGenerator10index_textERKNS_12Utf8IteratorEjRKSs
0001:00005320* __ZN6Xapian13TermGenerator28index_text_without_positionsERKNS_12Utf8IteratorEjRKSs
0001:00005364* __ZN6Xapian13TermGenerator16increase_termposEj
0001:00005378* __ZNK6Xapian13TermGenerator11get_termposEv
0001:00005386* __ZN6Xapian13TermGenerator11set_termposEj
0001:000053d6* __ZNK6Xapian13TermGenerator15get_descriptionEv
0001:000056f8  __ZN6Xapian8Internal9RefCntPtrINS_13TermGenerator8InternalEEaSEPS3_$w$DOlEXlndFP51vx2k0
0001:000056f4* __ZNSt15basic_streambufIcSt11char_traitsIcEE13_S_pback_sizeE$w$DOlEXlndFP51vx2k0
0002:000155c0* __ZN16__Atomicity_lockILi0EE17_S_atomicity_lockE$w$DOlEXlndFP51vx2k0
Module: F:\rd\dse\xapian-core-1.0.2\.libs\xapian.a(languages\stem.cc)
0001:00005790* __ZN6Xapian4StemC2ERKS0_
0001:000057a8* __ZN6Xapian4StemC1ERKS0_
0001:000057c0  __ZN6Xapian4StemaSERKS0_
0001:000057d2* __ZN6Xapian4StemC2Ev
0001:000057e0  __ZN6Xapian4StemC1Ev
0001:000058ec* __ZN6Xapian4StemC2ERKSs
0001:000063f2  __ZN6Xapian4StemC1ERKSs
0001:00006ef6* __ZN6Xapian4StemD2Ev
0001:00006f26  __ZN6Xapian4StemD1Ev
0001:00006f56  __ZNK6Xapian4StemclERKSs
0001:00006fb8  __ZNK6Xapian4Stem15get_descriptionEv
0001:0000714e* __ZN6Xapian4Stem23get_available_languagesEv
0001:0000734e  __ZN6Xapian8Internal9RefCntPtrINS_4Stem8InternalEEaSEPS3_$w$fgK2VebdFP5JQEo40
0001:00007184* __ZStplIcSt11char_traitsIcESaIcEESbIT_T0_T1_EPKS3_RKS6_$w$fgK2VebdFP5JQEo40
0001:0000727a* __ZN6Xapian20InvalidArgumentErrorD1Ev$w$fgK2VebdFP5JQEo40
0001:0000738c* __ZTIN6Xapian20InvalidArgumentErrorE$w$fgK2VebdFP5JQEo40
0001:000073b0* __ZTSN6Xapian20InvalidArgumentErrorE$w$fgK2VebdFP5JQEo40
0001:000073d0* __ZTIN6Xapian10LogicErrorE$w$fgK2VebdFP5JQEo40
0001:000073dc* __ZTSN6Xapian10LogicErrorE$w$fgK2VebdFP5JQEo40
0001:000073f4* __ZTIN6Xapian5ErrorE$w$fgK2VebdFP5JQEo40
0001:000073fc* __ZTSN6Xapian5ErrorE$w$fgK2VebdFP5JQEo40
0002:000155d0* __ZN16__Atomicity_lockILi0EE17_S_atomicity_lockE$w$fgK2VebdFP5JQEo40
Module: F:\rd\dse\xapian-core-1.0.2\.libs\xapian.a(api\omdocument.cc)
0001:00007410* __ZN6Xapian8DocumentC2EPNS0_8InternalE
0001:00007426  __ZN6Xapian8DocumentC1EPNS0_8InternalE
0001:0000743c* __ZN6Xapian8DocumentC2Ev
0001:000075a2  __ZN6Xapian8DocumentC1Ev
0001:00007708* __ZNK6Xapian8Document9get_valueEj
0001:000092d4* __ZNK6Xapian8Document8Internal9get_valueEj
0001:0000773a  __ZNK6Xapian8Document8get_dataEv
0001:000093c2* __ZNK6Xapian8Document8Internal8get_dataEv
0001:00007766  __ZN6Xapian8Document8set_dataERKSs
0001:0000942a* __ZN6Xapian8Document8Internal8set_dataERKSs
0001:00007778  __ZN6Xapian8DocumentaSERKS0_
0001:0000778a* __ZN6Xapian8DocumentC2ERKS0_
0001:000077a2* __ZN6Xapian8DocumentC1ERKS0_
0001:000077ba* __ZN6Xapian8DocumentD2Ev
0001:000077ea  __ZN6Xapian8DocumentD1Ev
0001:00007826  __ZNK6Xapian8Document15get_descriptionEv
0001:0000cc10* __ZNK6Xapian8Document8Internal15get_descriptionEv
0001:00007a02* __ZN6Xapian8Document9add_valueEjRKSs
0001:000094bc* __ZN6Xapian8Document8Internal9add_valueEjRKSs
0001:00007a14* __ZN6Xapian8Document12remove_valueEj
0001:000096ba* __ZN6Xapian8Document8Internal12remove_valueEj
0001:00007a26* __ZN6Xapian8Document12clear_valuesEv
0001:00009b90* __ZN6Xapian8Document8Internal12clear_valuesEv
0001:00007a6e  __ZN6Xapian8Document11add_postingERKSsjj
0001:00009c02* __ZN6Xapian8Document8Internal11add_postingERKSsjj
0001:00007cd6  __ZN6Xapian8Document8add_termERKSsj
0001:0000a830* __ZN6Xapian8Document8Internal8add_termERKSsj
0001:00007f36* __ZN6Xapian8Document14remove_postingERKSsjj
0001:0000b49c* __ZN6Xapian8Document8Internal14remove_postingERKSsjj
0001:0000819e* __ZN6Xapian8Document11remove_termERKSs
0001:0000b89a* __ZN6Xapian8Document8Internal11remove_termERKSs
0001:000081b0* __ZN6Xapian8Document11clear_termsEv
0001:0000bda0* __ZN6Xapian8Document8Internal11clear_termsEv
0001:000081c2* __ZNK6Xapian8Document14termlist_countEv
0001:0000bdf8* __ZNK6Xapian8Document8Internal14termlist_countEv
0001:000081d4  __ZNK6Xapian8Document14termlist_beginEv
0001:00009454* __ZNK6Xapian8Document8Internal14open_term_listEv
0001:00008204* __ZNK6Xapian8Document12values_countEv
0001:0000cbb4* __ZNK6Xapian8Document8Internal12values_countEv
0001:00008216  __ZNK6Xapian8Document12values_beginEv
0001:00008246  __ZNK6Xapian8Document10values_endEv
0001:00008282* __ZNK6Xapian8Document9get_docidEv
0001:00008290* __ZN14OmDocumentTerm12add_positionEj
0001:000083c6* __ZN14OmDocumentTerm15remove_positionEj
0001:00008acc* __ZNK14OmDocumentTerm15get_descriptionEv
0001:0000938a* __ZNK6Xapian8Document8Internal14get_all_valuesEv
0001:0000d41c* __ZNK6Xapian8Document8Internal11need_valuesEv
0001:0000be1e* __ZNK6Xapian8Document8Internal10need_termsEv
0001:0000de30  __ZTVN6Xapian8Document8InternalE$w$3I5LQpJcFP5aGf7F2
0001:0000d604  __ZNSt8_Rb_treeISsSt4pairIKSs14OmDocumentTermESt10_Select1stIS3_ESt4lessISsESaIS3_EEC1ERKS7_RKS8_$w$3I5LQpJcFP5aGf7F2
0001:0000d5fe  __ZNSaISt4pairIKSs14OmDocumentTermEED1Ev$w$3I5LQpJcFP5aGf7F2
0001:0000de4c  __ZNSt6vectorIjSaIjEED1Ev$w$3I5LQpJcFP5aGf7F2
0001:0000e1e2  __ZNSt8_Rb_treeIjSt4pairIKjSsESt10_Select1stIS2_ESt4lessIjESaIS2_EED1Ev$w$3I5LQpJcFP5aGf7F2
0001:0000ea38  __ZN6Xapian8Internal9RefCntPtrINS_8Document8InternalEEaSEPS3_$w$3I5LQpJcFP5aGf7F2
0001:000089ae  __ZStplIcSt11char_traitsIcESaIcEESbIT_T0_T1_EPKS3_RKS6_$w$3I5LQpJcFP5aGf7F2
0001:0000e564* __ZN6Xapian20InvalidArgumentErrorD1Ev$w$3I5LQpJcFP5aGf7F2
0001:0000f05c* __ZTIN6Xapian20InvalidArgumentErrorE$w$3I5LQpJcFP5aGf7F2
0001:0000ea98* __ZNSt6vectorIjSaIjEE13_M_insert_auxEN9__gnu_cxx17__normal_iteratorIPjS1_EERKj$w$3I5LQpJcFP5aGf7F2
0001:0000832a  __ZSt11lower_boundIN9__gnu_cxx17__normal_iteratorIPjSt6vectorIjSaIjEEEEjET_S7_S7_RKT0_$w$3I5LQpJcFP5aGf7F2
0001:0000d64a* __ZNSt6vectorIjSaIjEE6insertEN9__gnu_cxx17__normal_iteratorIPjS1_EERKj$w$3I5LQpJcFP5aGf7F2
0001:0000d6aa  __ZStplIcSt11char_traitsIcESaIcEESbIT_T0_T1_ERKS6_S8_$w$3I5LQpJcFP5aGf7F2
0001:0000d72a  __ZNSt6vectorIjSaIjEE5eraseEN9__gnu_cxx17__normal_iteratorIPjS1_EE$w$3I5LQpJcFP5aGf7F2
0001:0000eb9e  __ZNSt8_Rb_treeIjSt4pairIKjSsESt10_Select1stIS2_ESt4lessIjESaIS2_EE4findERS1_$w$3I5LQpJcFP5aGf7F2
0001:0000d52c  __ZNSt8_Rb_treeIjSt4pairIKjSsESt10_Select1stIS2_ESt4lessIjESaIS2_EEC1ERKS8_$w$3I5LQpJcFP5aGf7F2
0001:0000ddf0  __ZTV11MapTermList$w$3I5LQpJcFP5aGf7F2
0001:0000d770  __ZNSt8_Rb_treeIjSt4pairIKjSsESt10_Select1stIS2_ESt4lessIjESaIS2_EE11lower_boundERS1_$w$3I5LQpJcFP5aGf7F2
0001:0000dc32  __ZNSt8_Rb_treeIjSt4pairIKjSsESt10_Select1stIS2_ESt4lessIjESaIS2_EE13insert_uniqueESt17_Rb_tree_iteratorIS2_RS2_PS2_ERKS2_$w$3I5LQpJcFP5aGf7F2
0001:0000d7a4* __ZNSt6vectorIjSaIjEE5eraseEN9__gnu_cxx17__normal_iteratorIPjS1_EES5_$w$3I5LQpJcFP5aGf7F2
0001:0000dec6  __ZSt28_Rb_tree_rebalance_for_erasePSt18_Rb_tree_node_baseRS0_S1_S1_$w$3I5LQpJcFP5aGf7F2
0001:0000ebf4  __ZNSt8_Rb_treeIjSt4pairIKjSsESt10_Select1stIS2_ESt4lessIjESaIS2_EE8_M_eraseEPSt13_Rb_tree_nodeIS2_E$w$3I5LQpJcFP5aGf7F2
0001:0000d7e8  __ZNSt8_Rb_treeISsSt4pairIKSs14OmDocumentTermESt10_Select1stIS3_ESt4lessISsESaIS3_EE4findERS1_$w$3I5LQpJcFP5aGf7F2
0001:0000ea74  __ZNSt14__simple_allocIjSt24__default_alloc_templateILb1ELi0EEE8allocateEj$w$3I5LQpJcFP5aGf7F2
0001:0000d8f4  __ZNSt8_Rb_treeISsSt4pairIKSs14OmDocumentTermESt10_Select1stIS3_ESt4lessISsESaIS3_EE13insert_uniqueERKS3_$w$3I5LQpJcFP5aGf7F2
0001:0000ec7e  __ZNSt8_Rb_treeISsSt4pairIKSs14OmDocumentTermESt10_Select1stIS3_ESt4lessISsESaIS3_EE8_M_eraseEPSt13_Rb_tree_nodeIS3_E$w$3I5LQpJcFP5aGf7F2
0001:0000da64  __ZNSt8_Rb_treeIjSt4pairIKjSsESt10_Select1stIS2_ESt4lessIjESaIS2_EEaSERKS8_$w$3I5LQpJcFP5aGf7F2
0001:0000db34  __ZNSt8_Rb_treeIjSt4pairIKjSsESt10_Select1stIS2_ESt4lessIjESaIS2_EE7_M_copyEPSt13_Rb_tree_nodeIS2_ESB_$w$3I5LQpJcFP5aGf7F2
0001:0000de76  __ZNSt22_Rb_tree_base_iterator12_M_decrementEv$w$3I5LQpJcFP5aGf7F2
0001:0000edee  __ZNSt8_Rb_treeISsSt4pairIKSs14OmDocumentTermESt10_Select1stIS3_ESt4lessISsESaIS3_EE9_M_insertEPSt18_Rb_tree_node_baseSB_RKS3_$w$3I5LQpJcFP5aGf7F2
0001:0000ef02  __ZNSt8_Rb_treeIjSt4pairIKjSsESt10_Select1stIS2_ESt4lessIjESaIS2_EE14_M_create_nodeERKS2_$w$3I5LQpJcFP5aGf7F2
0001:0000ef74  __ZNSt8_Rb_treeIjSt4pairIKjSsESt10_Select1stIS2_ESt4lessIjESaIS2_EE9_M_insertEPSt18_Rb_tree_node_baseSA_RKS2_$w$3I5LQpJcFP5aGf7F2
0001:0000dd0a  __ZNSt8_Rb_treeIjSt4pairIKjSsESt10_Select1stIS2_ESt4lessIjESaIS2_EE13insert_uniqueERKS2_$w$3I5LQpJcFP5aGf7F2
0001:0000ddd8* __ZNSt15basic_streambufIcSt11char_traitsIcEE13_S_pback_sizeE$w$3I5LQpJcFP5aGf7F2
0001:0000f050  __ZTI11MapTermList$w$3I5LQpJcFP5aGf7F2
0001:0000e638  __ZN11MapTermListD1Ev$w$3I5LQpJcFP5aGf7F2
0001:0000e654  __ZN11MapTermListD0Ev$w$3I5LQpJcFP5aGf7F2
0001:0000e67c  __ZNK11MapTermList15get_approx_sizeEv$w$3I5LQpJcFP5aGf7F2
0001:0000e688  __ZNK11MapTermList16accumulate_statsERN6Xapian8Internal11ExpandStatsE$w$3I5LQpJcFP5aGf7F2
0001:0000e694  __ZNK11MapTermList12get_termnameEv$w$3I5LQpJcFP5aGf7F2
0001:0000e6c0  __ZNK11MapTermList7get_wdfEv$w$3I5LQpJcFP5aGf7F2
0001:0000e742  __ZNK11MapTermList12get_termfreqEv$w$3I5LQpJcFP5aGf7F2
0001:0000e9fa  __ZN11MapTermList4nextEv$w$3I5LQpJcFP5aGf7F2
0001:0000ea20  __ZNK11MapTermList6at_endEv$w$3I5LQpJcFP5aGf7F2
0001:0000e9e6  __ZNK11MapTermList18positionlist_countEv$w$3I5LQpJcFP5aGf7F2
0001:0000e972  __ZNK11MapTermList18positionlist_beginEv$w$3I5LQpJcFP5aGf7F2
0001:0000f030  __ZTIN6Xapian8Document8InternalE$w$3I5LQpJcFP5aGf7F2
0001:0000e1ac  __ZNK6Xapian8Document8Internal12do_get_valueEj$w$3I5LQpJcFP5aGf7F2
0001:0000e25c  __ZNK6Xapian8Document8Internal17do_get_all_valuesEv$w$3I5LQpJcFP5aGf7F2
0001:0000e2ae  __ZNK6Xapian8Document8Internal11do_get_dataEv$w$3I5LQpJcFP5aGf7F2
0001:0000e2e4  __ZN6Xapian8Document8InternalD1Ev$w$3I5LQpJcFP5aGf7F2
0001:0000e420  __ZN6Xapian8Document8InternalD0Ev$w$3I5LQpJcFP5aGf7F2
0001:0000f144  __ZSt21_Rb_tree_rotate_rightPSt18_Rb_tree_node_baseRS0_$w$3I5LQpJcFP5aGf7F2
0001:0000f102  __ZSt20_Rb_tree_rotate_leftPSt18_Rb_tree_node_baseRS0_$w$3I5LQpJcFP5aGf7F2
0001:0000f28e  __ZN6Xapian21InvalidOperationErrorD1Ev$w$3I5LQpJcFP5aGf7F2
0001:0000f530  __ZTIN6Xapian21InvalidOperationErrorE$w$3I5LQpJcFP5aGf7F2
0001:0000f0ba  __ZNSt22_Rb_tree_base_iterator12_M_incrementEv$w$3I5LQpJcFP5aGf7F2
0001:0000f362  __ZNSt8_Rb_treeISsSt4pairIKSs14OmDocumentTermESt10_Select1stIS3_ESt4lessISsESaIS3_EE14_M_create_nodeERKS3_$w$3I5LQpJcFP5aGf7F2
0001:0000f186  __ZSt18_Rb_tree_rebalancePSt18_Rb_tree_node_baseRS0_$w$3I5LQpJcFP5aGf7F2
0001:0000f09e  __ZTSN6Xapian8Document8InternalE$w$3I5LQpJcFP5aGf7F2
0001:0000f548* __ZTIN6Xapian8Internal10RefCntBaseE$w$3I5LQpJcFP5aGf7F2
0001:0000f090  __ZTS11MapTermList$w$3I5LQpJcFP5aGf7F2
0001:0000f510  __ZTIN6Xapian12TermIterator8InternalE$w$3I5LQpJcFP5aGf7F2
0001:0000f070* __ZTSN6Xapian20InvalidArgumentErrorE$w$3I5LQpJcFP5aGf7F2
0001:0000f53c* __ZTIN6Xapian10LogicErrorE$w$3I5LQpJcFP5aGf7F2
0001:0000f5d0  __ZTSN6Xapian12TermIterator8InternalE$w$3I5LQpJcFP5aGf7F2
0001:0000f590  __ZTSN6Xapian21InvalidOperationErrorE$w$3I5LQpJcFP5aGf7F2
0001:0000f56f* __ZTSN6Xapian10LogicErrorE$w$3I5LQpJcFP5aGf7F2
0001:0000f5f4* __ZTIN6Xapian5ErrorE$w$3I5LQpJcFP5aGf7F2
0001:0000f550* __ZTSN6Xapian8Internal10RefCntBaseE$w$3I5LQpJcFP5aGf7F2
0001:0000f5fc* __ZTSN6Xapian5ErrorE$w$3I5LQpJcFP5aGf7F2
0002:000155e0* __ZN16__Atomicity_lockILi0EE17_S_atomicity_lockE$w$3I5LQpJcFP5aGf7F2
Module: F:\rd\dse\xapian-core-1.0.2\.libs\xapian.a(api\omdatabase.cc)
0001:000125f6  __ZN6Xapian16WritableDatabaseD1Ev
0001:00012612* __ZN6Xapian16WritableDatabaseD0Ev
0001:00013138* __ZNK6Xapian16WritableDatabase15get_descriptionEv
0001:00010180  __ZN6Xapian8DatabaseD1Ev
0001:00010216* __ZN6Xapian8DatabaseD0Ev
0001:00011848* __ZNK6Xapian8Database15get_descriptionEv
0001:0000fa78  __ZN6Xapian8DatabaseC2Ev
0001:0000faa4  __ZN6Xapian8DatabaseC1Ev
0001:0000fad0* __ZN6Xapian8DatabaseC2EPNS0_8InternalE
0001:0000fc1a  __ZN6Xapian8DatabaseC1EPNS0_8InternalE
0001:0000fd64* __ZN6Xapian8DatabaseC2ERKS0_
0001:0000fe2c* __ZN6Xapian8DatabaseC1ERKS0_
0001:000100c8* __ZN6Xapian8DatabaseaSERKS0_
0001:000100ea  __ZN6Xapian8DatabaseD2Ev
0001:000102ba* __ZN6Xapian8Database6reopenEv
0001:00010318  __ZN6Xapian8Database12add_databaseERKS0_
0001:000105a8* __ZNK6Xapian8Database14postlist_beginERKSs
0001:0001072a* __ZNK6Xapian8Database14termlist_beginEj
0001:000109fe* __ZNK6Xapian8Database14allterms_beginEv
0001:00010ad6* __ZNK6Xapian8Database14allterms_beginERKSs
0001:00010c34* __ZNK6Xapian8Database13has_positionsEv
0001:00010c8e* __ZNK6Xapian8Database18positionlist_beginEjRKSs
0001:00011100  __ZNK6Xapian8Database12get_doccountEv
0001:00011134* __ZNK6Xapian8Database13get_lastdocidEv
0001:000111ac* __ZNK6Xapian8Database12get_avlengthEv
0001:0001121e* __ZNK6Xapian8Database12get_termfreqERKSs
0001:00011272* __ZNK6Xapian8Database19get_collection_freqERKSs
0001:000112c6* __ZNK6Xapian8Database13get_doclengthEj
0001:00011530* __ZNK6Xapian8Database12get_documentEj
0001:000117b6* __ZNK6Xapian8Database11term_existsERKSs
0001:00011814* __ZN6Xapian8Database10keep_aliveEv
0001:0001187e* __ZNK6Xapian8Database23get_spelling_suggestionERKSsj
0001:00012090* __ZNK6Xapian8Database15spellings_beginEv
0001:000121f8* __ZNK6Xapian8Database14synonyms_beginERKSs
0001:00012366* __ZNK6Xapian8Database18synonym_keys_beginERKSs
0001:000124d4* __ZN6Xapian16WritableDatabaseC2Ev
0001:000124f6  __ZN6Xapian16WritableDatabaseC1Ev
0001:00012518* __ZN6Xapian16WritableDatabaseC2EPNS_8Database8InternalE
0001:00012540  __ZN6Xapian16WritableDatabaseC1EPNS_8Database8InternalE
0001:00012568* __ZN6Xapian16WritableDatabaseC2ERKS0_
0001:00012590* __ZN6Xapian16WritableDatabaseC1ERKS0_
0001:000125b8  __ZN6Xapian16WritableDatabaseaSERKS0_
0001:000125da* __ZN6Xapian16WritableDatabaseD2Ev
0001:0001263a* __ZN6Xapian16WritableDatabase5flushEv
0001:00012654* __ZN6Xapian16WritableDatabase17begin_transactionEb
0001:00012676* __ZN6Xapian16WritableDatabase18commit_transactionEv
0001:00012690* __ZN6Xapian16WritableDatabase18cancel_transactionEv
0001:000126aa  __ZN6Xapian16WritableDatabase12add_documentERKNS_8DocumentE
0001:000126cc* __ZN6Xapian16WritableDatabase15delete_documentEj
0001:00012940* __ZN6Xapian16WritableDatabase15delete_documentERKSs
0001:00012b9c* __ZN6Xapian16WritableDatabase16replace_documentEjRKNS_8DocumentE
0001:00012dfe* __ZN6Xapian16WritableDatabase16replace_documentERKSsRKNS_8DocumentE
0001:00013064  __ZNK6Xapian16WritableDatabase12add_spellingERKSsj
0001:0001308c* __ZNK6Xapian16WritableDatabase15remove_spellingERKSsj
0001:000130b4* __ZNK6Xapian16WritableDatabase11add_synonymERKSsS2_
0001:000130dc* __ZNK6Xapian16WritableDatabase14remove_synonymERKSsS2_
0001:00013104* __ZNK6Xapian16WritableDatabase14clear_synonymsERKSs
0001:0000f610  __ZTVN6Xapian16WritableDatabaseE$w$hF4TDhIcFP5w0YYj1
0001:000138a0  __ZTIN6Xapian16WritableDatabaseE$w$hF4TDhIcFP5w0YYj1
0001:0000f628  __ZTVN6Xapian8DatabaseE$w$hF4TDhIcFP5w0YYj1
0001:00013898  __ZTIN6Xapian8DatabaseE$w$hF4TDhIcFP5w0YYj1
0001:0000f650  __ZTV12LeafPostList$w$hF4TDhIcFP5w0YYj1
0001:0001388c  __ZTI12LeafPostList$w$hF4TDhIcFP5w0YYj1
0001:0000f916  __ZN12LeafPostListD1Ev$w$hF4TDhIcFP5w0YYj1
0001:0000f954  __ZN12LeafPostListD0Ev$w$hF4TDhIcFP5w0YYj1
0001:0000f9ae  __ZNK12LeafPostList16get_termfreq_minEv$w$hF4TDhIcFP5w0YYj1
0001:0000f9c4  __ZNK12LeafPostList16get_termfreq_estEv$w$hF4TDhIcFP5w0YYj1
0001:0000f998  __ZNK12LeafPostList16get_termfreq_maxEv$w$hF4TDhIcFP5w0YYj1
0001:0000fa48  __ZNK12LeafPostList13get_maxweightEv$w$hF4TDhIcFP5w0YYj1
0001:0000f9fe  __ZNK12LeafPostList10get_weightEv$w$hF4TDhIcFP5w0YYj1
0001:0000f6a8  __ZNK6Xapian15PostingIterator8Internal16get_collapse_keyEv$w$hF4TDhIcFP5w0YYj1
0001:0000fa60  __ZN12LeafPostList16recalc_maxweightEv$w$hF4TDhIcFP5w0YYj1
0001:0000f6e6  __ZNK6Xapian15PostingIterator8Internal7get_wdfEv$w$hF4TDhIcFP5w0YYj1
0001:0000f9da  __ZN12LeafPostList14set_termweightEPKN6Xapian6WeightE$w$hF4TDhIcFP5w0YYj1
0001:00013a14  __ZN6Xapian18UnimplementedErrorD1Ev$w$hF4TDhIcFP5w0YYj1
0001:00013c90  __ZTIN6Xapian18UnimplementedErrorE$w$hF4TDhIcFP5w0YYj1
0001:000138f0  __ZTVN6Xapian15PostingIterator8InternalE$w$hF4TDhIcFP5w0YYj1
0001:0001316e  __ZNSt6vectorIN6Xapian8Internal9RefCntPtrINS0_8Database8InternalEEESaIS5_EE13_M_insert_auxEN9__gnu_cxx17__normal_iteratorIPS5_S7_EERKS5_$w$hF4TDhIcFP5w0YYj1
0001:0000fef4  __ZNSt6vectorIN6Xapian8Internal9RefCntPtrINS0_8Database8InternalEEESaIS5_EEaSERKS7_$w$hF4TDhIcFP5w0YYj1
0001:000133e4  __ZN6Xapian8Internal9RefCntPtrINS_8Database8InternalEEaSEPS3_$w$hF4TDhIcFP5w0YYj1
0001:000133b0  __ZSt24__uninitialized_copy_auxIN9__gnu_cxx17__normal_iteratorIPKN6Xapian8Internal9RefCntPtrINS2_8Database8InternalEEESt6vectorIS7_SaIS7_EEEEPS7_ET0_T_SG_SF_12__false_type$w$hF4TDhIcFP5w0YYj1
0001:00013b08  __ZNSt6vectorIN6Xapian8Internal9RefCntPtrINS0_8Database8InternalEEESaIS5_EE20_M_allocate_and_copyIN9__gnu_cxx17__normal_iteratorIPKS5_S7_EEEEPS5_jT_SF_$w$hF4TDhIcFP5w0YYj1
0001:00013940  __ZN6Xapian20InvalidArgumentErrorD1Ev$w$hF4TDhIcFP5w0YYj1
0001:00013c9c  __ZTIN6Xapian20InvalidArgumentErrorE$w$hF4TDhIcFP5w0YYj1
0001:00013420  __ZNSt6vectorIP12LeafPostListSaIS1_EE13_M_insert_auxEN9__gnu_cxx17__normal_iteratorIPS1_S3_EERKS1_$w$hF4TDhIcFP5w0YYj1
0001:00013526  __ZNSt6vectorIPN6Xapian12TermIterator8InternalESaIS3_EE13_M_insert_auxEN9__gnu_cxx17__normal_iteratorIPS3_S5_EERKS3_$w$hF4TDhIcFP5w0YYj1
0001:0001362c  __ZNSt6vectorIjSaIjEE13_M_assign_auxIN6Xapian12Utf8IteratorEEEvT_S5_St18input_iterator_tag$w$hF4TDhIcFP5w0YYj1
0001:00013732  __ZSt24__uninitialized_copy_auxIN9__gnu_cxx17__normal_iteratorIPN6Xapian8Internal9RefCntPtrINS2_8Database8InternalEEESt6vectorIS7_SaIS7_EEEESC_ET0_T_SE_SD_12__false_type$w$hF4TDhIcFP5w0YYj1
0001:00013766  __ZNSt6vectorIjSaIjEE5eraseEN9__gnu_cxx17__normal_iteratorIPjS1_EES5_$w$hF4TDhIcFP5w0YYj1
0001:000137aa  __ZNSt6vectorIjSaIjEE15_M_range_insertIN6Xapian12Utf8IteratorEEEvN9__gnu_cxx17__normal_iteratorIPjS1_EET_S9_St18input_iterator_tag$w$hF4TDhIcFP5w0YYj1
0001:0001382a  __ZNSt6vectorIjSaIjEE6insertEN9__gnu_cxx17__normal_iteratorIPjS1_EERKj$w$hF4TDhIcFP5w0YYj1
0001:00013b4e  __ZNSt6vectorIjSaIjEE13_M_insert_auxEN9__gnu_cxx17__normal_iteratorIPjS1_EERKj$w$hF4TDhIcFP5w0YYj1
0001:000138db  __ZTS12LeafPostList$w$hF4TDhIcFP5w0YYj1
0001:00013c70  __ZTIN6Xapian15PostingIterator8InternalE$w$hF4TDhIcFP5w0YYj1
0001:000138c8  __ZTSN6Xapian8DatabaseE$w$hF4TDhIcFP5w0YYj1
0001:000138ac  __ZTSN6Xapian16WritableDatabaseE$w$hF4TDhIcFP5w0YYj1
0001:000138ec* __ZNSt15basic_streambufIcSt11char_traitsIcEE13_S_pback_sizeE$w$hF4TDhIcFP5w0YYj1
0001:00013ae8  __ZN6Xapian15PostingIterator8InternalD1Ev$w$hF4TDhIcFP5w0YYj1
0001:00013af6  __ZN6Xapian15PostingIterator8InternalD0Ev$w$hF4TDhIcFP5w0YYj1
0001:00013cf0  __ZTSN6Xapian15PostingIterator8InternalE$w$hF4TDhIcFP5w0YYj1
0001:00013d20  __ZTIN6Xapian8Internal10RefCntBaseE$w$hF4TDhIcFP5w0YYj1
0001:00013cd0  __ZTSN6Xapian18UnimplementedErrorE$w$hF4TDhIcFP5w0YYj1
0001:00013d14  __ZTIN6Xapian10LogicErrorE$w$hF4TDhIcFP5w0YYj1
0001:00013cb0  __ZTSN6Xapian20InvalidArgumentErrorE$w$hF4TDhIcFP5w0YYj1
0001:00013d47  __ZTSN6Xapian10LogicErrorE$w$hF4TDhIcFP5w0YYj1
0001:00013d60* __ZTIN6Xapian5ErrorE$w$hF4TDhIcFP5w0YYj1
0001:00013d28  __ZTSN6Xapian8Internal10RefCntBaseE$w$hF4TDhIcFP5w0YYj1
0001:00013d68* __ZTSN6Xapian5ErrorE$w$hF4TDhIcFP5w0YYj1
0002:000155f0* __ZN16__Atomicity_lockILi0EE17_S_atomicity_lockE$w$hF4TDhIcFP5w0YYj1
Module: F:\rd\dse\xapian-core-1.0.2\.libs\xapian.a(api\error.cc)
0001:00013d90* __ZN6Xapian5ErrorC2ERKSsS2_PKcS4_
0001:00013f0a* __ZN6Xapian5ErrorC1ERKSsS2_PKcS4_
0001:00014084* __ZNK6Xapian5Error16get_error_stringEv
0001:00014128  __ZNK6Xapian5Error15get_descriptionEv
0002:00015600* __ZN16__Atomicity_lockILi0EE17_S_atomicity_lockE$w$hPNbTNGcFP5hEmYu1
Module: T:\tmp\ldconv_libgcc_so_d_a_5160473e9a4811e848.lib(emx-eh.obj)
0001:000142b0  ___ehInit
0001:000142d9* ___POST$__ehInit
0001:000142e2* ___ehTerm
0001:0001430a* ___POST$__ehTerm
Module: F:\rd\dse\xapian-core-1.0.2\.libs\xapian.a(languages\portuguese.cc)
0001:00015252* __ZN6Xapian22InternalStemPortugueseD1Ev
0001:0001526e* __ZN6Xapian22InternalStemPortugueseD0Ev
0001:0001507e* __ZN6Xapian22InternalStemPortuguese4stemEv
0001:000152a2* __ZNK6Xapian22InternalStemPortuguese15get_descriptionEv
0001:00014338* __ZN6Xapian22InternalStemPortuguese9r_preludeEv
0001:00014430* __ZN6Xapian22InternalStemPortuguese14r_mark_regionsEv
0001:00014724* __ZN6Xapian22InternalStemPortuguese10r_postludeEv
0001:00014812* __ZN6Xapian22InternalStemPortuguese4r_RVEv
0001:00014826* __ZN6Xapian22InternalStemPortuguese4r_R1Ev
0001:0001483a* __ZN6Xapian22InternalStemPortuguese4r_R2Ev
0001:0001484e* __ZN6Xapian22InternalStemPortuguese17r_standard_suffixEv
0001:00014d76* __ZN6Xapian22InternalStemPortuguese13r_verb_suffixEv
0001:00014e30* __ZN6Xapian22InternalStemPortuguese17r_residual_suffixEv
0001:00014ec2* __ZN6Xapian22InternalStemPortuguese15r_residual_formEv
0001:000151ca* __ZN6Xapian22InternalStemPortugueseC2Ev
0001:00015200  __ZN6Xapian22InternalStemPortugueseC1Ev
0001:00015236* __ZN6Xapian22InternalStemPortugueseD2Ev
0001:00014320  __ZTVN6Xapian22InternalStemPortugueseE$w$Pq4XLK9dFP5ryI7b1
0001:000152ac  __ZTIN6Xapian22InternalStemPortugueseE$w$Pq4XLK9dFP5ryI7b1
0001:00015f60  __ZTSN6Xapian22InternalStemPortugueseE$w$Pq4XLK9dFP5ryI7b1
0001:000162c0* __ZTIN6Xapian4Stem8InternalE$w$Pq4XLK9dFP5ryI7b1
0001:000162e0* __ZTSN6Xapian4Stem8InternalE$w$Pq4XLK9dFP5ryI7b1
0001:000162f8* __ZTIN6Xapian8Internal10RefCntBaseE$w$Pq4XLK9dFP5ryI7b1
0001:00016300* __ZTSN6Xapian8Internal10RefCntBaseE$w$Pq4XLK9dFP5ryI7b1
0002:00015620* __ZN16__Atomicity_lockILi0EE17_S_atomicity_lockE$w$Pq4XLK9dFP5ryI7b1
Module: F:\rd\dse\xapian-core-1.0.2\.libs\xapian.a(languages\german2.cc)
0001:00016e04* __ZN6Xapian19InternalStemGerman2D1Ev
0001:00016e20* __ZN6Xapian19InternalStemGerman2D0Ev
0001:00016d0e* __ZN6Xapian19InternalStemGerman24stemEv
0001:00016e50* __ZNK6Xapian19InternalStemGerman215get_descriptionEv
0001:00016338* __ZN6Xapian19InternalStemGerman29r_preludeEv
0001:0001658e* __ZN6Xapian19InternalStemGerman214r_mark_regionsEv
0001:000166ce* __ZN6Xapian19InternalStemGerman210r_postludeEv
0001:000167ce* __ZN6Xapian19InternalStemGerman24r_R1Ev
0001:000167e2* __ZN6Xapian19InternalStemGerman24r_R2Ev
0001:000167f6* __ZN6Xapian19InternalStemGerman217r_standard_suffixEv
0001:00016d7c* __ZN6Xapian19InternalStemGerman2C2Ev
0001:00016db2  __ZN6Xapian19InternalStemGerman2C1Ev
0001:00016de8* __ZN6Xapian19InternalStemGerman2D2Ev
0001:00016320  __ZTVN6Xapian19InternalStemGerman2E$w$hPfmRT7dFP5808UN0
0001:00016e5c  __ZTIN6Xapian19InternalStemGerman2E$w$hPfmRT7dFP5808UN0
0001:000170d3  __ZTSN6Xapian19InternalStemGerman2E$w$hPfmRT7dFP5808UN0
0001:00017140* __ZTIN6Xapian4Stem8InternalE$w$hPfmRT7dFP5808UN0
0001:00017160* __ZTSN6Xapian4Stem8InternalE$w$hPfmRT7dFP5808UN0
0001:00017178* __ZTIN6Xapian8Internal10RefCntBaseE$w$hPfmRT7dFP5808UN0
0001:00017180* __ZTSN6Xapian8Internal10RefCntBaseE$w$hPfmRT7dFP5808UN0
0002:00015630* __ZN16__Atomicity_lockILi0EE17_S_atomicity_lockE$w$hPfmRT7dFP5808UN0
Module: F:\rd\dse\xapian-core-1.0.2\.libs\xapian.a(backends\inmemory\inmemory_database.cc)
0001:00019818* __ZN16InMemoryDatabaseD1Ev
0001:00019ee6* __ZN16InMemoryDatabaseD0Ev
0001:0001a922* __ZNK16InMemoryDatabase12get_doccountEv
0001:0001a92e* __ZNK16InMemoryDatabase13get_lastdocidEv
0001:0001a940* __ZNK16InMemoryDatabase12get_avlengthEv
0001:0001a986* __ZNK16InMemoryDatabase13get_doclengthEj
0001:0001a8be* __ZNK16InMemoryDatabase12get_termfreqERKSs
0001:0001a8f0* __ZNK16InMemoryDatabase19get_collection_freqERKSs
0001:0001f44e* __ZNK16InMemoryDatabase11term_existsERKSs
0001:0001f488* __ZNK16InMemoryDatabase13has_positionsEv
0001:0001a5c2* __ZNK16InMemoryDatabase14open_post_listERKSs
0001:0001aee0* __ZNK16InMemoryDatabase14open_term_listEj
0001:0001f494* __ZNK16InMemoryDatabase13open_alltermsERKSs
0001:0001bee0* __ZNK16InMemoryDatabase18open_position_listEjRKSs
0001:0001b6dc* __ZNK16InMemoryDatabase13open_documentEjb
0001:0001c664* __ZN16InMemoryDatabase5flushEv
0001:0001c66a* __ZN16InMemoryDatabase6cancelEv
0001:0001d2b4* __ZN16InMemoryDatabase12add_documentERKN6Xapian8DocumentE
0001:0001c670* __ZN16InMemoryDatabase15delete_documentEj
0001:0001cd10* __ZN16InMemoryDatabase16replace_documentEjRKN6Xapian8DocumentE
0001:00018934* __ZNK23InMemoryAllDocsPostList9get_docidEv
0001:00018940* __ZNK23InMemoryAllDocsPostList13get_doclengthEv
0001:00018960* __ZNK23InMemoryAllDocsPostList7get_wdfEv
0001:0001899a* __ZN23InMemoryAllDocsPostList18read_position_listEv
0001:00018bca* __ZNK23InMemoryAllDocsPostList18open_position_listEv
0001:00018dfa* __ZN23InMemoryAllDocsPostList4nextEd
0001:00018e2c* __ZN23InMemoryAllDocsPostList7skip_toEjd
0001:00018e6e* __ZNK23InMemoryAllDocsPostList6at_endEv
0001:00018ea4* __ZNK23InMemoryAllDocsPostList15get_descriptionEv
0001:00018926* __ZNK23InMemoryAllDocsPostList12get_termfreqEv
0001:00018166* __ZNK16InMemoryTermList15get_approx_sizeEv
0001:00018180* __ZNK16InMemoryTermList16accumulate_statsERN6Xapian8Internal11ExpandStatsE
0001:000185ae* __ZNK16InMemoryTermList12get_termnameEv
0001:00018138* __ZNK16InMemoryTermList7get_wdfEv
0001:00018146* __ZNK16InMemoryTermList12get_termfreqEv
0001:000185d8* __ZN16InMemoryTermList4nextEv
0001:000185f2* __ZNK16InMemoryTermList6at_endEv
0001:00018640* __ZNK16InMemoryTermList18positionlist_countEv
0001:00018870* __ZNK16InMemoryTermList18positionlist_beginEv
0001:00017e42* __ZNK16InMemoryPostList9get_docidEv
0001:00017fd0* __ZNK16InMemoryPostList13get_doclengthEv
0001:00018072* __ZNK16InMemoryPostList7get_wdfEv
0001:00017ffa* __ZN16InMemoryPostList18read_position_listEv
0001:00018024* __ZNK16InMemoryPostList18open_position_listEv
0001:00017e50* __ZN16InMemoryPostList4nextEd
0001:00017e90* __ZN16InMemoryPostList7skip_toEjd
0001:00017ed6* __ZNK16InMemoryPostList6at_endEv
0001:00017efe* __ZNK16InMemoryPostList15get_descriptionEv
0001:00017e36* __ZNK16InMemoryPostList12get_termfreqEv
0001:00017cfe* __ZN16InMemoryPostListC2EN6Xapian8Internal9RefCntPtrIK16InMemoryDatabaseEERK12InMemoryTerm
0001:00017d9a* __ZN16InMemoryPostListC1EN6Xapian8Internal9RefCntPtrIK16InMemoryDatabaseEERK12InMemoryTerm
0001:00018080* __ZN16InMemoryTermListC2EN6Xapian8Internal9RefCntPtrIK16InMemoryDatabaseEEjRK11InMemoryDocd
0001:000180dc* __ZN16InMemoryTermListC1EN6Xapian8Internal9RefCntPtrIK16InMemoryDatabaseEEjRK11InMemoryDocd
0001:000188b6* __ZN23InMemoryAllDocsPostListC2EN6Xapian8Internal9RefCntPtrIK16InMemoryDatabaseEE
0001:000188ee* __ZN23InMemoryAllDocsPostListC1EN6Xapian8Internal9RefCntPtrIK16InMemoryDatabaseEE
0001:00018f76* __ZN16InMemoryDatabaseC2Ev
0001:00019060  __ZN16InMemoryDatabaseC1Ev
0001:0001914a* __ZN16InMemoryDatabaseD2Ev
0001:0001a79a* __ZNK16InMemoryDatabase10doc_existsEj
0001:0001c60a* __ZN16InMemoryDatabase10add_valuesEjRKSt3mapIjSsSt4lessIjESaISt4pairIKjSsEEE
0001:0001d38e* __ZN16InMemoryDatabase14finish_add_docEjRKN6Xapian8DocumentE
0001:0001e968* __ZN16InMemoryDatabase8make_docERKSs
0001:0001e6ee* __ZN16InMemoryDatabase9make_termERKSs
0001:0001ecea* __ZN16InMemoryDatabase12make_postingEP11InMemoryDocRKSsjjjb
0001:000171a0  __ZTV16InMemoryDatabase$w$bu4lHu2dFP5kMzuN0
0001:000231f0  __ZTI16InMemoryDatabase$w$bu4lHu2dFP5kMzuN0
0001:000178da* __ZN6Xapian8Database8Internal6reopenEv$w$bu4lHu2dFP5kMzuN0
0001:000178e0* __ZNK6Xapian8Database8Internal16request_documentEj$w$bu4lHu2dFP5kMzuN0
0001:000178e6* __ZNK6Xapian8Database8Internal16collect_documentEj$w$bu4lHu2dFP5kMzuN0
0001:0001790a* __ZN6Xapian8Database8Internal17as_remotedatabaseEv$w$bu4lHu2dFP5kMzuN0
0001:00017240  __ZTV23InMemoryAllDocsPostList$w$bu4lHu2dFP5kMzuN0
0001:000231d8  __ZTI23InMemoryAllDocsPostList$w$bu4lHu2dFP5kMzuN0
0001:00017b0e  __ZN23InMemoryAllDocsPostListD1Ev$w$bu4lHu2dFP5kMzuN0
0001:00017ba2  __ZN23InMemoryAllDocsPostListD0Ev$w$bu4lHu2dFP5kMzuN0
0001:000176fe* __ZNK12LeafPostList16get_termfreq_minEv$w$bu4lHu2dFP5kMzuN0
0001:00017714* __ZNK12LeafPostList16get_termfreq_estEv$w$bu4lHu2dFP5kMzuN0
0001:000176e8* __ZNK12LeafPostList16get_termfreq_maxEv$w$bu4lHu2dFP5kMzuN0
0001:00017798* __ZNK12LeafPostList13get_maxweightEv$w$bu4lHu2dFP5kMzuN0
0001:0001774e* __ZNK12LeafPostList10get_weightEv$w$bu4lHu2dFP5kMzuN0
0001:000173f8* __ZNK6Xapian15PostingIterator8Internal16get_collapse_keyEv$w$bu4lHu2dFP5kMzuN0
0001:000177b0* __ZN12LeafPostList16recalc_maxweightEv$w$bu4lHu2dFP5kMzuN0
0001:0001772a* __ZN12LeafPostList14set_termweightEPKN6Xapian6WeightE$w$bu4lHu2dFP5kMzuN0
0001:000172a0  __ZTV16InMemoryTermList$w$bu4lHu2dFP5kMzuN0
0001:000231e4  __ZTI16InMemoryTermList$w$bu4lHu2dFP5kMzuN0
0001:00017c3a  __ZN16InMemoryTermListD1Ev$w$bu4lHu2dFP5kMzuN0
0001:00017c98  __ZN16InMemoryTermListD0Ev$w$bu4lHu2dFP5kMzuN0
0001:000172e0  __ZTV16InMemoryPostList$w$bu4lHu2dFP5kMzuN0
0001:000231cc  __ZTI16InMemoryPostList$w$bu4lHu2dFP5kMzuN0
0001:00017912  __ZN16InMemoryPostListD1Ev$w$bu4lHu2dFP5kMzuN0
0001:00017a0e  __ZN16InMemoryPostListD0Ev$w$bu4lHu2dFP5kMzuN0
0001:00017340  __ZTV13EmptyPostList$w$bu4lHu2dFP5kMzuN0
0001:000231c0  __ZTI13EmptyPostList$w$bu4lHu2dFP5kMzuN0
0001:000177c8  __ZN13EmptyPostListD1Ev$w$bu4lHu2dFP5kMzuN0
0001:00017806  __ZN13EmptyPostListD0Ev$w$bu4lHu2dFP5kMzuN0
0001:00017852  __ZNK13EmptyPostList13get_maxweightEv$w$bu4lHu2dFP5kMzuN0
0001:0001785a  __ZNK13EmptyPostList9get_docidEv$w$bu4lHu2dFP5kMzuN0
0001:00017862  __ZNK13EmptyPostList10get_weightEv$w$bu4lHu2dFP5kMzuN0
0001:0001786a  __ZNK13EmptyPostList13get_doclengthEv$w$bu4lHu2dFP5kMzuN0
0001:00017436* __ZNK6Xapian15PostingIterator8Internal7get_wdfEv$w$bu4lHu2dFP5kMzuN0
0001:00017872  __ZN13EmptyPostList18read_position_listEv$w$bu4lHu2dFP5kMzuN0
0001:0001787a  __ZNK13EmptyPostList18open_position_listEv$w$bu4lHu2dFP5kMzuN0
0001:00017882  __ZN13EmptyPostList4nextEd$w$bu4lHu2dFP5kMzuN0
0001:0001788a  __ZN13EmptyPostList7skip_toEjd$w$bu4lHu2dFP5kMzuN0
0001:00017892  __ZNK13EmptyPostList6at_endEv$w$bu4lHu2dFP5kMzuN0
0001:000178a4  __ZNK13EmptyPostList15get_descriptionEv$w$bu4lHu2dFP5kMzuN0
0001:0001784a  __ZNK13EmptyPostList12get_termfreqEv$w$bu4lHu2dFP5kMzuN0
0001:000173a0* __ZTV12LeafPostList$w$bu4lHu2dFP5kMzuN0
0001:000231b4* __ZTI12LeafPostList$w$bu4lHu2dFP5kMzuN0
0001:00017666* __ZN12LeafPostListD1Ev$w$bu4lHu2dFP5kMzuN0
0001:000176a4* __ZN12LeafPostListD0Ev$w$bu4lHu2dFP5kMzuN0
0001:000233d8* __ZN6Xapian18UnimplementedErrorD1Ev$w$bu4lHu2dFP5kMzuN0
0001:00025c40* __ZTIN6Xapian18UnimplementedErrorE$w$bu4lHu2dFP5kMzuN0
0001:00023280* __ZTVN6Xapian15PostingIterator8InternalE$w$bu4lHu2dFP5kMzuN0
0001:000232e0* __ZTVN6Xapian16PositionIterator8InternalE$w$bu4lHu2dFP5kMzuN0
0001:0001f6dc* __ZStplIcSt11char_traitsIcESaIcEESbIT_T0_T1_EPKS3_RKS6_$w$bu4lHu2dFP5kMzuN0
0001:000236d2* __ZSt6__copyISt13_Bit_iteratorS0_ET0_T_S2_S1_St26random_access_iterator_tag$w$bu4lHu2dFP5kMzuN0
0001:00023694* __ZNSt18_Bit_iterator_base7_M_incrEi$w$bu4lHu2dFP5kMzuN0
0001:000237c8* __ZNSt6vectorIbSaIbEE14_M_fill_insertESt13_Bit_iteratorjb$w$bu4lHu2dFP5kMzuN0
0001:0001f60a* __ZNSt8_Rb_treeIjSt4pairIKjSsESt10_Select1stIS2_ESt4lessIjESaIS2_EE8_M_eraseEPSt13_Rb_tree_nodeIS2_E$w$bu4lHu2dFP5kMzuN0
0001:0001f7d2  __ZNSt8_Rb_treeISsSt4pairIKSs12InMemoryTermESt10_Select1stIS3_ESt4lessISsESaIS3_EE8_M_eraseEPSt13_Rb_tree_nodeIS3_E$w$bu4lHu2dFP5kMzuN0
0001:0001a7ce  __ZNKSt8_Rb_treeISsSt4pairIKSs12InMemoryTermESt10_Select1stIS3_ESt4lessISsESaIS3_EE4findERS1_$w$bu4lHu2dFP5kMzuN0
0001:0001f952* __ZStplIcSt11char_traitsIcESaIcEESbIT_T0_T1_ERKS6_S8_$w$bu4lHu2dFP5kMzuN0
0001:000234ac* __ZN6Xapian16DocNotFoundErrorD1Ev$w$bu4lHu2dFP5kMzuN0
0001:00025ca0* __ZTIN6Xapian16DocNotFoundErrorE$w$bu4lHu2dFP5kMzuN0
0001:00023304* __ZN6Xapian20InvalidArgumentErrorD1Ev$w$bu4lHu2dFP5kMzuN0
0001:00025cac* __ZTIN6Xapian20InvalidArgumentErrorE$w$bu4lHu2dFP5kMzuN0
0001:00023580* __ZN6Xapian10RangeErrorD1Ev$w$bu4lHu2dFP5kMzuN0
0001:00025cb8* __ZTIN6Xapian10RangeErrorE$w$bu4lHu2dFP5kMzuN0
0001:00024726* __ZNSt8_Rb_treeIjSt4pairIKjSsESt10_Select1stIS2_ESt4lessIjESaIS2_EEC1ERKS8_$w$bu4lHu2dFP5kMzuN0
0001:0001f9d2  __ZNSt6vectorISt3mapIjSsSt4lessIjESaISt4pairIKjSsEEESaIS7_EE13_M_insert_auxEN9__gnu_cxx17__normal_iteratorIPS7_S9_EERKS7_$w$bu4lHu2dFP5kMzuN0
0001:0001fc56  __ZNSt8_Rb_treeISsSt4pairIKSs12InMemoryTermESt10_Select1stIS3_ESt4lessISsESaIS3_EE4findERS1_$w$bu4lHu2dFP5kMzuN0
0001:0001fd62  __ZNSt6vectorI17InMemoryTermEntrySaIS0_EE5eraseEN9__gnu_cxx17__normal_iteratorIPS0_S2_EES6_$w$bu4lHu2dFP5kMzuN0
0001:00021c24  __ZNSt6vectorI11InMemoryDocSaIS0_EE14_M_fill_insertEN9__gnu_cxx17__normal_iteratorIPS0_S2_EEjRKS0_$w$bu4lHu2dFP5kMzuN0
0001:00020258  __ZSt13__destroy_auxIP17InMemoryTermEntryEvT_S2_12__false_type$w$bu4lHu2dFP5kMzuN0
0001:0001feb4  __ZNSt6vectorIdSaIdEE5eraseEN9__gnu_cxx17__normal_iteratorIPdS1_EES5_$w$bu4lHu2dFP5kMzuN0
0001:000200c2  __ZNSt6vectorISsSaISsEE5eraseEN9__gnu_cxx17__normal_iteratorIPSsS1_EES5_$w$bu4lHu2dFP5kMzuN0
0001:00020ff4  __ZNSt6vectorISt3mapIjSsSt4lessIjESaISt4pairIKjSsEEESaIS7_EE5eraseEN9__gnu_cxx17__normal_iteratorIPS7_S9_EESD_$w$bu4lHu2dFP5kMzuN0
0001:0001f694  __ZNSt8_Rb_treeIjSt4pairIKjSsESt10_Select1stIS2_ESt4lessIjESaIS2_EE5clearEv$w$bu4lHu2dFP5kMzuN0
0001:000223f2  __ZNSt6vectorISt3mapIjSsSt4lessIjESaISt4pairIKjSsEEESaIS7_EE14_M_fill_insertEN9__gnu_cxx17__normal_iteratorIPS7_S9_EEjRKS7_$w$bu4lHu2dFP5kMzuN0
0001:00020c80  __ZNSt6vectorISsSaISsEE14_M_fill_insertEN9__gnu_cxx17__normal_iteratorIPSsS1_EEjRKSs$w$bu4lHu2dFP5kMzuN0
0001:0001fef8  __ZNSt6vectorIdSaIdEE14_M_fill_insertEN9__gnu_cxx17__normal_iteratorIPdS1_EEjRKd$w$bu4lHu2dFP5kMzuN0
0001:0002018c* __ZNSt8_Rb_treeIjSt4pairIKjSsESt10_Select1stIS2_ESt4lessIjESaIS2_EE13insert_uniqueERKS2_$w$bu4lHu2dFP5kMzuN0
0001:0001e65c  __ZNSt8_Rb_treeISsSt4pairIKSs12InMemoryTermESt10_Select1stIS3_ESt4lessISsESaIS3_EE11lower_boundERS1_$w$bu4lHu2dFP5kMzuN0
0001:000205ee  __ZNSt12_Vector_baseI15InMemoryPostingSaIS0_EEC2EjRKS1_$w$bu4lHu2dFP5kMzuN0
0001:000240fe  __ZNSaI15InMemoryPostingED1Ev$w$bu4lHu2dFP5kMzuN0
0001:00021206  __ZSt24__uninitialized_copy_auxIN9__gnu_cxx17__normal_iteratorIPK15InMemoryPostingSt6vectorIS2_SaIS2_EEEEPS2_ET0_T_SB_SA_12__false_type$w$bu4lHu2dFP5kMzuN0
0001:00020644  __ZNSt8_Rb_treeISsSt4pairIKSs12InMemoryTermESt10_Select1stIS3_ESt4lessISsESaIS3_EE13insert_uniqueESt17_Rb_tree_iteratorIS3_RS3_PS3_ERKS3_$w$bu4lHu2dFP5kMzuN0
0001:0002465a  __ZNSt4pairIKSs12InMemoryTermED1Ev$w$bu4lHu2dFP5kMzuN0
0001:000205b0  __ZSt13__destroy_auxIP15InMemoryPostingEvT_S2_12__false_type$w$bu4lHu2dFP5kMzuN0
0001:0002413c  __ZNSt14__simple_allocI15InMemoryPostingSt24__default_alloc_templateILb1ELi0EEE10deallocateEPS0_j$w$bu4lHu2dFP5kMzuN0
0001:000210be  __ZSt24__uninitialized_copy_auxIN9__gnu_cxx17__normal_iteratorIPK17InMemoryTermEntrySt6vectorIS2_SaIS2_EEEEPS2_ET0_T_SB_SA_12__false_type$w$bu4lHu2dFP5kMzuN0
0001:00020320  __ZNSt6vectorI17InMemoryTermEntrySaIS0_EEaSERKS2_$w$bu4lHu2dFP5kMzuN0
0001:00024158  __ZNSt6vectorI17InMemoryTermEntrySaIS0_EED1Ev$w$bu4lHu2dFP5kMzuN0
0001:00024104  __ZNSt12_Vector_baseI15InMemoryPostingSaIS0_EED2Ev$w$bu4lHu2dFP5kMzuN0
0001:0002195e* __ZNSt6vectorISsSaISsEE13_M_insert_auxEN9__gnu_cxx17__normal_iteratorIPSsS1_EERKSs$w$bu4lHu2dFP5kMzuN0
0001:000208b0  __ZNSt6vectorIdSaIdEE13_M_insert_auxEN9__gnu_cxx17__normal_iteratorIPdS1_EERKd$w$bu4lHu2dFP5kMzuN0
0001:00021478  __ZNSt6vectorI11InMemoryDocSaIS0_EE13_M_insert_auxEN9__gnu_cxx17__normal_iteratorIPS0_S2_EERKS0_$w$bu4lHu2dFP5kMzuN0
0001:000209bc* __ZNSt6vectorIjSaIjEE13_M_insert_auxEN9__gnu_cxx17__normal_iteratorIPjS1_EERKj$w$bu4lHu2dFP5kMzuN0
0001:000241e8  __ZSt11lower_boundIN9__gnu_cxx17__normal_iteratorIP15InMemoryPostingSt6vectorIS2_SaIS2_EEEES2_23InMemoryPostingLessThanET_S9_S9_RKT0_T1_$w$bu4lHu2dFP5kMzuN0
0001:0002422e  __ZNSt6vectorI15InMemoryPostingSaIS0_EE6insertEN9__gnu_cxx17__normal_iteratorIPS0_S2_EERKS0_$w$bu4lHu2dFP5kMzuN0
0001:0002442c  __ZSt11lower_boundIN9__gnu_cxx17__normal_iteratorIP17InMemoryTermEntrySt6vectorIS2_SaIS2_EEEES2_25InMemoryTermEntryLessThanET_S9_S9_RKT0_T1_$w$bu4lHu2dFP5kMzuN0
0001:000244da  __ZNSt6vectorI17InMemoryTermEntrySaIS0_EE6insertEN9__gnu_cxx17__normal_iteratorIPS0_S2_EERKS0_$w$bu4lHu2dFP5kMzuN0
0001:00023f1c  __ZNSt6vectorIjSaIjEE15_M_range_insertIN9__gnu_cxx17__normal_iteratorIPKjS1_EEEEvNS4_IPjS1_EET_SA_St20forward_iterator_tag$w$bu4lHu2dFP5kMzuN0
0001:0001f54c  __ZSt4__lgIiET_S0_$w$bu4lHu2dFP5kMzuN0
0001:0001f566  __ZSt16__introsort_loopIN9__gnu_cxx17__normal_iteratorIPjSt6vectorIjSaIjEEEEiEvT_S7_T0_$w$bu4lHu2dFP5kMzuN0
0001:00020ac2  __ZSt22__final_insertion_sortIN9__gnu_cxx17__normal_iteratorIPjSt6vectorIjSaIjEEEEEvT_S7_$w$bu4lHu2dFP5kMzuN0
0001:00024358  __ZNSt6vectorIjSaIjEEaSERKS1_$w$bu4lHu2dFP5kMzuN0
0001:0002490e  __ZSt8__medianIjERKT_S2_S2_S2_$w$bu4lHu2dFP5kMzuN0
0001:0002496a  __ZSt21__unguarded_partitionIN9__gnu_cxx17__normal_iteratorIPjSt6vectorIjSaIjEEEEjET_S7_S7_T0_$w$bu4lHu2dFP5kMzuN0
0001:00024892  __ZSt12partial_sortIN9__gnu_cxx17__normal_iteratorIPjSt6vectorIjSaIjEEEEEvT_S7_S7_$w$bu4lHu2dFP5kMzuN0
0001:00020b28* __ZNSt8_Rb_treeIjSt4pairIKjSsESt10_Select1stIS2_ESt4lessIjESaIS2_EEaSERKS8_$w$bu4lHu2dFP5kMzuN0
0001:00020bcc  __ZSt24__uninitialized_copy_auxIN9__gnu_cxx17__normal_iteratorIPSt3mapIjSsSt4lessIjESaISt4pairIKjSsEEESt6vectorIS9_SaIS9_EEEESE_ET0_T_SG_SF_12__false_type$w$bu4lHu2dFP5kMzuN0
0001:000255f0  __ZSt4fillIN9__gnu_cxx17__normal_iteratorIPdSt6vectorIdSaIdEEEEdEvT_S7_RKT0_$w$bu4lHu2dFP5kMzuN0
0001:00025618  __ZSt6fill_nIPdjdET_S1_T0_RKT1_$w$bu4lHu2dFP5kMzuN0
0001:00020c62  __ZSt6fill_nIN9__gnu_cxx17__normal_iteratorIPdSt6vectorIdSaIdEEEEjdET_S7_T0_RKT1_$w$bu4lHu2dFP5kMzuN0
0001:00025636* __ZNSt8_Rb_treeIjSt4pairIKjSsESt10_Select1stIS2_ESt4lessIjESaIS2_EE9_M_insertEPSt18_Rb_tree_node_baseSA_RKS2_$w$bu4lHu2dFP5kMzuN0
0001:00023ecc* __ZNSt22_Rb_tree_base_iterator12_M_decrementEv$w$bu4lHu2dFP5kMzuN0
0001:000256e0  __ZNSt6vectorI17InMemoryTermEntrySaIS0_EE20_M_allocate_and_copyIN9__gnu_cxx17__normal_iteratorIPKS0_S2_EEEEPS0_jT_SA_$w$bu4lHu2dFP5kMzuN0
0001:00025760  __ZNSt8_Rb_treeISsSt4pairIKSs12InMemoryTermESt10_Select1stIS3_ESt4lessISsESaIS3_EE9_M_insertEPSt18_Rb_tree_node_baseSB_RKS3_$w$bu4lHu2dFP5kMzuN0
0001:00021308  __ZNSt8_Rb_treeISsSt4pairIKSs12InMemoryTermESt10_Select1stIS3_ESt4lessISsESaIS3_EE13insert_uniqueERKS3_$w$bu4lHu2dFP5kMzuN0
0001:000258aa  __ZSt16__insertion_sortIN9__gnu_cxx17__normal_iteratorIPjSt6vectorIjSaIjEEEEEvT_S7_$w$bu4lHu2dFP5kMzuN0
0001:00025874  __ZSt25__unguarded_linear_insertIN9__gnu_cxx17__normal_iteratorIPjSt6vectorIjSaIjEEEEjEvT_T0_$w$bu4lHu2dFP5kMzuN0
0001:000254f2* __ZNSt8_Rb_treeIjSt4pairIKjSsESt10_Select1stIS2_ESt4lessIjESaIS2_EE7_M_copyEPSt13_Rb_tree_nodeIS2_ESB_$w$bu4lHu2dFP5kMzuN0
0001:000222aa* __ZSt24__uninitialized_copy_auxIN9__gnu_cxx17__normal_iteratorIPSsSt6vectorISsSaISsEEEES6_ET0_T_S8_S7_12__false_type$w$bu4lHu2dFP5kMzuN0
0001:00022350  __ZSt26__uninitialized_fill_n_auxIN9__gnu_cxx17__normal_iteratorIPSsSt6vectorISsSaISsEEEEjSsET_S7_T0_RKT1_12__false_type$w$bu4lHu2dFP5kMzuN0
0001:0002208c* __ZSt24__uninitialized_copy_auxIPSsS0_ET0_T_S2_S1_12__false_type$w$bu4lHu2dFP5kMzuN0
0001:0002212e  __ZSt4fillIN9__gnu_cxx17__normal_iteratorIPSsSt6vectorISsSaISsEEEESsEvT_S7_RKT0_$w$bu4lHu2dFP5kMzuN0
0001:00022166  __ZSt26__uninitialized_fill_n_auxIPSsjSsET_S1_T0_RKT1_12__false_type$w$bu4lHu2dFP5kMzuN0
0001:00022206  __ZSt24__uninitialized_copy_auxIN9__gnu_cxx17__normal_iteratorIPSsSt6vectorISsSaISsEEEES2_ET0_T_S8_S7_12__false_type$w$bu4lHu2dFP5kMzuN0
0001:00022730  __ZSt24__uninitialized_copy_auxIN9__gnu_cxx17__normal_iteratorIP11InMemoryDocSt6vectorIS2_SaIS2_EEEES7_ET0_T_S9_S8_12__false_type$w$bu4lHu2dFP5kMzuN0
0001:000228b8  __ZSt24__uninitialized_copy_auxIP11InMemoryDocS1_ET0_T_S3_S2_12__false_type$w$bu4lHu2dFP5kMzuN0
0001:00022a42  __ZSt4fillIN9__gnu_cxx17__normal_iteratorIP11InMemoryDocSt6vectorIS2_SaIS2_EEEES2_EvT_S8_RKT0_$w$bu4lHu2dFP5kMzuN0
0001:00022a86  __ZSt26__uninitialized_fill_n_auxIP11InMemoryDocjS0_ET_S2_T0_RKT1_12__false_type$w$bu4lHu2dFP5kMzuN0
0001:00022c04  __ZSt24__uninitialized_copy_auxIN9__gnu_cxx17__normal_iteratorIP11InMemoryDocSt6vectorIS2_SaIS2_EEEES3_ET0_T_S9_S8_12__false_type$w$bu4lHu2dFP5kMzuN0
0001:00022d90  __ZSt26__uninitialized_fill_n_auxIN9__gnu_cxx17__normal_iteratorIP11InMemoryDocSt6vectorIS2_SaIS2_EEEEjS2_ET_S8_T0_RKT1_12__false_type$w$bu4lHu2dFP5kMzuN0
0001:00023114  __ZSt26__uninitialized_fill_n_auxIN9__gnu_cxx17__normal_iteratorIPSt3mapIjSsSt4lessIjESaISt4pairIKjSsEEESt6vectorIS9_SaIS9_EEEEjS9_ET_SF_T0_RKT1_12__false_type$w$bu4lHu2dFP5kMzuN0
0001:00022f0e  __ZSt24__uninitialized_copy_auxIPSt3mapIjSsSt4lessIjESaISt4pairIKjSsEEES8_ET0_T_SA_S9_12__false_type$w$bu4lHu2dFP5kMzuN0
0001:00022fa0  __ZSt4fillIN9__gnu_cxx17__normal_iteratorIPSt3mapIjSsSt4lessIjESaISt4pairIKjSsEEESt6vectorIS9_SaIS9_EEEES9_EvT_SF_RKT0_$w$bu4lHu2dFP5kMzuN0
0001:00022fd8  __ZSt26__uninitialized_fill_n_auxIPSt3mapIjSsSt4lessIjESaISt4pairIKjSsEEEjS7_ET_S9_T0_RKT1_12__false_type$w$bu4lHu2dFP5kMzuN0
0001:00023074  __ZSt24__uninitialized_copy_auxIN9__gnu_cxx17__normal_iteratorIPSt3mapIjSsSt4lessIjESaISt4pairIKjSsEEESt6vectorIS9_SaIS9_EEEESA_ET0_T_SG_SF_12__false_type$w$bu4lHu2dFP5kMzuN0
0001:0002325f* __ZTS12LeafPostList$w$bu4lHu2dFP5kMzuN0
0001:00025c20* __ZTIN6Xapian15PostingIterator8InternalE$w$bu4lHu2dFP5kMzuN0
0001:0002324f  __ZTS13EmptyPostList$w$bu4lHu2dFP5kMzuN0
0001:0002323c  __ZTS16InMemoryPostList$w$bu4lHu2dFP5kMzuN0
0001:00023222  __ZTS23InMemoryAllDocsPostList$w$bu4lHu2dFP5kMzuN0
0001:0002320f  __ZTS16InMemoryTermList$w$bu4lHu2dFP5kMzuN0
0001:00025c60* __ZTIN6Xapian12TermIterator8InternalE$w$bu4lHu2dFP5kMzuN0
0001:000231fc  __ZTS16InMemoryDatabase$w$bu4lHu2dFP5kMzuN0
0001:00025c80* __ZTIN6Xapian8Database8InternalE$w$bu4lHu2dFP5kMzuN0
0001:00023270* __ZNSt15basic_streambufIcSt11char_traitsIcEE13_S_pback_sizeE$w$bu4lHu2dFP5kMzuN0
0001:00023674* __ZN6Xapian15PostingIterator8InternalD1Ev$w$bu4lHu2dFP5kMzuN0
0001:00023682* __ZN6Xapian15PostingIterator8InternalD0Ev$w$bu4lHu2dFP5kMzuN0
0001:00025c00* __ZTIN6Xapian16PositionIterator8InternalE$w$bu4lHu2dFP5kMzuN0
0001:00023654* __ZN6Xapian16PositionIterator8InternalD1Ev$w$bu4lHu2dFP5kMzuN0
0001:00023662* __ZN6Xapian16PositionIterator8InternalD0Ev$w$bu4lHu2dFP5kMzuN0
0001:00023e1e* __ZSt4fillISt13_Bit_iteratorbEvT_S1_RKT0_$w$bu4lHu2dFP5kMzuN0
0001:000247f8* __ZSt6fill_nISt13_Bit_iteratorjbET_S1_T0_RKT1_$w$bu4lHu2dFP5kMzuN0
0001:000249c8  __ZNSt6vectorI15InMemoryPostingSaIS0_EE13_M_insert_auxEN9__gnu_cxx17__normal_iteratorIPS0_S2_EERKS0_$w$bu4lHu2dFP5kMzuN0
0001:00025eee  __ZNSt6vectorIjSaIjEE20_M_allocate_and_copyIN9__gnu_cxx17__normal_iteratorIPKjS1_EEEEPjjT_S9_$w$bu4lHu2dFP5kMzuN0
0001:00024e12  __ZNSt6vectorI17InMemoryTermEntrySaIS0_EE13_M_insert_auxEN9__gnu_cxx17__normal_iteratorIPS0_S2_EERKS0_$w$bu4lHu2dFP5kMzuN0
0001:00025fae  __ZSt9make_heapIN9__gnu_cxx17__normal_iteratorIPjSt6vectorIjSaIjEEEEEvT_S7_$w$bu4lHu2dFP5kMzuN0
0001:00026006  __ZSt9sort_heapIN9__gnu_cxx17__normal_iteratorIPjSt6vectorIjSaIjEEEEEvT_S7_$w$bu4lHu2dFP5kMzuN0
0001:00025f3c  __ZSt13__adjust_heapIN9__gnu_cxx17__normal_iteratorIPjSt6vectorIjSaIjEEEEijEvT_T0_S8_T1_$w$bu4lHu2dFP5kMzuN0
0001:00025908  __ZSt24__uninitialized_copy_auxIN9__gnu_cxx17__normal_iteratorIP15InMemoryPostingSt6vectorIS2_SaIS2_EEEES7_ET0_T_S9_S8_12__false_type$w$bu4lHu2dFP5kMzuN0
0001:00025a20  __ZSt24__uninitialized_copy_auxIN9__gnu_cxx17__normal_iteratorIP17InMemoryTermEntrySt6vectorIS2_SaIS2_EEEES7_ET0_T_S9_S8_12__false_type$w$bu4lHu2dFP5kMzuN0
0001:00026064* __ZNSt8_Rb_treeIjSt4pairIKjSsESt10_Select1stIS2_ESt4lessIjESaIS2_EE14_M_create_nodeERKS2_$w$bu4lHu2dFP5kMzuN0
0001:00025de6* __ZSt18_Rb_tree_rebalancePSt18_Rb_tree_node_baseRS0_$w$bu4lHu2dFP5kMzuN0
0001:000260d6  __ZNSt8_Rb_treeISsSt4pairIKSs12InMemoryTermESt10_Select1stIS3_ESt4lessISsESaIS3_EE14_M_create_nodeERKS3_$w$bu4lHu2dFP5kMzuN0
0001:00025dc0* __ZTSN6Xapian16PositionIterator8InternalE$w$bu4lHu2dFP5kMzuN0
0001:00026208* __ZTIN6Xapian8Internal10RefCntBaseE$w$bu4lHu2dFP5kMzuN0
0001:00025d80* __ZTSN6Xapian15PostingIterator8InternalE$w$bu4lHu2dFP5kMzuN0
0001:00025d61* __ZTSN6Xapian18UnimplementedErrorE$w$bu4lHu2dFP5kMzuN0
0001:000261fc* __ZTIN6Xapian10LogicErrorE$w$bu4lHu2dFP5kMzuN0
0001:00025d40* __ZTSN6Xapian12TermIterator8InternalE$w$bu4lHu2dFP5kMzuN0
0001:00025d1c* __ZTSN6Xapian8Database8InternalE$w$bu4lHu2dFP5kMzuN0
0001:00025d00* __ZTSN6Xapian16DocNotFoundErrorE$w$bu4lHu2dFP5kMzuN0
0001:000261f0* __ZTIN6Xapian12RuntimeErrorE$w$bu4lHu2dFP5kMzuN0
0001:00025ce0* __ZTSN6Xapian20InvalidArgumentErrorE$w$bu4lHu2dFP5kMzuN0
0001:00025cc4* __ZTSN6Xapian10RangeErrorE$w$bu4lHu2dFP5kMzuN0
0001:0002625e* __ZSt20_Rb_tree_rotate_leftPSt18_Rb_tree_node_baseRS0_$w$bu4lHu2dFP5kMzuN0
0001:000262a0* __ZSt21_Rb_tree_rotate_rightPSt18_Rb_tree_node_baseRS0_$w$bu4lHu2dFP5kMzuN0
0001:000262e2  __ZSt11__push_heapIN9__gnu_cxx17__normal_iteratorIPjSt6vectorIjSaIjEEEEijEvT_T0_S8_T1_$w$bu4lHu2dFP5kMzuN0
0001:00026245* __ZTSN6Xapian12RuntimeErrorE$w$bu4lHu2dFP5kMzuN0
0001:0002631c* __ZTIN6Xapian5ErrorE$w$bu4lHu2dFP5kMzuN0
0001:0002622f* __ZTSN6Xapian10LogicErrorE$w$bu4lHu2dFP5kMzuN0
0001:00026210* __ZTSN6Xapian8Internal10RefCntBaseE$w$bu4lHu2dFP5kMzuN0
0001:00026324* __ZTSN6Xapian5ErrorE$w$bu4lHu2dFP5kMzuN0
0002:00015640* __ZN16__Atomicity_lockILi0EE17_S_atomicity_lockE$w$bu4lHu2dFP5kMzuN0
Module: F:\rd\dse\xapian-core-1.0.2\.libs\xapian.a(backends\flint\flint_database.cc)
0001:0002f222* __ZN21FlintWritableDatabaseD1Ev
0001:0002f45e* __ZN21FlintWritableDatabaseD0Ev
0001:00034420* __ZNK21FlintWritableDatabase12get_doccountEv
0001:00034430* __ZNK21FlintWritableDatabase13get_lastdocidEv
0001:00034444* __ZNK21FlintWritableDatabase12get_avlengthEv
0001:000344a2* __ZNK21FlintWritableDatabase13get_doclengthEj
0001:00034500* __ZNK21FlintWritableDatabase12get_termfreqERKSs
0001:0003455e* __ZNK21FlintWritableDatabase19get_collection_freqERKSs
0001:000345bc* __ZNK21FlintWritableDatabase11term_existsERKSs
0001:000345e0* __ZNK21FlintWritableDatabase13has_positionsEv
0001:000345fc* __ZNK21FlintWritableDatabase14open_post_listERKSs
0001:00034a30* __ZNK21FlintWritableDatabase14open_term_listEj
0001:000350d0* __ZNK21FlintWritableDatabase13open_alltermsERKSs
0001:00034c94* __ZNK21FlintWritableDatabase18open_position_listEjRKSs
0001:00034b60* __ZNK21FlintWritableDatabase13open_documentEjb
0001:00035582* __ZNK21FlintWritableDatabase22open_spelling_termlistERKSs
0001:00035598* __ZNK21FlintWritableDatabase22open_spelling_wordlistEv
0001:000357c6* __ZNK21FlintWritableDatabase22get_spelling_frequencyERKSs
0001:00035556* __ZNK21FlintWritableDatabase12add_spellingERKSsj
0001:0003556c* __ZNK21FlintWritableDatabase15remove_spellingERKSsj
0001:000357dc* __ZNK21FlintWritableDatabase21open_synonym_termlistERKSs
0001:000357f2* __ZNK21FlintWritableDatabase20open_synonym_keylistERKSs
0001:00035934* __ZNK21FlintWritableDatabase11add_synonymERKSsS1_
0001:0003594a* __ZNK21FlintWritableDatabase14remove_synonymERKSsS1_
0001:00035960* __ZNK21FlintWritableDatabase14clear_synonymsERKSs
0001:0002f6d8* __ZN21FlintWritableDatabase5flushEv
0001:00035452* __ZN21FlintWritableDatabase6cancelEv
0001:0002fb32* __ZN21FlintWritableDatabase12add_documentERKN6Xapian8DocumentE
0001:00030de2* __ZN21FlintWritableDatabase15delete_documentEj
0001:00031f24* __ZN21FlintWritableDatabase16replace_documentEjRKN6Xapian8DocumentE
0001:0002b640* __ZN13FlintDatabaseD1Ev
0001:0002bcf8* __ZN13FlintDatabaseD0Ev
0001:0002d7f0* __ZNK13FlintDatabase12get_doccountEv
0001:0002d800* __ZNK13FlintDatabase13get_lastdocidEv
0001:0002d814* __ZNK13FlintDatabase12get_avlengthEv
0001:0002d876* __ZNK13FlintDatabase13get_doclengthEj
0001:0002daba* __ZNK13FlintDatabase12get_termfreqERKSs
0001:0002dacc* __ZNK13FlintDatabase19get_collection_freqERKSs
0001:0002dae2* __ZNK13FlintDatabase11term_existsERKSs
0001:0002dccc* __ZNK13FlintDatabase13has_positionsEv
0001:0002dce6* __ZNK13FlintDatabase14open_post_listERKSs
0001:0002df2a* __ZNK13FlintDatabase14open_term_listEj
0001:0002e5e8* __ZNK13FlintDatabase13open_alltermsERKSs
0001:0002e1de* __ZNK13FlintDatabase18open_position_listEjRKSs
0001:0002e05a* __ZNK13FlintDatabase13open_documentEjb
0001:0002e700* __ZNK13FlintDatabase22open_spelling_termlistERKSs
0001:0002e718* __ZNK13FlintDatabase22open_spelling_wordlistEv
0001:0002e93e* __ZNK13FlintDatabase22get_spelling_frequencyERKSs
0001:0002e954* __ZNK13FlintDatabase21open_synonym_termlistERKSs
0001:0002e96a* __ZNK13FlintDatabase20open_synonym_keylistERKSs
0001:0002cf2c* __ZN13FlintDatabase6reopenEv
0001:0002d678* __ZN13FlintDatabase6cancelEv
0001:00026a10* __ZN13FlintDatabaseC2ERKSsij
0001:0002c3b8* __ZN13FlintDatabase15database_existsEv
0001:0002c7f6* __ZN13FlintDatabase22open_tables_consistentEv
0001:0002cfba* __ZN13FlintDatabase23get_database_write_lockEv
0001:0002c440* __ZN13FlintDatabase22create_and_open_tablesEj
0001:0002ce7a* __ZNK13FlintDatabase24get_next_revision_numberEv
0001:0002ce8c* __ZN13FlintDatabase19set_revision_numberEj
0001:00028ccc  __ZN13FlintDatabaseC1ERKSsij
0001:0002af88* __ZN13FlintDatabaseD2Ev
0001:0002cd7c* __ZN13FlintDatabase11open_tablesEj
0001:0002ce6e* __ZNK13FlintDatabase19get_revision_numberEv
0001:0002d290* __ZN13FlintDatabase5applyEv
0001:0002eabc* __ZN21FlintWritableDatabaseC2ERKSsii
0001:0002ed50  __ZN21FlintWritableDatabaseC1ERKSsii
0001:0002efe6* __ZN21FlintWritableDatabaseD2Ev
0001:0002f96a* __ZNK21FlintWritableDatabase14do_flush_constEv
0001:0002fda2* __ZN21FlintWritableDatabase13add_document_EjRKN6Xapian8DocumentE
0002:00015650* __ZN21FlintWritableDatabase15flush_thresholdE
0001:00026340  __ZTV21FlintWritableDatabase$w$bgb8VaScFP5G8Iuq2
0001:000264d8* __ZN6Xapian8Database8Internal6reopenEv$w$bgb8VaScFP5G8Iuq2
0001:000264de* __ZNK6Xapian8Database8Internal16request_documentEj$w$bgb8VaScFP5G8Iuq2
0001:000264e4* __ZNK6Xapian8Database8Internal16collect_documentEj$w$bgb8VaScFP5G8Iuq2
0001:00026508* __ZN6Xapian8Database8Internal17as_remotedatabaseEv$w$bgb8VaScFP5G8Iuq2
0001:000263e0  __ZTV13FlintDatabase$w$bgb8VaScFP5G8Iuq2
0001:00026480* __ZTV12LeafPostList$w$bgb8VaScFP5G8Iuq2
0001:0002677e* __ZN12LeafPostListD1Ev$w$bgb8VaScFP5G8Iuq2
0001:000267bc* __ZN12LeafPostListD0Ev$w$bgb8VaScFP5G8Iuq2
0001:00026816* __ZNK12LeafPostList16get_termfreq_minEv$w$bgb8VaScFP5G8Iuq2
0001:0002682c* __ZNK12LeafPostList16get_termfreq_estEv$w$bgb8VaScFP5G8Iuq2
0001:00026800* __ZNK12LeafPostList16get_termfreq_maxEv$w$bgb8VaScFP5G8Iuq2
0001:000268b0* __ZNK12LeafPostList13get_maxweightEv$w$bgb8VaScFP5G8Iuq2
0001:00026866* __ZNK12LeafPostList10get_weightEv$w$bgb8VaScFP5G8Iuq2
0001:00026510* __ZNK6Xapian15PostingIterator8Internal16get_collapse_keyEv$w$bgb8VaScFP5G8Iuq2
0001:000268c8* __ZN12LeafPostList16recalc_maxweightEv$w$bgb8VaScFP5G8Iuq2
0001:0002654e* __ZNK6Xapian15PostingIterator8Internal7get_wdfEv$w$bgb8VaScFP5G8Iuq2
0001:00026842* __ZN12LeafPostList14set_termweightEPKN6Xapian6WeightE$w$bgb8VaScFP5G8Iuq2
0001:00035ae8  __ZNSt8_Rb_treeISsSsSt9_IdentityISsESt4lessISsESaISsEEC1ERKS3_RKS4_$w$bgb8VaScFP5G8Iuq2
0001:000359f6  __ZNSt14__simple_allocISt13_Rb_tree_nodeISt4pairIK8fragmentSt3setISsSt4lessISsESaISsEEEESt24__default_alloc_templateILb1ELi0EEE8allocateEj$w$bgb8VaScFP5G8Iuq2
0001:00035a16  __ZNSt8_Rb_treeI8fragmentSt4pairIKS0_St3setISsSt4lessISsESaISsEEESt10_Select1stIS8_ES4_IS0_ESaIS8_EE19_M_empty_initializeEv$w$bgb8VaScFP5G8Iuq2
0001:00035cce* __ZStplIcSt11char_traitsIcESaIcEESbIT_T0_T1_EPKS3_RKS6_$w$bgb8VaScFP5G8Iuq2
0001:00035b2e  __ZNSt8_Rb_treeISsSsSt9_IdentityISsESt4lessISsESaISsEE8_M_eraseEPSt13_Rb_tree_nodeISsE$w$bgb8VaScFP5G8Iuq2
0001:00035a38  __ZNSt8_Rb_treeI8fragmentSt4pairIKS0_St3setISsSt4lessISsESaISsEEESt10_Select1stIS8_ES4_IS0_ESaIS8_EE8_M_eraseEPSt13_Rb_tree_nodeIS8_E$w$bgb8VaScFP5G8Iuq2
0001:00035dc4  __ZNSt8_Rb_treeISsSt4pairIKSsS0_IiiEESt10_Select1stIS3_ESt4lessISsESaIS3_EE8_M_eraseEPSt13_Rb_tree_nodeIS3_E$w$bgb8VaScFP5G8Iuq2
0001:00035e4e  __ZNSt8_Rb_treeIjSt4pairIKjjESt10_Select1stIS2_ESt4lessIjESaIS2_EE8_M_eraseEPSt13_Rb_tree_nodeIS2_E$w$bgb8VaScFP5G8Iuq2
0001:00035e92  __ZNSt8_Rb_treeISsSt4pairIKSsSt3mapIjS0_IcjESt4lessIjESaIS0_IKjS3_EEEESt10_Select1stISA_ES4_ISsESaISA_EE8_M_eraseEPSt13_Rb_tree_nodeISA_E$w$bgb8VaScFP5G8Iuq2
0001:00035fd4  __ZNSt8_Rb_treeISsSt4pairIKSsS0_IiiEESt10_Select1stIS3_ESt4lessISsESaIS3_EE4findERS1_$w$bgb8VaScFP5G8Iuq2
0001:00036250  __ZNSt8_Rb_treeISsSt4pairIKSsSt3mapIjS0_IcjESt4lessIjESaIS0_IKjS3_EEEESt10_Select1stISA_ES4_ISsESaISA_EE4findERS1_$w$bgb8VaScFP5G8Iuq2
0001:00035bb8  __ZNSt8_Rb_treeIjSt4pairIKjS0_IcjEESt10_Select1stIS3_ESt4lessIjESaIS3_EEC1ERKS9_$w$bgb8VaScFP5G8Iuq2
0001:00035c8a  __ZNSt8_Rb_treeIjSt4pairIKjS0_IcjEESt10_Select1stIS3_ESt4lessIjESaIS3_EE8_M_eraseEPSt13_Rb_tree_nodeIS3_E$w$bgb8VaScFP5G8Iuq2
0001:000360e0  __ZNSt8_Rb_treeISsSt4pairIKSsS0_IiiEESt10_Select1stIS3_ESt4lessISsESaIS3_EE13insert_uniqueERKS3_$w$bgb8VaScFP5G8Iuq2
0001:00035976* __ZStplIcSt11char_traitsIcESaIcEESbIT_T0_T1_ERKS6_S8_$w$bgb8VaScFP5G8Iuq2
0001:00036a50  __ZTI21FlintWritableDatabase$w$bgb8VaScFP5G8Iuq2
0001:00036a44  __ZTI13FlintDatabase$w$bgb8VaScFP5G8Iuq2
0001:00036a38* __ZTI12LeafPostList$w$bgb8VaScFP5G8Iuq2
0001:00036bee* __ZN6Xapian18UnimplementedErrorD1Ev$w$bgb8VaScFP5G8Iuq2
0001:00038080* __ZTIN6Xapian18UnimplementedErrorE$w$bgb8VaScFP5G8Iuq2
0001:00036aa0* __ZTVN6Xapian15PostingIterator8InternalE$w$bgb8VaScFP5G8Iuq2
0001:000370e6* __ZN6Xapian20DatabaseOpeningErrorD1Ev$w$bgb8VaScFP5G8Iuq2
0001:00038098* __ZTIN6Xapian20DatabaseOpeningErrorE$w$bgb8VaScFP5G8Iuq2
0001:00036e6a  __ZN6Xapian19DatabaseCreateErrorD1Ev$w$bgb8VaScFP5G8Iuq2
0001:000380a4  __ZTIN6Xapian19DatabaseCreateErrorE$w$bgb8VaScFP5G8Iuq2
0001:0003742e  __ZNSt8_Rb_treeISsSt4pairIKSsjESt10_Select1stIS2_ESt4lessISsESaIS2_EED1Ev$w$bgb8VaScFP5G8Iuq2
0001:000374a8  __ZNSt8_Rb_treeISsSt4pairIKSsjESt10_Select1stIS2_ESt4lessISsESaIS2_EE8_M_eraseEPSt13_Rb_tree_nodeIS2_E$w$bgb8VaScFP5G8Iuq2
0001:00037012  __ZN6Xapian21DatabaseModifiedErrorD1Ev$w$bgb8VaScFP5G8Iuq2
0001:000380bc  __ZTIN6Xapian21DatabaseModifiedErrorE$w$bgb8VaScFP5G8Iuq2
0001:00036d96  __ZN6Xapian20DatabaseCorruptErrorD1Ev$w$bgb8VaScFP5G8Iuq2
0001:000380b0  __ZTIN6Xapian20DatabaseCorruptErrorE$w$bgb8VaScFP5G8Iuq2
0001:00036f3e  __ZN6Xapian17DatabaseLockErrorD1Ev$w$bgb8VaScFP5G8Iuq2
0001:000380c8  __ZTIN6Xapian17DatabaseLockErrorE$w$bgb8VaScFP5G8Iuq2
0001:00036cc2  __ZN6Xapian13DatabaseErrorD1Ev$w$bgb8VaScFP5G8Iuq2
0001:000380d4* __ZTIN6Xapian13DatabaseErrorE$w$bgb8VaScFP5G8Iuq2
0001:000380ec* __ZTIN6Xapian5ErrorE$w$bgb8VaScFP5G8Iuq2
0001:000371ba  __ZN6Xapian10RangeErrorD1Ev$w$bgb8VaScFP5G8Iuq2
0001:000380e0  __ZTIN6Xapian10RangeErrorE$w$bgb8VaScFP5G8Iuq2
0001:000376e0  __ZN17FlintAllTermsListC1EN6Xapian8Internal9RefCntPtrIKNS0_8Database8InternalEEEPK18FlintPostListTableRKSs$w$bgb8VaScFP5G8Iuq2
0001:00037532  __ZN20FlintSynonymTermListC1EN6Xapian8Internal9RefCntPtrIKNS0_8Database8InternalEEEP11FlintCursorjRKSs$w$bgb8VaScFP5G8Iuq2
0001:00036b1a* __ZN6Xapian21InvalidOperationErrorD1Ev$w$bgb8VaScFP5G8Iuq2
0001:0003808c* __ZTIN6Xapian21InvalidOperationErrorE$w$bgb8VaScFP5G8Iuq2
0001:0003635c  __ZNSt8_Rb_treeISsSt4pairIKSsSt3mapIjS0_IcjESt4lessIjESaIS0_IKjS3_EEEESt10_Select1stISA_ES4_ISsESaISA_EE13insert_uniqueERKSA_$w$bgb8VaScFP5G8Iuq2
0001:000364cc  __ZNSt8_Rb_treeIjSt4pairIKjS0_IcjEESt10_Select1stIS3_ESt4lessIjESaIS3_EE13insert_uniqueERKS3_$w$bgb8VaScFP5G8Iuq2
0001:00036598  __ZNSt8_Rb_treeIjSt4pairIKjjESt10_Select1stIS2_ESt4lessIjESaIS2_EE11lower_boundERS1_$w$bgb8VaScFP5G8Iuq2
0001:000365cc  __ZNSt8_Rb_treeIjSt4pairIKjjESt10_Select1stIS2_ESt4lessIjESaIS2_EE13insert_uniqueESt17_Rb_tree_iteratorIS2_RS2_PS2_ERKS2_$w$bgb8VaScFP5G8Iuq2
0001:0003728e  __Z25pack_uint_preserving_sortIjESsT_$w$bgb8VaScFP5G8Iuq2
0001:000366a4  __ZNSt8_Rb_treeIjSt4pairIKjS0_IcjEESt10_Select1stIS3_ESt4lessIjESaIS3_EE4findERS1_$w$bgb8VaScFP5G8Iuq2
0001:000366fa  __ZNSt8_Rb_treeIjSt4pairIKjjESt10_Select1stIS2_ESt4lessIjESaIS2_EE5eraseERS1_$w$bgb8VaScFP5G8Iuq2
0001:00036820  __ZNSt4listISt4pairISsjESaIS1_EE6insertESt14_List_iteratorIS1_RS1_PS1_ERKS1_$w$bgb8VaScFP5G8Iuq2
0001:0003679e  __ZNSt10_List_baseISt4pairISsjESaIS1_EE7__clearEv$w$bgb8VaScFP5G8Iuq2
0001:000380f4  __ZTIN6Xapian16DocNotFoundErrorE$w$bgb8VaScFP5G8Iuq2
0001:00037ac6  __ZNSt8_Rb_treeIjSt4pairIKjjESt10_Select1stIS2_ESt4lessIjESaIS2_EE4findERS1_$w$bgb8VaScFP5G8Iuq2
0001:0003686c  __ZNSt8_Rb_treeIjSt4pairIKjS0_IcjEESt10_Select1stIS3_ESt4lessIjESaIS3_EE7_M_copyEPSt13_Rb_tree_nodeIS3_ESC_$w$bgb8VaScFP5G8Iuq2
0001:000373be* __ZNSt22_Rb_tree_base_iterator12_M_decrementEv$w$bgb8VaScFP5G8Iuq2
0001:00037b1c  __ZNSt8_Rb_treeISsSt4pairIKSsS0_IiiEESt10_Select1stIS3_ESt4lessISsESaIS3_EE9_M_insertEPSt18_Rb_tree_node_baseSB_RKS3_$w$bgb8VaScFP5G8Iuq2
0001:00037c30  __ZNSt8_Rb_treeISsSt4pairIKSsSt3mapIjS0_IcjESt4lessIjESaIS0_IKjS3_EEEESt10_Select1stISA_ES4_ISsESaISA_EE9_M_insertEPSt18_Rb_tree_node_baseSH_RKSA_$w$bgb8VaScFP5G8Iuq2
0001:00037d80  __ZNSt8_Rb_treeIjSt4pairIKjS0_IcjEESt10_Select1stIS3_ESt4lessIjESaIS3_EE9_M_insertEPSt18_Rb_tree_node_baseSB_RKS3_$w$bgb8VaScFP5G8Iuq2
0001:00037e2a  __ZNSt8_Rb_treeIjSt4pairIKjjESt10_Select1stIS2_ESt4lessIjESaIS2_EE9_M_insertEPSt18_Rb_tree_node_baseSA_RKS2_$w$bgb8VaScFP5G8Iuq2
0001:0003696a  __ZNSt8_Rb_treeIjSt4pairIKjjESt10_Select1stIS2_ESt4lessIjESaIS2_EE13insert_uniqueERKS2_$w$bgb8VaScFP5G8Iuq2
0001:00037ed4  __ZNSt8_Rb_treeIjSt4pairIKjjESt10_Select1stIS2_ESt4lessIjESaIS2_EE11upper_boundERS1_$w$bgb8VaScFP5G8Iuq2
0001:00037f08  __ZNSt8_Rb_treeIjSt4pairIKjjESt10_Select1stIS2_ESt4lessIjESaIS2_EE5eraseESt17_Rb_tree_iteratorIS2_RS2_PS2_ESC_$w$bgb8VaScFP5G8Iuq2
0001:00037376* __ZNSt22_Rb_tree_base_iterator12_M_incrementEv$w$bgb8VaScFP5G8Iuq2
0001:00037fbc  __ZNSt4listISt4pairISsjESaIS1_EE14_M_create_nodeERKS1_$w$bgb8VaScFP5G8Iuq2
0001:00037d44  __ZNSt8_Rb_treeIjSt4pairIKjS0_IcjEESt10_Select1stIS3_ESt4lessIjESaIS3_EE14_M_create_nodeERKS3_$w$bgb8VaScFP5G8Iuq2
0001:00036a84* __ZTS12LeafPostList$w$bgb8VaScFP5G8Iuq2
0001:00038060* __ZTIN6Xapian15PostingIterator8InternalE$w$bgb8VaScFP5G8Iuq2
0001:00036a74  __ZTS13FlintDatabase$w$bgb8VaScFP5G8Iuq2
0001:00038040* __ZTIN6Xapian8Database8InternalE$w$bgb8VaScFP5G8Iuq2
0001:00036a5c  __ZTS21FlintWritableDatabase$w$bgb8VaScFP5G8Iuq2
0001:00036a94* __ZNSt15basic_streambufIcSt11char_traitsIcEE13_S_pback_sizeE$w$bgb8VaScFP5G8Iuq2
0001:0003740e* __ZN6Xapian15PostingIterator8InternalD1Ev$w$bgb8VaScFP5G8Iuq2
0001:0003741c* __ZN6Xapian15PostingIterator8InternalD0Ev$w$bgb8VaScFP5G8Iuq2
0001:0003868e  __ZNSt8_Rb_treeISsSt4pairIKSsS0_IiiEESt10_Select1stIS3_ESt4lessISsESaIS3_EE14_M_create_nodeERKS3_$w$bgb8VaScFP5G8Iuq2
0001:000382a0* __ZSt18_Rb_tree_rebalancePSt18_Rb_tree_node_baseRS0_$w$bgb8VaScFP5G8Iuq2
0001:00038708  __ZNSt8_Rb_treeISsSt4pairIKSsSt3mapIjS0_IcjESt4lessIjESaIS0_IKjS3_EEEESt10_Select1stISA_ES4_ISsESaISA_EE14_M_create_nodeERKSA_$w$bgb8VaScFP5G8Iuq2
0001:000387ce  __ZNSt8_Rb_treeIjSt4pairIKjjESt10_Select1stIS2_ESt4lessIjESaIS2_EE14_M_create_nodeERKS2_$w$bgb8VaScFP5G8Iuq2
0001:000383a8* __ZSt28_Rb_tree_rebalance_for_erasePSt18_Rb_tree_node_baseRS0_S1_S1_$w$bgb8VaScFP5G8Iuq2
0001:00038284* __ZTSN6Xapian8Database8InternalE$w$bgb8VaScFP5G8Iuq2
0001:00038814* __ZTIN6Xapian8Internal10RefCntBaseE$w$bgb8VaScFP5G8Iuq2
0001:00038260* __ZTSN6Xapian15PostingIterator8InternalE$w$bgb8VaScFP5G8Iuq2
0001:00038241* __ZTSN6Xapian18UnimplementedErrorE$w$bgb8VaScFP5G8Iuq2
0001:00038808* __ZTIN6Xapian10LogicErrorE$w$bgb8VaScFP5G8Iuq2
0001:00038220* __ZTSN6Xapian21InvalidOperationErrorE$w$bgb8VaScFP5G8Iuq2
0001:00038200* __ZTSN6Xapian20DatabaseOpeningErrorE$w$bgb8VaScFP5G8Iuq2
0001:000381e0  __ZTSN6Xapian19DatabaseCreateErrorE$w$bgb8VaScFP5G8Iuq2
0001:000381c0  __ZTSN6Xapian20DatabaseCorruptErrorE$w$bgb8VaScFP5G8Iuq2
0001:00038180  __ZTSN6Xapian21DatabaseModifiedErrorE$w$bgb8VaScFP5G8Iuq2
0001:0003815b  __ZTSN6Xapian17DatabaseLockErrorE$w$bgb8VaScFP5G8Iuq2
0001:00038142* __ZTSN6Xapian13DatabaseErrorE$w$bgb8VaScFP5G8Iuq2
0001:000387fc* __ZTIN6Xapian12RuntimeErrorE$w$bgb8VaScFP5G8Iuq2
0001:0003812c  __ZTSN6Xapian10RangeErrorE$w$bgb8VaScFP5G8Iuq2
0001:0003811c* __ZTSN6Xapian5ErrorE$w$bgb8VaScFP5G8Iuq2
0001:00038100  __ZTSN6Xapian16DocNotFoundErrorE$w$bgb8VaScFP5G8Iuq2
0001:0003886a* __ZSt20_Rb_tree_rotate_leftPSt18_Rb_tree_node_baseRS0_$w$bgb8VaScFP5G8Iuq2
0001:000388ac* __ZSt21_Rb_tree_rotate_rightPSt18_Rb_tree_node_baseRS0_$w$bgb8VaScFP5G8Iuq2
0001:00038851* __ZTSN6Xapian12RuntimeErrorE$w$bgb8VaScFP5G8Iuq2
0001:0003883b* __ZTSN6Xapian10LogicErrorE$w$bgb8VaScFP5G8Iuq2
0001:0003881c* __ZTSN6Xapian8Internal10RefCntBaseE$w$bgb8VaScFP5G8Iuq2
0002:00015654* __ZN16__Atomicity_lockILi0EE17_S_atomicity_lockE$w$bgb8VaScFP5G8Iuq2
Module: F:\rd\dse\xapian-core-1.0.2\.libs\xapian.a(languages\porter.cc)
0001:00039886* __ZN6Xapian18InternalStemPorterD1Ev
0001:000398a2* __ZN6Xapian18InternalStemPorterD0Ev
0001:0003947c* __ZN6Xapian18InternalStemPorter4stemEv
0001:000398d2* __ZNK6Xapian18InternalStemPorter15get_descriptionEv
0001:00038918* __ZN6Xapian18InternalStemPorter8r_shortvEv
0001:000389ba* __ZN6Xapian18InternalStemPorter4r_R1Ev
0001:000389ce* __ZN6Xapian18InternalStemPorter4r_R2Ev
0001:000389e2* __ZN6Xapian18InternalStemPorter9r_Step_1aEv
0001:00038aba* __ZN6Xapian18InternalStemPorter9r_Step_1bEv
0001:00038dfe* __ZN6Xapian18InternalStemPorter9r_Step_1cEv
0001:00038ec0* __ZN6Xapian18InternalStemPorter8r_Step_2Ev
0001:00039070* __ZN6Xapian18InternalStemPorter8r_Step_3Ev
0001:0003917c* __ZN6Xapian18InternalStemPorter8r_Step_4Ev
0001:000392b0* __ZN6Xapian18InternalStemPorter9r_Step_5aEv
0001:000393e6* __ZN6Xapian18InternalStemPorter9r_Step_5bEv
0001:00039802* __ZN6Xapian18InternalStemPorterC2Ev
0001:00039836  __ZN6Xapian18InternalStemPorterC1Ev
0001:0003986a* __ZN6Xapian18InternalStemPorterD2Ev
0001:00038900  __ZTVN6Xapian18InternalStemPorterE$w$HopDsw9dFP5w04Zg2
0001:000398dc  __ZTIN6Xapian18InternalStemPorterE$w$HopDsw9dFP5w04Zg2
0001:00039d9c  __ZTSN6Xapian18InternalStemPorterE$w$HopDsw9dFP5w04Zg2
0001:00039ec0* __ZTIN6Xapian4Stem8InternalE$w$HopDsw9dFP5w04Zg2
0001:00039ee0* __ZTSN6Xapian4Stem8InternalE$w$HopDsw9dFP5w04Zg2
0001:00039ef8* __ZTIN6Xapian8Internal10RefCntBaseE$w$HopDsw9dFP5w04Zg2
0001:00039f00* __ZTSN6Xapian8Internal10RefCntBaseE$w$HopDsw9dFP5w04Zg2
0002:00015660* __ZN16__Atomicity_lockILi0EE17_S_atomicity_lockE$w$HopDsw9dFP5w04Zg2
Module: F:\rd\dse\xapian-core-1.0.2\.libs\xapian.a(backends\flint\flint_positionlist.cc)
0001:0003b02a* __ZNK17FlintPositionList8get_sizeEv
0001:0003b03c* __ZNK17FlintPositionList12get_positionEv
0001:0003b04a* __ZN17FlintPositionList4nextEv
0001:0003b062* __ZN17FlintPositionList7skip_toEj
0001:0003b09c* __ZNK17FlintPositionList6at_endEv
0001:00039fe0* __ZN6Xapian9BitReader20decode_interpolativeERSt6vectorIjSaIjEEii
0001:0003a08c  __ZN22FlintPositionListTable16set_positionlistEjRKSsN6Xapian16PositionIteratorERKS3_
0001:0003a880  __ZN17FlintPositionList9read_dataEPK10FlintTablejRKSs
0001:00039f20  __ZTV17FlintPositionList$w$nQaGqOTcFP5cxbMK1
0001:0003b430  __ZTI17FlintPositionList$w$nQaGqOTcFP5cxbMK1
0001:00039f44  __ZN17FlintPositionListD1Ev$w$nQaGqOTcFP5cxbMK1
0001:00039f90  __ZN17FlintPositionListD0Ev$w$nQaGqOTcFP5cxbMK1
0001:0003b460  __ZTVN6Xapian16PositionIterator8InternalE$w$nQaGqOTcFP5cxbMK1
0001:0003bbf0  __ZN6Xapian9BitReader6decodeEj$w$nQaGqOTcFP5cxbMK1
0001:0003b720* __Z25pack_uint_preserving_sortIjESsT_$w$nQaGqOTcFP5cxbMK1
0001:0003b0b4* __ZStplIcSt11char_traitsIcESaIcEESbIT_T0_T1_ERKS6_S8_$w$nQaGqOTcFP5cxbMK1
0001:0003b5dc  __Z9pack_uintIjESsT_$w$nQaGqOTcFP5cxbMK1
0001:0003b828  __ZN9BitWriter6encodeEjj$w$nQaGqOTcFP5cxbMK1
0001:0003b134* __ZNSt6vectorIjSaIjEE13_M_insert_auxEN9__gnu_cxx17__normal_iteratorIPjS1_EERKj$w$nQaGqOTcFP5cxbMK1
0001:0003bc9e* __ZNSt6vectorIjSaIjEE5eraseEN9__gnu_cxx17__normal_iteratorIPjS1_EES5_$w$nQaGqOTcFP5cxbMK1
0001:0003b558  __Z11unpack_uintIjEbPPKcS1_PT_$w$nQaGqOTcFP5cxbMK1
0001:0003b23a  __ZNSt6vectorIjSaIjEE14_M_fill_insertEN9__gnu_cxx17__normal_iteratorIPjS1_EEjRKj$w$nQaGqOTcFP5cxbMK1
0001:0003bb42  __ZN6Xapian9BitReader9read_bitsEi$w$nQaGqOTcFP5cxbMK1
0001:0003b484* __ZN6Xapian20DatabaseCorruptErrorD1Ev$w$nQaGqOTcFP5cxbMK1
0001:0003be60* __ZTIN6Xapian20DatabaseCorruptErrorE$w$nQaGqOTcFP5cxbMK1
0001:0003bce2  __ZSt4fillIN9__gnu_cxx17__normal_iteratorIPjSt6vectorIjSaIjEEEEjEvT_S7_RKT0_$w$nQaGqOTcFP5cxbMK1
0001:0003bd0a  __ZSt6fill_nIPjjjET_S1_T0_RKT1_$w$nQaGqOTcFP5cxbMK1
0001:0003b40e  __ZSt6fill_nIN9__gnu_cxx17__normal_iteratorIPjSt6vectorIjSaIjEEEEjjET_S7_T0_RKT1_$w$nQaGqOTcFP5cxbMK1
0001:0003b43c  __ZTS17FlintPositionList$w$nQaGqOTcFP5cxbMK1
0001:0003bd40  __ZTIN6Xapian16PositionIterator8InternalE$w$nQaGqOTcFP5cxbMK1
0001:0003b450* __ZNSt15basic_streambufIcSt11char_traitsIcEE13_S_pback_sizeE$w$nQaGqOTcFP5cxbMK1
0001:0003b808  __ZN6Xapian16PositionIterator8InternalD1Ev$w$nQaGqOTcFP5cxbMK1
0001:0003b816  __ZN6Xapian16PositionIterator8InternalD0Ev$w$nQaGqOTcFP5cxbMK1
0001:0003bea0  __ZTSN6Xapian16PositionIterator8InternalE$w$nQaGqOTcFP5cxbMK1
0001:0003bed4* __ZTIN6Xapian8Internal10RefCntBaseE$w$nQaGqOTcFP5cxbMK1
0001:0003be80* __ZTSN6Xapian20DatabaseCorruptErrorE$w$nQaGqOTcFP5cxbMK1
0001:0003bec8* __ZTIN6Xapian13DatabaseErrorE$w$nQaGqOTcFP5cxbMK1
0001:0003befb* __ZTSN6Xapian13DatabaseErrorE$w$nQaGqOTcFP5cxbMK1
0001:0003bf14* __ZTIN6Xapian12RuntimeErrorE$w$nQaGqOTcFP5cxbMK1
0001:0003bedc* __ZTSN6Xapian8Internal10RefCntBaseE$w$nQaGqOTcFP5cxbMK1
0001:0003bf20* __ZTSN6Xapian12RuntimeErrorE$w$nQaGqOTcFP5cxbMK1
0001:0003bf38* __ZTIN6Xapian5ErrorE$w$nQaGqOTcFP5cxbMK1
0001:0003bf40* __ZTSN6Xapian5ErrorE$w$nQaGqOTcFP5cxbMK1
0002:00015670* __ZN16__Atomicity_lockILi0EE17_S_atomicity_lockE$w$nQaGqOTcFP5cxbMK1
Module: F:\rd\dse\xapian-core-1.0.2\.libs\xapian.a(backends\flint\flint_postlist.cc)
0001:00043d18* __ZN13FlintPostListD1Ev
0001:00043ede* __ZN13FlintPostListD0Ev
0001:00045dac  __ZN13FlintPostList18read_position_listEv
0001:00045de2  __ZNK13FlintPostList18open_position_listEv
0001:00045e70  __ZN13FlintPostList4nextEd
0001:00046c70  __ZN13FlintPostList7skip_toEjd
0001:00046ce0  __ZNK13FlintPostList15get_descriptionEv
0001:0003c518  __ZNK18FlintPostListTable13get_lastdocidEv
0001:0003c89e  __ZNK18FlintPostListTable12get_termfreqERKSs
0001:000423f0  __ZN13FlintPostList22read_number_of_entriesEPPKcS1_PjS3_
0001:0003ccd4  __ZNK18FlintPostListTable19get_collection_freqERKSs
0001:0003d10a  __ZN18FlintPostListTable30set_total_length_and_lastdocidEyj
0001:0003d31a  __ZNK18FlintPostListTable16get_total_lengthEv
0001:0003d942* __ZN19PostlistChunkReader4nextEv
0001:0003dfca* __ZN19PostlistChunkWriterC2ERKSsbS1_b
0001:0003e092* __ZN19PostlistChunkWriterC1ERKSsbS1_b
0001:0003e15a* __ZN19PostlistChunkWriter6appendEP10FlintTablejjj
0001:0003e774* __ZN19PostlistChunkWriter5flushEP10FlintTable
0001:000429a2  __ZN13FlintPostListC2EN6Xapian8Internal9RefCntPtrIKNS0_8Database8InternalEEEPK10FlintTableS9_RKSs
0001:0004327a  __ZN13FlintPostListC1EN6Xapian8Internal9RefCntPtrIKNS0_8Database8InternalEEEPK10FlintTableS9_RKSs
0001:00043b52  __ZN13FlintPostListD2Ev
0001:000440aa* __ZN13FlintPostList13next_in_chunkEv
0001:000447c2* __ZN13FlintPostList10next_chunkEv
0001:00045ea6* __ZN13FlintPostList22current_chunk_containsEj
0001:00045ec4* __ZN13FlintPostList24move_to_chunk_containingEj
0001:00046c22* __ZN13FlintPostList33move_forward_in_chunk_to_at_leastEj
0001:00046ed6* __ZN18FlintPostListTable9get_chunkERKSsjbPP19PostlistChunkReaderPP19PostlistChunkWriter
0001:00048d08  __ZN18FlintPostListTable13merge_changesERKSt3mapISsS0_IjSt4pairIcjESt4lessIjESaIS1_IKjS2_EEES3_ISsESaIS1_IKSsS8_EEERKS0_IjjS4_SaIS1_IS5_jEEERKS0_ISsS1_IiiES9_SaIS1_ISA_SL_EEE
0001:0003bf60  __ZTV13FlintPostList$w$nkGITUUcFP5FPRwH0
0001:0004a924* __ZTI13FlintPostList$w$nkGITUUcFP5FPRwH0
0001:0003c3c4* __ZNK12LeafPostList16get_termfreq_minEv$w$nkGITUUcFP5FPRwH0
0001:0003c3da* __ZNK12LeafPostList16get_termfreq_estEv$w$nkGITUUcFP5FPRwH0
0001:0003c3ae* __ZNK12LeafPostList16get_termfreq_maxEv$w$nkGITUUcFP5FPRwH0
0001:0003c45e* __ZNK12LeafPostList13get_maxweightEv$w$nkGITUUcFP5FPRwH0
0001:0003c49a  __ZNK13FlintPostList9get_docidEv$w$nkGITUUcFP5FPRwH0
0001:0003c414* __ZNK12LeafPostList10get_weightEv$w$nkGITUUcFP5FPRwH0
0001:0003c0c0* __ZNK6Xapian15PostingIterator8Internal16get_collapse_keyEv$w$nkGITUUcFP5FPRwH0
0001:0003c4a6  __ZNK13FlintPostList13get_doclengthEv$w$nkGITUUcFP5FPRwH0
0001:0003c476* __ZN12LeafPostList16recalc_maxweightEv$w$nkGITUUcFP5FPRwH0
0001:0003c4bc  __ZNK13FlintPostList7get_wdfEv$w$nkGITUUcFP5FPRwH0
0001:0003c4c8  __ZNK13FlintPostList6at_endEv$w$nkGITUUcFP5FPRwH0
0001:0003c48e  __ZNK13FlintPostList12get_termfreqEv$w$nkGITUUcFP5FPRwH0
0001:0003c3f0* __ZN12LeafPostList14set_termweightEPKN6Xapian6WeightE$w$nkGITUUcFP5FPRwH0
0001:0003bfc0* __ZTV12LeafPostList$w$nkGITUUcFP5FPRwH0
0001:0004a918* __ZTI12LeafPostList$w$nkGITUUcFP5FPRwH0
0001:0003c32c* __ZN12LeafPostListD1Ev$w$nkGITUUcFP5FPRwH0
0001:0003c36a* __ZN12LeafPostListD0Ev$w$nkGITUUcFP5FPRwH0
0001:0003c0fc* __ZNK6Xapian15PostingIterator8Internal7get_wdfEv$w$nkGITUUcFP5FPRwH0
0001:0004abee* __ZN6Xapian18UnimplementedErrorD1Ev$w$nkGITUUcFP5FPRwH0
0001:0004b720* __ZTIN6Xapian18UnimplementedErrorE$w$nkGITUUcFP5FPRwH0
0001:0004a960* __ZTVN6Xapian15PostingIterator8InternalE$w$nkGITUUcFP5FPRwH0
0001:0004aeaa* __Z11unpack_uintIjEbPPKcS1_PT_$w$nkGITUUcFP5FPRwH0
0001:0004acc2* __ZN6Xapian20DatabaseCorruptErrorD1Ev$w$nkGITUUcFP5FPRwH0
0001:0004b72c* __ZTIN6Xapian20DatabaseCorruptErrorE$w$nkGITUUcFP5FPRwH0
0001:0004af2e* __Z9pack_uintIjESsT_$w$nkGITUUcFP5FPRwH0
0001:0004a548  __Z14pack_uint_lastIyESsT_$w$nkGITUUcFP5FPRwH0
0001:0004a60e  __Z16unpack_uint_lastIyEbPPKcS1_PT_$w$nkGITUUcFP5FPRwH0
0001:0004aa56  __ZN6Xapian5ErrorC2ERKSsS2_PKci$w$nkGITUUcFP5FPRwH0
0001:0004ad96* __ZN6Xapian10RangeErrorD1Ev$w$nkGITUUcFP5FPRwH0
0001:0004b738* __ZTIN6Xapian10RangeErrorE$w$nkGITUUcFP5FPRwH0
0001:0004a49a* __ZStplIcSt11char_traitsIcESaIcEESbIT_T0_T1_ERKS6_S8_$w$nkGITUUcFP5FPRwH0
0001:0004b1f0* __Z25pack_uint_preserving_sortIjESsT_$w$nkGITUUcFP5FPRwH0
0001:0004b072  __Z29unpack_string_preserving_sortPPKcS0_RSs$w$nkGITUUcFP5FPRwH0
0001:0004a69a  __Z27unpack_uint_preserving_sortIjEbPPKcS1_PT_$w$nkGITUUcFP5FPRwH0
0001:0004a51a  __ZNSsC1IPKcEET_S2_RKSaIcE$w$nkGITUUcFP5FPRwH0
0001:0004a9c0* __ZTVN6Xapian16PositionIterator8InternalE$w$nkGITUUcFP5FPRwH0
0001:0004a6f2* __ZStplIcSt11char_traitsIcESaIcEESbIT_T0_T1_EPKS3_RKS6_$w$nkGITUUcFP5FPRwH0
0001:0004aa0e* __ZNSt22_Rb_tree_base_iterator12_M_incrementEv$w$nkGITUUcFP5FPRwH0
0001:0004a7e8  __ZNKSt8_Rb_treeISsSt4pairIKSsS0_IiiEESt10_Select1stIS3_ESt4lessISsESaIS3_EE4findERS1_$w$nkGITUUcFP5FPRwH0
0001:0004a8d8  __ZNKSt8_Rb_treeIjSt4pairIKjjESt10_Select1stIS2_ESt4lessIjESaIS2_EE4findERS1_$w$nkGITUUcFP5FPRwH0
0001:0004ab46  __ZNSs12_S_constructIPKcEEPcT_S3_RKSaIcESt20forward_iterator_tag$w$nkGITUUcFP5FPRwH0
0001:0004a940* __ZTS12LeafPostList$w$nkGITUUcFP5FPRwH0
0001:0004b700* __ZTIN6Xapian15PostingIterator8InternalE$w$nkGITUUcFP5FPRwH0
0001:0004a930* __ZTS13FlintPostList$w$nkGITUUcFP5FPRwH0
0001:0004a950* __ZNSt15basic_streambufIcSt11char_traitsIcEE13_S_pback_sizeE$w$nkGITUUcFP5FPRwH0
0001:0004ae8a* __ZN6Xapian15PostingIterator8InternalD1Ev$w$nkGITUUcFP5FPRwH0
0001:0004ae98* __ZN6Xapian15PostingIterator8InternalD0Ev$w$nkGITUUcFP5FPRwH0
0001:0004b6e0* __ZTIN6Xapian16PositionIterator8InternalE$w$nkGITUUcFP5FPRwH0
0001:0004ae6a* __ZN6Xapian16PositionIterator8InternalD1Ev$w$nkGITUUcFP5FPRwH0
0001:0004ae78* __ZN6Xapian16PositionIterator8InternalD0Ev$w$nkGITUUcFP5FPRwH0
0001:0004b806  __Z11unpack_boolPPKcS0_Pb$w$nkGITUUcFP5FPRwH0
0001:0004b7e0* __ZTSN6Xapian16PositionIterator8InternalE$w$nkGITUUcFP5FPRwH0
0001:0004b870* __ZTIN6Xapian8Internal10RefCntBaseE$w$nkGITUUcFP5FPRwH0
0001:0004b7a0* __ZTSN6Xapian15PostingIterator8InternalE$w$nkGITUUcFP5FPRwH0
0001:0004b780* __ZTSN6Xapian18UnimplementedErrorE$w$nkGITUUcFP5FPRwH0
0001:0004b864* __ZTIN6Xapian10LogicErrorE$w$nkGITUUcFP5FPRwH0
0001:0004b760* __ZTSN6Xapian20DatabaseCorruptErrorE$w$nkGITUUcFP5FPRwH0
0001:0004b858* __ZTIN6Xapian13DatabaseErrorE$w$nkGITUUcFP5FPRwH0
0001:0004b744* __ZTSN6Xapian10RangeErrorE$w$nkGITUUcFP5FPRwH0
0001:0004b84c* __ZTIN6Xapian12RuntimeErrorE$w$nkGITUUcFP5FPRwH0
0001:0004b8c6* __ZTSN6Xapian12RuntimeErrorE$w$nkGITUUcFP5FPRwH0
0001:0004b8e0* __ZTIN6Xapian5ErrorE$w$nkGITUUcFP5FPRwH0
0001:0004b8ad* __ZTSN6Xapian13DatabaseErrorE$w$nkGITUUcFP5FPRwH0
0001:0004b897* __ZTSN6Xapian10LogicErrorE$w$nkGITUUcFP5FPRwH0
0001:0004b878* __ZTSN6Xapian8Internal10RefCntBaseE$w$nkGITUUcFP5FPRwH0
0001:0004b8e8* __ZTSN6Xapian5ErrorE$w$nkGITUUcFP5FPRwH0
0002:00015680* __ZN16__Atomicity_lockILi0EE17_S_atomicity_lockE$w$nkGITUUcFP5FPRwH0
Module: F:\rd\dse\xapian-core-1.0.2\.libs\xapian.a(backends\flint\flint_spelling.cc)
0001:0004f848* __ZN21FlintSpellingTermListD1Ev
0001:0004f8e8* __ZN21FlintSpellingTermListD0Ev
0001:0004f990* __ZNK21FlintSpellingTermList15get_approx_sizeEv
0001:0004f9ec* __ZNK21FlintSpellingTermList16accumulate_statsERN6Xapian8Internal11ExpandStatsE
0001:0004fc1c* __ZNK21FlintSpellingTermList12get_termnameEv
0001:0004fc46* __ZNK21FlintSpellingTermList7get_wdfEv
0001:0004fc50* __ZNK21FlintSpellingTermList12get_termfreqEv
0001:0004fc5a* __ZNK21FlintSpellingTermList19get_collection_freqEv
0001:0004fc7a* __ZN21FlintSpellingTermList4nextEv
0001:0004ffb2* __ZNK21FlintSpellingTermList6at_endEv
0001:00050008* __ZNK21FlintSpellingTermList18positionlist_countEv
0001:00050274* __ZNK21FlintSpellingTermList18positionlist_beginEv
0001:0004b97e  __ZN18FlintSpellingTable13merge_changesEv
0001:0004c4d4* __ZN18FlintSpellingTable12add_fragmentE8fragmentRKSs
0001:0004c8da  __ZN18FlintSpellingTable8add_wordERKSsj
0001:0004d324* __ZN18FlintSpellingTable15remove_fragmentE8fragmentRKSs
0001:0004d37a  __ZN18FlintSpellingTable11remove_wordERKSsj
0001:0004de14  __ZN18FlintSpellingTable13open_termlistERKSs
0001:0004f2fc  __ZNK18FlintSpellingTable18get_word_frequencyERKSs
0001:0004f7a8* __ZN21FlintSpellingTermListD2Ev
0001:0004b940  __ZTV21FlintSpellingTermList$w$ljklpQVcFP5Tq8Yy4
0001:0005142c  __ZTI21FlintSpellingTermList$w$ljklpQVcFP5Tq8Yy4
0001:000515fc* __ZNSt22_Rb_tree_base_iterator12_M_incrementEv$w$ljklpQVcFP5Tq8Yy4
0001:00051b14  __ZN28PrefixCompressedStringWriter6appendERKSs$w$ljklpQVcFP5Tq8Yy4
0001:0005184a  __ZN26PrefixCompressedStringItorppEv$w$ljklpQVcFP5Tq8Yy4
0001:0004c7b8* __ZStplIcSt11char_traitsIcESaIcEESbIT_T0_T1_EPKS3_RKS6_$w$ljklpQVcFP5Tq8Yy4
0001:00050554  __Z14pack_uint_lastIjESsT_$w$ljklpQVcFP5Tq8Yy4
0001:0005179c* __ZNSt8_Rb_treeISsSt4pairIKSsjESt10_Select1stIS2_ESt4lessISsESaIS2_EE8_M_eraseEPSt13_Rb_tree_nodeIS2_E$w$ljklpQVcFP5Tq8Yy4
0001:000504a4* __ZNSt8_Rb_treeI8fragmentSt4pairIKS0_St3setISsSt4lessISsESaISsEEESt10_Select1stIS8_ES4_IS0_ESaIS8_EE8_M_eraseEPSt13_Rb_tree_nodeIS8_E$w$ljklpQVcFP5Tq8Yy4
0001:00051c56  __ZNSt8_Rb_treeI8fragmentSt4pairIKS0_St3setISsSt4lessISsESaISsEEESt10_Select1stIS8_ES4_IS0_ESaIS8_EE4findERS2_$w$ljklpQVcFP5Tq8Yy4
0001:00050698  __ZNSt8_Rb_treeISsSsSt9_IdentityISsESt4lessISsESaISsEEC1ERKS5_$w$ljklpQVcFP5Tq8Yy4
0001:0005076a  __ZNSt8_Rb_treeI8fragmentSt4pairIKS0_St3setISsSt4lessISsESaISsEEESt10_Select1stIS8_ES4_IS0_ESaIS8_EE13insert_uniqueERKS8_$w$ljklpQVcFP5Tq8Yy4
0001:0005060e* __ZNSt8_Rb_treeISsSsSt9_IdentityISsESt4lessISsESaISsEE8_M_eraseEPSt13_Rb_tree_nodeISsE$w$ljklpQVcFP5Tq8Yy4
0001:00050860  __ZNSt8_Rb_treeISsSsSt9_IdentityISsESt4lessISsESaISsEE13insert_uniqueERKSs$w$ljklpQVcFP5Tq8Yy4
0001:00051cec  __ZNSt8_Rb_treeISsSt4pairIKSsjESt10_Select1stIS2_ESt4lessISsESaIS2_EE4findERS1_$w$ljklpQVcFP5Tq8Yy4
0001:00050a1a  __ZNSt8_Rb_treeISsSt4pairIKSsjESt10_Select1stIS2_ESt4lessISsESaIS2_EE11lower_boundERS1_$w$ljklpQVcFP5Tq8Yy4
0001:00050f38  __ZNSt8_Rb_treeISsSt4pairIKSsjESt10_Select1stIS2_ESt4lessISsESaIS2_EE13insert_uniqueESt17_Rb_tree_iteratorIS2_RS2_PS2_ERKS2_$w$ljklpQVcFP5Tq8Yy4
0001:000509d0  __Z16unpack_uint_lastIjEbPPKcS1_PT_$w$ljklpQVcFP5Tq8Yy4
0001:00051528* __ZN6Xapian20DatabaseCorruptErrorD1Ev$w$ljklpQVcFP5Tq8Yy4
0001:000523c0* __ZTIN6Xapian20DatabaseCorruptErrorE$w$ljklpQVcFP5Tq8Yy4
0001:00050aac  __ZNSt8_Rb_treeISsSsSt9_IdentityISsESt4lessISsESaISsEE5eraseERKSs$w$ljklpQVcFP5Tq8Yy4
0001:00050b50  __ZSt9make_heapIN9__gnu_cxx17__normal_iteratorIPPN6Xapian12TermIterator8InternalESt6vectorIS5_SaIS5_EEEE25TermListGreaterApproxSizeEvT_SC_T0_$w$ljklpQVcFP5Tq8Yy4
0001:00050cb4  __ZSt13__adjust_heapIN9__gnu_cxx17__normal_iteratorIPPN6Xapian12TermIterator8InternalESt6vectorIS5_SaIS5_EEEEiS5_25TermListGreaterApproxSizeEvT_T0_SD_T1_T2_$w$ljklpQVcFP5Tq8Yy4
0001:000511a4  __ZSt11__push_heapIN9__gnu_cxx17__normal_iteratorIPPN6Xapian12TermIterator8InternalESt6vectorIS5_SaIS5_EEEEiS5_25TermListGreaterApproxSizeEvT_T0_SD_T1_T2_$w$ljklpQVcFP5Tq8Yy4
0001:00050bae* __ZNSt6vectorIPN6Xapian12TermIterator8InternalESaIS3_EE13_M_insert_auxEN9__gnu_cxx17__normal_iteratorIPS3_S5_EERKS3_$w$ljklpQVcFP5Tq8Yy4
0001:00051206  __ZNSt6vectorIPN6Xapian12TermIterator8InternalESaIS3_EE5eraseEN9__gnu_cxx17__normal_iteratorIPS3_S5_EES9_$w$ljklpQVcFP5Tq8Yy4
0001:00051df8  __ZNKSt8_Rb_treeISsSt4pairIKSsjESt10_Select1stIS2_ESt4lessISsESaIS2_EE4findERS1_$w$ljklpQVcFP5Tq8Yy4
0001:00051454* __ZN6Xapian18UnimplementedErrorD1Ev$w$ljklpQVcFP5Tq8Yy4
0001:000523cc* __ZTIN6Xapian18UnimplementedErrorE$w$ljklpQVcFP5Tq8Yy4
0001:00050d5a  __ZNSt8_Rb_treeISsSsSt9_IdentityISsESt4lessISsESaISsEE7_M_copyEPSt13_Rb_tree_nodeISsES8_$w$ljklpQVcFP5Tq8Yy4
0001:00051644* __ZNSt22_Rb_tree_base_iterator12_M_decrementEv$w$ljklpQVcFP5Tq8Yy4
0001:00050e58  __ZNSt8_Rb_treeI8fragmentSt4pairIKS0_St3setISsSt4lessISsESaISsEEESt10_Select1stIS8_ES4_IS0_ESaIS8_EE9_M_insertEPSt18_Rb_tree_node_baseSF_RKS8_$w$ljklpQVcFP5Tq8Yy4
0001:00051f50  __ZNSt8_Rb_treeISsSsSt9_IdentityISsESt4lessISsESaISsEE9_M_insertEPSt18_Rb_tree_node_baseS7_RKSs$w$ljklpQVcFP5Tq8Yy4
0001:00052064  __ZNSt8_Rb_treeISsSsSt9_IdentityISsESt4lessISsESaISsEE11lower_boundERKSs$w$ljklpQVcFP5Tq8Yy4
0001:000520f6  __ZNSt8_Rb_treeISsSsSt9_IdentityISsESt4lessISsESaISsEE11upper_boundERKSs$w$ljklpQVcFP5Tq8Yy4
0001:00052184  __ZNSt8_Rb_treeISsSsSt9_IdentityISsESt4lessISsESaISsEE5eraseESt17_Rb_tree_iteratorISsRSsPSsES9_$w$ljklpQVcFP5Tq8Yy4
0001:00051ee8  __ZNSt8_Rb_treeISsSsSt9_IdentityISsESt4lessISsESaISsEE14_M_create_nodeERKSs$w$ljklpQVcFP5Tq8Yy4
0001:0005124a  __ZNSt8_Rb_treeI8fragmentSt4pairIKS0_St3setISsSt4lessISsESaISsEEESt10_Select1stIS8_ES4_IS0_ESaIS8_EE14_M_create_nodeERKS8_$w$ljklpQVcFP5Tq8Yy4
0001:00051694* __ZSt18_Rb_tree_rebalancePSt18_Rb_tree_node_baseRS0_$w$ljklpQVcFP5Tq8Yy4
0001:0005228a  __ZNSt8_Rb_treeISsSt4pairIKSsjESt10_Select1stIS2_ESt4lessISsESaIS2_EE9_M_insertEPSt18_Rb_tree_node_baseSA_RKS2_$w$ljklpQVcFP5Tq8Yy4
0001:000512bc  __ZNSt8_Rb_treeISsSt4pairIKSsjESt10_Select1stIS2_ESt4lessISsESaIS2_EE13insert_uniqueERKS2_$w$ljklpQVcFP5Tq8Yy4
0001:00051438  __ZTS21FlintSpellingTermList$w$ljklpQVcFP5Tq8Yy4
0001:000523a0* __ZTIN6Xapian12TermIterator8InternalE$w$ljklpQVcFP5Tq8Yy4
0001:00051450* __ZNSt15basic_streambufIcSt11char_traitsIcEE13_S_pback_sizeE$w$ljklpQVcFP5Tq8Yy4
0001:00052442* __ZSt20_Rb_tree_rotate_leftPSt18_Rb_tree_node_baseRS0_$w$ljklpQVcFP5Tq8Yy4
0001:00052484* __ZSt21_Rb_tree_rotate_rightPSt18_Rb_tree_node_baseRS0_$w$ljklpQVcFP5Tq8Yy4
0001:000524c6* __ZSt28_Rb_tree_rebalance_for_erasePSt18_Rb_tree_node_baseRS0_S1_S1_$w$ljklpQVcFP5Tq8Yy4
0001:000527ac  __ZNSt8_Rb_treeISsSt4pairIKSsjESt10_Select1stIS2_ESt4lessISsESaIS2_EE14_M_create_nodeERKS2_$w$ljklpQVcFP5Tq8Yy4
0001:00052420* __ZTSN6Xapian12TermIterator8InternalE$w$ljklpQVcFP5Tq8Yy4
0001:00052838* __ZTIN6Xapian8Internal10RefCntBaseE$w$ljklpQVcFP5Tq8Yy4
0001:00052400* __ZTSN6Xapian20DatabaseCorruptErrorE$w$ljklpQVcFP5Tq8Yy4
0001:0005282c* __ZTIN6Xapian13DatabaseErrorE$w$ljklpQVcFP5Tq8Yy4
0001:000523d8* __ZTSN6Xapian18UnimplementedErrorE$w$ljklpQVcFP5Tq8Yy4
0001:00052820* __ZTIN6Xapian10LogicErrorE$w$ljklpQVcFP5Tq8Yy4
0001:00052878* __ZTSN6Xapian10LogicErrorE$w$ljklpQVcFP5Tq8Yy4
0001:0005289c* __ZTIN6Xapian5ErrorE$w$ljklpQVcFP5Tq8Yy4
0001:0005285f* __ZTSN6Xapian13DatabaseErrorE$w$ljklpQVcFP5Tq8Yy4
0001:00052890* __ZTIN6Xapian12RuntimeErrorE$w$ljklpQVcFP5Tq8Yy4
0001:00052840* __ZTSN6Xapian8Internal10RefCntBaseE$w$ljklpQVcFP5Tq8Yy4
0001:000528b4* __ZTSN6Xapian12RuntimeErrorE$w$ljklpQVcFP5Tq8Yy4
0001:000528a4* __ZTSN6Xapian5ErrorE$w$ljklpQVcFP5Tq8Yy4
0002:000156a0* __ZN16__Atomicity_lockILi0EE17_S_atomicity_lockE$w$ljklpQVcFP5Tq8Yy4
Module: F:\rd\dse\xapian-core-1.0.2\.libs\xapian.a(backends\inmemory\inmemory_alltermslist.cc)
0001:00052ef6* __ZN20InMemoryAllTermsListD1Ev
0001:00052f90* __ZN20InMemoryAllTermsListD0Ev
0001:00053032* __ZNK20InMemoryAllTermsList15get_approx_sizeEv
0001:00053040* __ZNK20InMemoryAllTermsList12get_termnameEv
0001:0005306c* __ZNK20InMemoryAllTermsList12get_termfreqEv
0001:000530c0* __ZNK20InMemoryAllTermsList19get_collection_freqEv
0001:00053616* __ZN20InMemoryAllTermsList4nextEv
0001:000532f0* __ZN20InMemoryAllTermsList7skip_toERKSs
0001:000536bc* __ZNK20InMemoryAllTermsList6at_endEv
0001:00052d48* __ZN20InMemoryAllTermsListC2EPKSt3mapISs12InMemoryTermSt4lessISsESaISt4pairIKSsS1_EEEN6Xapian8Internal9RefCntPtrIK16InMemoryDatabaseEERS5_
0001:00052dd2  __ZN20InMemoryAllTermsListC1EPKSt3mapISs12InMemoryTermSt4lessISsESaISt4pairIKSsS1_EEEN6Xapian8Internal9RefCntPtrIK16InMemoryDatabaseEERS5_
0001:00052e5c* __ZN20InMemoryAllTermsListD2Ev
0001:000528e0  __ZTV20InMemoryAllTermsList$w$1XlVbLYcFP5XCzIV3
0001:000536e4  __ZTI20InMemoryAllTermsList$w$1XlVbLYcFP5XCzIV3
0001:00052920* __ZTV12LeafPostList$w$1XlVbLYcFP5XCzIV3
0001:000536d8* __ZTI12LeafPostList$w$1XlVbLYcFP5XCzIV3
0001:00052be6* __ZN12LeafPostListD1Ev$w$1XlVbLYcFP5XCzIV3
0001:00052c24* __ZN12LeafPostListD0Ev$w$1XlVbLYcFP5XCzIV3
0001:00052c7e* __ZNK12LeafPostList16get_termfreq_minEv$w$1XlVbLYcFP5XCzIV3
0001:00052c94* __ZNK12LeafPostList16get_termfreq_estEv$w$1XlVbLYcFP5XCzIV3
0001:00052c68* __ZNK12LeafPostList16get_termfreq_maxEv$w$1XlVbLYcFP5XCzIV3
0001:00052d18* __ZNK12LeafPostList13get_maxweightEv$w$1XlVbLYcFP5XCzIV3
0001:00052cce* __ZNK12LeafPostList10get_weightEv$w$1XlVbLYcFP5XCzIV3
0001:00052978* __ZNK6Xapian15PostingIterator8Internal16get_collapse_keyEv$w$1XlVbLYcFP5XCzIV3
0001:00052d30* __ZN12LeafPostList16recalc_maxweightEv$w$1XlVbLYcFP5XCzIV3
0001:000529b6* __ZNK6Xapian15PostingIterator8Internal7get_wdfEv$w$1XlVbLYcFP5XCzIV3
0001:00052caa* __ZN12LeafPostList14set_termweightEPKN6Xapian6WeightE$w$1XlVbLYcFP5XCzIV3
0001:00053770* __ZN6Xapian18UnimplementedErrorD1Ev$w$1XlVbLYcFP5XCzIV3
0001:000538e0* __ZTIN6Xapian18UnimplementedErrorE$w$1XlVbLYcFP5XCzIV3
0001:00053720* __ZTVN6Xapian15PostingIterator8InternalE$w$1XlVbLYcFP5XCzIV3
0001:0005358e  __ZNKSt8_Rb_treeISsSt4pairIKSs12InMemoryTermESt10_Select1stIS3_ESt4lessISsESaIS3_EE11lower_boundERS1_$w$1XlVbLYcFP5XCzIV3
0001:00053864* __ZNSt22_Rb_tree_base_iterator12_M_incrementEv$w$1XlVbLYcFP5XCzIV3
0001:00053707* __ZTS12LeafPostList$w$1XlVbLYcFP5XCzIV3
0001:000538c0* __ZTIN6Xapian15PostingIterator8InternalE$w$1XlVbLYcFP5XCzIV3
0001:000536f0  __ZTS20InMemoryAllTermsList$w$1XlVbLYcFP5XCzIV3
0001:000538ac* __ZTI12AllTermsList$w$1XlVbLYcFP5XCzIV3
0001:00053718* __ZNSt15basic_streambufIcSt11char_traitsIcEE13_S_pback_sizeE$w$1XlVbLYcFP5XCzIV3
0001:00053844* __ZN6Xapian15PostingIterator8InternalD1Ev$w$1XlVbLYcFP5XCzIV3
0001:00053852* __ZN6Xapian15PostingIterator8InternalD0Ev$w$1XlVbLYcFP5XCzIV3
0001:00053944* __ZTS12AllTermsList$w$1XlVbLYcFP5XCzIV3
0001:00053960* __ZTIN6Xapian12TermIterator8InternalE$w$1XlVbLYcFP5XCzIV3
0001:00053920* __ZTSN6Xapian15PostingIterator8InternalE$w$1XlVbLYcFP5XCzIV3
0001:0005398c* __ZTIN6Xapian8Internal10RefCntBaseE$w$1XlVbLYcFP5XCzIV3
0001:000538ec* __ZTSN6Xapian18UnimplementedErrorE$w$1XlVbLYcFP5XCzIV3
0001:00053980* __ZTIN6Xapian10LogicErrorE$w$1XlVbLYcFP5XCzIV3
0001:000539e0* __ZTSN6Xapian12TermIterator8InternalE$w$1XlVbLYcFP5XCzIV3
0001:000539b3* __ZTSN6Xapian10LogicErrorE$w$1XlVbLYcFP5XCzIV3
0001:00053a04* __ZTIN6Xapian5ErrorE$w$1XlVbLYcFP5XCzIV3
0001:00053994* __ZTSN6Xapian8Internal10RefCntBaseE$w$1XlVbLYcFP5XCzIV3
0001:00053a0c* __ZTSN6Xapian5ErrorE$w$1XlVbLYcFP5XCzIV3
0002:000156b0* __ZN16__Atomicity_lockILi0EE17_S_atomicity_lockE$w$1XlVbLYcFP5XCzIV3
Module: F:\rd\dse\xapian-core-1.0.2\.libs\xapian.a(languages\swedish.cc)
0001:00053f6e* __ZN6Xapian19InternalStemSwedishD1Ev
0001:00053f8a* __ZN6Xapian19InternalStemSwedishD0Ev
0001:00053e7e* __ZN6Xapian19InternalStemSwedish4stemEv
0001:00053fba* __ZNK6Xapian19InternalStemSwedish15get_descriptionEv
0001:00053a38* __ZN6Xapian19InternalStemSwedish14r_mark_regionsEv
0001:00053b06* __ZN6Xapian19InternalStemSwedish13r_main_suffixEv
0001:00053c20* __ZN6Xapian19InternalStemSwedish16r_consonant_pairEv
0001:00053d4c* __ZN6Xapian19InternalStemSwedish14r_other_suffixEv
0001:00053ef2* __ZN6Xapian19InternalStemSwedishC2Ev
0001:00053f22  __ZN6Xapian19InternalStemSwedishC1Ev
0001:00053f52* __ZN6Xapian19InternalStemSwedishD2Ev
0001:00053a20  __ZTVN6Xapian19InternalStemSwedishE$w$PkpTXCadFP5DABak4
0001:00053fc4  __ZTIN6Xapian19InternalStemSwedishE$w$PkpTXCadFP5DABak4
0001:0005432e  __ZTSN6Xapian19InternalStemSwedishE$w$PkpTXCadFP5DABak4
0001:00054400* __ZTIN6Xapian4Stem8InternalE$w$PkpTXCadFP5DABak4
0001:00054420* __ZTSN6Xapian4Stem8InternalE$w$PkpTXCadFP5DABak4
0001:00054438* __ZTIN6Xapian8Internal10RefCntBaseE$w$PkpTXCadFP5DABak4
0001:00054440* __ZTSN6Xapian8Internal10RefCntBaseE$w$PkpTXCadFP5DABak4
0002:000156c0* __ZN16__Atomicity_lockILi0EE17_S_atomicity_lockE$w$PkpTXCadFP5DABak4
Module: F:\rd\dse\xapian-core-1.0.2\.libs\xapian.a(api\editdistance.cc)
0001:00054460  __Z22edit_distance_unsignedPKjiS0_i
0001:000546e8  __ZN11edist_stateIjEC1EPKjiS2_i$w$hhKsaAGcFP5wOhyV2
0001:0005459c  __ZN11edist_stateIjE15edist_calc_f_kpEii$w$hhKsaAGcFP5wOhyV2
0001:00054584  __ZN11edist_stateIjED1Ev$w$hhKsaAGcFP5wOhyV2
0002:000156d0* __ZN16__Atomicity_lockILi0EE17_S_atomicity_lockE$w$hhKsaAGcFP5wOhyV2
Module: F:\rd\dse\xapian-core-1.0.2\.libs\xapian.a(backends\flint\flint_synonym.cc)
0001:00056058* __ZN20FlintSynonymTermListD1Ev
0001:00056178* __ZN20FlintSynonymTermListD0Ev
0001:000562a0* __ZNK20FlintSynonymTermList15get_approx_sizeEv
0001:000562ac* __ZNK20FlintSynonymTermList12get_termnameEv
0001:00056322* __ZNK20FlintSynonymTermList12get_termfreqEv
0001:0005658e* __ZNK20FlintSynonymTermList19get_collection_freqEv
0001:000567be* __ZN20FlintSynonymTermList4nextEv
0001:0005682c* __ZN20FlintSynonymTermList7skip_toERKSs
0001:0005686c* __ZNK20FlintSynonymTermList6at_endEv
0001:000547fc  __ZN17FlintSynonymTable13merge_changesEv
0001:00054aac  __ZN17FlintSynonymTable11add_synonymERKSsS1_
0001:00055006  __ZN17FlintSynonymTable14remove_synonymERKSsS1_
0001:000555d2  __ZN17FlintSynonymTable14clear_synonymsERKSs
0001:000556bc  __ZN17FlintSynonymTable13open_termlistERKSs
0001:00055f38* __ZN20FlintSynonymTermListD2Ev
0001:000547c0  __ZTV20FlintSynonymTermList$w$5JTU8HWcFP5Yrzae3
0001:000570d0  __ZTI20FlintSynonymTermList$w$5JTU8HWcFP5Yrzae3
0001:000572e4* __ZNSt22_Rb_tree_base_iterator12_M_incrementEv$w$5JTU8HWcFP5Yrzae3
0001:00055548* __ZNSt8_Rb_treeISsSsSt9_IdentityISsESt4lessISsESaISsEE8_M_eraseEPSt13_Rb_tree_nodeISsE$w$5JTU8HWcFP5Yrzae3
0001:0005687c* __ZNSt8_Rb_treeISsSsSt9_IdentityISsESt4lessISsESaISsEE13insert_uniqueERKSs$w$5JTU8HWcFP5Yrzae3
0001:00057210* __ZN6Xapian20DatabaseCorruptErrorD1Ev$w$5JTU8HWcFP5Yrzae3
0001:0005826c* __ZTIN6Xapian20DatabaseCorruptErrorE$w$5JTU8HWcFP5Yrzae3
0001:000569ec* __ZNSt8_Rb_treeISsSsSt9_IdentityISsESt4lessISsESaISsEE5eraseERKSs$w$5JTU8HWcFP5Yrzae3
0001:00056aa0  __ZNSt6vectorISsSaISsEE7reserveEj$w$5JTU8HWcFP5Yrzae3
0001:00056c1e  __ZNSt6vectorISsSaISsEE13_M_insert_auxEN9__gnu_cxx17__normal_iteratorIPSsS1_EERKSs$w$5JTU8HWcFP5Yrzae3
0001:00057100  __ZTV14VectorTermList$w$5JTU8HWcFP5Yrzae3
0001:00056ee4  __ZSt24__uninitialized_copy_auxIN9__gnu_cxx17__normal_iteratorIPKSsSt6vectorISsSaISsEEEEPSsET0_T_SA_S9_12__false_type$w$5JTU8HWcFP5Yrzae3
0001:0005713c* __ZN6Xapian21InvalidOperationErrorD1Ev$w$5JTU8HWcFP5Yrzae3
0001:00058260* __ZTIN6Xapian21InvalidOperationErrorE$w$5JTU8HWcFP5Yrzae3
0001:0005732c* __ZNSt22_Rb_tree_base_iterator12_M_decrementEv$w$5JTU8HWcFP5Yrzae3
0001:00057f0c* __ZNSt8_Rb_treeISsSsSt9_IdentityISsESt4lessISsESaISsEE9_M_insertEPSt18_Rb_tree_node_baseS7_RKSs$w$5JTU8HWcFP5Yrzae3
0001:00058020* __ZNSt8_Rb_treeISsSsSt9_IdentityISsESt4lessISsESaISsEE11lower_boundERKSs$w$5JTU8HWcFP5Yrzae3
0001:000580b2* __ZNSt8_Rb_treeISsSsSt9_IdentityISsESt4lessISsESaISsEE11upper_boundERKSs$w$5JTU8HWcFP5Yrzae3
0001:00058140* __ZNSt8_Rb_treeISsSsSt9_IdentityISsESt4lessISsESaISsEE5eraseESt17_Rb_tree_iteratorISsRSsPSsES9_$w$5JTU8HWcFP5Yrzae3
0001:00056b96  __ZNSt6vectorISsSaISsEE20_M_allocate_and_copyIPSsEES3_jT_S4_$w$5JTU8HWcFP5Yrzae3
0001:00056f88  __ZSt24__uninitialized_copy_auxIPSsS0_ET0_T_S2_S1_12__false_type$w$5JTU8HWcFP5Yrzae3
0001:0005702a  __ZSt24__uninitialized_copy_auxIN9__gnu_cxx17__normal_iteratorIPSsSt6vectorISsSaISsEEEES6_ET0_T_S8_S7_12__false_type$w$5JTU8HWcFP5Yrzae3
0001:000570dc  __ZTS20FlintSynonymTermList$w$5JTU8HWcFP5Yrzae3
0001:00058248* __ZTI12AllTermsList$w$5JTU8HWcFP5Yrzae3
0001:000570f4* __ZNSt15basic_streambufIcSt11char_traitsIcEE13_S_pback_sizeE$w$5JTU8HWcFP5Yrzae3
0001:00058254  __ZTI14VectorTermList$w$5JTU8HWcFP5Yrzae3
0001:0005737c  __ZN14VectorTermListD1Ev$w$5JTU8HWcFP5Yrzae3
0001:00057430  __ZN14VectorTermListD0Ev$w$5JTU8HWcFP5Yrzae3
0001:000574f0  __ZNK14VectorTermList15get_approx_sizeEv$w$5JTU8HWcFP5Yrzae3
0001:00057502  __ZNK14VectorTermList16accumulate_statsERN6Xapian8Internal11ExpandStatsE$w$5JTU8HWcFP5Yrzae3
0001:0005750e  __ZNK14VectorTermList12get_termnameEv$w$5JTU8HWcFP5Yrzae3
0001:0005753e  __ZNK14VectorTermList7get_wdfEv$w$5JTU8HWcFP5Yrzae3
0001:00057576  __ZNK14VectorTermList12get_termfreqEv$w$5JTU8HWcFP5Yrzae3
0001:000577a6  __ZN14VectorTermList4nextEv$w$5JTU8HWcFP5Yrzae3
0001:000577e8  __ZN14VectorTermList7skip_toERKSs$w$5JTU8HWcFP5Yrzae3
0001:00057a18  __ZNK14VectorTermList6at_endEv$w$5JTU8HWcFP5Yrzae3
0001:00057cdc  __ZNK14VectorTermList18positionlist_countEv$w$5JTU8HWcFP5Yrzae3
0001:00057a76  __ZNK14VectorTermList18positionlist_beginEv$w$5JTU8HWcFP5Yrzae3
0001:000586d0* __ZNSt8_Rb_treeISsSsSt9_IdentityISsESt4lessISsESaISsEE14_M_create_nodeERKSs$w$5JTU8HWcFP5Yrzae3
0001:000582e2* __ZSt18_Rb_tree_rebalancePSt18_Rb_tree_node_baseRS0_$w$5JTU8HWcFP5Yrzae3
0001:000583ea* __ZSt28_Rb_tree_rebalance_for_erasePSt18_Rb_tree_node_baseRS0_S1_S1_$w$5JTU8HWcFP5Yrzae3
0001:000582d2* __ZTS12AllTermsList$w$5JTU8HWcFP5Yrzae3
0001:00058740* __ZTIN6Xapian12TermIterator8InternalE$w$5JTU8HWcFP5Yrzae3
0001:000582c1  __ZTS14VectorTermList$w$5JTU8HWcFP5Yrzae3
0001:000582a0* __ZTSN6Xapian21InvalidOperationErrorE$w$5JTU8HWcFP5Yrzae3
0001:0005876c* __ZTIN6Xapian10LogicErrorE$w$5JTU8HWcFP5Yrzae3
0001:00058280* __ZTSN6Xapian20DatabaseCorruptErrorE$w$5JTU8HWcFP5Yrzae3
0001:00058760* __ZTIN6Xapian13DatabaseErrorE$w$5JTU8HWcFP5Yrzae3
0001:000587e2* __ZSt20_Rb_tree_rotate_leftPSt18_Rb_tree_node_baseRS0_$w$5JTU8HWcFP5Yrzae3
0001:00058824* __ZSt21_Rb_tree_rotate_rightPSt18_Rb_tree_node_baseRS0_$w$5JTU8HWcFP5Yrzae3
0001:000587c0* __ZTSN6Xapian12TermIterator8InternalE$w$5JTU8HWcFP5Yrzae3
0001:0005887c* __ZTIN6Xapian8Internal10RefCntBaseE$w$5JTU8HWcFP5Yrzae3
0001:0005878e* __ZTSN6Xapian13DatabaseErrorE$w$5JTU8HWcFP5Yrzae3
0001:00058870* __ZTIN6Xapian12RuntimeErrorE$w$5JTU8HWcFP5Yrzae3
0001:00058778* __ZTSN6Xapian10LogicErrorE$w$5JTU8HWcFP5Yrzae3
0001:00058868* __ZTIN6Xapian5ErrorE$w$5JTU8HWcFP5Yrzae3
0001:000588bb* __ZTSN6Xapian5ErrorE$w$5JTU8HWcFP5Yrzae3
0001:000588a3* __ZTSN6Xapian12RuntimeErrorE$w$5JTU8HWcFP5Yrzae3
0001:00058884* __ZTSN6Xapian8Internal10RefCntBaseE$w$5JTU8HWcFP5Yrzae3
0002:000156e0* __ZN16__Atomicity_lockILi0EE17_S_atomicity_lockE$w$5JTU8HWcFP5Yrzae3
Module: F:\rd\dse\xapian-core-1.0.2\.libs\xapian.a(languages\english.cc)
0001:00059e08* __ZN6Xapian19InternalStemEnglishD1Ev
0001:00059e24* __ZN6Xapian19InternalStemEnglishD0Ev
0001:00059b90* __ZN6Xapian19InternalStemEnglish4stemEv
0001:00059e54* __ZNK6Xapian19InternalStemEnglish15get_descriptionEv
0001:000588f8* __ZN6Xapian19InternalStemEnglish9r_preludeEv
0001:00058a76* __ZN6Xapian19InternalStemEnglish14r_mark_regionsEv
0001:00058bd8* __ZN6Xapian19InternalStemEnglish8r_shortvEv
0001:00058cea* __ZN6Xapian19InternalStemEnglish4r_R1Ev
0001:00058cfe* __ZN6Xapian19InternalStemEnglish4r_R2Ev
0001:00058d12* __ZN6Xapian19InternalStemEnglish9r_Step_1aEv
0001:00058f60* __ZN6Xapian19InternalStemEnglish9r_Step_1bEv
0001:0005922e* __ZN6Xapian19InternalStemEnglish9r_Step_1cEv
0001:00059306* __ZN6Xapian19InternalStemEnglish8r_Step_2Ev
0001:00059542* __ZN6Xapian19InternalStemEnglish8r_Step_3Ev
0001:000596a6* __ZN6Xapian19InternalStemEnglish8r_Step_4Ev
0001:000597da* __ZN6Xapian19InternalStemEnglish8r_Step_5Ev
0001:0005990a* __ZN6Xapian19InternalStemEnglish12r_exception2Ev
0001:0005997e* __ZN6Xapian19InternalStemEnglish12r_exception1Ev
0001:00059ae0* __ZN6Xapian19InternalStemEnglish10r_postludeEv
0001:00059d84* __ZN6Xapian19InternalStemEnglishC2Ev
0001:00059db8  __ZN6Xapian19InternalStemEnglishC1Ev
0001:00059dec* __ZN6Xapian19InternalStemEnglishD2Ev
0001:000588e0  __ZTVN6Xapian19InternalStemEnglishE$w$djsMtg7dFP5IBJi14
0001:00059e60  __ZTIN6Xapian19InternalStemEnglishE$w$djsMtg7dFP5IBJi14
0001:0005a627  __ZTSN6Xapian19InternalStemEnglishE$w$djsMtg7dFP5IBJi14
0001:0005a820* __ZTIN6Xapian4Stem8InternalE$w$djsMtg7dFP5IBJi14
0001:0005a840* __ZTSN6Xapian4Stem8InternalE$w$djsMtg7dFP5IBJi14
0001:0005a858* __ZTIN6Xapian8Internal10RefCntBaseE$w$djsMtg7dFP5IBJi14
0001:0005a860* __ZTSN6Xapian8Internal10RefCntBaseE$w$djsMtg7dFP5IBJi14
0002:000156f0* __ZN16__Atomicity_lockILi0EE17_S_atomicity_lockE$w$djsMtg7dFP5IBJi14
Module: F:\rd\dse\xapian-core-1.0.2\.libs\xapian.a(backends\flint\flint_termlist.cc)
0001:0005db12* __ZNK13FlintTermList15get_approx_sizeEv
0001:0005e4e0* __ZNK13FlintTermList16accumulate_statsERN6Xapian8Internal11ExpandStatsE
0001:0005e46a  __ZNK13FlintTermList12get_termnameEv
0001:0005e494  __ZNK13FlintTermList7get_wdfEv
0001:0005e4a0* __ZNK13FlintTermList12get_termfreqEv
0001:0005db82  __ZN13FlintTermList4nextEv
0001:0005e45e  __ZNK13FlintTermList6at_endEv
0001:0005e94e* __ZNK13FlintTermList18positionlist_countEv
0001:0005eb7e* __ZNK13FlintTermList18positionlist_beginEv
0001:0005aa8c  __ZN18FlintTermListTable11set_entriesEjN6Xapian12TermIteratorERKS1_jb
0001:0005b648  __ZN18FlintTermListTable15delete_termlistEj
0001:0005b7f6* __ZN13FlintTermListC2EN6Xapian8Internal9RefCntPtrIKNS0_8Database8InternalEEEPK10FlintTablejj
0001:0005c984  __ZN13FlintTermListC1EN6Xapian8Internal9RefCntPtrIKNS0_8Database8InternalEEEPK10FlintTablejj
0001:0005db1e  __ZNK13FlintTermList13get_doclengthEv
0001:0005a880  __ZTV13FlintTermList$w$78eFAOXcFP5nzqEK0
0001:0005ecbc  __ZTI13FlintTermList$w$78eFAOXcFP5nzqEK0
0001:0005a8bc  __ZN13FlintTermListD1Ev$w$78eFAOXcFP5nzqEK0
0001:0005a992  __ZN13FlintTermListD0Ev$w$78eFAOXcFP5nzqEK0
0001:0005f8e8* __Z9pack_uintIjESsT_$w$78eFAOXcFP5nzqEK0
0001:0005fa70* __Z25pack_uint_preserving_sortIjESsT_$w$78eFAOXcFP5nzqEK0
0001:0005ebc4* __ZStplIcSt11char_traitsIcESaIcEESbIT_T0_T1_EPKS3_RKS6_$w$78eFAOXcFP5nzqEK0
0001:0005ee84* __ZN6Xapian16DocNotFoundErrorD1Ev$w$78eFAOXcFP5nzqEK0
0001:0005fc20* __ZTIN6Xapian16DocNotFoundErrorE$w$78eFAOXcFP5nzqEK0
0001:0005f864* __Z11unpack_uintIjEbPPKcS1_PT_$w$78eFAOXcFP5nzqEK0
0001:0005ef58* __ZN6Xapian10RangeErrorD1Ev$w$78eFAOXcFP5nzqEK0
0001:0005fc2c* __ZTIN6Xapian10RangeErrorE$w$78eFAOXcFP5nzqEK0
0001:0005edb0* __ZN6Xapian20DatabaseCorruptErrorD1Ev$w$78eFAOXcFP5nzqEK0
0001:0005fc38* __ZTIN6Xapian20DatabaseCorruptErrorE$w$78eFAOXcFP5nzqEK0
0001:0005fa2c* __Z11unpack_boolPPKcS0_Pb$w$78eFAOXcFP5nzqEK0
0001:0005f06a  __ZSt6__copyISt13_Bit_iteratorS0_ET0_T_S2_S1_St26random_access_iterator_tag$w$78eFAOXcFP5nzqEK0
0001:0005f02c  __ZNSt18_Bit_iterator_base7_M_incrEi$w$78eFAOXcFP5nzqEK0
0001:0005f160  __ZNSt6vectorIbSaIbEE14_M_fill_insertESt13_Bit_iteratorjb$w$78eFAOXcFP5nzqEK0
0001:0005ecdc* __ZN6Xapian18UnimplementedErrorD1Ev$w$78eFAOXcFP5nzqEK0
0001:0005fc44* __ZTIN6Xapian18UnimplementedErrorE$w$78eFAOXcFP5nzqEK0
0001:0005ecc8  __ZTS13FlintTermList$w$78eFAOXcFP5nzqEK0
0001:0005fc00* __ZTIN6Xapian12TermIterator8InternalE$w$78eFAOXcFP5nzqEK0
0001:0005ecd8* __ZNSt15basic_streambufIcSt11char_traitsIcEE13_S_pback_sizeE$w$78eFAOXcFP5nzqEK0
0001:0005f7b6  __ZSt4fillISt13_Bit_iteratorbEvT_S1_RKT0_$w$78eFAOXcFP5nzqEK0
0001:0005fb58  __ZSt6fill_nISt13_Bit_iteratorjbET_S1_T0_RKT1_$w$78eFAOXcFP5nzqEK0
0001:0005fce0* __ZTSN6Xapian12TermIterator8InternalE$w$78eFAOXcFP5nzqEK0
0001:0005fd28* __ZTIN6Xapian8Internal10RefCntBaseE$w$78eFAOXcFP5nzqEK0
0001:0005fcb6* __ZTSN6Xapian16DocNotFoundErrorE$w$78eFAOXcFP5nzqEK0
0001:0005fd1c* __ZTIN6Xapian12RuntimeErrorE$w$78eFAOXcFP5nzqEK0
0001:0005fca0* __ZTSN6Xapian10RangeErrorE$w$78eFAOXcFP5nzqEK0
0001:0005fc80* __ZTSN6Xapian20DatabaseCorruptErrorE$w$78eFAOXcFP5nzqEK0
0001:0005fd10* __ZTIN6Xapian13DatabaseErrorE$w$78eFAOXcFP5nzqEK0
0001:0005fc50* __ZTSN6Xapian18UnimplementedErrorE$w$78eFAOXcFP5nzqEK0
0001:0005fd04* __ZTIN6Xapian10LogicErrorE$w$78eFAOXcFP5nzqEK0
0001:0005fd80* __ZTSN6Xapian10LogicErrorE$w$78eFAOXcFP5nzqEK0
0001:0005fd98* __ZTIN6Xapian5ErrorE$w$78eFAOXcFP5nzqEK0
0001:0005fd67* __ZTSN6Xapian13DatabaseErrorE$w$78eFAOXcFP5nzqEK0
0001:0005fd4f* __ZTSN6Xapian12RuntimeErrorE$w$78eFAOXcFP5nzqEK0
0001:0005fd30* __ZTSN6Xapian8Internal10RefCntBaseE$w$78eFAOXcFP5nzqEK0
0001:0005fda0* __ZTSN6Xapian5ErrorE$w$78eFAOXcFP5nzqEK0
0002:00015700* __ZN16__Atomicity_lockILi0EE17_S_atomicity_lockE$w$78eFAOXcFP5nzqEK0
Module: F:\rd\dse\xapian-core-1.0.2\.libs\xapian.a(api\omvalueiterator.cc)
0001:0005fdc0  __ZNK6Xapian13ValueIteratordeEv
0001:00060042* __ZNK6Xapian13ValueIteratorptEv
0001:000602c4  __ZNK6Xapian13ValueIterator11get_valuenoEv
0001:000603e2* __ZNK6Xapian13ValueIterator15get_descriptionEv
0001:000605ce  __ZNSt6vectorIjSaIjEE7reserveEj$w$L8gTaJMcFP5OAkbp1
0001:00060a8c* __ZNSt22_Rb_tree_base_iterator12_M_incrementEv$w$L8gTaJMcFP5OAkbp1
0001:0006076c* __ZNSt8_Rb_treeIjSt4pairIKjSsESt10_Select1stIS2_ESt4lessIjESaIS2_EE11lower_boundERS1_$w$L8gTaJMcFP5OAkbp1
0001:000608e4* __ZNSt8_Rb_treeIjSt4pairIKjSsESt10_Select1stIS2_ESt4lessIjESaIS2_EE13insert_uniqueESt17_Rb_tree_iteratorIS2_RS2_PS2_ERKS2_$w$L8gTaJMcFP5OAkbp1
0001:00060666* __ZNSt6vectorIjSaIjEE13_M_insert_auxEN9__gnu_cxx17__normal_iteratorIPjS1_EERKj$w$L8gTaJMcFP5OAkbp1
0001:000607a0* __ZStplIcSt11char_traitsIcESaIcEESbIT_T0_T1_EPKS3_RKS6_$w$L8gTaJMcFP5OAkbp1
0001:00060896  __ZNSt6vectorIjSaIjEE20_M_allocate_and_copyIPjEES3_jT_S4_$w$L8gTaJMcFP5OAkbp1
0001:00060ad4* __ZNSt22_Rb_tree_base_iterator12_M_decrementEv$w$L8gTaJMcFP5OAkbp1
0001:00060b24* __ZNSt8_Rb_treeIjSt4pairIKjSsESt10_Select1stIS2_ESt4lessIjESaIS2_EE9_M_insertEPSt18_Rb_tree_node_baseSA_RKS2_$w$L8gTaJMcFP5OAkbp1
0001:000609bc* __ZNSt8_Rb_treeIjSt4pairIKjSsESt10_Select1stIS2_ESt4lessIjESaIS2_EE13insert_uniqueERKS2_$w$L8gTaJMcFP5OAkbp1
0001:00060a88* __ZNSt15basic_streambufIcSt11char_traitsIcEE13_S_pback_sizeE$w$L8gTaJMcFP5OAkbp1
0001:00060cd6* __ZNSt8_Rb_treeIjSt4pairIKjSsESt10_Select1stIS2_ESt4lessIjESaIS2_EE14_M_create_nodeERKS2_$w$L8gTaJMcFP5OAkbp1
0001:00060bce* __ZSt18_Rb_tree_rebalancePSt18_Rb_tree_node_baseRS0_$w$L8gTaJMcFP5OAkbp1
0001:00060d48* __ZSt20_Rb_tree_rotate_leftPSt18_Rb_tree_node_baseRS0_$w$L8gTaJMcFP5OAkbp1
0001:00060d8a* __ZSt21_Rb_tree_rotate_rightPSt18_Rb_tree_node_baseRS0_$w$L8gTaJMcFP5OAkbp1
0002:00015710* __ZN16__Atomicity_lockILi0EE17_S_atomicity_lockE$w$L8gTaJMcFP5OAkbp1
Module: F:\rd\dse\xapian-core-1.0.2\.libs\xapian.a(languages\steminternal.cc)
0001:00060f90* __ZN6Xapian4Stem8InternalD1Ev
0001:00060fb6* __ZN6Xapian4Stem8InternalD0Ev
0001:00060de8  __Z8create_sv
0001:00060e3e  __Z9skip_utf8PKhiiii
0001:00060ed2  __ZN6Xapian4Stem8InternalC2Ev
0001:00060f1e* __ZN6Xapian4Stem8InternalC1Ev
0001:00060f6a  __ZN6Xapian4Stem8InternalD2Ev
0001:0006100c  __ZN6Xapian4Stem8InternalclERKSs
0001:000618d8* __ZN6Xapian4Stem8Internal9replace_sEiiiPKh
0001:000612ac* __ZN6Xapian4Stem8Internal8get_utf8EPi
0001:0006133e* __ZN6Xapian4Stem8Internal10get_b_utf8EPi
0001:000613ca  __ZN6Xapian4Stem8Internal13in_grouping_UEPKhiii
0001:00061432  __ZN6Xapian4Stem8Internal15in_grouping_b_UEPKhiii
0001:0006149a  __ZN6Xapian4Stem8Internal14out_grouping_UEPKhiii
0001:00061502  __ZN6Xapian4Stem8Internal16out_grouping_b_UEPKhiii
0001:0006156a  __ZN6Xapian4Stem8Internal4eq_sEiPKh
0001:000615c6  __ZN6Xapian4Stem8Internal6eq_s_bEiPKh
0001:00061626  __ZN6Xapian4Stem8Internal10find_amongEPK5amongiPKhPKPFiPS1_E
0001:0006177e  __ZN6Xapian4Stem8Internal12find_among_bEPK5amongiPKhPKPFiPS1_E
0001:000619da* __ZN6Xapian4Stem8Internal11slice_checkEv
0001:000619fe  __ZN6Xapian4Stem8Internal12slice_from_sEiPKh
0001:00061a48  __ZN6Xapian4Stem8Internal8insert_sEiiiPKh
0001:00061aa0  __ZN6Xapian4Stem8Internal8slice_toEPh
0001:00061b50* __ZN6Xapian4Stem8Internal9assign_toEPh
0001:00060dd0  __ZTVN6Xapian4Stem8InternalE$w$VXXbftbdFP56Y3f44
0001:00061bf0  __ZTIN6Xapian4Stem8InternalE$w$VXXbftbdFP56Y3f44
0001:00061cfc* __ZTISt9bad_alloc$w$VXXbftbdFP56Y3f44
0001:00061c28  __ZN6Xapian13InternalErrorD1Ev$w$VXXbftbdFP56Y3f44
0001:00061d08  __ZTIN6Xapian13InternalErrorE$w$VXXbftbdFP56Y3f44
0001:00061c10  __ZTSN6Xapian4Stem8InternalE$w$VXXbftbdFP56Y3f44
0001:00061d14* __ZTIN6Xapian8Internal10RefCntBaseE$w$VXXbftbdFP56Y3f44
0001:00061d54* __ZTSSt9bad_alloc$w$VXXbftbdFP56Y3f44
0001:00061d64* __ZTISt9exception$w$VXXbftbdFP56Y3f44
0001:00061d3b  __ZTSN6Xapian13InternalErrorE$w$VXXbftbdFP56Y3f44
0001:00061d6c* __ZTIN6Xapian12RuntimeErrorE$w$VXXbftbdFP56Y3f44
0001:00061d1c* __ZTSN6Xapian8Internal10RefCntBaseE$w$VXXbftbdFP56Y3f44
0001:00061d90* __ZTSSt9exception$w$VXXbftbdFP56Y3f44
0001:00061d78* __ZTSN6Xapian12RuntimeErrorE$w$VXXbftbdFP56Y3f44
0001:00061da0* __ZTIN6Xapian5ErrorE$w$VXXbftbdFP56Y3f44
0001:00061da8* __ZTSN6Xapian5ErrorE$w$VXXbftbdFP56Y3f44
0002:00015720* __ZN16__Atomicity_lockILi0EE17_S_atomicity_lockE$w$VXXbftbdFP56Y3f44
Module: F:\rd\dse\xapian-core-1.0.2\.libs\xapian.a(backends\inmemory\inmemory_positionlist.cc)
0001:0006201c* __ZNK20InMemoryPositionList8get_sizeEv
0001:0006202e* __ZNK20InMemoryPositionList12get_positionEv
0001:0006203c* __ZN20InMemoryPositionList4nextEv
0001:00062054* __ZN20InMemoryPositionList7skip_toEj
0001:0006208e* __ZNK20InMemoryPositionList6at_endEv
0001:00061e90* __ZN20InMemoryPositionListC2ERKSt6vectorIjSaIjEE
0001:00061f3e  __ZN20InMemoryPositionListC1ERKSt6vectorIjSaIjEE
0001:00061fec  __ZN20InMemoryPositionList8set_dataERKSt6vectorIjSaIjEE
0001:00061dd0  __ZTV20InMemoryPositionList$w$9xGVIi3dFP52Xa9D0
0001:000620a8  __ZTI20InMemoryPositionList$w$9xGVIi3dFP52Xa9D0
0001:00061df4  __ZN20InMemoryPositionListD1Ev$w$9xGVIi3dFP52Xa9D0
0001:00061e40  __ZN20InMemoryPositionListD0Ev$w$9xGVIi3dFP52Xa9D0
0001:000620d0* __ZTVN6Xapian16PositionIterator8InternalE$w$9xGVIi3dFP52Xa9D0
0001:00062114* __ZNSt6vectorIjSaIjEEaSERKS1_$w$9xGVIi3dFP52Xa9D0
0001:000620b4  __ZTS20InMemoryPositionList$w$9xGVIi3dFP52Xa9D0
0001:000621f0* __ZTIN6Xapian16PositionIterator8InternalE$w$9xGVIi3dFP52Xa9D0
0001:000620cc* __ZNSt15basic_streambufIcSt11char_traitsIcEE13_S_pback_sizeE$w$9xGVIi3dFP52Xa9D0
0001:000620f4* __ZN6Xapian16PositionIterator8InternalD1Ev$w$9xGVIi3dFP52Xa9D0
0001:00062102* __ZN6Xapian16PositionIterator8InternalD0Ev$w$9xGVIi3dFP52Xa9D0
0001:00062236* __ZNSt6vectorIjSaIjEE20_M_allocate_and_copyIN9__gnu_cxx17__normal_iteratorIPKjS1_EEEEPjjT_S9_$w$9xGVIi3dFP52Xa9D0
0001:00062210* __ZTSN6Xapian16PositionIterator8InternalE$w$9xGVIi3dFP52Xa9D0
0001:00062284* __ZTIN6Xapian8Internal10RefCntBaseE$w$9xGVIi3dFP52Xa9D0
0001:0006228c* __ZTSN6Xapian8Internal10RefCntBaseE$w$9xGVIi3dFP52Xa9D0
0002:00015730* __ZN16__Atomicity_lockILi0EE17_S_atomicity_lockE$w$9xGVIi3dFP52Xa9D0
Module: F:\rd\dse\xapian-core-1.0.2\.libs\xapian.a(backends\flint\flint_document.cc)
0001:000638b2* __ZNK13FlintDocument12do_get_valueEj
0001:00063966* __ZNK13FlintDocument17do_get_all_valuesEv
0001:00063a26* __ZNK13FlintDocument11do_get_dataEv
0001:00063186* __ZN13FlintDocumentD1Ev
0001:00063518* __ZN13FlintDocumentD0Ev
0001:000626f8* __ZN13FlintDocumentC2EN6Xapian8Internal9RefCntPtrIKNS0_8Database8InternalEEEPK15FlintValueTablePK16FlintRecordTablejb
0001:00062a76  __ZN13FlintDocumentC1EN6Xapian8Internal9RefCntPtrIKNS0_8Database8InternalEEEPK15FlintValueTablePK16FlintRecordTablejb
0001:00062df4* __ZN13FlintDocumentD2Ev
0001:000622b0  __ZTV13FlintDocument$w$pffA5EScFP5kOZCL3
0001:00063b84  __ZTI13FlintDocument$w$pffA5EScFP5kOZCL3
0001:000622d0* __ZTV12LeafPostList$w$pffA5EScFP5kOZCL3
0001:00063b78* __ZTI12LeafPostList$w$pffA5EScFP5kOZCL3
0001:00062596* __ZN12LeafPostListD1Ev$w$pffA5EScFP5kOZCL3
0001:000625d4* __ZN12LeafPostListD0Ev$w$pffA5EScFP5kOZCL3
0001:0006262e* __ZNK12LeafPostList16get_termfreq_minEv$w$pffA5EScFP5kOZCL3
0001:00062644* __ZNK12LeafPostList16get_termfreq_estEv$w$pffA5EScFP5kOZCL3
0001:00062618* __ZNK12LeafPostList16get_termfreq_maxEv$w$pffA5EScFP5kOZCL3
0001:000626c8* __ZNK12LeafPostList13get_maxweightEv$w$pffA5EScFP5kOZCL3
0001:0006267e* __ZNK12LeafPostList10get_weightEv$w$pffA5EScFP5kOZCL3
0001:00062328* __ZNK6Xapian15PostingIterator8Internal16get_collapse_keyEv$w$pffA5EScFP5kOZCL3
0001:000626e0* __ZN12LeafPostList16recalc_maxweightEv$w$pffA5EScFP5kOZCL3
0001:00062366* __ZNK6Xapian15PostingIterator8Internal7get_wdfEv$w$pffA5EScFP5kOZCL3
0001:0006265a* __ZN12LeafPostList14set_termweightEPKN6Xapian6WeightE$w$pffA5EScFP5kOZCL3
0001:00063c40* __ZN6Xapian18UnimplementedErrorD1Ev$w$pffA5EScFP5kOZCL3
0001:00064250* __ZTIN6Xapian18UnimplementedErrorE$w$pffA5EScFP5kOZCL3
0001:00063bf0* __ZTVN6Xapian15PostingIterator8InternalE$w$pffA5EScFP5kOZCL3
0001:00063bb8* __ZTVN6Xapian8Document8InternalE$w$pffA5EScFP5kOZCL3
0001:00063aea* __ZNSt8_Rb_treeISsSt4pairIKSs14OmDocumentTermESt10_Select1stIS3_ESt4lessISsESaIS3_EEC1ERKS7_RKS8_$w$pffA5EScFP5kOZCL3
0001:00063ae4* __ZNSaISt4pairIKSs14OmDocumentTermEED1Ev$w$pffA5EScFP5kOZCL3
0001:00063d14* __ZNSt6vectorIjSaIjEED1Ev$w$pffA5EScFP5kOZCL3
0001:00063d94* __ZNSt8_Rb_treeIjSt4pairIKjSsESt10_Select1stIS2_ESt4lessIjESaIS2_EED1Ev$w$pffA5EScFP5kOZCL3
0001:00063b30  __ZNSt8_Rb_treeISsSt4pairIKSs14OmDocumentTermESt10_Select1stIS3_ESt4lessISsESaIS3_EE5clearEv$w$pffA5EScFP5kOZCL3
0001:00063a5a* __ZNSt8_Rb_treeIjSt4pairIKjSsESt10_Select1stIS2_ESt4lessIjESaIS2_EE8_M_eraseEPSt13_Rb_tree_nodeIS2_E$w$pffA5EScFP5kOZCL3
0001:000640ba* __ZNSt8_Rb_treeISsSt4pairIKSs14OmDocumentTermESt10_Select1stIS3_ESt4lessISsESaIS3_EE8_M_eraseEPSt13_Rb_tree_nodeIS3_E$w$pffA5EScFP5kOZCL3
0001:00063ba0* __ZTS12LeafPostList$w$pffA5EScFP5kOZCL3
0001:00064230* __ZTIN6Xapian15PostingIterator8InternalE$w$pffA5EScFP5kOZCL3
0001:00063b90  __ZTS13FlintDocument$w$pffA5EScFP5kOZCL3
0001:00064270* __ZTIN6Xapian8Document8InternalE$w$pffA5EScFP5kOZCL3
0001:00063bb0* __ZNSt15basic_streambufIcSt11char_traitsIcEE13_S_pback_sizeE$w$pffA5EScFP5kOZCL3
0001:00063d5e* __ZNK6Xapian8Document8Internal12do_get_valueEj$w$pffA5EScFP5kOZCL3
0001:00063e0e* __ZNK6Xapian8Document8Internal17do_get_all_valuesEv$w$pffA5EScFP5kOZCL3
0001:00063e60* __ZNK6Xapian8Document8Internal11do_get_dataEv$w$pffA5EScFP5kOZCL3
0001:00063e96* __ZN6Xapian8Document8InternalD1Ev$w$pffA5EScFP5kOZCL3
0001:00063fa4* __ZN6Xapian8Document8InternalD0Ev$w$pffA5EScFP5kOZCL3
0001:00063d3e* __ZN6Xapian15PostingIterator8InternalD1Ev$w$pffA5EScFP5kOZCL3
0001:00063d4c* __ZN6Xapian15PostingIterator8InternalD0Ev$w$pffA5EScFP5kOZCL3
0001:000642d0* __ZTSN6Xapian15PostingIterator8InternalE$w$pffA5EScFP5kOZCL3
0001:000642f4* __ZTIN6Xapian8Internal10RefCntBaseE$w$pffA5EScFP5kOZCL3
0001:000642ac* __ZTSN6Xapian18UnimplementedErrorE$w$pffA5EScFP5kOZCL3
0001:000642fc* __ZTIN6Xapian10LogicErrorE$w$pffA5EScFP5kOZCL3
0001:00064290* __ZTSN6Xapian8Document8InternalE$w$pffA5EScFP5kOZCL3
0001:0006431e* __ZTSN6Xapian8Internal10RefCntBaseE$w$pffA5EScFP5kOZCL3
0001:00064308* __ZTSN6Xapian10LogicErrorE$w$pffA5EScFP5kOZCL3
0001:00064340* __ZTIN6Xapian5ErrorE$w$pffA5EScFP5kOZCL3
0001:00064348* __ZTSN6Xapian5ErrorE$w$pffA5EScFP5kOZCL3
0002:00015740* __ZN16__Atomicity_lockILi0EE17_S_atomicity_lockE$w$pffA5EScFP5kOZCL3
Module: F:\rd\dse\xapian-core-1.0.2\.libs\xapian.a(backends\flint\flint_modifiedpostlist.cc)
0001:000648ea* __ZN21FlintModifiedPostListD1Ev
0001:000649dc* __ZN21FlintModifiedPostListD0Ev
0001:00064b70* __ZNK21FlintModifiedPostList9get_docidEv
0001:00064bac* __ZNK21FlintModifiedPostList13get_doclengthEv
0001:00064bf0* __ZNK21FlintModifiedPostList7get_wdfEv
0001:00064c30* __ZN21FlintModifiedPostList18read_position_listEv
0001:00064cae* __ZNK21FlintModifiedPostList18open_position_listEv
0001:00064d00* __ZN21FlintModifiedPostList4nextEd
0001:00064d8c* __ZN21FlintModifiedPostList7skip_toEjd
0001:00064df2* __ZNK21FlintModifiedPostList6at_endEv
0001:00064e28* __ZNK21FlintModifiedPostList15get_descriptionEv
0001:00064b50* __ZNK21FlintModifiedPostList12get_termfreqEv
0001:000647f8* __ZN21FlintModifiedPostListD2Ev
0001:00064ad4* __ZN21FlintModifiedPostList12skip_deletesEd
0001:00064370  __ZTV21FlintModifiedPostList$w$hnXzHqTcFP5YstYz3
0001:00064fac  __ZTI21FlintModifiedPostList$w$hnXzHqTcFP5YstYz3
0001:0006472e* __ZNK12LeafPostList16get_termfreq_minEv$w$hnXzHqTcFP5YstYz3
0001:00064744* __ZNK12LeafPostList16get_termfreq_estEv$w$hnXzHqTcFP5YstYz3
0001:00064718* __ZNK12LeafPostList16get_termfreq_maxEv$w$hnXzHqTcFP5YstYz3
0001:000647c8* __ZNK12LeafPostList13get_maxweightEv$w$hnXzHqTcFP5YstYz3
0001:0006477e* __ZNK12LeafPostList10get_weightEv$w$hnXzHqTcFP5YstYz3
0001:00064428* __ZNK6Xapian15PostingIterator8Internal16get_collapse_keyEv$w$hnXzHqTcFP5YstYz3
0001:000647e0* __ZN12LeafPostList16recalc_maxweightEv$w$hnXzHqTcFP5YstYz3
0001:0006475a* __ZN12LeafPostList14set_termweightEPKN6Xapian6WeightE$w$hnXzHqTcFP5YstYz3
0001:000643d0* __ZTV12LeafPostList$w$hnXzHqTcFP5YstYz3
0001:00064fa0* __ZTI12LeafPostList$w$hnXzHqTcFP5YstYz3
0001:00064696* __ZN12LeafPostListD1Ev$w$hnXzHqTcFP5YstYz3
0001:000646d4* __ZN12LeafPostListD0Ev$w$hnXzHqTcFP5YstYz3
0001:00064466* __ZNK6Xapian15PostingIterator8Internal7get_wdfEv$w$hnXzHqTcFP5YstYz3
0001:00065088* __ZN6Xapian18UnimplementedErrorD1Ev$w$hnXzHqTcFP5YstYz3
0001:000651b0* __ZTIN6Xapian18UnimplementedErrorE$w$hnXzHqTcFP5YstYz3
0001:00064ff0* __ZTVN6Xapian15PostingIterator8InternalE$w$hnXzHqTcFP5YstYz3
0001:00064f5c* __ZNSt8_Rb_treeIjSt4pairIKjS0_IcjEESt10_Select1stIS3_ESt4lessIjESaIS3_EE8_M_eraseEPSt13_Rb_tree_nodeIS3_E$w$hnXzHqTcFP5YstYz3
0001:00065040* __ZNSt22_Rb_tree_base_iterator12_M_incrementEv$w$hnXzHqTcFP5YstYz3
0001:00064fd0* __ZTS12LeafPostList$w$hnXzHqTcFP5YstYz3
0001:00065190* __ZTIN6Xapian15PostingIterator8InternalE$w$hnXzHqTcFP5YstYz3
0001:00064fb8  __ZTS21FlintModifiedPostList$w$hnXzHqTcFP5YstYz3
0001:000651bc  __ZTI13FlintPostList$w$hnXzHqTcFP5YstYz3
0001:00064fe0* __ZNSt15basic_streambufIcSt11char_traitsIcEE13_S_pback_sizeE$w$hnXzHqTcFP5YstYz3
0001:0006515c* __ZN6Xapian15PostingIterator8InternalD1Ev$w$hnXzHqTcFP5YstYz3
0001:0006516a* __ZN6Xapian15PostingIterator8InternalD0Ev$w$hnXzHqTcFP5YstYz3
0001:00065210* __ZTSN6Xapian15PostingIterator8InternalE$w$hnXzHqTcFP5YstYz3
0001:00065240* __ZTIN6Xapian8Internal10RefCntBaseE$w$hnXzHqTcFP5YstYz3
0001:000651d8* __ZTSN6Xapian18UnimplementedErrorE$w$hnXzHqTcFP5YstYz3
0001:00065234* __ZTIN6Xapian10LogicErrorE$w$hnXzHqTcFP5YstYz3
0001:000651c8  __ZTS13FlintPostList$w$hnXzHqTcFP5YstYz3
0001:00065267* __ZTSN6Xapian10LogicErrorE$w$hnXzHqTcFP5YstYz3
0001:00065280* __ZTIN6Xapian5ErrorE$w$hnXzHqTcFP5YstYz3
0001:00065248* __ZTSN6Xapian8Internal10RefCntBaseE$w$hnXzHqTcFP5YstYz3
0001:00065288* __ZTSN6Xapian5ErrorE$w$hnXzHqTcFP5YstYz3
0002:00015750* __ZN16__Atomicity_lockILi0EE17_S_atomicity_lockE$w$hnXzHqTcFP5YstYz3
Module: F:\rd\dse\xapian-core-1.0.2\.libs\xapian.a(languages\spanish.cc)
0001:000662e6* __ZN6Xapian19InternalStemSpanishD1Ev
0001:00066302* __ZN6Xapian19InternalStemSpanishD0Ev
0001:000661b2* __ZN6Xapian19InternalStemSpanish4stemEv
0001:00066332* __ZNK6Xapian19InternalStemSpanish15get_descriptionEv
0001:000652c8* __ZN6Xapian19InternalStemSpanish14r_mark_regionsEv
0001:000655bc* __ZN6Xapian19InternalStemSpanish10r_postludeEv
0001:000656fa* __ZN6Xapian19InternalStemSpanish4r_RVEv
0001:0006570e* __ZN6Xapian19InternalStemSpanish4r_R1Ev
0001:00065722* __ZN6Xapian19InternalStemSpanish4r_R2Ev
0001:00065736* __ZN6Xapian19InternalStemSpanish18r_attached_pronounEv
0001:00065916* __ZN6Xapian19InternalStemSpanish17r_standard_suffixEv
0001:00065e4c* __ZN6Xapian19InternalStemSpanish15r_y_verb_suffixEv
0001:00065f22* __ZN6Xapian19InternalStemSpanish13r_verb_suffixEv
0001:0006603c* __ZN6Xapian19InternalStemSpanish17r_residual_suffixEv
0001:0006625e* __ZN6Xapian19InternalStemSpanishC2Ev
0001:00066294  __ZN6Xapian19InternalStemSpanishC1Ev
0001:000662ca* __ZN6Xapian19InternalStemSpanishD2Ev
0001:000652b0  __ZTVN6Xapian19InternalStemSpanishE$w$Btb6UoadFP5u8Bmf0
0001:0006633c  __ZTIN6Xapian19InternalStemSpanishE$w$Btb6UoadFP5u8Bmf0
0001:0006706c  __ZTSN6Xapian19InternalStemSpanishE$w$Btb6UoadFP5u8Bmf0
0001:000673f0* __ZTIN6Xapian4Stem8InternalE$w$Btb6UoadFP5u8Bmf0
0001:00067410* __ZTSN6Xapian4Stem8InternalE$w$Btb6UoadFP5u8Bmf0
0001:00067428* __ZTIN6Xapian8Internal10RefCntBaseE$w$Btb6UoadFP5u8Bmf0
0001:00067430* __ZTSN6Xapian8Internal10RefCntBaseE$w$Btb6UoadFP5u8Bmf0
0002:00015760* __ZN16__Atomicity_lockILi0EE17_S_atomicity_lockE$w$Btb6UoadFP5u8Bmf0
Module: F:\rd\dse\xapian-core-1.0.2\.libs\xapian.a(languages\russian.cc)
0001:00067d58* __ZN6Xapian19InternalStemRussianD1Ev
0001:00067d74* __ZN6Xapian19InternalStemRussianD0Ev
0001:00067b78* __ZN6Xapian19InternalStemRussian4stemEv
0001:00067da4* __ZNK6Xapian19InternalStemRussian15get_descriptionEv
0001:00067468* __ZN6Xapian19InternalStemRussian14r_mark_regionsEv
0001:0006755a* __ZN6Xapian19InternalStemRussian4r_R2Ev
0001:0006756e* __ZN6Xapian19InternalStemRussian19r_perfective_gerundEv
0001:00067648* __ZN6Xapian19InternalStemRussian11r_adjectiveEv
0001:000676c6* __ZN6Xapian19InternalStemRussian12r_adjectivalEv
0001:000677ca* __ZN6Xapian19InternalStemRussian11r_reflexiveEv
0001:00067864* __ZN6Xapian19InternalStemRussian6r_verbEv
0001:0006793e* __ZN6Xapian19InternalStemRussian6r_nounEv
0001:000679bc* __ZN6Xapian19InternalStemRussian14r_derivationalEv
0001:00067a6e* __ZN6Xapian19InternalStemRussian9r_tidy_upEv
0001:00067cdc* __ZN6Xapian19InternalStemRussianC2Ev
0001:00067d0c  __ZN6Xapian19InternalStemRussianC1Ev
0001:00067d3c* __ZN6Xapian19InternalStemRussianD2Ev
0001:00067450  __ZTVN6Xapian19InternalStemRussianE$w$BllrN9adFP5LhfPY1
0001:00067db0  __ZTIN6Xapian19InternalStemRussianE$w$BllrN9adFP5LhfPY1
0001:00068648  __ZTSN6Xapian19InternalStemRussianE$w$BllrN9adFP5LhfPY1
0001:000688f0* __ZTIN6Xapian4Stem8InternalE$w$BllrN9adFP5LhfPY1
0001:00068910* __ZTSN6Xapian4Stem8InternalE$w$BllrN9adFP5LhfPY1
0001:00068928* __ZTIN6Xapian8Internal10RefCntBaseE$w$BllrN9adFP5LhfPY1
0001:00068930* __ZTSN6Xapian8Internal10RefCntBaseE$w$BllrN9adFP5LhfPY1
0002:00015770* __ZN16__Atomicity_lockILi0EE17_S_atomicity_lockE$w$BllrN9adFP5LhfPY1
Module: F:\rd\dse\xapian-core-1.0.2\.libs\xapian.a(backends\multi\multi_termlist.cc)
0001:00068ad8* __ZN13MultiTermListD1Ev
0001:00068b20* __ZN13MultiTermListD0Ev
0001:00068b70* __ZNK13MultiTermList15get_approx_sizeEv
0001:00068b88* __ZNK13MultiTermList16accumulate_statsERN6Xapian8Internal11ExpandStatsE
0001:00068bb6* __ZNK13MultiTermList12get_termnameEv
0001:00068be2* __ZNK13MultiTermList7get_wdfEv
0001:00068bfa* __ZNK13MultiTermList12get_termfreqEv
0001:00068c44* __ZN13MultiTermList4nextEv
0001:00068c5c* __ZNK13MultiTermList6at_endEv
0001:00068c78* __ZNK13MultiTermList18positionlist_countEv
0001:00068c90* __ZNK13MultiTermList18positionlist_beginEv
0001:0006898c* __ZN13MultiTermListC2EPN6Xapian12TermIterator8InternalERKNS0_8DatabaseEj
0001:00068a0e  __ZN13MultiTermListC1EPN6Xapian12TermIterator8InternalERKNS0_8DatabaseEj
0001:00068a90* __ZN13MultiTermListD2Ev
0001:00068950  __ZTV13MultiTermList$w$xlqRrk4dFP5HNLaE0
0001:00068cbc  __ZTI13MultiTermList$w$xlqRrk4dFP5HNLaE0
0001:00068cc8  __ZTS13MultiTermList$w$xlqRrk4dFP5HNLaE0
0001:00068cf0* __ZTIN6Xapian12TermIterator8InternalE$w$xlqRrk4dFP5HNLaE0
0001:00068cd8* __ZNSt15basic_streambufIcSt11char_traitsIcEE13_S_pback_sizeE$w$xlqRrk4dFP5HNLaE0
0001:00068d10* __ZTSN6Xapian12TermIterator8InternalE$w$xlqRrk4dFP5HNLaE0
0001:00068d34* __ZTIN6Xapian8Internal10RefCntBaseE$w$xlqRrk4dFP5HNLaE0
0001:00068d3c* __ZTSN6Xapian8Internal10RefCntBaseE$w$xlqRrk4dFP5HNLaE0
0002:00015780* __ZN16__Atomicity_lockILi0EE17_S_atomicity_lockE$w$xlqRrk4dFP5HNLaE0
Module: F:\rd\dse\xapian-core-1.0.2\.libs\xapian.a(backends\flint\flint_table.cc)
0001:00068d98* __ZNK10FlintTable10read_blockEmPh
0001:0006905a* __ZNK10FlintTable11write_blockEmPKh
0001:0006976c* __ZNK10FlintTable15set_overwrittenEv
0001:00069bbc* __ZNK10FlintTable15block_to_cursorEP7Cursor_im
0001:00069ce4* __ZN10FlintTable5alterEv
0001:00069df4* __ZN10FlintTable13find_in_blockEPKh4Key_bi
0001:00070d3e* __ZNK4Key_ltES_
0001:00069f04  __ZNK10FlintTable4findEP7Cursor_
0001:00070dc8* __ZNK4Key_eqES_
0001:0006a02e* __ZN10FlintTable7compactEPh
0001:0006a130* __ZN10FlintTable10split_rootEm
0001:0006a84e* __ZN10FlintTable8add_itemE8Item_wr_i
0001:0006a462* __ZN10FlintTable9enter_keyEi4Key_S0_
0001:0006a6b4* __ZN10FlintTable9mid_pointEPh
0001:0006a746* __ZN10FlintTable17add_item_to_blockEPh8Item_wr_i
0001:0006aac8* __ZN10FlintTable11delete_itemEib
0001:0006ad22* __ZN10FlintTable6add_ktEb
0001:0006aed0* __ZN10FlintTable9delete_ktEv
0001:0006af62  __ZNK10FlintTable8form_keyERKSs
0001:0006b06e  __ZN10FlintTable3addERKSsSsb
0001:0006eef0  __ZN10FlintTable15create_and_openEj
0001:0006bf14  __ZN10FlintTable3delERKSs
0001:0006bfae  __ZNK10FlintTable15get_exact_entryERKSsRSs
0001:0006c02a* __ZNK10FlintTable8find_tagERKSsPSs
0001:0006bfe4  __ZNK10FlintTable10key_existsERKSs
0001:0006c0f4  __ZNK10FlintTable8read_tagEP7Cursor_PSsb
0001:0006cd30* __ZN10FlintTable19set_full_compactionEb
0001:0006cd4a  __ZNK10FlintTable10cursor_getEv
0001:0006cdcc* __ZN10FlintTable10basic_openEbj
0001:0006d438* __ZN10FlintTable9read_rootEv
0001:0006d5c0* __ZN10FlintTable16do_open_to_writeEbjb
0001:00070b58* __ZNK10FlintTable12prev_defaultEP7Cursor_i
0001:00070c46* __ZNK10FlintTable12next_defaultEP7Cursor_i
0001:0006dd12  __ZN10FlintTableC2ESsbib
0001:0006de2c* __ZN10FlintTableC1ESsbib
0001:0006df52  __ZNK10FlintTable6existsEv
0001:0006e2fa  __ZN10FlintTable5eraseEv
0001:0006f610* __ZN10FlintTable5closeEv
0001:0006eec8  __ZN10FlintTable14set_block_sizeEj
0001:0006f498  __ZN10FlintTableD2Ev
0001:0006f554* __ZN10FlintTableD1Ev
0001:0006f708  __ZN10FlintTable6commitEj
0001:0006fe80  __ZN10FlintTable6cancelEv
0001:0007026a* __ZN10FlintTable15do_open_to_readEbj
0001:000709c4* __ZNK10FlintTable19prev_for_sequentialEP7Cursor_i
0001:00070a8a* __ZNK10FlintTable19next_for_sequentialEP7Cursor_i
0001:000708f4  __ZN10FlintTable4openEv
0001:00070950  __ZN10FlintTable4openEj
0001:000710ac* __ZN6Xapian13DatabaseErrorD1Ev$w$JlvPuhXcFP5BoWMn2
0001:00071414* __ZTIN6Xapian13DatabaseErrorE$w$JlvPuhXcFP5BoWMn2
0001:00070f14* __ZN6Xapian5ErrorC2ERKSsS2_PKci$w$JlvPuhXcFP5BoWMn2
0001:00071180* __ZN6Xapian20DatabaseCorruptErrorD1Ev$w$JlvPuhXcFP5BoWMn2
0001:00071408* __ZTIN6Xapian20DatabaseCorruptErrorE$w$JlvPuhXcFP5BoWMn2
0001:00071254* __ZN6Xapian21DatabaseModifiedErrorD1Ev$w$JlvPuhXcFP5BoWMn2
0001:00071420* __ZTIN6Xapian21DatabaseModifiedErrorE$w$JlvPuhXcFP5BoWMn2
0001:00070e1a* __ZStplIcSt11char_traitsIcESaIcEESbIT_T0_T1_EPKS3_RKS6_$w$JlvPuhXcFP5BoWMn2
0001:00070fd8* __ZN6Xapian20InvalidArgumentErrorD1Ev$w$JlvPuhXcFP5BoWMn2
0001:0007142c* __ZTIN6Xapian20InvalidArgumentErrorE$w$JlvPuhXcFP5BoWMn2
0001:000713fc  __ZTISt9bad_alloc$w$JlvPuhXcFP5BoWMn2
0001:00071328* __ZN6Xapian20DatabaseOpeningErrorD1Ev$w$JlvPuhXcFP5BoWMn2
0001:00071438* __ZTIN6Xapian20DatabaseOpeningErrorE$w$JlvPuhXcFP5BoWMn2
0001:000714f0  __ZTSSt9bad_alloc$w$JlvPuhXcFP5BoWMn2
0001:00071500  __ZTISt9exception$w$JlvPuhXcFP5BoWMn2
0001:000714d0* __ZTSN6Xapian20DatabaseCorruptErrorE$w$JlvPuhXcFP5BoWMn2
0001:000714b1* __ZTSN6Xapian13DatabaseErrorE$w$JlvPuhXcFP5BoWMn2
0001:00071514* __ZTIN6Xapian12RuntimeErrorE$w$JlvPuhXcFP5BoWMn2
0001:00071490* __ZTSN6Xapian21DatabaseModifiedErrorE$w$JlvPuhXcFP5BoWMn2
0001:00071470* __ZTSN6Xapian20InvalidArgumentErrorE$w$JlvPuhXcFP5BoWMn2
0001:00071508* __ZTIN6Xapian10LogicErrorE$w$JlvPuhXcFP5BoWMn2
0001:00071450* __ZTSN6Xapian20DatabaseOpeningErrorE$w$JlvPuhXcFP5BoWMn2
0001:0007154e  __ZTSSt9exception$w$JlvPuhXcFP5BoWMn2
0001:00071538* __ZTSN6Xapian10LogicErrorE$w$JlvPuhXcFP5BoWMn2
0001:0007155c* __ZTIN6Xapian5ErrorE$w$JlvPuhXcFP5BoWMn2
0001:00071520* __ZTSN6Xapian12RuntimeErrorE$w$JlvPuhXcFP5BoWMn2
0001:00071564* __ZTSN6Xapian5ErrorE$w$JlvPuhXcFP5BoWMn2
0002:00015790* __ZN16__Atomicity_lockILi0EE17_S_atomicity_lockE$w$JlvPuhXcFP5BoWMn2
Module: F:\rd\dse\xapian-core-1.0.2\.libs\xapian.a(languages\kraaij_pohlmann.cc)
0001:000736d6* __ZN6Xapian27InternalStemKraaij_pohlmannD1Ev
0001:0007370a* __ZN6Xapian27InternalStemKraaij_pohlmannD0Ev
0001:00073284* __ZN6Xapian27InternalStemKraaij_pohlmann4stemEv
0001:00073754* __ZNK6Xapian27InternalStemKraaij_pohlmann15get_descriptionEv
0001:000715a8* __ZN6Xapian27InternalStemKraaij_pohlmann4r_R1Ev
0001:000715c0* __ZN6Xapian27InternalStemKraaij_pohlmann4r_R2Ev
0001:000715d8* __ZN6Xapian27InternalStemKraaij_pohlmann3r_VEv
0001:0007165a* __ZN6Xapian27InternalStemKraaij_pohlmann4r_VXEv
0001:0007171a* __ZN6Xapian27InternalStemKraaij_pohlmann3r_CEv
0001:0007179e* __ZN6Xapian27InternalStemKraaij_pohlmann12r_lengthen_VEv
0001:00071a22* __ZN6Xapian27InternalStemKraaij_pohlmann8r_Step_1Ev
0001:00071eca* __ZN6Xapian27InternalStemKraaij_pohlmann8r_Step_2Ev
0001:000723e0* __ZN6Xapian27InternalStemKraaij_pohlmann8r_Step_3Ev
0001:00072716* __ZN6Xapian27InternalStemKraaij_pohlmann8r_Step_4Ev
0001:00072a78* __ZN6Xapian27InternalStemKraaij_pohlmann8r_Step_7Ev
0001:00072b32* __ZN6Xapian27InternalStemKraaij_pohlmann8r_Step_6Ev
0001:00072d3e* __ZN6Xapian27InternalStemKraaij_pohlmann9r_Step_1cEv
0001:00072e66* __ZN6Xapian27InternalStemKraaij_pohlmann13r_Lose_prefixEv
0001:00072f6e* __ZN6Xapian27InternalStemKraaij_pohlmann12r_Lose_infixEv
0001:000730ce* __ZN6Xapian27InternalStemKraaij_pohlmann9r_measureEv
0001:000735ce* __ZN6Xapian27InternalStemKraaij_pohlmannC2Ev
0001:00073638  __ZN6Xapian27InternalStemKraaij_pohlmannC1Ev
0001:000736a2* __ZN6Xapian27InternalStemKraaij_pohlmannD2Ev
0001:00071590  __ZTVN6Xapian27InternalStemKraaij_pohlmannE$w$nQa8NQ8dFP5WytcB3
0001:00073760  __ZTIN6Xapian27InternalStemKraaij_pohlmannE$w$nQa8NQ8dFP5WytcB3
0001:00073d30  __ZTSN6Xapian27InternalStemKraaij_pohlmannE$w$nQa8NQ8dFP5WytcB3
0001:00073e50* __ZTIN6Xapian4Stem8InternalE$w$nQa8NQ8dFP5WytcB3
0001:00073e70* __ZTSN6Xapian4Stem8InternalE$w$nQa8NQ8dFP5WytcB3
0001:00073e88* __ZTIN6Xapian8Internal10RefCntBaseE$w$nQa8NQ8dFP5WytcB3
0001:00073e90* __ZTSN6Xapian8Internal10RefCntBaseE$w$nQa8NQ8dFP5WytcB3
0002:000157a0* __ZN16__Atomicity_lockILi0EE17_S_atomicity_lockE$w$nQa8NQ8dFP5WytcB3
Module: F:\rd\dse\xapian-core-1.0.2\.libs\xapian.a(backends\flint\flint_alldocspostlist.cc)
0001:00074c00* __ZN20FlintAllDocsPostListD1Ev
0001:00074cce* __ZN20FlintAllDocsPostListD0Ev
0001:00074e26* __ZN20FlintAllDocsPostList4nextEd
0001:00075374* __ZN20FlintAllDocsPostList7skip_toEjd
0001:000759b8* __ZNK20FlintAllDocsPostList15get_descriptionEv
0001:0007482e* __ZN20FlintAllDocsPostListC2EN6Xapian8Internal9RefCntPtrIKNS0_8Database8InternalEEEPK10FlintTablej
0001:000749b0  __ZN20FlintAllDocsPostListC1EN6Xapian8Internal9RefCntPtrIKNS0_8Database8InternalEEEPK10FlintTablej
0001:00074b32* __ZN20FlintAllDocsPostListD2Ev
0001:00073eb0  __ZTV20FlintAllDocsPostList$w$bofo3RPcFP5BymuG0
0001:00075be4  __ZTI20FlintAllDocsPostList$w$bofo3RPcFP5BymuG0
0001:0007426e* __ZNK12LeafPostList16get_termfreq_minEv$w$bofo3RPcFP5BymuG0
0001:00074284* __ZNK12LeafPostList16get_termfreq_estEv$w$bofo3RPcFP5BymuG0
0001:00074258* __ZNK12LeafPostList16get_termfreq_maxEv$w$bofo3RPcFP5BymuG0
0001:00074308* __ZNK12LeafPostList13get_maxweightEv$w$bofo3RPcFP5BymuG0
0001:00074344  __ZNK20FlintAllDocsPostList9get_docidEv$w$bofo3RPcFP5BymuG0
0001:000742be* __ZNK12LeafPostList10get_weightEv$w$bofo3RPcFP5BymuG0
0001:00073f68* __ZNK6Xapian15PostingIterator8Internal16get_collapse_keyEv$w$bofo3RPcFP5BymuG0
0001:00074350  __ZNK20FlintAllDocsPostList13get_doclengthEv$w$bofo3RPcFP5BymuG0
0001:00074320* __ZN12LeafPostList16recalc_maxweightEv$w$bofo3RPcFP5BymuG0
0001:00074370  __ZNK20FlintAllDocsPostList7get_wdfEv$w$bofo3RPcFP5BymuG0
0001:000743c2  __ZN20FlintAllDocsPostList18read_position_listEv$w$bofo3RPcFP5BymuG0
0001:000745f2  __ZNK20FlintAllDocsPostList18open_position_listEv$w$bofo3RPcFP5BymuG0
0001:00074822  __ZNK20FlintAllDocsPostList6at_endEv$w$bofo3RPcFP5BymuG0
0001:00074338  __ZNK20FlintAllDocsPostList12get_termfreqEv$w$bofo3RPcFP5BymuG0
0001:0007429a* __ZN12LeafPostList14set_termweightEPKN6Xapian6WeightE$w$bofo3RPcFP5BymuG0
0001:00073f10* __ZTV12LeafPostList$w$bofo3RPcFP5BymuG0
0001:00075bd8* __ZTI12LeafPostList$w$bofo3RPcFP5BymuG0
0001:000741d6* __ZN12LeafPostListD1Ev$w$bofo3RPcFP5BymuG0
0001:00074214* __ZN12LeafPostListD0Ev$w$bofo3RPcFP5BymuG0
0001:00073fa6* __ZNK6Xapian15PostingIterator8Internal7get_wdfEv$w$bofo3RPcFP5BymuG0
0001:00075d54* __ZN6Xapian18UnimplementedErrorD1Ev$w$bofo3RPcFP5BymuG0
0001:00076110* __ZTIN6Xapian18UnimplementedErrorE$w$bofo3RPcFP5BymuG0
0001:00075c30* __ZTVN6Xapian15PostingIterator8InternalE$w$bofo3RPcFP5BymuG0
0001:00075c80* __ZN6Xapian21InvalidOperationErrorD1Ev$w$bofo3RPcFP5BymuG0
0001:0007611c* __ZTIN6Xapian21InvalidOperationErrorE$w$bofo3RPcFP5BymuG0
0001:00075a8a* __Z27unpack_uint_preserving_sortIjEbPPKcS1_PT_$w$bofo3RPcFP5BymuG0
0001:00075e28* __ZN6Xapian20DatabaseCorruptErrorD1Ev$w$bofo3RPcFP5BymuG0
0001:00076128* __ZTIN6Xapian20DatabaseCorruptErrorE$w$bofo3RPcFP5BymuG0
0001:00075efc* __ZN6Xapian10RangeErrorD1Ev$w$bofo3RPcFP5BymuG0
0001:00076134* __ZTIN6Xapian10RangeErrorE$w$bofo3RPcFP5BymuG0
0001:00075ff0* __Z25pack_uint_preserving_sortIjESsT_$w$bofo3RPcFP5BymuG0
0001:00075ae2* __ZStplIcSt11char_traitsIcESaIcEESbIT_T0_T1_EPKS3_RKS6_$w$bofo3RPcFP5BymuG0
0001:00075c07* __ZTS12LeafPostList$w$bofo3RPcFP5BymuG0
0001:000760f0* __ZTIN6Xapian15PostingIterator8InternalE$w$bofo3RPcFP5BymuG0
0001:00075bf0  __ZTS20FlintAllDocsPostList$w$bofo3RPcFP5BymuG0
0001:00075c18* __ZNSt15basic_streambufIcSt11char_traitsIcEE13_S_pback_sizeE$w$bofo3RPcFP5BymuG0
0001:00075fd0* __ZN6Xapian15PostingIterator8InternalD1Ev$w$bofo3RPcFP5BymuG0
0001:00075fde* __ZN6Xapian15PostingIterator8InternalD0Ev$w$bofo3RPcFP5BymuG0
0001:000761d0* __ZTSN6Xapian15PostingIterator8InternalE$w$bofo3RPcFP5BymuG0
0001:00076218* __ZTIN6Xapian8Internal10RefCntBaseE$w$bofo3RPcFP5BymuG0
0001:000761b1* __ZTSN6Xapian18UnimplementedErrorE$w$bofo3RPcFP5BymuG0
0001:0007620c* __ZTIN6Xapian10LogicErrorE$w$bofo3RPcFP5BymuG0
0001:00076190* __ZTSN6Xapian21InvalidOperationErrorE$w$bofo3RPcFP5BymuG0
0001:00076170* __ZTSN6Xapian20DatabaseCorruptErrorE$w$bofo3RPcFP5BymuG0
0001:00076200* __ZTIN6Xapian13DatabaseErrorE$w$bofo3RPcFP5BymuG0
0001:00076140* __ZTSN6Xapian10RangeErrorE$w$bofo3RPcFP5BymuG0
0001:000761f4* __ZTIN6Xapian12RuntimeErrorE$w$bofo3RPcFP5BymuG0
0001:0007626e* __ZTSN6Xapian12RuntimeErrorE$w$bofo3RPcFP5BymuG0
0001:00076288* __ZTIN6Xapian5ErrorE$w$bofo3RPcFP5BymuG0
0001:00076255* __ZTSN6Xapian13DatabaseErrorE$w$bofo3RPcFP5BymuG0
0001:0007623f* __ZTSN6Xapian10LogicErrorE$w$bofo3RPcFP5BymuG0
0001:00076220* __ZTSN6Xapian8Internal10RefCntBaseE$w$bofo3RPcFP5BymuG0
0001:00076290* __ZTSN6Xapian5ErrorE$w$bofo3RPcFP5BymuG0
0002:000157b0* __ZN16__Atomicity_lockILi0EE17_S_atomicity_lockE$w$bofo3RPcFP5BymuG0
Module: F:\rd\dse\xapian-core-1.0.2\.libs\xapian.a(expand\ortermlist.cc)
0001:00076f38* __ZN19FreqAdderOrTermListD1Ev
0001:00076f54* __ZN19FreqAdderOrTermListD0Ev
0001:00076760* __ZNK10OrTermList15get_approx_sizeEv
0001:00076796* __ZNK10OrTermList16accumulate_statsERN6Xapian8Internal11ExpandStatsE
0001:000768ae* __ZNK10OrTermList12get_termnameEv
0001:00076936* __ZNK10OrTermList7get_wdfEv
0001:00076f7c* __ZNK19FreqAdderOrTermList12get_termfreqEv
0001:00076aba* __ZN10OrTermList4nextEv
0001:00076ee4* __ZNK10OrTermList6at_endEv
0001:00076eec* __ZNK10OrTermList18positionlist_countEv
0001:00076ef4* __ZNK10OrTermList18positionlist_beginEv
0001:00076494* __ZN10OrTermListD1Ev
0001:000765f6* __ZN10OrTermListD0Ev
0001:00076a3a* __ZNK10OrTermList12get_termfreqEv
0001:0007632c* __ZNK10OrTermList13check_startedEv
0001:00076332* __ZN10OrTermListD2Ev
0001:00076f1c* __ZN19FreqAdderOrTermListD2Ev
0001:000762b0  __ZTV19FreqAdderOrTermList$w$7m9Vxx6dFP5Ubs9O1
0001:0007708c  __ZTI19FreqAdderOrTermList$w$7m9Vxx6dFP5Ubs9O1
0001:000762f0  __ZTV10OrTermList$w$7m9Vxx6dFP5Ubs9O1
0001:00077080  __ZTI10OrTermList$w$7m9Vxx6dFP5Ubs9O1
0001:000770ae  __ZTS10OrTermList$w$7m9Vxx6dFP5Ubs9O1
0001:000770d0* __ZTIN6Xapian12TermIterator8InternalE$w$7m9Vxx6dFP5Ubs9O1
0001:00077098  __ZTS19FreqAdderOrTermList$w$7m9Vxx6dFP5Ubs9O1
0001:000770bc* __ZNSt15basic_streambufIcSt11char_traitsIcEE13_S_pback_sizeE$w$7m9Vxx6dFP5Ubs9O1
0001:000770f0* __ZTSN6Xapian12TermIterator8InternalE$w$7m9Vxx6dFP5Ubs9O1
0001:00077114* __ZTIN6Xapian8Internal10RefCntBaseE$w$7m9Vxx6dFP5Ubs9O1
0001:0007711c* __ZTSN6Xapian8Internal10RefCntBaseE$w$7m9Vxx6dFP5Ubs9O1
0002:000157c0* __ZN16__Atomicity_lockILi0EE17_S_atomicity_lockE$w$7m9Vxx6dFP5Ubs9O1
Module: F:\rd\dse\xapian-core-1.0.2\.libs\xapian.a(languages\romanian.cc)
0001:00077dd0* __ZN6Xapian20InternalStemRomanianD1Ev
0001:00077dec* __ZN6Xapian20InternalStemRomanianD0Ev
0001:00077c84* __ZN6Xapian20InternalStemRomanian4stemEv
0001:00077e1e* __ZNK6Xapian20InternalStemRomanian15get_descriptionEv
0001:00077168* __ZN6Xapian20InternalStemRomanian9r_preludeEv
0001:000772d0* __ZN6Xapian20InternalStemRomanian14r_mark_regionsEv
0001:000775c4* __ZN6Xapian20InternalStemRomanian10r_postludeEv
0001:000776b8* __ZN6Xapian20InternalStemRomanian4r_RVEv
0001:000776cc* __ZN6Xapian20InternalStemRomanian4r_R1Ev
0001:000776e0* __ZN6Xapian20InternalStemRomanian4r_R2Ev
0001:000776f4* __ZN6Xapian20InternalStemRomanian8r_step_0Ev
0001:00077894* __ZN6Xapian20InternalStemRomanian14r_combo_suffixEv
0001:0007799e* __ZN6Xapian20InternalStemRomanian17r_standard_suffixEv
0001:00077ac4* __ZN6Xapian20InternalStemRomanian13r_verb_suffixEv
0001:00077bf2* __ZN6Xapian20InternalStemRomanian14r_vowel_suffixEv
0001:00077d40* __ZN6Xapian20InternalStemRomanianC2Ev
0001:00077d7a  __ZN6Xapian20InternalStemRomanianC1Ev
0001:00077db4* __ZN6Xapian20InternalStemRomanianD2Ev
0001:00077150  __ZTVN6Xapian20InternalStemRomanianE$w$9zbFKX9dFP5FwsFn0
0001:00077e28  __ZTIN6Xapian20InternalStemRomanianE$w$9zbFKX9dFP5FwsFn0
0001:00078cd0  __ZTSN6Xapian20InternalStemRomanianE$w$9zbFKX9dFP5FwsFn0
0001:00079110* __ZTIN6Xapian4Stem8InternalE$w$9zbFKX9dFP5FwsFn0
0001:00079130* __ZTSN6Xapian4Stem8InternalE$w$9zbFKX9dFP5FwsFn0
0001:00079148* __ZTIN6Xapian8Internal10RefCntBaseE$w$9zbFKX9dFP5FwsFn0
0001:00079150* __ZTSN6Xapian8Internal10RefCntBaseE$w$9zbFKX9dFP5FwsFn0
0002:000157d0* __ZN16__Atomicity_lockILi0EE17_S_atomicity_lockE$w$9zbFKX9dFP5FwsFn0
Module: F:\rd\dse\xapian-core-1.0.2\.libs\xapian.a(api\ompositionlistiterator.cc)
0001:00079170* __ZN6Xapian16PositionIteratorC2EPNS0_8InternalE
0001:000791f2  __ZN6Xapian16PositionIteratorC1EPNS0_8InternalE
0001:00079274* __ZN6Xapian16PositionIteratorC2Ev
0001:00079282* __ZN6Xapian16PositionIteratorC1Ev
0001:00079290* __ZN6Xapian16PositionIteratorC2ERKS0_
0001:000792a8  __ZN6Xapian16PositionIteratorC1ERKS0_
0001:000792c0* __ZN6Xapian16PositionIteratorD2Ev
0001:000792f0  __ZN6Xapian16PositionIteratorD1Ev
0001:0007935c* __ZN6Xapian16PositionIteratoraSERKS0_
0001:0007936a  __ZNK6Xapian16PositionIteratordeEv
0001:00079382  __ZN6Xapian16PositionIteratorppEv
0001:000793c2* __ZN6Xapian16PositionIterator7skip_toEj
0001:00079424* __ZNK6Xapian16PositionIterator15get_descriptionEv
0001:00079320  __ZN6Xapian8Internal9RefCntPtrINS_16PositionIterator8InternalEEaSEPS3_$w$X0raXLKcFP52AzWX2
0001:0007945c* __ZNSt15basic_streambufIcSt11char_traitsIcEE13_S_pback_sizeE$w$X0raXLKcFP52AzWX2
0002:000157e0* __ZN16__Atomicity_lockILi0EE17_S_atomicity_lockE$w$X0raXLKcFP52AzWX2
Module: F:\rd\dse\xapian-core-1.0.2\.libs\xapian.a(backends\inmemory\inmemory_document.cc)
0001:0007a446* __ZNK16InMemoryDocument12do_get_valueEj
0001:0007a580* __ZNK16InMemoryDocument17do_get_all_valuesEv
0001:0007a5aa* __ZNK16InMemoryDocument11do_get_dataEv
0001:00079d30* __ZN16InMemoryDocumentC2EPKN6Xapian8Database8InternalEjRKSsRKSt3mapIjSsSt4lessIjESaISt4pairIKjSsEEE
0001:0007a0ba  __ZN16InMemoryDocumentC1EPKN6Xapian8Database8InternalEjRKSsRKSt3mapIjSsSt4lessIjESaISt4pairIKjSsEEE
0001:00079460  __ZTV16InMemoryDocument$w$dVdzJV2dFP5YrRC82
0001:0007a7f0  __ZTI16InMemoryDocument$w$dVdzJV2dFP5YrRC82
0001:0007947c  __ZN16InMemoryDocumentD1Ev$w$dVdzJV2dFP5YrRC82
0001:000798d2  __ZN16InMemoryDocumentD0Ev$w$dVdzJV2dFP5YrRC82
0001:0007a5d4* __ZNSt8_Rb_treeIjSt4pairIKjSsESt10_Select1stIS2_ESt4lessIjESaIS2_EE8_M_eraseEPSt13_Rb_tree_nodeIS2_E$w$dVdzJV2dFP5YrRC82
0001:0007a818* __ZTVN6Xapian8Document8InternalE$w$dVdzJV2dFP5YrRC82
0001:0007a6aa* __ZNSt8_Rb_treeISsSt4pairIKSs14OmDocumentTermESt10_Select1stIS3_ESt4lessISsESaIS3_EE5clearEv$w$dVdzJV2dFP5YrRC82
0001:0007a664* __ZNSt8_Rb_treeISsSt4pairIKSs14OmDocumentTermESt10_Select1stIS3_ESt4lessISsESaIS3_EEC1ERKS7_RKS8_$w$dVdzJV2dFP5YrRC82
0001:0007a65e* __ZNSaISt4pairIKSs14OmDocumentTermEED1Ev$w$dVdzJV2dFP5YrRC82
0001:0007a4ae* __ZNSt8_Rb_treeIjSt4pairIKjSsESt10_Select1stIS2_ESt4lessIjESaIS2_EEC1ERKS8_$w$dVdzJV2dFP5YrRC82
0001:0007a834* __ZNSt6vectorIjSaIjEED1Ev$w$dVdzJV2dFP5YrRC82
0001:0007a894* __ZNSt8_Rb_treeIjSt4pairIKjSsESt10_Select1stIS2_ESt4lessIjESaIS2_EED1Ev$w$dVdzJV2dFP5YrRC82
0001:0007abba  __ZNKSt8_Rb_treeIjSt4pairIKjSsESt10_Select1stIS2_ESt4lessIjESaIS2_EE4findERS1_$w$dVdzJV2dFP5YrRC82
0001:0007a6f2* __ZNSt8_Rb_treeIjSt4pairIKjSsESt10_Select1stIS2_ESt4lessIjESaIS2_EE7_M_copyEPSt13_Rb_tree_nodeIS2_ESB_$w$dVdzJV2dFP5YrRC82
0001:0007abfa* __ZNSt8_Rb_treeISsSt4pairIKSs14OmDocumentTermESt10_Select1stIS3_ESt4lessISsESaIS3_EE8_M_eraseEPSt13_Rb_tree_nodeIS3_E$w$dVdzJV2dFP5YrRC82
0001:0007ad6a* __ZNSt8_Rb_treeIjSt4pairIKjSsESt10_Select1stIS2_ESt4lessIjESaIS2_EE14_M_create_nodeERKS2_$w$dVdzJV2dFP5YrRC82
0001:0007a7fc  __ZTS16InMemoryDocument$w$dVdzJV2dFP5YrRC82
0001:0007ade0* __ZTIN6Xapian8Document8InternalE$w$dVdzJV2dFP5YrRC82
0001:0007a810* __ZNSt15basic_streambufIcSt11char_traitsIcEE13_S_pback_sizeE$w$dVdzJV2dFP5YrRC82
0001:0007a85e* __ZNK6Xapian8Document8Internal12do_get_valueEj$w$dVdzJV2dFP5YrRC82
0001:0007a90e* __ZNK6Xapian8Document8Internal17do_get_all_valuesEv$w$dVdzJV2dFP5YrRC82
0001:0007a960* __ZNK6Xapian8Document8Internal11do_get_dataEv$w$dVdzJV2dFP5YrRC82
0001:0007a996* __ZN6Xapian8Document8InternalD1Ev$w$dVdzJV2dFP5YrRC82
0001:0007aaa4* __ZN6Xapian8Document8InternalD0Ev$w$dVdzJV2dFP5YrRC82
0001:0007ae00* __ZTSN6Xapian8Document8InternalE$w$dVdzJV2dFP5YrRC82
0001:0007ae1c* __ZTIN6Xapian8Internal10RefCntBaseE$w$dVdzJV2dFP5YrRC82
0001:0007ae24* __ZTSN6Xapian8Internal10RefCntBaseE$w$dVdzJV2dFP5YrRC82
0002:000157f0* __ZN16__Atomicity_lockILi0EE17_S_atomicity_lockE$w$dVdzJV2dFP5YrRC82
Module: F:\rd\dse\xapian-core-1.0.2\.libs\xapian.a(backends\multi\multi_postlist.cc)
0001:0007b6a0* __ZN13MultiPostListD1Ev
0001:0007b7f8* __ZN13MultiPostListD0Ev
0001:0007b9dc* __ZNK13MultiPostList9get_docidEv
0001:0007b9e8* __ZNK13MultiPostList13get_doclengthEv
0001:0007ba10* __ZNK13MultiPostList7get_wdfEv
0001:0007ba38* __ZN13MultiPostList18read_position_listEv
0001:0007ba60* __ZNK13MultiPostList18open_position_listEv
0001:0007ba88* __ZN13MultiPostList4nextEd
0001:0007bb3e* __ZN13MultiPostList7skip_toEjd
0001:0007bc00* __ZNK13MultiPostList6at_endEv
0001:0007bc14* __ZNK13MultiPostList15get_descriptionEv
0001:0007b996* __ZNK13MultiPostList12get_termfreqEv
0001:0007b956* __ZN13MultiPostList14set_termweightEPKN6Xapian6WeightE
0001:0007b2e8* __ZN13MultiPostListC2ERSt6vectorIP12LeafPostListSaIS2_EERKN6Xapian8DatabaseE
0001:0007b418  __ZN13MultiPostListC1ERSt6vectorIP12LeafPostListSaIS2_EERKN6Xapian8DatabaseE
0001:0007b548* __ZN13MultiPostListD2Ev
0001:0007ae60  __ZTV13MultiPostList$w$1PPoO34dFP5Z3d3B0
0001:0007c014  __ZTI13MultiPostList$w$1PPoO34dFP5Z3d3B0
0001:0007b21e* __ZNK12LeafPostList16get_termfreq_minEv$w$1PPoO34dFP5Z3d3B0
0001:0007b234* __ZNK12LeafPostList16get_termfreq_estEv$w$1PPoO34dFP5Z3d3B0
0001:0007b208* __ZNK12LeafPostList16get_termfreq_maxEv$w$1PPoO34dFP5Z3d3B0
0001:0007b2b8* __ZNK12LeafPostList13get_maxweightEv$w$1PPoO34dFP5Z3d3B0
0001:0007b26e* __ZNK12LeafPostList10get_weightEv$w$1PPoO34dFP5Z3d3B0
0001:0007af18* __ZNK6Xapian15PostingIterator8Internal16get_collapse_keyEv$w$1PPoO34dFP5Z3d3B0
0001:0007b2d0* __ZN12LeafPostList16recalc_maxweightEv$w$1PPoO34dFP5Z3d3B0
0001:0007aec0* __ZTV12LeafPostList$w$1PPoO34dFP5Z3d3B0
0001:0007c008* __ZTI12LeafPostList$w$1PPoO34dFP5Z3d3B0
0001:0007b186* __ZN12LeafPostListD1Ev$w$1PPoO34dFP5Z3d3B0
0001:0007b1c4* __ZN12LeafPostListD0Ev$w$1PPoO34dFP5Z3d3B0
0001:0007af56* __ZNK6Xapian15PostingIterator8Internal7get_wdfEv$w$1PPoO34dFP5Z3d3B0
0001:0007b24a* __ZN12LeafPostList14set_termweightEPKN6Xapian6WeightE$w$1PPoO34dFP5Z3d3B0
0001:0007c0b0* __ZN6Xapian18UnimplementedErrorD1Ev$w$1PPoO34dFP5Z3d3B0
0001:0007c1e0* __ZTIN6Xapian18UnimplementedErrorE$w$1PPoO34dFP5Z3d3B0
0001:0007c060* __ZTVN6Xapian15PostingIterator8InternalE$w$1PPoO34dFP5Z3d3B0
0001:0007bf44  __ZNSt6vectorIP12LeafPostListSaIS1_EE5eraseEN9__gnu_cxx17__normal_iteratorIPS1_S3_EES7_$w$1PPoO34dFP5Z3d3B0
0001:0007bf88* __ZStplIcSt11char_traitsIcESaIcEESbIT_T0_T1_ERKS6_S8_$w$1PPoO34dFP5Z3d3B0
0001:0007c030* __ZTS12LeafPostList$w$1PPoO34dFP5Z3d3B0
0001:0007c1c0* __ZTIN6Xapian15PostingIterator8InternalE$w$1PPoO34dFP5Z3d3B0
0001:0007c020  __ZTS13MultiPostList$w$1PPoO34dFP5Z3d3B0
0001:0007c040* __ZNSt15basic_streambufIcSt11char_traitsIcEE13_S_pback_sizeE$w$1PPoO34dFP5Z3d3B0
0001:0007c184* __ZN6Xapian15PostingIterator8InternalD1Ev$w$1PPoO34dFP5Z3d3B0
0001:0007c192* __ZN6Xapian15PostingIterator8InternalD0Ev$w$1PPoO34dFP5Z3d3B0
0001:0007c220* __ZTSN6Xapian15PostingIterator8InternalE$w$1PPoO34dFP5Z3d3B0
0001:0007c250* __ZTIN6Xapian8Internal10RefCntBaseE$w$1PPoO34dFP5Z3d3B0
0001:0007c1ec* __ZTSN6Xapian18UnimplementedErrorE$w$1PPoO34dFP5Z3d3B0
0001:0007c244* __ZTIN6Xapian10LogicErrorE$w$1PPoO34dFP5Z3d3B0
0001:0007c277* __ZTSN6Xapian10LogicErrorE$w$1PPoO34dFP5Z3d3B0
0001:0007c290* __ZTIN6Xapian5ErrorE$w$1PPoO34dFP5Z3d3B0
0001:0007c258* __ZTSN6Xapian8Internal10RefCntBaseE$w$1PPoO34dFP5Z3d3B0
0001:0007c298* __ZTSN6Xapian5ErrorE$w$1PPoO34dFP5Z3d3B0
0002:00015800* __ZN16__Atomicity_lockILi0EE17_S_atomicity_lockE$w$1PPoO34dFP5Z3d3B0
Module: F:\rd\dse\xapian-core-1.0.2\.libs\xapian.a(languages\dutch.cc)
0001:0007d0e8* __ZN6Xapian17InternalStemDutchD1Ev
0001:0007d104* __ZN6Xapian17InternalStemDutchD0Ev
0001:0007cff6* __ZN6Xapian17InternalStemDutch4stemEv
0001:0007d132* __ZNK6Xapian17InternalStemDutch15get_descriptionEv
0001:0007c2d8* __ZN6Xapian17InternalStemDutch9r_preludeEv
0001:0007c5a6* __ZN6Xapian17InternalStemDutch14r_mark_regionsEv
0001:0007c6aa* __ZN6Xapian17InternalStemDutch10r_postludeEv
0001:0007c79e* __ZN6Xapian17InternalStemDutch4r_R1Ev
0001:0007c7b2* __ZN6Xapian17InternalStemDutch4r_R2Ev
0001:0007c7c6* __ZN6Xapian17InternalStemDutch10r_undoubleEv
0001:0007c8b8* __ZN6Xapian17InternalStemDutch10r_e_endingEv
0001:0007c990* __ZN6Xapian17InternalStemDutch11r_en_endingEv
0001:0007ca68* __ZN6Xapian17InternalStemDutch17r_standard_suffixEv
0001:0007d064* __ZN6Xapian17InternalStemDutchC2Ev
0001:0007d098  __ZN6Xapian17InternalStemDutchC1Ev
0001:0007d0cc* __ZN6Xapian17InternalStemDutchD2Ev
0001:0007c2c0  __ZTVN6Xapian17InternalStemDutchE$w$9Ljak27dFP5oU5vq0
0001:0007d13c  __ZTIN6Xapian17InternalStemDutchE$w$9Ljak27dFP5oU5vq0
0001:0007d3f6  __ZTSN6Xapian17InternalStemDutchE$w$9Ljak27dFP5oU5vq0
0001:0007d460* __ZTIN6Xapian4Stem8InternalE$w$9Ljak27dFP5oU5vq0
0001:0007d480* __ZTSN6Xapian4Stem8InternalE$w$9Ljak27dFP5oU5vq0
0001:0007d498* __ZTIN6Xapian8Internal10RefCntBaseE$w$9Ljak27dFP5oU5vq0
0001:0007d4a0* __ZTSN6Xapian8Internal10RefCntBaseE$w$9Ljak27dFP5oU5vq0
0002:00015810* __ZN16__Atomicity_lockILi0EE17_S_atomicity_lockE$w$9Ljak27dFP5oU5vq0
Module: F:\rd\dse\xapian-core-1.0.2\.libs\xapian.a(backends\flint\contiguousalldocspostlist.cc)
0001:0007d9dc* __ZN25ContiguousAllDocsPostListD1Ev
0001:0007da70* __ZN25ContiguousAllDocsPostListD0Ev
0001:0007db14* __ZNK25ContiguousAllDocsPostList9get_docidEv
0001:0007db20* __ZNK25ContiguousAllDocsPostList13get_doclengthEv
0001:0007db40* __ZNK25ContiguousAllDocsPostList7get_wdfEv
0001:0007db4a* __ZN25ContiguousAllDocsPostList18read_position_listEv
0001:0007dba2* __ZNK25ContiguousAllDocsPostList18open_position_listEv
0001:0007ddd2* __ZN25ContiguousAllDocsPostList4nextEd
0001:0007de04* __ZN25ContiguousAllDocsPostList7skip_toEjd
0001:0007de38* __ZNK25ContiguousAllDocsPostList6at_endEv
0001:0007de6a* __ZNK25ContiguousAllDocsPostList15get_descriptionEv
0001:0007db08* __ZNK25ContiguousAllDocsPostList12get_termfreqEv
0001:0007d948* __ZN25ContiguousAllDocsPostListD2Ev
0001:0007d4c0  __ZTV25ContiguousAllDocsPostList$w$Zrs85rPcFP5j3k8g2
0001:0007dfb0  __ZTI25ContiguousAllDocsPostList$w$Zrs85rPcFP5j3k8g2
0001:0007d87e* __ZNK12LeafPostList16get_termfreq_minEv$w$Zrs85rPcFP5j3k8g2
0001:0007d894* __ZNK12LeafPostList16get_termfreq_estEv$w$Zrs85rPcFP5j3k8g2
0001:0007d868* __ZNK12LeafPostList16get_termfreq_maxEv$w$Zrs85rPcFP5j3k8g2
0001:0007d918* __ZNK12LeafPostList13get_maxweightEv$w$Zrs85rPcFP5j3k8g2
0001:0007d8ce* __ZNK12LeafPostList10get_weightEv$w$Zrs85rPcFP5j3k8g2
0001:0007d578* __ZNK6Xapian15PostingIterator8Internal16get_collapse_keyEv$w$Zrs85rPcFP5j3k8g2
0001:0007d930* __ZN12LeafPostList16recalc_maxweightEv$w$Zrs85rPcFP5j3k8g2
0001:0007d8aa* __ZN12LeafPostList14set_termweightEPKN6Xapian6WeightE$w$Zrs85rPcFP5j3k8g2
0001:0007d520* __ZTV12LeafPostList$w$Zrs85rPcFP5j3k8g2
0001:0007dfa4* __ZTI12LeafPostList$w$Zrs85rPcFP5j3k8g2
0001:0007d7e6* __ZN12LeafPostListD1Ev$w$Zrs85rPcFP5j3k8g2
0001:0007d824* __ZN12LeafPostListD0Ev$w$Zrs85rPcFP5j3k8g2
0001:0007d5b6* __ZNK6Xapian15PostingIterator8Internal7get_wdfEv$w$Zrs85rPcFP5j3k8g2
0001:0007e124* __ZN6Xapian18UnimplementedErrorD1Ev$w$Zrs85rPcFP5j3k8g2
0001:0007e280* __ZTIN6Xapian18UnimplementedErrorE$w$Zrs85rPcFP5j3k8g2
0001:0007e000* __ZTVN6Xapian15PostingIterator8InternalE$w$Zrs85rPcFP5j3k8g2
0001:0007e050* __ZN6Xapian21InvalidOperationErrorD1Ev$w$Zrs85rPcFP5j3k8g2
0001:0007e28c* __ZTIN6Xapian21InvalidOperationErrorE$w$Zrs85rPcFP5j3k8g2
0001:0007e218  __ZN6Xapian8Internal9RefCntPtrIKNS_8Database8InternalEEaSEPS4_$w$Zrs85rPcFP5j3k8g2
0001:0007dfd8* __ZTS12LeafPostList$w$Zrs85rPcFP5j3k8g2
0001:0007e260* __ZTIN6Xapian15PostingIterator8InternalE$w$Zrs85rPcFP5j3k8g2
0001:0007dfbc  __ZTS25ContiguousAllDocsPostList$w$Zrs85rPcFP5j3k8g2
0001:0007dfe8* __ZNSt15basic_streambufIcSt11char_traitsIcEE13_S_pback_sizeE$w$Zrs85rPcFP5j3k8g2
0001:0007e1f8* __ZN6Xapian15PostingIterator8InternalD1Ev$w$Zrs85rPcFP5j3k8g2
0001:0007e206* __ZN6Xapian15PostingIterator8InternalD0Ev$w$Zrs85rPcFP5j3k8g2
0001:0007e2e0* __ZTSN6Xapian15PostingIterator8InternalE$w$Zrs85rPcFP5j3k8g2
0001:0007e310* __ZTIN6Xapian8Internal10RefCntBaseE$w$Zrs85rPcFP5j3k8g2
0001:0007e2c1* __ZTSN6Xapian18UnimplementedErrorE$w$Zrs85rPcFP5j3k8g2
0001:0007e304* __ZTIN6Xapian10LogicErrorE$w$Zrs85rPcFP5j3k8g2
0001:0007e2a0* __ZTSN6Xapian21InvalidOperationErrorE$w$Zrs85rPcFP5j3k8g2
0001:0007e337* __ZTSN6Xapian10LogicErrorE$w$Zrs85rPcFP5j3k8g2
0001:0007e350* __ZTIN6Xapian5ErrorE$w$Zrs85rPcFP5j3k8g2
0001:0007e318* __ZTSN6Xapian8Internal10RefCntBaseE$w$Zrs85rPcFP5j3k8g2
0001:0007e358* __ZTSN6Xapian5ErrorE$w$Zrs85rPcFP5j3k8g2
0002:00015820* __ZN16__Atomicity_lockILi0EE17_S_atomicity_lockE$w$Zrs85rPcFP5j3k8g2
Module: F:\rd\dse\xapian-core-1.0.2\.libs\xapian.a(languages\italian.cc)
0001:0007f3f4* __ZN6Xapian19InternalStemItalianD1Ev
0001:0007f410* __ZN6Xapian19InternalStemItalianD0Ev
0001:0007f2c2* __ZN6Xapian19InternalStemItalian4stemEv
0001:0007f440* __ZNK6Xapian19InternalStemItalian15get_descriptionEv
0001:0007e398* __ZN6Xapian19InternalStemItalian9r_preludeEv
0001:0007e612* __ZN6Xapian19InternalStemItalian14r_mark_regionsEv
0001:0007e906* __ZN6Xapian19InternalStemItalian10r_postludeEv
0001:0007e9fa* __ZN6Xapian19InternalStemItalian4r_RVEv
0001:0007ea0e* __ZN6Xapian19InternalStemItalian4r_R1Ev
0001:0007ea22* __ZN6Xapian19InternalStemItalian4r_R2Ev
0001:0007ea36* __ZN6Xapian19InternalStemItalian18r_attached_pronounEv
0001:0007eb86* __ZN6Xapian19InternalStemItalian17r_standard_suffixEv
0001:0007f05c* __ZN6Xapian19InternalStemItalian13r_verb_suffixEv
0001:0007f116* __ZN6Xapian19InternalStemItalian14r_vowel_suffixEv
0001:0007f36c* __ZN6Xapian19InternalStemItalianC2Ev
0001:0007f3a2  __ZN6Xapian19InternalStemItalianC1Ev
0001:0007f3d8* __ZN6Xapian19InternalStemItalianD2Ev
0001:0007e380  __ZTVN6Xapian19InternalStemItalianE$w$RBtDQA8dFP5EBsCv0
0001:0007f44c  __ZTIN6Xapian19InternalStemItalianE$w$RBtDQA8dFP5EBsCv0
0001:0008015d  __ZTSN6Xapian19InternalStemItalianE$w$RBtDQA8dFP5EBsCv0
0001:000804a0* __ZTIN6Xapian4Stem8InternalE$w$RBtDQA8dFP5EBsCv0
0001:000804c0* __ZTSN6Xapian4Stem8InternalE$w$RBtDQA8dFP5EBsCv0
0001:000804d8* __ZTIN6Xapian8Internal10RefCntBaseE$w$RBtDQA8dFP5EBsCv0
0001:000804e0* __ZTSN6Xapian8Internal10RefCntBaseE$w$RBtDQA8dFP5EBsCv0
0002:00015830* __ZN16__Atomicity_lockILi0EE17_S_atomicity_lockE$w$RBtDQA8dFP5EBsCv0
Module: F:\rd\dse\xapian-core-1.0.2\.libs\xapian.a(backends\multi\multi_alltermslist.cc)
0001:00080838* __ZN17MultiAllTermsListD1Ev
0001:00080960* __ZN17MultiAllTermsListD0Ev
0001:00080c8a* __ZNK17MultiAllTermsList15get_approx_sizeEv
0001:00080cbe* __ZNK17MultiAllTermsList12get_termnameEv
0001:00080ce8* __ZNK17MultiAllTermsList12get_termfreqEv
0001:00080dfe* __ZNK17MultiAllTermsList19get_collection_freqEv
0001:00080f64* __ZN17MultiAllTermsList4nextEv
0001:00080f14* __ZN17MultiAllTermsList7skip_toERKSs
0001:00081098* __ZNK17MultiAllTermsList6at_endEv
0001:0008053c* __ZN17MultiAllTermsListC2ERKSt6vectorIPN6Xapian12TermIterator8InternalESaIS4_EE
0001:00080626  __ZN17MultiAllTermsListC1ERKSt6vectorIPN6Xapian12TermIterator8InternalESaIS4_EE
0001:00080710* __ZN17MultiAllTermsListD2Ev
0001:00080a90* __ZN17MultiAllTermsList14update_currentEv
0001:00080500  __ZTV17MultiAllTermsList$w$xNspEC3dFP5vfKFf1
0001:000810e8  __ZTI17MultiAllTermsList$w$xNspEC3dFP5vfKFf1
0001:000810a4* __ZNSt6vectorIPN6Xapian12TermIterator8InternalESaIS3_EE5eraseEN9__gnu_cxx17__normal_iteratorIPS3_S5_EES9_$w$xNspEC3dFP5vfKFf1
0001:000810f4  __ZTS17MultiAllTermsList$w$xNspEC3dFP5vfKFf1
0001:0008110c* __ZTI12AllTermsList$w$xNspEC3dFP5vfKFf1
0001:00081108* __ZNSt15basic_streambufIcSt11char_traitsIcEE13_S_pback_sizeE$w$xNspEC3dFP5vfKFf1
0001:00081118* __ZTS12AllTermsList$w$xNspEC3dFP5vfKFf1
0001:00081140* __ZTIN6Xapian12TermIterator8InternalE$w$xNspEC3dFP5vfKFf1
0001:00081160* __ZTSN6Xapian12TermIterator8InternalE$w$xNspEC3dFP5vfKFf1
0001:00081184* __ZTIN6Xapian8Internal10RefCntBaseE$w$xNspEC3dFP5vfKFf1
0001:0008118c* __ZTSN6Xapian8Internal10RefCntBaseE$w$xNspEC3dFP5vfKFf1
0002:00015840* __ZN16__Atomicity_lockILi0EE17_S_atomicity_lockE$w$xNspEC3dFP5vfKFf1
Module: F:\rd\dse\xapian-core-1.0.2\.libs\xapian.a(backends\flint\flint_spellingwordslist.cc)
0001:0008129c* __ZN22FlintSpellingWordsListD1Ev
0001:0008133c* __ZN22FlintSpellingWordsListD0Ev
0001:00081432* __ZNK22FlintSpellingWordsList15get_approx_sizeEv
0001:00081678* __ZNK22FlintSpellingWordsList12get_termnameEv
0001:000816fe* __ZNK22FlintSpellingWordsList12get_termfreqEv
0001:000819c8* __ZNK22FlintSpellingWordsList19get_collection_freqEv
0001:00081bf8* __ZN22FlintSpellingWordsList4nextEv
0001:00081c36* __ZN22FlintSpellingWordsList7skip_toERKSs
0001:00081d1e* __ZNK22FlintSpellingWordsList6at_endEv
0001:000811fc* __ZN22FlintSpellingWordsListD2Ev
0001:000811c0  __ZTV22FlintSpellingWordsList$w$5Vx26cWcFP5sXExp4
0001:00081d78  __ZTI22FlintSpellingWordsList$w$5Vx26cWcFP5sXExp4
0001:00081e78* __ZN6Xapian18UnimplementedErrorD1Ev$w$5Vx26cWcFP5sXExp4
0001:00082124* __ZTIN6Xapian18UnimplementedErrorE$w$5Vx26cWcFP5sXExp4
0001:00081d2e* __Z16unpack_uint_lastIjEbPPKcS1_PT_$w$5Vx26cWcFP5sXExp4
0001:00081f4c* __ZN6Xapian20DatabaseCorruptErrorD1Ev$w$5Vx26cWcFP5sXExp4
0001:00082130* __ZTIN6Xapian20DatabaseCorruptErrorE$w$5Vx26cWcFP5sXExp4
0001:00081da4* __ZN6Xapian21InvalidOperationErrorD1Ev$w$5Vx26cWcFP5sXExp4
0001:0008213c* __ZTIN6Xapian21InvalidOperationErrorE$w$5Vx26cWcFP5sXExp4
0001:00082020* __ZStplIcSt11char_traitsIcESaIcEESbIT_T0_T1_EPKS3_RKS6_$w$5Vx26cWcFP5sXExp4
0001:00081d84  __ZTS22FlintSpellingWordsList$w$5Vx26cWcFP5sXExp4
0001:00082118  __ZTI12AllTermsList$w$5Vx26cWcFP5sXExp4
0001:00081da0* __ZNSt15basic_streambufIcSt11char_traitsIcEE13_S_pback_sizeE$w$5Vx26cWcFP5sXExp4
0001:000821de  __ZTS12AllTermsList$w$5Vx26cWcFP5sXExp4
0001:00082200* __ZTIN6Xapian12TermIterator8InternalE$w$5Vx26cWcFP5sXExp4
0001:000821c0* __ZTSN6Xapian18UnimplementedErrorE$w$5Vx26cWcFP5sXExp4
0001:00082220* __ZTIN6Xapian10LogicErrorE$w$5Vx26cWcFP5sXExp4
0001:000821a0* __ZTSN6Xapian20DatabaseCorruptErrorE$w$5Vx26cWcFP5sXExp4
0001:0008222c* __ZTIN6Xapian13DatabaseErrorE$w$5Vx26cWcFP5sXExp4
0001:00082160* __ZTSN6Xapian21InvalidOperationErrorE$w$5Vx26cWcFP5sXExp4
0001:00082280* __ZTSN6Xapian12TermIterator8InternalE$w$5Vx26cWcFP5sXExp4
0001:000822b8* __ZTIN6Xapian8Internal10RefCntBaseE$w$5Vx26cWcFP5sXExp4
0001:00082251* __ZTSN6Xapian10LogicErrorE$w$5Vx26cWcFP5sXExp4
0001:000822b0* __ZTIN6Xapian5ErrorE$w$5Vx26cWcFP5sXExp4
0001:00082238* __ZTSN6Xapian13DatabaseErrorE$w$5Vx26cWcFP5sXExp4
0001:000822a4* __ZTIN6Xapian12RuntimeErrorE$w$5Vx26cWcFP5sXExp4
0001:000822ef* __ZTSN6Xapian12RuntimeErrorE$w$5Vx26cWcFP5sXExp4
0001:000822df* __ZTSN6Xapian5ErrorE$w$5Vx26cWcFP5sXExp4
0001:000822c0* __ZTSN6Xapian8Internal10RefCntBaseE$w$5Vx26cWcFP5sXExp4
0002:00015850* __ZN16__Atomicity_lockILi0EE17_S_atomicity_lockE$w$5Vx26cWcFP5sXExp4
Module: F:\rd\dse\xapian-core-1.0.2\.libs\xapian.a(languages\german.cc)
0001:00082da4* __ZN6Xapian18InternalStemGermanD1Ev
0001:00082dc0* __ZN6Xapian18InternalStemGermanD0Ev
0001:00082cae* __ZN6Xapian18InternalStemGerman4stemEv
0001:00082df0* __ZNK6Xapian18InternalStemGerman15get_descriptionEv
0001:00082338* __ZN6Xapian18InternalStemGerman9r_preludeEv
0001:00082530* __ZN6Xapian18InternalStemGerman14r_mark_regionsEv
0001:00082670* __ZN6Xapian18InternalStemGerman10r_postludeEv
0001:0008276e* __ZN6Xapian18InternalStemGerman4r_R1Ev
0001:00082782* __ZN6Xapian18InternalStemGerman4r_R2Ev
0001:00082796* __ZN6Xapian18InternalStemGerman17r_standard_suffixEv
0001:00082d1c* __ZN6Xapian18InternalStemGermanC2Ev
0001:00082d52  __ZN6Xapian18InternalStemGermanC1Ev
0001:00082d88* __ZN6Xapian18InternalStemGermanD2Ev
0001:00082320  __ZTVN6Xapian18InternalStemGermanE$w$j4tzY88dFP54P2Wr0
0001:00082dfc  __ZTIN6Xapian18InternalStemGermanE$w$j4tzY88dFP54P2Wr0
0001:0008300f  __ZTSN6Xapian18InternalStemGermanE$w$j4tzY88dFP54P2Wr0
0001:00083080* __ZTIN6Xapian4Stem8InternalE$w$j4tzY88dFP54P2Wr0
0001:000830a0* __ZTSN6Xapian4Stem8InternalE$w$j4tzY88dFP54P2Wr0
0001:000830b8* __ZTIN6Xapian8Internal10RefCntBaseE$w$j4tzY88dFP54P2Wr0
0001:000830c0* __ZTSN6Xapian8Internal10RefCntBaseE$w$j4tzY88dFP54P2Wr0
0002:00015860* __ZN16__Atomicity_lockILi0EE17_S_atomicity_lockE$w$j4tzY88dFP54P2Wr0
Module: F:\rd\dse\xapian-core-1.0.2\.libs\xapian.a(languages\finnish.cc)
0001:000840f0* __ZN6Xapian19InternalStemFinnishD1Ev
0001:00084124* __ZN6Xapian19InternalStemFinnishD0Ev
0001:00083f22* __ZN6Xapian19InternalStemFinnish4stemEv
0001:00084166* __ZNK6Xapian19InternalStemFinnish15get_descriptionEv
0001:000830f8* __ZN6Xapian19InternalStemFinnish14r_mark_regionsEv
0001:000831ea* __ZN6Xapian19InternalStemFinnish4r_R2Ev
0001:000831fe* __ZN6Xapian19InternalStemFinnish14r_particle_etcEv
0001:00083312* __ZN6Xapian19InternalStemFinnish12r_possessiveEv
0001:00083560* __ZN6Xapian19InternalStemFinnish6r_LONGEv
0001:0008359e* __ZN6Xapian19InternalStemFinnish4r_VIEv
0001:00083602* __ZN6Xapian19InternalStemFinnish13r_case_endingEv
0001:00083862* __ZN6Xapian19InternalStemFinnish15r_other_endingsEv
0001:00083942* __ZN6Xapian19InternalStemFinnish10r_i_pluralEv
0001:000839fa* __ZN6Xapian19InternalStemFinnish10r_t_pluralEv
0001:00083bb4* __ZN6Xapian19InternalStemFinnish6r_tidyEv
0001:00084008* __ZN6Xapian19InternalStemFinnishC2Ev
0001:00084062  __ZN6Xapian19InternalStemFinnishC1Ev
0001:000840bc* __ZN6Xapian19InternalStemFinnishD2Ev
0001:000830e0  __ZTVN6Xapian19InternalStemFinnishE$w$nSHIpt7dFP5hNjO53
0001:00084170  __ZTIN6Xapian19InternalStemFinnishE$w$nSHIpt7dFP5hNjO53
0001:000847c7  __ZTSN6Xapian19InternalStemFinnishE$w$nSHIpt7dFP5hNjO53
0001:000849a0* __ZTIN6Xapian4Stem8InternalE$w$nSHIpt7dFP5hNjO53
0001:000849c0* __ZTSN6Xapian4Stem8InternalE$w$nSHIpt7dFP5hNjO53
0001:000849d8* __ZTIN6Xapian8Internal10RefCntBaseE$w$nSHIpt7dFP5hNjO53
0001:000849e0* __ZTSN6Xapian8Internal10RefCntBaseE$w$nSHIpt7dFP5hNjO53
0002:00015870* __ZN16__Atomicity_lockILi0EE17_S_atomicity_lockE$w$nSHIpt7dFP5hNjO53
Module: F:\rd\dse\xapian-core-1.0.2\.libs\xapian.a(languages\danish.cc)
0001:000850f2* __ZN6Xapian18InternalStemDanishD1Ev
0001:00085126* __ZN6Xapian18InternalStemDanishD0Ev
0001:00084f84* __ZN6Xapian18InternalStemDanish4stemEv
0001:00085168* __ZNK6Xapian18InternalStemDanish15get_descriptionEv
0001:00084a18* __ZN6Xapian18InternalStemDanish14r_mark_regionsEv
0001:00084ae6* __ZN6Xapian18InternalStemDanish13r_main_suffixEv
0001:00084c00* __ZN6Xapian18InternalStemDanish16r_consonant_pairEv
0001:00084cfc* __ZN6Xapian18InternalStemDanish14r_other_suffixEv
0001:00084e9a* __ZN6Xapian18InternalStemDanish10r_undoubleEv
0001:00085012* __ZN6Xapian18InternalStemDanishC2Ev
0001:00085068  __ZN6Xapian18InternalStemDanishC1Ev
0001:000850be* __ZN6Xapian18InternalStemDanishD2Ev
0001:00084a00  __ZTVN6Xapian18InternalStemDanishE$w$VLDS2M6dFP5F153M3
0001:00085174  __ZTIN6Xapian18InternalStemDanishE$w$VLDS2M6dFP5F153M3
0001:0008543c  __ZTSN6Xapian18InternalStemDanishE$w$VLDS2M6dFP5F153M3
0001:00085500* __ZTIN6Xapian4Stem8InternalE$w$VLDS2M6dFP5F153M3
0001:00085520* __ZTSN6Xapian4Stem8InternalE$w$VLDS2M6dFP5F153M3
0001:00085538* __ZTIN6Xapian8Internal10RefCntBaseE$w$VLDS2M6dFP5F153M3
0001:00085540* __ZTSN6Xapian8Internal10RefCntBaseE$w$VLDS2M6dFP5F153M3
0002:00015880* __ZN16__Atomicity_lockILi0EE17_S_atomicity_lockE$w$VLDS2M6dFP5F153M3
Module: F:\rd\dse\xapian-core-1.0.2\.libs\xapian.a(backends\flint\flint_alltermslist.cc)
0001:00085bbc* __ZN17FlintAllTermsListD1Ev
0001:00085d60* __ZN17FlintAllTermsListD0Ev
0001:00085f10* __ZNK17FlintAllTermsList15get_approx_sizeEv
0001:00085f1c* __ZNK17FlintAllTermsList12get_termnameEv
0001:00085f46* __ZNK17FlintAllTermsList12get_termfreqEv
0001:00085f6e* __ZNK17FlintAllTermsList19get_collection_freqEv
0001:00085fd4* __ZN17FlintAllTermsList4nextEv
0001:000862ca* __ZN17FlintAllTermsList7skip_toERKSs
0001:00086546* __ZNK17FlintAllTermsList6at_endEv
0001:000859c8* __ZNK17FlintAllTermsList26read_termfreq_and_collfreqEv
0001:00085a18* __ZN17FlintAllTermsListD2Ev
0001:00085560  __ZTV17FlintAllTermsList$w$rQxkrdQcFP531lGm0
0001:00086564  __ZTI17FlintAllTermsList$w$rQxkrdQcFP531lGm0
0001:000855a0* __ZTV12LeafPostList$w$rQxkrdQcFP531lGm0
0001:00086558* __ZTI12LeafPostList$w$rQxkrdQcFP531lGm0
0001:00085866* __ZN12LeafPostListD1Ev$w$rQxkrdQcFP531lGm0
0001:000858a4* __ZN12LeafPostListD0Ev$w$rQxkrdQcFP531lGm0
0001:000858fe* __ZNK12LeafPostList16get_termfreq_minEv$w$rQxkrdQcFP531lGm0
0001:00085914* __ZNK12LeafPostList16get_termfreq_estEv$w$rQxkrdQcFP531lGm0
0001:000858e8* __ZNK12LeafPostList16get_termfreq_maxEv$w$rQxkrdQcFP531lGm0
0001:00085998* __ZNK12LeafPostList13get_maxweightEv$w$rQxkrdQcFP531lGm0
0001:0008594e* __ZNK12LeafPostList10get_weightEv$w$rQxkrdQcFP531lGm0
0001:000855f8* __ZNK6Xapian15PostingIterator8Internal16get_collapse_keyEv$w$rQxkrdQcFP531lGm0
0001:000859b0* __ZN12LeafPostList16recalc_maxweightEv$w$rQxkrdQcFP531lGm0
0001:00085636* __ZNK6Xapian15PostingIterator8Internal7get_wdfEv$w$rQxkrdQcFP531lGm0
0001:0008592a* __ZN12LeafPostList14set_termweightEPKN6Xapian6WeightE$w$rQxkrdQcFP531lGm0
0001:000865f0* __ZN6Xapian18UnimplementedErrorD1Ev$w$rQxkrdQcFP531lGm0
0001:00086980* __ZTIN6Xapian18UnimplementedErrorE$w$rQxkrdQcFP531lGm0
0001:000865a0* __ZTVN6Xapian15PostingIterator8InternalE$w$rQxkrdQcFP531lGm0
0001:000867b8* __Z29unpack_string_preserving_sortPPKcS0_RSs$w$rQxkrdQcFP531lGm0
0001:000866c4* __ZN6Xapian20DatabaseCorruptErrorD1Ev$w$rQxkrdQcFP531lGm0
0001:0008698c* __ZTIN6Xapian20DatabaseCorruptErrorE$w$rQxkrdQcFP531lGm0
0001:00086584* __ZTS12LeafPostList$w$rQxkrdQcFP531lGm0
0001:00086960* __ZTIN6Xapian15PostingIterator8InternalE$w$rQxkrdQcFP531lGm0
0001:00086570  __ZTS17FlintAllTermsList$w$rQxkrdQcFP531lGm0
0001:00086938* __ZTI12AllTermsList$w$rQxkrdQcFP531lGm0
0001:00086594* __ZNSt15basic_streambufIcSt11char_traitsIcEE13_S_pback_sizeE$w$rQxkrdQcFP531lGm0
0001:00086798* __ZN6Xapian15PostingIterator8InternalD1Ev$w$rQxkrdQcFP531lGm0
0001:000867a6* __ZN6Xapian15PostingIterator8InternalD0Ev$w$rQxkrdQcFP531lGm0
0001:00086a04* __ZTS12AllTermsList$w$rQxkrdQcFP531lGm0
0001:00086a20* __ZTIN6Xapian12TermIterator8InternalE$w$rQxkrdQcFP531lGm0
0001:000869e0* __ZTSN6Xapian15PostingIterator8InternalE$w$rQxkrdQcFP531lGm0
0001:00086a58* __ZTIN6Xapian8Internal10RefCntBaseE$w$rQxkrdQcFP531lGm0
0001:000869c0* __ZTSN6Xapian18UnimplementedErrorE$w$rQxkrdQcFP531lGm0
0001:00086a4c* __ZTIN6Xapian10LogicErrorE$w$rQxkrdQcFP531lGm0
0001:000869a0* __ZTSN6Xapian20DatabaseCorruptErrorE$w$rQxkrdQcFP531lGm0
0001:00086a40* __ZTIN6Xapian13DatabaseErrorE$w$rQxkrdQcFP531lGm0
0001:00086ac0* __ZTSN6Xapian12TermIterator8InternalE$w$rQxkrdQcFP531lGm0
0001:00086a95* __ZTSN6Xapian13DatabaseErrorE$w$rQxkrdQcFP531lGm0
0001:00086aec* __ZTIN6Xapian12RuntimeErrorE$w$rQxkrdQcFP531lGm0
0001:00086a7f* __ZTSN6Xapian10LogicErrorE$w$rQxkrdQcFP531lGm0
0001:00086ae4* __ZTIN6Xapian5ErrorE$w$rQxkrdQcFP531lGm0
0001:00086a60* __ZTSN6Xapian8Internal10RefCntBaseE$w$rQxkrdQcFP531lGm0
0001:00086b10* __ZTSN6Xapian5ErrorE$w$rQxkrdQcFP531lGm0
0001:00086af8* __ZTSN6Xapian12RuntimeErrorE$w$rQxkrdQcFP531lGm0
0002:00015890* __ZN16__Atomicity_lockILi0EE17_S_atomicity_lockE$w$rQxkrdQcFP531lGm0
Module: F:\rd\dse\xapian-core-1.0.2\.libs\xapian.a(languages\turkish.cc)
0001:000895ac* __ZN6Xapian19InternalStemTurkishD1Ev
0001:000895c8* __ZN6Xapian19InternalStemTurkishD0Ev
0001:000894bc* __ZN6Xapian19InternalStemTurkish4stemEv
0001:000895f8* __ZNK6Xapian19InternalStemTurkish15get_descriptionEv
0001:00086b38* __ZN6Xapian19InternalStemTurkish21r_check_vowel_harmonyEv
0001:00086e32* __ZN6Xapian19InternalStemTurkish39r_mark_suffix_with_optional_n_consonantEv
0001:00086f56* __ZN6Xapian19InternalStemTurkish39r_mark_suffix_with_optional_s_consonantEv
0001:0008707a* __ZN6Xapian19InternalStemTurkish39r_mark_suffix_with_optional_y_consonantEv
0001:0008719e* __ZN6Xapian19InternalStemTurkish35r_mark_suffix_with_optional_U_vowelEv
0001:000872e2* __ZN6Xapian19InternalStemTurkish18r_mark_possessivesEv
0001:00087372* __ZN6Xapian19InternalStemTurkish9r_mark_sUEv
0001:000873e0* __ZN6Xapian19InternalStemTurkish11r_mark_lArIEv
0001:0008743c* __ZN6Xapian19InternalStemTurkish9r_mark_yUEv
0001:000874aa* __ZN6Xapian19InternalStemTurkish9r_mark_nUEv
0001:00087502* __ZN6Xapian19InternalStemTurkish10r_mark_nUnEv
0001:00087588* __ZN6Xapian19InternalStemTurkish9r_mark_yAEv
0001:00087610* __ZN6Xapian19InternalStemTurkish9r_mark_nAEv
0001:00087688* __ZN6Xapian19InternalStemTurkish9r_mark_DAEv
0001:00087700* __ZN6Xapian19InternalStemTurkish10r_mark_ndAEv
0001:00087778* __ZN6Xapian19InternalStemTurkish10r_mark_DAnEv
0001:000877ea* __ZN6Xapian19InternalStemTurkish11r_mark_ndAnEv
0001:0008785c* __ZN6Xapian19InternalStemTurkish10r_mark_ylAEv
0001:000878e8* __ZN6Xapian19InternalStemTurkish9r_mark_kiEv
0001:00087916* __ZN6Xapian19InternalStemTurkish10r_mark_ncAEv
0001:000879a2* __ZN6Xapian19InternalStemTurkish10r_mark_yUmEv
0001:00087a28* __ZN6Xapian19InternalStemTurkish10r_mark_sUnEv
0001:00087a9a* __ZN6Xapian19InternalStemTurkish10r_mark_yUzEv
0001:00087b20* __ZN6Xapian19InternalStemTurkish12r_mark_sUnUzEv
0001:00087b76* __ZN6Xapian19InternalStemTurkish10r_mark_lArEv
0001:00087be8* __ZN6Xapian19InternalStemTurkish10r_mark_nUzEv
0001:00087c5a* __ZN6Xapian19InternalStemTurkish10r_mark_DUrEv
0001:00087ccc* __ZN6Xapian19InternalStemTurkish13r_mark_cAsInAEv
0001:00087d28* __ZN6Xapian19InternalStemTurkish10r_mark_yDUEv
0001:00087d96* __ZN6Xapian19InternalStemTurkish10r_mark_ysAEv
0001:00087e2a* __ZN6Xapian19InternalStemTurkish12r_mark_ymUs_Ev
0001:00087eb0* __ZN6Xapian19InternalStemTurkish11r_mark_ykenEv
0001:00087efe* __ZN6Xapian19InternalStemTurkish28r_stem_nominal_verb_suffixesEv
0001:000883fa* __ZN6Xapian19InternalStemTurkish29r_stem_suffix_chain_before_kiEv
0001:0008875e* __ZN6Xapian19InternalStemTurkish20r_stem_noun_suffixesEv
0001:00088f48* __ZN6Xapian19InternalStemTurkish30r_post_process_last_consonantsEv
0001:00089004* __ZN6Xapian19InternalStemTurkish38r_append_U_to_stems_ending_with_d_or_gEv
0001:000892f8* __ZN6Xapian19InternalStemTurkish29r_more_than_one_syllable_wordEv
0001:00089368* __ZN6Xapian19InternalStemTurkish18r_is_reserved_wordEv
0001:00089452* __ZN6Xapian19InternalStemTurkish10r_postludeEv
0001:00089538* __ZN6Xapian19InternalStemTurkishC2Ev
0001:00089564  __ZN6Xapian19InternalStemTurkishC1Ev
0001:00089590* __ZN6Xapian19InternalStemTurkishD2Ev
0001:00086b20  __ZTVN6Xapian19InternalStemTurkishE$w$bA9WxYadFP5MNeYB0
0001:00089604  __ZTIN6Xapian19InternalStemTurkishE$w$bA9WxYadFP5MNeYB0
0001:00089e56  __ZTSN6Xapian19InternalStemTurkishE$w$bA9WxYadFP5MNeYB0
0001:0008a000* __ZTIN6Xapian4Stem8InternalE$w$bA9WxYadFP5MNeYB0
0001:0008a020* __ZTSN6Xapian4Stem8InternalE$w$bA9WxYadFP5MNeYB0
0001:0008a038* __ZTIN6Xapian8Internal10RefCntBaseE$w$bA9WxYadFP5MNeYB0
0001:0008a040* __ZTSN6Xapian8Internal10RefCntBaseE$w$bA9WxYadFP5MNeYB0
0002:000158a0* __ZN16__Atomicity_lockILi0EE17_S_atomicity_lockE$w$bA9WxYadFP5MNeYB0
Module: F:\rd\dse\xapian-core-1.0.2\.libs\xapian.a(languages\french.cc)
0001:0008b67a* __ZN6Xapian18InternalStemFrenchD1Ev
0001:0008b696* __ZN6Xapian18InternalStemFrenchD0Ev
0001:0008b480* __ZN6Xapian18InternalStemFrench4stemEv
0001:0008b6c6* __ZNK6Xapian18InternalStemFrench15get_descriptionEv
0001:0008a078* __ZN6Xapian18InternalStemFrench9r_preludeEv
0001:0008a2ca* __ZN6Xapian18InternalStemFrench14r_mark_regionsEv
0001:0008a554* __ZN6Xapian18InternalStemFrench10r_postludeEv
0001:0008a672* __ZN6Xapian18InternalStemFrench4r_RVEv
0001:0008a686* __ZN6Xapian18InternalStemFrench4r_R1Ev
0001:0008a69a* __ZN6Xapian18InternalStemFrench4r_R2Ev
0001:0008a6ae* __ZN6Xapian18InternalStemFrench17r_standard_suffixEv
0001:0008ae30* __ZN6Xapian18InternalStemFrench15r_i_verb_suffixEv
0001:0008af4a* __ZN6Xapian18InternalStemFrench13r_verb_suffixEv
0001:0008b0a4* __ZN6Xapian18InternalStemFrench17r_residual_suffixEv
0001:0008b2ba* __ZN6Xapian18InternalStemFrench11r_un_doubleEv
0001:0008b3ac* __ZN6Xapian18InternalStemFrench11r_un_accentEv
0001:0008b5f2* __ZN6Xapian18InternalStemFrenchC2Ev
0001:0008b628  __ZN6Xapian18InternalStemFrenchC1Ev
0001:0008b65e* __ZN6Xapian18InternalStemFrenchD2Ev
0001:0008a060  __ZTVN6Xapian18InternalStemFrenchE$w$74szTH7dFP5IDTPs3
0001:0008b6d0  __ZTIN6Xapian18InternalStemFrenchE$w$74szTH7dFP5IDTPs3
0001:0008c0a1  __ZTSN6Xapian18InternalStemFrenchE$w$74szTH7dFP5IDTPs3
0001:0008c340* __ZTIN6Xapian4Stem8InternalE$w$74szTH7dFP5IDTPs3
0001:0008c360* __ZTSN6Xapian4Stem8InternalE$w$74szTH7dFP5IDTPs3
0001:0008c378* __ZTIN6Xapian8Internal10RefCntBaseE$w$74szTH7dFP5IDTPs3
0001:0008c380* __ZTSN6Xapian8Internal10RefCntBaseE$w$74szTH7dFP5IDTPs3
0002:000158b0* __ZN16__Atomicity_lockILi0EE17_S_atomicity_lockE$w$74szTH7dFP5IDTPs3
Module: F:\rd\dse\xapian-core-1.0.2\.libs\xapian.a(backends\flint\flint_btreebase.cc)
0001:0008c3a0* __ZN15FlintTable_baseC2Ev
0001:0008c3f6  __ZN15FlintTable_baseC1Ev
0001:0008c44c* __ZN15FlintTable_baseC2ERKS_
0001:0008c528* __ZN15FlintTable_baseC1ERKS_
0001:0008c604  __ZN15FlintTable_base4swapERS_
0001:0008c6a2* __ZN15FlintTable_baseD2Ev
0001:0008c6e6  __ZN15FlintTable_baseD1Ev
0001:0008c742* __ZN15FlintTable_base14do_unpack_uintEPPKcS1_PmRSsRKSsS1_
0001:0008cc9e  __ZN15FlintTable_base4readERKSscRSs
0001:0008efee  __ZN15FlintTable_base13write_to_fileERKSs
0001:0008ff0c* __ZN15FlintTable_base20calculate_last_blockEv
0001:0008fcfc  __ZNK15FlintTable_base19block_free_at_startEm
0001:0008fd28  __ZN15FlintTable_base10free_blockEm
0001:0008fd7a* __ZN15FlintTable_base14extend_bit_mapEv
0001:0008fe7a  __ZN15FlintTable_base15next_free_blockEv
0001:0008fee0* __ZN15FlintTable_base14block_free_nowEm
0001:0008ff72* __ZNK15FlintTable_base8is_emptyEv
0001:0008ff9c  __ZN15FlintTable_base13clear_bit_mapEv
0001:0008ffc4  __ZN15FlintTable_base6commitEv
0001:000904ca  __Z11unpack_uintImEbPPKcS1_PT_$w$fEw9TCQcFP5YHp9p1
0001:00090078* __ZStplIcSt11char_traitsIcESaIcEESbIT_T0_T1_EPKS3_RKS6_$w$fEw9TCQcFP5YHp9p1
0001:0008fff8* __ZStplIcSt11char_traitsIcESaIcEESbIT_T0_T1_ERKS6_S8_$w$fEw9TCQcFP5YHp9p1
0001:0009016e  __Z9pack_uintImESsT_$w$fEw9TCQcFP5YHp9p1
0001:00090386* __Z9pack_uintIjESsT_$w$fEw9TCQcFP5YHp9p1
0001:000902b2* __ZN6Xapian20DatabaseOpeningErrorD1Ev$w$fEw9TCQcFP5YHp9p1
0001:00090550* __ZTIN6Xapian20DatabaseOpeningErrorE$w$fEw9TCQcFP5YHp9p1
0001:00090560* __ZTSN6Xapian20DatabaseOpeningErrorE$w$fEw9TCQcFP5YHp9p1
0001:00090580* __ZTIN6Xapian13DatabaseErrorE$w$fEw9TCQcFP5YHp9p1
0001:0009058c* __ZTSN6Xapian13DatabaseErrorE$w$fEw9TCQcFP5YHp9p1
0001:000905a8* __ZTIN6Xapian12RuntimeErrorE$w$fEw9TCQcFP5YHp9p1
0001:000905b4* __ZTSN6Xapian12RuntimeErrorE$w$fEw9TCQcFP5YHp9p1
0001:000905cc* __ZTIN6Xapian5ErrorE$w$fEw9TCQcFP5YHp9p1
0001:000905d4* __ZTSN6Xapian5ErrorE$w$fEw9TCQcFP5YHp9p1
0002:000158c0* __ZN16__Atomicity_lockILi0EE17_S_atomicity_lockE$w$fEw9TCQcFP5YHp9p1
Module: F:\rd\dse\xapian-core-1.0.2\.libs\xapian.a(api\omtermlistiterator.cc)
0001:00090600* __ZN6Xapian12TermIteratorC2EPNS0_8InternalE
0001:00090692  __ZN6Xapian12TermIteratorC1EPNS0_8InternalE
0001:00090724* __ZN6Xapian12TermIteratorC2Ev
0001:00090732* __ZN6Xapian12TermIteratorC1Ev
0001:00090740* __ZN6Xapian12TermIteratorD2Ev
0001:00090770  __ZN6Xapian12TermIteratorD1Ev
0001:000907a0* __ZN6Xapian12TermIteratorC2ERKS0_
0001:000907b8* __ZN6Xapian12TermIteratorC1ERKS0_
0001:000907d0* __ZN6Xapian12TermIteratoraSERKS0_
0001:000907e2  __ZNK6Xapian12TermIteratordeEv
0001:0009080e  __ZNK6Xapian12TermIterator7get_wdfEv
0001:00090826  __ZNK6Xapian12TermIterator12get_termfreqEv
0001:0009083e  __ZN6Xapian12TermIteratorppEv
0001:0009088e* __ZN6Xapian12TermIterator7skip_toERKSs
0001:000908ea* __ZNK6Xapian12TermIterator18positionlist_countEv
0001:00090902  __ZNK6Xapian12TermIterator18positionlist_beginEv
0001:00090944* __ZNK6Xapian12TermIterator15get_descriptionEv
0001:00090980  __ZN6Xapian8Internal9RefCntPtrINS_12TermIterator8InternalEEaSEPS3_$w$9JKOnnMcFP5fJ5Ot2
0001:0009097c* __ZNSt15basic_streambufIcSt11char_traitsIcEE13_S_pback_sizeE$w$9JKOnnMcFP5fJ5Ot2
0002:000158d0* __ZN16__Atomicity_lockILi0EE17_S_atomicity_lockE$w$9JKOnnMcFP5fJ5Ot2
Module: F:\rd\dse\xapian-core-1.0.2\.libs\xapian.a(languages\lovins.cc)
0001:00092424* __ZN6Xapian18InternalStemLovinsD1Ev
0001:00092440* __ZN6Xapian18InternalStemLovinsD0Ev
0001:00092364* __ZN6Xapian18InternalStemLovins4stemEv
0001:00092470* __ZNK6Xapian18InternalStemLovins15get_descriptionEv
0001:000909d8* __ZN6Xapian18InternalStemLovins3r_AEv
0001:00090a24* __ZN6Xapian18InternalStemLovins3r_BEv
0001:00090a70* __ZN6Xapian18InternalStemLovins3r_CEv
0001:00090abc* __ZN6Xapian18InternalStemLovins3r_DEv
0001:00090b08* __ZN6Xapian18InternalStemLovins3r_EEv
0001:00090b92* __ZN6Xapian18InternalStemLovins3r_FEv
0001:00090c1c* __ZN6Xapian18InternalStemLovins3r_GEv
0001:00090c92* __ZN6Xapian18InternalStemLovins3r_HEv
0001:00090d38* __ZN6Xapian18InternalStemLovins3r_IEv
0001:00090dee* __ZN6Xapian18InternalStemLovins3r_JEv
0001:00090ea4* __ZN6Xapian18InternalStemLovins3r_KEv
0001:00090fca* __ZN6Xapian18InternalStemLovins3r_LEv
0001:000910e4* __ZN6Xapian18InternalStemLovins3r_MEv
0001:000911fa* __ZN6Xapian18InternalStemLovins3r_NEv
0001:000912e2* __ZN6Xapian18InternalStemLovins3r_OEv
0001:00091388* __ZN6Xapian18InternalStemLovins3r_PEv
0001:00091412* __ZN6Xapian18InternalStemLovins3r_QEv
0001:000914fe* __ZN6Xapian18InternalStemLovins3r_REv
0001:000915a4* __ZN6Xapian18InternalStemLovins3r_SEv
0001:00091676* __ZN6Xapian18InternalStemLovins3r_TEv
0001:00091748* __ZN6Xapian18InternalStemLovins3r_UEv
0001:0009183a* __ZN6Xapian18InternalStemLovins3r_VEv
0001:000918b0* __ZN6Xapian18InternalStemLovins3r_WEv
0001:00091966* __ZN6Xapian18InternalStemLovins3r_XEv
0001:00091a8c* __ZN6Xapian18InternalStemLovins3r_YEv
0001:00091b02* __ZN6Xapian18InternalStemLovins3r_ZEv
0001:00091b8c* __ZN6Xapian18InternalStemLovins4r_AAEv
0001:00091c44* __ZN6Xapian18InternalStemLovins4r_BBEv
0001:00091cfa* __ZN6Xapian18InternalStemLovins4r_CCEv
0001:00091d70* __ZN6Xapian18InternalStemLovins9r_endingsEv
0001:00091dee* __ZN6Xapian18InternalStemLovins10r_undoubleEv
0001:00091ee0* __ZN6Xapian18InternalStemLovins9r_respellEv
0001:000923c4* __ZN6Xapian18InternalStemLovinsC2Ev
0001:000923e6  __ZN6Xapian18InternalStemLovinsC1Ev
0001:00092408* __ZN6Xapian18InternalStemLovinsD2Ev
0001:000909c0  __ZTVN6Xapian18InternalStemLovinsE$w$F7Pgc89dFP5RH2OB3
0001:0009247c  __ZTIN6Xapian18InternalStemLovinsE$w$F7Pgc89dFP5RH2OB3
0001:00093cc4  __ZTSN6Xapian18InternalStemLovinsE$w$F7Pgc89dFP5RH2OB3
0001:00094740* __ZTIN6Xapian4Stem8InternalE$w$F7Pgc89dFP5RH2OB3
0001:00094760* __ZTSN6Xapian4Stem8InternalE$w$F7Pgc89dFP5RH2OB3
0001:00094778* __ZTIN6Xapian8Internal10RefCntBaseE$w$F7Pgc89dFP5RH2OB3
0001:00094780* __ZTSN6Xapian8Internal10RefCntBaseE$w$F7Pgc89dFP5RH2OB3
0002:000158e0* __ZN16__Atomicity_lockILi0EE17_S_atomicity_lockE$w$F7Pgc89dFP5RH2OB3
Module: F:\rd\dse\xapian-core-1.0.2\.libs\xapian.a(backends\alltermslist.cc)
0001:000947f8* __ZN12AllTermsListD1Ev
0001:00094814* __ZN12AllTermsListD0Ev
0001:0009483c  __ZNK12AllTermsList16accumulate_statsERN6Xapian8Internal11ExpandStatsE
0001:00094888  __ZNK12AllTermsList7get_wdfEv
0001:00094aec  __ZNK12AllTermsList18positionlist_countEv
0001:00094d50  __ZNK12AllTermsList18positionlist_beginEv
0001:000947dc  __ZN12AllTermsListD2Ev
0001:000947a0  __ZTV12AllTermsList$w$NhYx9tOcFP52RGMb3
0001:00094f80* __ZTI12AllTermsList$w$NhYx9tOcFP52RGMb3
0001:00094fa0* __ZN6Xapian21InvalidOperationErrorD1Ev$w$NhYx9tOcFP52RGMb3
0001:000950a0* __ZTIN6Xapian21InvalidOperationErrorE$w$NhYx9tOcFP52RGMb3
0001:00094f8c* __ZTS12AllTermsList$w$NhYx9tOcFP52RGMb3
0001:00095080* __ZTIN6Xapian12TermIterator8InternalE$w$NhYx9tOcFP52RGMb3
0001:00094f9c* __ZNSt15basic_streambufIcSt11char_traitsIcEE13_S_pback_sizeE$w$NhYx9tOcFP52RGMb3
0001:00095100* __ZTSN6Xapian12TermIterator8InternalE$w$NhYx9tOcFP52RGMb3
0001:00095130* __ZTIN6Xapian8Internal10RefCntBaseE$w$NhYx9tOcFP52RGMb3
0001:000950c0* __ZTSN6Xapian21InvalidOperationErrorE$w$NhYx9tOcFP52RGMb3
0001:00095124* __ZTIN6Xapian10LogicErrorE$w$NhYx9tOcFP52RGMb3
0001:00095157* __ZTSN6Xapian10LogicErrorE$w$NhYx9tOcFP52RGMb3
0001:00095170* __ZTIN6Xapian5ErrorE$w$NhYx9tOcFP52RGMb3
0001:00095138* __ZTSN6Xapian8Internal10RefCntBaseE$w$NhYx9tOcFP52RGMb3
0001:00095178* __ZTSN6Xapian5ErrorE$w$NhYx9tOcFP52RGMb3
0002:000158f0* __ZN16__Atomicity_lockILi0EE17_S_atomicity_lockE$w$NhYx9tOcFP52RGMb3
Module: F:\rd\dse\xapian-core-1.0.2\.libs\xapian.a(backends\flint\flint_version.cc)
0001:000951e8  __ZN12FlintVersion6createEv
0001:000957dc  __ZN12FlintVersion14read_and_checkEv
0001:00096290* __ZN6Xapian20DatabaseOpeningErrorD1Ev$w$97je3pYcFP5pBFXf2
0001:00096438* __ZTIN6Xapian20DatabaseOpeningErrorE$w$97je3pYcFP5pBFXf2
0001:000961bc* __ZN6Xapian20DatabaseCorruptErrorD1Ev$w$97je3pYcFP5pBFXf2
0001:00096444* __ZTIN6Xapian20DatabaseCorruptErrorE$w$97je3pYcFP5pBFXf2
0001:00096364  __ZN6Xapian20DatabaseVersionErrorD1Ev$w$97je3pYcFP5pBFXf2
0001:00096450  __ZTIN6Xapian20DatabaseVersionErrorE$w$97je3pYcFP5pBFXf2
0001:000964a0* __ZTSN6Xapian20DatabaseOpeningErrorE$w$97je3pYcFP5pBFXf2
0001:000964c0* __ZTIN6Xapian13DatabaseErrorE$w$97je3pYcFP5pBFXf2
0001:00096480* __ZTSN6Xapian20DatabaseCorruptErrorE$w$97je3pYcFP5pBFXf2
0001:00096460  __ZTSN6Xapian20DatabaseVersionErrorE$w$97je3pYcFP5pBFXf2
0001:000964cc* __ZTSN6Xapian13DatabaseErrorE$w$97je3pYcFP5pBFXf2
0001:000964e8* __ZTIN6Xapian12RuntimeErrorE$w$97je3pYcFP5pBFXf2
0001:000964f4* __ZTSN6Xapian12RuntimeErrorE$w$97je3pYcFP5pBFXf2
0001:0009650c* __ZTIN6Xapian5ErrorE$w$97je3pYcFP5pBFXf2
0001:00096514* __ZTSN6Xapian5ErrorE$w$97je3pYcFP5pBFXf2
0002:00015900* __ZN16__Atomicity_lockILi0EE17_S_atomicity_lockE$w$97je3pYcFP5pBFXf2
Module: F:\rd\dse\xapian-core-1.0.2\.libs\xapian.a(languages\norwegian.cc)
0001:00096a92* __ZN6Xapian21InternalStemNorwegianD1Ev
0001:00096aae* __ZN6Xapian21InternalStemNorwegianD0Ev
0001:000969a2* __ZN6Xapian21InternalStemNorwegian4stemEv
0001:00096ae0* __ZNK6Xapian21InternalStemNorwegian15get_descriptionEv
0001:00096558* __ZN6Xapian21InternalStemNorwegian14r_mark_regionsEv
0001:00096626* __ZN6Xapian21InternalStemNorwegian13r_main_suffixEv
0001:000967ce* __ZN6Xapian21InternalStemNorwegian16r_consonant_pairEv
0001:000968c4* __ZN6Xapian21InternalStemNorwegian14r_other_suffixEv
0001:00096a16* __ZN6Xapian21InternalStemNorwegianC2Ev
0001:00096a46  __ZN6Xapian21InternalStemNorwegianC1Ev
0001:00096a76* __ZN6Xapian21InternalStemNorwegianD2Ev
0001:00096540  __ZTVN6Xapian21InternalStemNorwegianE$w$Dahmyj9dFP5sp5FO0
0001:00096aec  __ZTIN6Xapian21InternalStemNorwegianE$w$Dahmyj9dFP5sp5FO0
0001:00096de0  __ZTSN6Xapian21InternalStemNorwegianE$w$Dahmyj9dFP5sp5FO0
0001:00096ea0* __ZTIN6Xapian4Stem8InternalE$w$Dahmyj9dFP5sp5FO0
0001:00096ec0* __ZTSN6Xapian4Stem8InternalE$w$Dahmyj9dFP5sp5FO0
0001:00096ed8* __ZTIN6Xapian8Internal10RefCntBaseE$w$Dahmyj9dFP5sp5FO0
0001:00096ee0* __ZTSN6Xapian8Internal10RefCntBaseE$w$Dahmyj9dFP5sp5FO0
0002:00015910* __ZN16__Atomicity_lockILi0EE17_S_atomicity_lockE$w$Dahmyj9dFP5sp5FO0
Module: F:\rd\dse\xapian-core-1.0.2\.libs\xapian.a(api\termlist.cc)
0001:00096f4a* __ZN6Xapian12TermIterator8InternalD1Ev
0001:00096f58* __ZN6Xapian12TermIterator8InternalD0Ev
0001:00096f6a  __ZNK6Xapian12TermIterator8Internal19get_collection_freqEv
0001:00096f72  __ZN6Xapian12TermIterator8Internal7skip_toERKSs
0001:00096f3c  __ZN6Xapian12TermIterator8InternalD2Ev
0001:00096f00  __ZTVN6Xapian12TermIterator8InternalE$w$tpPY9iNcFP5l9Uci2
0001:00097160* __ZTIN6Xapian12TermIterator8InternalE$w$tpPY9iNcFP5l9Uci2
0001:00097180* __ZTSN6Xapian12TermIterator8InternalE$w$tpPY9iNcFP5l9Uci2
0001:000971a8* __ZTIN6Xapian8Internal10RefCntBaseE$w$tpPY9iNcFP5l9Uci2
0001:000971a4* __ZNSt15basic_streambufIcSt11char_traitsIcEE13_S_pback_sizeE$w$tpPY9iNcFP5l9Uci2
0001:000971b0* __ZTSN6Xapian8Internal10RefCntBaseE$w$tpPY9iNcFP5l9Uci2
0002:00015920* __ZN16__Atomicity_lockILi0EE17_S_atomicity_lockE$w$tpPY9iNcFP5l9Uci2
Module: F:\rd\dse\xapian-core-1.0.2\.libs\xapian.a(backends\flint\flint_record.cc)
0001:00097208  __ZNK16FlintRecordTable10get_recordEj
0001:0009775c  __ZNK16FlintRecordTable12get_doccountEv
0001:00097768  __ZN16FlintRecordTable14replace_recordERKSsj
0001:000978ec  __ZN16FlintRecordTable13delete_recordEj
0001:00097e3c* __Z25pack_uint_preserving_sortIjESsT_$w$NpOoQ9VcFP5q74pb4
0001:00097c72* __ZStplIcSt11char_traitsIcESaIcEESbIT_T0_T1_EPKS3_RKS6_$w$NpOoQ9VcFP5q74pb4
0001:00097d68  __ZN6Xapian16DocNotFoundErrorD1Ev$w$NpOoQ9VcFP5q74pb4
0001:00097f24* __ZTIN6Xapian16DocNotFoundErrorE$w$NpOoQ9VcFP5q74pb4
0001:00097f30* __ZTSN6Xapian16DocNotFoundErrorE$w$NpOoQ9VcFP5q74pb4
0001:00097f4c* __ZTIN6Xapian12RuntimeErrorE$w$NpOoQ9VcFP5q74pb4
0001:00097f58* __ZTSN6Xapian12RuntimeErrorE$w$NpOoQ9VcFP5q74pb4
0001:00097f70* __ZTIN6Xapian5ErrorE$w$NpOoQ9VcFP5q74pb4
0001:00097f78* __ZTSN6Xapian5ErrorE$w$NpOoQ9VcFP5q74pb4
0002:00015930* __ZN16__Atomicity_lockILi0EE17_S_atomicity_lockE$w$NpOoQ9VcFP5q74pb4
Module: F:\rd\dse\xapian-core-1.0.2\.libs\xapian.a(languages\hungarian.cc)
0001:00099000* __ZN6Xapian21InternalStemHungarianD1Ev
0001:0009901c* __ZN6Xapian21InternalStemHungarianD0Ev
0001:00098e6c* __ZN6Xapian21InternalStemHungarian4stemEv
0001:0009904e* __ZNK6Xapian21InternalStemHungarian15get_descriptionEv
0001:00097fa8* __ZN6Xapian21InternalStemHungarian14r_mark_regionsEv
0001:0009814e* __ZN6Xapian21InternalStemHungarian4r_R1Ev
0001:00098162* __ZN6Xapian21InternalStemHungarian10r_v_endingEv
0001:0009822a* __ZN6Xapian21InternalStemHungarian8r_doubleEv
0001:000982bc* __ZN6Xapian21InternalStemHungarian10r_undoubleEv
0001:0009835e* __ZN6Xapian21InternalStemHungarian9r_instrumEv
0001:000984d0* __ZN6Xapian21InternalStemHungarian6r_caseEv
0001:0009856a* __ZN6Xapian21InternalStemHungarian14r_case_specialEv
0001:00098646* __ZN6Xapian21InternalStemHungarian12r_case_otherEv
0001:00098746* __ZN6Xapian21InternalStemHungarian9r_factiveEv
0001:000988b8* __ZN6Xapian21InternalStemHungarian8r_pluralEv
0001:000989c2* __ZN6Xapian21InternalStemHungarian7r_ownedEv
0001:00098af8* __ZN6Xapian21InternalStemHungarian12r_sing_ownerEv
0001:00098c7c* __ZN6Xapian21InternalStemHungarian12r_plur_ownerEv
0001:00098f94* __ZN6Xapian21InternalStemHungarianC2Ev
0001:00098fbc  __ZN6Xapian21InternalStemHungarianC1Ev
0001:00098fe4* __ZN6Xapian21InternalStemHungarianD2Ev
0001:00097f90  __ZTVN6Xapian21InternalStemHungarianE$w$Xoxz9n8dFP5h40CZ1
0001:00099058  __ZTIN6Xapian21InternalStemHungarianE$w$Xoxz9n8dFP5h40CZ1
0001:00099c50  __ZTSN6Xapian21InternalStemHungarianE$w$Xoxz9n8dFP5h40CZ1
0001:00099ed0* __ZTIN6Xapian4Stem8InternalE$w$Xoxz9n8dFP5h40CZ1
0001:00099ef0* __ZTSN6Xapian4Stem8InternalE$w$Xoxz9n8dFP5h40CZ1
0001:00099f08* __ZTIN6Xapian8Internal10RefCntBaseE$w$Xoxz9n8dFP5h40CZ1
0001:00099f10* __ZTSN6Xapian8Internal10RefCntBaseE$w$Xoxz9n8dFP5h40CZ1
0002:00015940* __ZN16__Atomicity_lockILi0EE17_S_atomicity_lockE$w$Xoxz9n8dFP5h40CZ1
Module: F:\rd\dse\xapian-core-1.0.2\.libs\xapian.a(api\ompostlistiterator.cc)
0001:00099f38* __ZN6Xapian15PostingIteratorC2EPNS0_8InternalE
0001:00099fe0  __ZN6Xapian15PostingIteratorC1EPNS0_8InternalE
0001:0009a07c* __ZN6Xapian15PostingIteratorC2Ev
0001:0009a08a* __ZN6Xapian15PostingIteratorC1Ev
0001:0009a098* __ZN6Xapian15PostingIteratorD2Ev
0001:0009a0c8* __ZN6Xapian15PostingIteratorD1Ev
0001:0009a0f8* __ZN6Xapian15PostingIteratorC2ERKS0_
0001:0009a110* __ZN6Xapian15PostingIteratorC1ERKS0_
0001:0009a164* __ZN6Xapian15PostingIteratoraSERKS0_
0001:0009a172* __ZNK6Xapian15PostingIteratordeEv
0001:0009a198* __ZN6Xapian15PostingIteratorppEv
0001:0009a1f2* __ZN6Xapian15PostingIterator7skip_toEj
0001:0009a250* __ZNK6Xapian15PostingIterator13get_doclengthEv
0001:0009a268* __ZNK6Xapian15PostingIterator7get_wdfEv
0001:0009a280* __ZNK6Xapian15PostingIterator18positionlist_beginEv
0001:0009a2d6* __ZNK6Xapian15PostingIterator15get_descriptionEv
0001:0009a128  __ZN6Xapian8Internal9RefCntPtrINS_15PostingIterator8InternalEEaSEPS3_$w$thf2s2LcFP5X62Yy4
0001:0009a454* __ZNSt15basic_streambufIcSt11char_traitsIcEE13_S_pback_sizeE$w$thf2s2LcFP5X62Yy4
0002:00015950* __ZN16__Atomicity_lockILi0EE17_S_atomicity_lockE$w$thf2s2LcFP5X62Yy4
Module: T:\tmp\ldconv_libgcc_so_d_a_5160473e9a4811e848.lib(emx-ctordtor.obj)
0001:0009a460  ___ctordtorInit
0001:0009a46a* ___POST$__ctordtorInit
0001:0009a48e  ___ctordtorTerm
0001:0009a498* ___POST$__ctordtorTerm
Module: F:\rd\dse\xapian-core-1.0.2\.libs\xapian.a(common\utils.cc)
0001:0009a520  __ZN6Xapian8Internal6is_tabE
0001:0009a620* __ZN6Xapian8Internal6lo_tabE
0001:0009a740* __ZN6Xapian8Internal6up_tabE
0001:0009a844  __Z11om_tostringi
0001:0009a8d6  __Z11om_tostringj
0001:0009a968* __Z11om_tostringl
0001:0009a9fa  __Z11om_tostringm
0001:0009aa8e* __Z11om_tostringd
0001:0009ab20* __Z11om_tostringPKv
0001:0009abb2* __Z11om_tostringb
0001:0009abf4  __Z11file_existsRKSs
0002:00015970* __ZN16__Atomicity_lockILi0EE17_S_atomicity_lockE$w$5vuJVq5dFP5zay9A1
Module: F:\rd\dse\xapian-core-1.0.2\.libs\xapian.a(queryparser\termgenerator_internal.cc)
0001:0009ac62  __ZN6Xapian13TermGenerator8Internal10index_textENS_12Utf8IteratorEjRKSsb
0001:0009b942* __ZStplIcSt11char_traitsIcESaIcEESbIT_T0_T1_ERKS6_S8_$w$3qaUtFndFP53QAN53
0001:0009b9c4* __ZNSt15basic_streambufIcSt11char_traitsIcEE13_S_pback_sizeE$w$3qaUtFndFP53QAN53
0002:00015980* __ZN16__Atomicity_lockILi0EE17_S_atomicity_lockE$w$3qaUtFndFP53QAN53
Module: F:\rd\dse\xapian-core-1.0.2\.libs\xapian.a(unicode\utf8itor.cc)
0001:0009b9d0  __ZN6Xapian7Unicode16nonascii_to_utf8EjPc
0001:0009ba64* __ZN6Xapian12Utf8IteratorC2EPKc
0001:0009baae* __ZN6Xapian12Utf8IteratorC1EPKc
0001:0009baf8  __ZNK6Xapian12Utf8Iterator25calculate_sequence_lengthEv
0001:0009bbe2  __ZNK6Xapian12Utf8IteratordeEv
0002:00015990* __ZN16__Atomicity_lockILi0EE17_S_atomicity_lockE$w$TMQI64odFP57RPt83
Module: F:\rd\dse\xapian-core-1.0.2\.libs\xapian.a(backends\flint\flint_lock.cc)
0001:0009bc80  __ZN9FlintLock4lockEb
0001:0009bcf0  __ZN9FlintLock7releaseEv
0002:000159a0* __ZN16__Atomicity_lockILi0EE17_S_atomicity_lockE$w$FHFUL4TcFP5iusnK2
Module: F:\rd\dse\xapian-core-1.0.2\.libs\xapian.a(backends\flint\flint_cursor.cc)
0001:0009bd20* __ZN11FlintCursorC2EP10FlintTable
0001:0009bee2  __ZN11FlintCursorC1EP10FlintTable
0001:0009c0a4* __ZN11FlintCursorD2Ev
0001:0009c18c  __ZN11FlintCursorD1Ev
0001:0009c274  __ZN11FlintCursor4prevEv
0001:0009c910* __ZNK11FlintCursor7get_keyEPSs
0001:0009c4d6  __ZN11FlintCursor10find_entryERKSs
0001:0009c3c6  __ZN11FlintCursor4nextEv
0001:0009c952  __ZN11FlintCursor8read_tagEb
0001:0009c9fc  __ZN11FlintCursor3delEv
0001:0009ca3a* __ZN6Xapian20DatabaseCorruptErrorD1Ev$w$V755DRQcFP5VVtfM1
0001:0009cb10* __ZTIN6Xapian20DatabaseCorruptErrorE$w$V755DRQcFP5VVtfM1
0001:0009cb20* __ZTSN6Xapian20DatabaseCorruptErrorE$w$V755DRQcFP5VVtfM1
0001:0009cb40* __ZTIN6Xapian13DatabaseErrorE$w$V755DRQcFP5VVtfM1
0001:0009cb4c* __ZTSN6Xapian13DatabaseErrorE$w$V755DRQcFP5VVtfM1
0001:0009cb68* __ZTIN6Xapian12RuntimeErrorE$w$V755DRQcFP5VVtfM1
0001:0009cb74* __ZTSN6Xapian12RuntimeErrorE$w$V755DRQcFP5VVtfM1
0001:0009cb8c* __ZTIN6Xapian5ErrorE$w$V755DRQcFP5VVtfM1
0001:0009cb94* __ZTSN6Xapian5ErrorE$w$V755DRQcFP5VVtfM1
0002:000159b0* __ZN16__Atomicity_lockILi0EE17_S_atomicity_lockE$w$V755DRQcFP5VVtfM1
Module: F:\rd\dse\xapian-core-1.0.2\.libs\xapian.a(backends\flint\flint_values.cc)
0001:0009cbc0* __ZN15FlintValueTable8make_keyERSsjj
0001:0009cd0a* __ZN15FlintValueTable12unpack_entryEPPKcS1_PjRSs
0001:0009d5d2  __ZN15FlintValueTable9add_valueERKSsjj
0001:0009e200  __ZNK15FlintValueTable9get_valueERSsjj
0001:0009e604  __ZNK15FlintValueTable14get_all_valuesERSt3mapIjSsSt4lessIjESaISt4pairIKjSsEEEj
0001:0009ebde  __ZN15FlintValueTable17delete_all_valuesEj
0001:0009f26c* __Z25pack_uint_preserving_sortIjESsT_$w$JvCmP9YcFP51s5hE3
0001:0009f0a4* __Z11unpack_uintIjEbPPKcS1_PT_$w$JvCmP9YcFP51s5hE3
0001:0009eefc* __ZN6Xapian20DatabaseCorruptErrorD1Ev$w$JvCmP9YcFP51s5hE3
0001:0009f400* __ZTIN6Xapian20DatabaseCorruptErrorE$w$JvCmP9YcFP51s5hE3
0001:0009efd0* __ZN6Xapian10RangeErrorD1Ev$w$JvCmP9YcFP51s5hE3
0001:0009f40c* __ZTIN6Xapian10RangeErrorE$w$JvCmP9YcFP51s5hE3
0001:0009f128* __Z9pack_uintIjESsT_$w$JvCmP9YcFP51s5hE3
0001:0009ecd6* __ZStplIcSt11char_traitsIcESaIcEESbIT_T0_T1_ERKS6_S8_$w$JvCmP9YcFP51s5hE3
0001:0009ede0* __ZNSt8_Rb_treeIjSt4pairIKjSsESt10_Select1stIS2_ESt4lessIjESaIS2_EE13insert_uniqueERKS2_$w$JvCmP9YcFP51s5hE3
0001:0009ed56* __ZNSt8_Rb_treeIjSt4pairIKjSsESt10_Select1stIS2_ESt4lessIjESaIS2_EE8_M_eraseEPSt13_Rb_tree_nodeIS2_E$w$JvCmP9YcFP51s5hE3
0001:0009f354* __ZNSt8_Rb_treeIjSt4pairIKjSsESt10_Select1stIS2_ESt4lessIjESaIS2_EE9_M_insertEPSt18_Rb_tree_node_baseSA_RKS2_$w$JvCmP9YcFP51s5hE3
0001:0009eeac* __ZNSt22_Rb_tree_base_iterator12_M_decrementEv$w$JvCmP9YcFP51s5hE3
0001:0009f568* __ZNSt8_Rb_treeIjSt4pairIKjSsESt10_Select1stIS2_ESt4lessIjESaIS2_EE14_M_create_nodeERKS2_$w$JvCmP9YcFP51s5hE3
0001:0009f460* __ZSt18_Rb_tree_rebalancePSt18_Rb_tree_node_baseRS0_$w$JvCmP9YcFP51s5hE3
0001:0009f440* __ZTSN6Xapian20DatabaseCorruptErrorE$w$JvCmP9YcFP51s5hE3
0001:0009f5e8* __ZTIN6Xapian13DatabaseErrorE$w$JvCmP9YcFP51s5hE3
0001:0009f418* __ZTSN6Xapian10RangeErrorE$w$JvCmP9YcFP51s5hE3
0001:0009f5dc* __ZTIN6Xapian12RuntimeErrorE$w$JvCmP9YcFP51s5hE3
0001:0009f626* __ZSt20_Rb_tree_rotate_leftPSt18_Rb_tree_node_baseRS0_$w$JvCmP9YcFP51s5hE3
0001:0009f668* __ZSt21_Rb_tree_rotate_rightPSt18_Rb_tree_node_baseRS0_$w$JvCmP9YcFP51s5hE3
0001:0009f60d* __ZTSN6Xapian12RuntimeErrorE$w$JvCmP9YcFP51s5hE3
0001:0009f6ac* __ZTIN6Xapian5ErrorE$w$JvCmP9YcFP51s5hE3
0001:0009f5f4* __ZTSN6Xapian13DatabaseErrorE$w$JvCmP9YcFP51s5hE3
0001:0009f6b4* __ZTSN6Xapian5ErrorE$w$JvCmP9YcFP51s5hE3
0002:000159c0* __ZN16__Atomicity_lockILi0EE17_S_atomicity_lockE$w$JvCmP9YcFP51s5hE3
Module: F:\rd\dse\xapian-core-1.0.2\.libs\xapian.a(backends\flint\flint_io.cc)
0001:0009f722  __Z13flint_io_readiPcjj
0001:0009fbd4  __Z14flint_io_writeiPKcj
0001:0009fe48* __ZN6Xapian13DatabaseErrorD1Ev$w$jcp3ERScFP5LRCO13
0001:0009ff1c* __ZTIN6Xapian13DatabaseErrorE$w$jcp3ERScFP5LRCO13
0001:0009ff28* __ZTSN6Xapian13DatabaseErrorE$w$jcp3ERScFP5LRCO13
0001:0009ff44* __ZTIN6Xapian12RuntimeErrorE$w$jcp3ERScFP5LRCO13
0001:0009ff50* __ZTSN6Xapian12RuntimeErrorE$w$jcp3ERScFP5LRCO13
0001:0009ff68* __ZTIN6Xapian5ErrorE$w$jcp3ERScFP5LRCO13
0001:0009ff70* __ZTSN6Xapian5ErrorE$w$jcp3ERScFP5LRCO13
0002:000159d0* __ZN16__Atomicity_lockILi0EE17_S_atomicity_lockE$w$jcp3ERScFP5LRCO13
Module: F:\dev\gcc061\local\lib\libz.lib(deflate.obj)
0001:0009ff80* _deflate_copyright
0001:000a003e  _deflateInit2_
0001:000a0422* _deflateReset
0001:000a0c00  _deflateEnd
0001:000a02d5* _deflateSetDictionary
0001:000a0507* _deflateParams
0001:000a05e6  _deflate
0001:000a0ccc* _deflateCopy
0001:000a1caf  _deflateInit_
0001:000a1cf9* _deflatePrime
0001:000a1d32* _deflateBound
Module: F:\dev\gcc061\local\lib\libz.lib(inflate.obj)
0001:000a20e0  _inflateInit2_
0001:000a2cc8  _inflate
0001:000a42d8* _inflateSetDictionary
0001:000a43c5* _inflateSync
0001:000a45e6* _inflateCopy
0001:000a471a* _inflateReset
0001:000a4798* _inflateInit_
0001:000a47c3  _inflateEnd
0001:000a481f* _inflateSyncPoint
Module: F:\rd\dse\xapian-core-1.0.2\.libs\xapian.a(unicode\tclUniData.cc)
0001:000a4980  __ZN6Xapian7Unicode8Internal18get_character_infoEj
0002:000159e0* __ZN16__Atomicity_lockILi0EE17_S_atomicity_lockE$w$DK91eTndFP5xO6gn3
Module: F:\dev\gcc061\local\lib\libz.lib(zutil.obj)
0001:000ab2a0  _z_errmsg
0001:000ab2c8* _zlibCompileFlags
0001:000ab2d8* _zlibVersion
0001:000ab2e2* _zError
0001:000ab2f6  _zcalloc
0001:000ab309  _zcfree
Module: F:\dev\gcc061\local\lib\libz.lib(adler32.obj)
0001:000ab320  _adler32
Module: F:\dev\gcc061\local\lib\libz.lib(trees.obj)
0001:000abaa0  __dist_code
0001:000abca0  __length_code
0001:000abe98  __tr_stored_block
0001:000abf4b  __tr_align
0001:000ac1c2  __tr_flush_block
0001:000acb5d  __tr_init
0001:000acc33* __tr_tally
Module: F:\dev\gcc061\local\lib\libz.lib(crc32.obj)
0001:000afc40  _crc32
0001:000b0158* _get_crc_table
Module: F:\dev\gcc061\local\lib\libz.lib(compress.obj)
0001:000b0186* _compress2
0001:000b0232* _compress
0001:000b02df  _compressBound
Module: F:\dev\gcc061\local\lib\libz.lib(inftrees.obj)
0001:000b0300* _inflate_copyright
0001:000b0440  _inflate_table
Module: F:\dev\gcc061\local\lib\libz.lib(inffast.obj)
0001:000b09d0  _inflate_fast


                        +----------------------+
                        |   Imported Symbols   |
                        +----------------------+

Symbol                              Module
======                              ======

___libc_ForkRegisterModule          libc063
___init_app                         libc063
__response                          libc063
__wildcard                          libc063
__CRT_init                          libc063
__atfork_callback                   libc063
__fmode_bin                         libc063
__ZNSt8ios_base4InitD1Ev            libc063
__ZNSt8ios_base4InitC1Ev            libc063
__alloca                            libc063
__ZSt4cout                          libc063
__ZStlsISt11char_traitsIcEERSt13basic_ostreamIcT_ES5_PKc libc063
__ZSt4endlIcSt11char_traitsIcEERSt13basic_ostreamIT_T0_ES6_ libc063
__ZNSolsEPFRSoS_E                   libc063
__ZNSsC1EPKcRKSaIcE                 libc063
__ZNSs20_S_empty_rep_storageE       libc063
__ZSt3cin                           libc063
__ZNSs4_Rep10_M_destroyERKSaIcE     libc063
__ZNSs6assignEPKcj                  libc063
__ZNSs6appendEjc                    libc063
__ZNSs6appendERKSs                  libc063
__ZNKSt9basic_iosIcSt11char_traitsIcEE5widenEc libc063
__ZSt7getlineIcSt11char_traitsIcESaIcEERSt13basic_istreamIT_T0_ES7_RSbIS4_S5_T1_ES4_ libc063
__Unwind_Resume                     libc063
___cxa_begin_catch                  libc063
__ZStlsIcSt11char_traitsIcESaIcEERSt13basic_ostreamIT_T0_ES7_RKSbIS4_S5_T1_E libc063
___cxa_end_catch                    libc063
__ZTVN10__cxxabiv117__class_type_infoE libc063
___gxx_personality_v0               libc063
__std_exit                          libc063
___cxa_pure_virtual                 libc063
___cxa_allocate_exception           libc063
__ZNSsC1ERKSs                       libc063
___cxa_throw                        libc063
___cxa_free_exception               libc063
__ZdlPv                             libc063
__Znwj                              libc063
__ZNSs6appendEPKcj                  libc063
__ZNSt24__default_alloc_templateILb1ELi0EE10deallocateEPvj libc063
__ZNSt24__default_alloc_templateILb1ELi0EE8allocateEj libc063
___cxa_rethrow                      libc063
__ZTVN10__cxxabiv121__vmi_class_type_infoE libc063
__ZTVN10__cxxabiv120__si_class_type_infoE libc063
__ZNSs4_Rep11_S_terminalE           libc063
__ZNSt8ios_baseC2Ev                 libc063
__ZTTSt14basic_ifstreamIcSt11char_traitsIcEE libc063
__ZTVSt9basic_iosIcSt11char_traitsIcEE libc063
__ZNSt9basic_iosIcSt11char_traitsIcEE4initEPSt15basic_streambufIcS1_E libc063
__ZTVSt14basic_ifstreamIcSt11char_traitsIcEE libc063
__ZNSt13basic_filebufIcSt11char_traitsIcEEC1Ev libc063
__ZNSt13basic_filebufIcSt11char_traitsIcEE4openEPKcSt13_Ios_Openmode libc063
__ZNKSs4findEcj                     libc063
__ZNSsC1ERKSsjj                     libc063
__ZNSs7replaceEjjPKcj               libc063
__ZNKSs7compareEPKc                 libc063
__ZTVSt13basic_filebufIcSt11char_traitsIcEE libc063
__ZNSt13basic_filebufIcSt11char_traitsIcEE5closeEv libc063
__ZNSt12__basic_fileIcED1Ev         libc063
__ZTVSt15basic_streambufIcSt11char_traitsIcEE libc063
__ZNSt6localeD1Ev                   libc063
__ZNSt8ios_baseD2Ev                 libc063
__ZNSt9basic_iosIcSt11char_traitsIcEE5clearESt12_Ios_Iostate libc063
__ZNSt15basic_streambufIcSt11char_traitsIcEED2Ev libc063
__ZNSs7reserveEj                    libc063
__ZNSs6assignERKSs                  libc063
__ZNSsD1Ev                          libc063
_hstrerror                          tcpip32
___register_frame_table             libc063
___deregister_frame                 libc063
__errno                             libc063
__ZNSs6resizeEjc                    libc063
__ZNSsC1EPKcjRKSaIcE                libc063
__ZNSs7replaceEN9__gnu_cxx17__normal_iteratorIPcSsEES2_jc libc063
__ZNSs12_M_leak_hardEv              libc063
__ZNSaIcED1Ev                       libc063
__ZNSs4_Rep10_M_disposeERKSaIcE     libc063
__ZNKSs7compareERKSs                libc063
__ZNSs4_Rep9_S_createEjRKSaIcE      libc063
__ZSt19__throw_logic_errorPKc       libc063
__ZdaPv                             libc063
__Znaj                              libc063
__ZSt20__throw_length_errorPKc      libc063
__ZSt20__throw_out_of_rangePKc      libc063
__ZTVSt9bad_alloc                   libc063
__ZNSt9bad_allocD1Ev                libc063
__ZNSs4swapERSs                     libc063
__ZNSsC1EjcRKSaIcE                  libc063
___ctordtorInit1                    libc063
___ctordtorTerm1                    libc063
__std_atexit                        libc063
__std_memmove                       libc063
__std_abort                         libc063
__std_strerror                      libc063
__std_stat                          libc063
__std_mkdir                         libc063
DosOpen                             doscalls
DosClose                            doscalls
__std_getenv                        libc063
__std_atoi                          libc063
__std_memcpy                        libc063
__std_malloc                        libc063
__std_free                          libc063
__std_realloc                       libc063
__std_lseek                         libc063
__std_unlink                        libc063
__std_memset                        libc063
__std_close                         libc063
__std_open                          libc063
__std_fsync                         libc063
__std_snprintf                      libc063
__std_read                          libc063
__std_write                         libc063


                        +--------------------+
                        |   Libraries Used   |
                        +--------------------+

F:\rd\dse\xapian-core-1.0.2\.libs\xapian.a
F:\dev\gcc061\local\lib\libz.lib
F:\dev\gcc061\lib\libsocket.lib
F:\dev\gcc061\lib\libc_dll.lib
F:\dev\gcc061\lib\libc_alias.lib
F:\dev\gcc061\lib\libos2.lib
T:\tmp\ldconv_libgcc_so_d_a_5160473e9a4811e848.lib
F:\dev\gcc061\lib\libend.lib


                        +-----------------------+
                        |   Linker Statistics   |
                        +-----------------------+

Stack size:  00100000 (1048576.)
Memory size:  001c6860 (1861728.)
Entry point address: 0001:00000000
Link time: 00:00.55
