** EXPERIMENTAL (HLL) ** Open Watcom Linker Version 1.6beta1 Limited Availability
Portions Copyright (c) 1985-2002 Sybase, Inc. All Rights Reserved.
Created on:       07/11/17 08:37:40
Executable Image: examples/simpleexpand.exe
creating an OS/2 EMX executable


                        +------------+
                        |   Groups   |
                        +------------+

Group                           Address              Size
=====                           =======              ====

CGROUP                          0001:00000000        00101d70
DGROUP                          0002:00000000        00022c30



                        +--------------+
                        |   Segments   |
                        +--------------+

Segment                Class          Group          Address         Size
=======                =====          =====          =======         ====

TEXT32                 CODE           CGROUP         0001:00000000   00101d70
________TEXT           CODE           CGROUP         0001:00101d70   00000000
DATA32                 DATA           DGROUP         0002:00000000   00022400
SET1__os2dll           DATA           DGROUP         0002:00022400   00000004
SET2__os2dll           DATA           DGROUP         0002:00022404   00000000
SET3__os2dll           DATA           DGROUP         0002:00022404   00000004
SET1___CTOR_LIST__     DATA           DGROUP         0002:00022408   00000004
SET2___CTOR_LIST__     DATA           DGROUP         0002:0002240c   00000010
SET3___CTOR_LIST__     DATA           DGROUP         0002:0002241c   00000004
SET1___DTOR_LIST__     DATA           DGROUP         0002:00022420   00000004
SET2___DTOR_LIST__     DATA           DGROUP         0002:00022424   0000000c
SET3___DTOR_LIST__     DATA           DGROUP         0002:00022430   00000004
SET1___crtinit1__      DATA           DGROUP         0002:00022434   00000004
SET2___crtinit1__      DATA           DGROUP         0002:00022438   00000000
SET3___crtinit1__      DATA           DGROUP         0002:00022438   00000004
SET1___crtexit1__      DATA           DGROUP         0002:0002243c   00000004
SET2___crtexit1__      DATA           DGROUP         0002:00022440   00000000
SET3___crtexit1__      DATA           DGROUP         0002:00022440   00000004
SET1___eh_frame__      DATA           DGROUP         0002:00022444   00000004
SET2___eh_frame__      DATA           DGROUP         0002:00022448   0000016c
SET3___eh_frame__      DATA           DGROUP         0002:000225b4   00000004
SET1___eh_init__       DATA           DGROUP         0002:000225b8   00000004
SET2___eh_init__       DATA           DGROUP         0002:000225bc   00000004
SET3___eh_init__       DATA           DGROUP         0002:000225c0   00000004
SET1___eh_term__       DATA           DGROUP         0002:000225c4   00000004
SET2___eh_term__       DATA           DGROUP         0002:000225c8   00000004
SET3___eh_term__       DATA           DGROUP         0002:000225cc   00000004
SET1___fork_parent1__  DATA           DGROUP         0002:000225d0   00000004
SET2___fork_parent1__  DATA           DGROUP         0002:000225d4   00000000
SET3___fork_parent1__  DATA           DGROUP         0002:000225d4   00000004
SET1___fork_child1__   DATA           DGROUP         0002:000225d8   00000004
SET2___fork_child1__   DATA           DGROUP         0002:000225dc   00000004
SET3___fork_child1__   DATA           DGROUP         0002:000225e0   00000004
________DATA           DATA           DGROUP         0002:000225f0   00000000
BSS32                  BSS            DGROUP         0002:000225f0   00000640
c_common               BSS            DGROUP         0002:00022c30   00000000
________BSS            BSS            DGROUP         0002:00022c30   00000000
STACK                  STACK          AUTO           0003:00000000   00100000


                        +----------------+
                        |   Memory Map   |
                        +----------------+

* = unreferenced symbol
+ = symbol only referenced locally

Address        Symbol
=======        ======

Module: F:\dev\gcc061\lib\crt0hiwildresp.obj({standard input})
0001:00000000* __text
0002:00000000* __data
0002:00000000* ___data_start
0002:000225f0* ___bss_start
0002:00022400+ __os2dll
0002:00022408  ___CTOR_LIST__
0002:00022420  ___DTOR_LIST__
0002:00022434* ___crtinit1__
0002:0002243c* ___crtexit1__
0002:00022444  ___eh_frame__
0002:000225b8  ___eh_init__
0002:000225c4  ___eh_term__
0002:000225d0+ ___fork_parent1__
0002:000225d8+ ___fork_child1__
Module: F:\rd\dse\xapian-core-1.0.2\examples\simpleexpand.o(examples\simpleexpand.cc)
0001:00000122  _main
0001:00000d78  __ZTIN6Xapian5ErrorE$w$rmA72CsdFP58N8z70
0001:00000d74  __ZNSt15basic_streambufIcSt11char_traitsIcEE13_S_pback_sizeE$w$rmA72CsdFP58N8z70
0001:00000d80  __ZTSN6Xapian5ErrorE$w$rmA72CsdFP58N8z70
0002:000225f0  __ZN16__Atomicity_lockILi0EE17_S_atomicity_lockE$w$rmA72CsdFP58N8z70
0001:00000122* main
Module: F:\dev\gcc061\lib\libend.lib(src/libend/386/endlink386.asm)
0002:00022c30  _end
0002:000225f0  _edata
Module: F:\dev\gcc061\lib\libend.lib(src/libend/386/end.asm)
0001:00101d70* _etext
0001:00101d70* __etext
0000:00000000  WEAK$ZERO
0002:00022c30  __end
0002:000225f0  __edata
Module: T:\tmp\ldconv_libgcc_so_d_a_509f473e9a421c96a8.lib(__main.obj)
0001:00000dd0* ___do_global_dtors
0001:00000dd6* ___do_global_ctors
0001:00000de6* ___POST$__do_global_ctors
0001:00000de8  ___main
0001:00000df2* ___POST$__main
Module: F:\rd\dse\xapian-core-1.0.2\.libs\xapian.a(backends\database.cc)
0001:00002276* __ZN6Xapian8Database8InternalD1Ev
0001:00002284* __ZN6Xapian8Database8InternalD0Ev
0001:00002296  __ZN6Xapian8Database8Internal10keep_aliveEv
0001:00003376  __ZNK6Xapian8Database8Internal22open_spelling_termlistERKSs
0001:0000337e  __ZNK6Xapian8Database8Internal22open_spelling_wordlistEv
0001:00003386  __ZNK6Xapian8Database8Internal22get_spelling_frequencyERKSs
0001:000033c0  __ZNK6Xapian8Database8Internal12add_spellingERKSsj
0001:000035f0  __ZNK6Xapian8Database8Internal15remove_spellingERKSsj
0001:00003820  __ZNK6Xapian8Database8Internal21open_synonym_termlistERKSs
0001:00003828  __ZNK6Xapian8Database8Internal20open_synonym_keylistERKSs
0001:00003858  __ZNK6Xapian8Database8Internal11add_synonymERKSsS3_
0001:00003a88  __ZNK6Xapian8Database8Internal14remove_synonymERKSsS3_
0001:00003cb8  __ZNK6Xapian8Database8Internal14clear_synonymsERKSs
0001:000022d8  __ZN6Xapian8Database8Internal5flushEv
0001:000022de* __ZN6Xapian8Database8Internal6cancelEv
0001:0000313e  __ZN6Xapian8Database8Internal12add_documentERKNS_8DocumentE
0001:00003146  __ZN6Xapian8Database8Internal15delete_documentEj
0001:00003158  __ZN6Xapian8Database8Internal15delete_documentERKSs
0001:00003216  __ZN6Xapian8Database8Internal16replace_documentEjRKNS_8DocumentE
0001:00003228  __ZN6Xapian8Database8Internal16replace_documentERKSsRKNS_8DocumentE
0001:00001300* __ZN6Xapian5Flint4openERKSs
0001:0000137e* __ZN6Xapian5Flint4openERKSsii
0001:000013fa* __ZN6Xapian8InMemory4openEv
0001:00001462* __ZN6Xapian4Auto9open_stubERKSs
0001:000014e8* __ZN6Xapian8DatabaseC2ERKSs
0001:00001a74  __ZN6Xapian8DatabaseC1ERKSs
0001:00002000* __ZN6Xapian16WritableDatabaseC2ERKSsi
0001:00002118* __ZN6Xapian16WritableDatabaseC1ERKSsi
0001:00002230  __ZN6Xapian8Database8InternalC2Ev
0001:0000224c* __ZN6Xapian8Database8InternalC1Ev
0001:00002268  __ZN6Xapian8Database8InternalD2Ev
0001:0000229c  __ZN6Xapian8Database8Internal11dtor_calledEv
0001:00002cd2  __ZN6Xapian8Database8Internal18cancel_transactionEv
0001:00002360  __ZN6Xapian8Database8Internal17begin_transactionEb
0001:0000281e  __ZN6Xapian8Database8Internal18commit_transactionEv
0001:00000e00  __ZTVN6Xapian8Database8InternalE$w$PcXKN6PcFP5L1eGp4
0001:000041a0  __ZTIN6Xapian8Database8InternalE$w$PcXKN6PcFP5L1eGp4
0001:00000ef8  __ZN6Xapian8Database8Internal6reopenEv$w$PcXKN6PcFP5L1eGp4
0001:00000efe  __ZNK6Xapian8Database8Internal16request_documentEj$w$PcXKN6PcFP5L1eGp4
0001:00000f04  __ZNK6Xapian8Database8Internal16collect_documentEj$w$PcXKN6PcFP5L1eGp4
0001:00000f28  __ZN6Xapian8Database8Internal17as_remotedatabaseEv$w$PcXKN6PcFP5L1eGp4
0001:00000ea0* __ZTV12LeafPostList$w$PcXKN6PcFP5L1eGp4
0001:000041c0* __ZTI12LeafPostList$w$PcXKN6PcFP5L1eGp4
0001:0000119e* __ZN12LeafPostListD1Ev$w$PcXKN6PcFP5L1eGp4
0001:000011dc* __ZN12LeafPostListD0Ev$w$PcXKN6PcFP5L1eGp4
0001:00001236* __ZNK12LeafPostList16get_termfreq_minEv$w$PcXKN6PcFP5L1eGp4
0001:0000124c* __ZNK12LeafPostList16get_termfreq_estEv$w$PcXKN6PcFP5L1eGp4
0001:00001220* __ZNK12LeafPostList16get_termfreq_maxEv$w$PcXKN6PcFP5L1eGp4
0001:000012d0* __ZNK12LeafPostList13get_maxweightEv$w$PcXKN6PcFP5L1eGp4
0001:00001286* __ZNK12LeafPostList10get_weightEv$w$PcXKN6PcFP5L1eGp4
0001:00000f30* __ZNK6Xapian15PostingIterator8Internal16get_collapse_keyEv$w$PcXKN6PcFP5L1eGp4
0001:000012e8* __ZN12LeafPostList16recalc_maxweightEv$w$PcXKN6PcFP5L1eGp4
0001:00000f6e* __ZNK6Xapian15PostingIterator8Internal7get_wdfEv$w$PcXKN6PcFP5L1eGp4
0001:00001262* __ZN12LeafPostList14set_termweightEPKN6Xapian6WeightE$w$PcXKN6PcFP5L1eGp4
0001:00004324* __ZN6Xapian18UnimplementedErrorD1Ev$w$PcXKN6PcFP5L1eGp4
0001:00005340* __ZTIN6Xapian18UnimplementedErrorE$w$PcXKN6PcFP5L1eGp4
0001:00004200* __ZTVN6Xapian15PostingIterator8InternalE$w$PcXKN6PcFP5L1eGp4
0001:00003ee8* __ZNSt6vectorIN6Xapian8Internal9RefCntPtrINS0_8Database8InternalEEESaIS5_EE13_M_insert_auxEN9__gnu_cxx17__normal_iteratorIPS5_S7_EERKS5_$w$PcXKN6PcFP5L1eGp4
0001:000043f8  __ZN6Xapian20DatabaseOpeningErrorD1Ev$w$PcXKN6PcFP5L1eGp4
0001:0000534c  __ZTIN6Xapian20DatabaseOpeningErrorE$w$PcXKN6PcFP5L1eGp4
0001:00004250* __ZN6Xapian21InvalidOperationErrorD1Ev$w$PcXKN6PcFP5L1eGp4
0001:00005358* __ZTIN6Xapian21InvalidOperationErrorE$w$PcXKN6PcFP5L1eGp4
0001:0000412a* __ZN6Xapian8Internal9RefCntPtrINS_8Database8InternalEEaSEPS3_$w$PcXKN6PcFP5L1eGp4
0001:00004166* __ZSt24__uninitialized_copy_auxIN9__gnu_cxx17__normal_iteratorIPN6Xapian8Internal9RefCntPtrINS2_8Database8InternalEEESt6vectorIS7_SaIS7_EEEESC_ET0_T_SE_SD_12__false_type$w$PcXKN6PcFP5L1eGp4
0001:000041db  __ZTSN6Xapian8Database8InternalE$w$PcXKN6PcFP5L1eGp4
0001:00005364* __ZTIN6Xapian8Internal10RefCntBaseE$w$PcXKN6PcFP5L1eGp4
0001:000041cc* __ZTS12LeafPostList$w$PcXKN6PcFP5L1eGp4
0001:00005320* __ZTIN6Xapian15PostingIterator8InternalE$w$PcXKN6PcFP5L1eGp4
0001:000041f8* __ZNSt15basic_streambufIcSt11char_traitsIcEE13_S_pback_sizeE$w$PcXKN6PcFP5L1eGp4
0001:000044cc* __ZN6Xapian15PostingIterator8InternalD1Ev$w$PcXKN6PcFP5L1eGp4
0001:000044da* __ZN6Xapian15PostingIterator8InternalD0Ev$w$PcXKN6PcFP5L1eGp4
0001:00005210* __ZStplIcSt11char_traitsIcESaIcEESbIT_T0_T1_EPKS3_RKS6_$w$PcXKN6PcFP5L1eGp4
0001:00005190* __ZStplIcSt11char_traitsIcESaIcEESbIT_T0_T1_ERKS6_S8_$w$PcXKN6PcFP5L1eGp4
0001:00005420* __ZTSN6Xapian15PostingIterator8InternalE$w$PcXKN6PcFP5L1eGp4
0001:00005400* __ZTSN6Xapian18UnimplementedErrorE$w$PcXKN6PcFP5L1eGp4
0001:00005444* __ZTIN6Xapian10LogicErrorE$w$PcXKN6PcFP5L1eGp4
0001:000053e0  __ZTSN6Xapian20DatabaseOpeningErrorE$w$PcXKN6PcFP5L1eGp4
0001:00005450  __ZTIN6Xapian13DatabaseErrorE$w$PcXKN6PcFP5L1eGp4
0001:000053a0* __ZTSN6Xapian21InvalidOperationErrorE$w$PcXKN6PcFP5L1eGp4
0001:0000536c* __ZTSN6Xapian8Internal10RefCntBaseE$w$PcXKN6PcFP5L1eGp4
0001:00005475* __ZTSN6Xapian10LogicErrorE$w$PcXKN6PcFP5L1eGp4
0001:00005498* __ZTIN6Xapian5ErrorE$w$PcXKN6PcFP5L1eGp4
0001:0000545c  __ZTSN6Xapian13DatabaseErrorE$w$PcXKN6PcFP5L1eGp4
0001:0000548c* __ZTIN6Xapian12RuntimeErrorE$w$PcXKN6PcFP5L1eGp4
0001:000054b0* __ZTSN6Xapian12RuntimeErrorE$w$PcXKN6PcFP5L1eGp4
0001:000054a0* __ZTSN6Xapian5ErrorE$w$PcXKN6PcFP5L1eGp4
0002:00022620* __ZN16__Atomicity_lockILi0EE17_S_atomicity_lockE$w$PcXKN6PcFP5L1eGp4
Module: F:\rd\dse\xapian-core-1.0.2\.libs\xapian.a(api\omenquire.cc)
0001:000058fe* __ZN6Xapian12MatchDeciderD1Ev
0001:0000590c* __ZN6Xapian12MatchDeciderD0Ev
0001:000058f0* __ZN6Xapian12MatchDeciderD2Ev
0001:0000591e* __ZN6Xapian4RSetC2Ev
0001:0000599c  __ZN6Xapian4RSetC1Ev
0001:00005a1a* __ZN6Xapian4RSetC2ERKS0_
0001:00005a30  __ZN6Xapian4RSetC1ERKS0_
0001:00005a46  __ZN6Xapian4RSetaSERKS0_
0001:00005a58* __ZN6Xapian4RSetD2Ev
0001:00005af8  __ZN6Xapian4RSetD1Ev
0001:00005b98  __ZNK6Xapian4RSet4sizeEv
0001:00005ba8  __ZNK6Xapian4RSet5emptyEv
0001:00005bc0  __ZN6Xapian4RSet12add_documentEj
0001:00005bec* __ZN6Xapian4RSet15remove_documentEj
0001:00005c66* __ZNK6Xapian4RSet8containsEj
0001:00005cb0* __ZNK6Xapian4RSet15get_descriptionEv
0001:00005e90* __ZNK6Xapian4RSet8Internal15get_descriptionEv
0001:00006196* __ZNK6Xapian8Internal8MSetItem15get_descriptionEv
0001:0000687e* __ZN6Xapian4MSetC2Ev
0001:000068c8  __ZN6Xapian4MSetC1Ev
0001:00006912* __ZN6Xapian4MSetC2EPNS0_8InternalE
0001:00006926  __ZN6Xapian4MSetC1EPNS0_8InternalE
0001:0000693a* __ZN6Xapian4MSetD2Ev
0001:00006ba6  __ZN6Xapian4MSetD1Ev
0001:00006e12* __ZN6Xapian4MSetC2ERKS0_
0001:00006e28* __ZN6Xapian4MSetC1ERKS0_
0001:00006e3e  __ZN6Xapian4MSetaSERKS0_
0001:00006e50* __ZNK6Xapian4MSet5fetchERKNS_12MSetIteratorES3_
0001:00007f6e* __ZNK6Xapian4MSet8Internal11fetch_itemsEjj
0001:00006e7a* __ZNK6Xapian4MSet5fetchERKNS_12MSetIteratorE
0001:00006ea0* __ZNK6Xapian4MSet5fetchEv
0001:00006ede* __ZNK6Xapian4MSet18convert_to_percentEd
0001:00007ac8* __ZNK6Xapian4MSet8Internal27convert_to_percent_internalEd
0001:00006ef0* __ZNK6Xapian4MSet18convert_to_percentERKNS_12MSetIteratorE
0001:0000a90e* __ZNK6Xapian12MSetIterator10get_weightEv
0001:00007046* __ZNK6Xapian4MSet12get_termfreqERKSs
0001:000073bc* __ZNK6Xapian4MSet14get_termweightERKSs
0001:00007720  __ZNK6Xapian4MSet13get_firstitemEv
0001:0000772e* __ZNK6Xapian4MSet23get_matches_lower_boundEv
0001:0000773c  __ZNK6Xapian4MSet21get_matches_estimatedEv
0001:0000774a* __ZNK6Xapian4MSet23get_matches_upper_boundEv
0001:00007758* __ZNK6Xapian4MSet16get_max_possibleEv
0001:00007766* __ZNK6Xapian4MSet16get_max_attainedEv
0001:00007774* __ZNK6Xapian4MSet4sizeEv
0001:0000778e* __ZNK6Xapian4MSet5emptyEv
0001:000077a4* __ZN6Xapian4MSet4swapERS0_
0001:00007804  __ZNK6Xapian4MSet5beginEv
0001:00007834  __ZNK6Xapian4MSet3endEv
0001:00007870* __ZNK6Xapian4MSetixEj
0001:0000789e* __ZNK6Xapian4MSet4backEv
0001:000078ec* __ZNK6Xapian4MSet15get_descriptionEv
0001:00008306* __ZNK6Xapian4MSet8Internal15get_descriptionEv
0001:00007b8e* __ZNK6Xapian4MSet8Internal16get_doc_by_indexEj
0001:000097a0* __ZNK6Xapian4MSet8Internal9read_docsEv
0001:0000d4f8* __ZNK6Xapian7Enquire8Internal11request_docERKNS_8Internal8MSetItemE
0001:0000d578* __ZNK6Xapian7Enquire8Internal8read_docERKNS_8Internal8MSetItemE
0001:00009968* __ZNK6Xapian8Internal8ESetItem15get_descriptionEv
0001:00009cfc* __ZN6Xapian4ESetC2Ev
0001:00009d3c  __ZN6Xapian4ESetC1Ev
0001:00009d7c* __ZN6Xapian4ESetD2Ev
0001:00009e38  __ZN6Xapian4ESetD1Ev
0001:00009ef4* __ZN6Xapian4ESetC2ERKS0_
0001:00009f0a* __ZN6Xapian4ESetC1ERKS0_
0001:00009f20  __ZN6Xapian4ESetaSERKS0_
0001:00009f32* __ZNK6Xapian4ESet10get_eboundEv
0001:00009f40* __ZNK6Xapian4ESet4sizeEv
0001:00009f5a* __ZNK6Xapian4ESet5emptyEv
0001:00009f70* __ZN6Xapian4ESet4swapERS0_
0001:00009fd0  __ZNK6Xapian4ESet5beginEv
0001:0000a000  __ZNK6Xapian4ESet3endEv
0001:0000a03c* __ZNK6Xapian4ESetixEj
0001:0000a06a* __ZNK6Xapian4ESet4backEv
0001:0000a0b8* __ZNK6Xapian4ESet15get_descriptionEv
0001:0000a2b4* __ZNK6Xapian4ESet8Internal15get_descriptionEv
0001:0000a69e  __ZNK6Xapian12ESetIteratordeEv
0001:0000a6b8  __ZNK6Xapian12ESetIterator10get_weightEv
0001:0000a6e6* __ZNK6Xapian12ESetIterator15get_descriptionEv
0001:0000a8c2  __ZNK6Xapian12MSetIteratordeEv
0001:0000a8dc  __ZNK6Xapian12MSetIterator12get_documentEv
0001:0000a926* __ZNK6Xapian12MSetIterator16get_collapse_keyEv
0001:0000a95e* __ZNK6Xapian12MSetIterator18get_collapse_countEv
0001:0000a978  __ZNK6Xapian12MSetIterator11get_percentEv
0001:0000a9b8* __ZNK6Xapian12MSetIterator15get_descriptionEv
0001:0000abd8* __ZN6Xapian7Enquire8InternalC2ERKNS_8DatabaseEPNS_12ErrorHandlerE
0001:0000af88* __ZN6Xapian7Enquire8InternalC1ERKNS_8DatabaseEPNS_12ErrorHandlerE
0001:0000b338* __ZN6Xapian7Enquire8InternalD2Ev
0001:0000b448  __ZN6Xapian7Enquire8InternalD1Ev
0001:0000b558* __ZN6Xapian7Enquire8Internal9set_queryERKNS_5QueryEj
0001:0000b598* __ZN6Xapian7Enquire8Internal9get_queryEv
0001:0000b5a8* __ZNK6Xapian7Enquire8Internal8get_msetEjjjPKNS_4RSetEPKNS_12MatchDeciderES7_
0001:0000bf08* __ZNK6Xapian7Enquire8Internal8get_esetEjRKNS_4RSetEidPKNS_13ExpandDeciderE
0001:0000c60c* __ZNK6Xapian7Enquire8Internal18get_matching_termsEj
0001:0000d376* __ZNK6Xapian7Enquire8Internal18get_matching_termsERKNS_12MSetIteratorE
0001:0000d3ae* __ZNK6Xapian7Enquire8Internal15get_descriptionEv
0001:0000d60c* __ZN6Xapian7Enquire8Internal22register_match_deciderERKSsPKNS_12MatchDeciderE
0001:0000d7ec* __ZN6Xapian7EnquireC2ERKNS_8DatabaseEPNS_12ErrorHandlerE
0001:0000d844  __ZN6Xapian7EnquireC1ERKNS_8DatabaseEPNS_12ErrorHandlerE
0001:0000d89c* __ZN6Xapian7EnquireD2Ev
0001:0000d8d8  __ZN6Xapian7EnquireD1Ev
0001:0000d914  __ZN6Xapian7Enquire9set_queryERKNS_5QueryEj
0001:0000d956* __ZNK6Xapian7Enquire9get_queryEv
0001:0000d964* __ZN6Xapian7Enquire20set_weighting_schemeERKNS_6WeightE
0001:0000d9a4* __ZN6Xapian7Enquire16set_collapse_keyEj
0001:0000d9b4* __ZN6Xapian7Enquire15set_docid_orderENS0_11docid_orderE
0001:0000d9c4* __ZN6Xapian7Enquire10set_cutoffEid
0001:0000d9da* __ZN6Xapian7Enquire21set_sort_by_relevanceEv
0001:0000d9ec* __ZN6Xapian7Enquire17set_sort_by_valueEjb
0001:0000da0a* __ZN6Xapian7Enquire32set_sort_by_value_then_relevanceEjb
0001:0000da28* __ZN6Xapian7Enquire32set_sort_by_relevance_then_valueEjb
0001:0000da46  __ZNK6Xapian7Enquire8get_msetEjjjPKNS_4RSetEPKNS_12MatchDeciderE
0001:0000da9a* __ZNK6Xapian7Enquire8get_msetEjjjPKNS_4RSetEPKNS_12MatchDeciderES6_
0001:0000db32  __ZNK6Xapian7Enquire8get_esetEjRKNS_4RSetEidPKNS_13ExpandDeciderE
0001:0000dbc2* __ZNK6Xapian7Enquire24get_matching_terms_beginERKNS_12MSetIteratorE
0001:0000dc44* __ZNK6Xapian7Enquire24get_matching_terms_beginEj
0001:0000dcb8* __ZN6Xapian7Enquire22register_match_deciderERKSsPKNS_12MatchDeciderE
0001:0000dcda* __ZNK6Xapian7Enquire15get_descriptionEv
0001:000054e0  __ZTVN6Xapian12MatchDeciderE$w$fSP7nwKcFP5I0Sws3
0001:0000fb50  __ZTIN6Xapian12MatchDeciderE$w$fSP7nwKcFP5I0Sws3
0001:000054f8  __ZTV13StatsGatherer$w$fSP7nwKcFP5I0Sws3
0001:0000fb58  __ZTI13StatsGatherer$w$fSP7nwKcFP5I0Sws3
0001:00005510  __ZN13StatsGathererD1Ev$w$fSP7nwKcFP5I0Sws3
0001:000056f6  __ZN13StatsGathererD0Ev$w$fSP7nwKcFP5I0Sws3
0001:000058e2  __ZN13StatsGatherer16set_global_statsEj$w$fSP7nwKcFP5I0Sws3
0001:0000df90  __ZNSt8_Rb_treeISsSt4pairIKSsjESt10_Select1stIS2_ESt4lessISsESaIS2_EE8_M_eraseEPSt13_Rb_tree_nodeIS2_E$w$fSP7nwKcFP5I0Sws3
0001:0000e38c  __ZNSt8_Rb_treeIPN6Xapian6Weight8InternalES3_St9_IdentityIS3_ESt4lessIS3_ESaIS3_EE8_M_eraseEPSt13_Rb_tree_nodeIS3_E$w$fSP7nwKcFP5I0Sws3
0001:0001121e  __ZN6Xapian8Internal9RefCntPtrINS_4RSet8InternalEEaSEPS3_$w$fSP7nwKcFP5I0Sws3
0001:0000deb6  __ZNSt8_Rb_treeIjjSt9_IdentityIjESt4lessIjESaIjEE8_M_eraseEPSt13_Rb_tree_nodeIjE$w$fSP7nwKcFP5I0Sws3
0001:000112fa  __ZNSt8_Rb_treeIjjSt9_IdentityIjESt4lessIjESaIjEE13insert_uniqueERKj$w$fSP7nwKcFP5I0Sws3
0001:000113c6  __ZNSt8_Rb_treeIjjSt9_IdentityIjESt4lessIjESaIjEE4findERKj$w$fSP7nwKcFP5I0Sws3
0001:0000ff1a* __ZSt28_Rb_tree_rebalance_for_erasePSt18_Rb_tree_node_baseRS0_S1_S1_$w$fSP7nwKcFP5I0Sws3
0001:00006f16* __ZStplIcSt11char_traitsIcESaIcEESbIT_T0_T1_EPKS3_RKS6_$w$fSP7nwKcFP5I0Sws3
0001:0000fe82* __ZNSt22_Rb_tree_base_iterator12_M_incrementEv$w$fSP7nwKcFP5I0Sws3
0001:0000e418* __ZStplIcSt11char_traitsIcESaIcEESbIT_T0_T1_ERKS6_S8_$w$fSP7nwKcFP5I0Sws3
0001:00010dd0  __ZN6Xapian4MSet8InternalC1Ev$w$fSP7nwKcFP5I0Sws3
0001:0000df48  __ZNSt8_Rb_treeISsSt4pairIKSsN6Xapian4MSet8Internal17TermFreqAndWeightEESt10_Select1stIS6_ESt4lessISsESaIS6_EE5clearEv$w$fSP7nwKcFP5I0Sws3
0001:00010d90  __ZN6Xapian8Internal9RefCntPtrIKNS_7Enquire8InternalEED1Ev$w$fSP7nwKcFP5I0Sws3
0001:0000defa  __ZNSt8_Rb_treeIjSt4pairIKjN6Xapian8DocumentEESt10_Select1stIS4_ESt4lessIjESaIS4_EE8_M_eraseEPSt13_Rb_tree_nodeIS4_E$w$fSP7nwKcFP5I0Sws3
0001:0001169a  __ZN6Xapian8Internal9RefCntPtrINS_4MSet8InternalEEaSEPS3_$w$fSP7nwKcFP5I0Sws3
0001:00011926  __ZNSt8_Rb_treeISsSt4pairIKSsN6Xapian4MSet8Internal17TermFreqAndWeightEESt10_Select1stIS6_ESt4lessISsESaIS6_EE4findERS1_$w$fSP7nwKcFP5I0Sws3
0001:0000fc06* __ZN6Xapian20InvalidArgumentErrorD1Ev$w$fSP7nwKcFP5I0Sws3
0001:00012a7c* __ZTIN6Xapian20InvalidArgumentErrorE$w$fSP7nwKcFP5I0Sws3
0001:0001141c  __ZN6Xapian8Internal9RefCntPtrINS_4MSet8InternalEED1Ev$w$fSP7nwKcFP5I0Sws3
0001:00011a32  __ZNSt8_Rb_treeIjSt4pairIKjN6Xapian8DocumentEESt10_Select1stIS4_ESt4lessIjESaIS4_EE4findERS1_$w$fSP7nwKcFP5I0Sws3
0001:0000fdae  __ZN6Xapian10RangeErrorD1Ev$w$fSP7nwKcFP5I0Sws3
0001:00012a88  __ZTIN6Xapian10RangeErrorE$w$fSP7nwKcFP5I0Sws3
0001:0000fcda* __ZN6Xapian21InvalidOperationErrorD1Ev$w$fSP7nwKcFP5I0Sws3
0001:00012a70* __ZTIN6Xapian21InvalidOperationErrorE$w$fSP7nwKcFP5I0Sws3
0001:00011a88  __ZNSt8_Rb_treeIjSt4pairIKjN6Xapian8DocumentEESt10_Select1stIS4_ESt4lessIjESaIS4_EE11lower_boundERS1_$w$fSP7nwKcFP5I0Sws3
0001:0000e498  __ZNSt8_Rb_treeIjSt4pairIKjN6Xapian8DocumentEESt10_Select1stIS4_ESt4lessIjESaIS4_EE13insert_uniqueESt17_Rb_tree_iteratorIS4_RS4_PS4_ERKS4_$w$fSP7nwKcFP5I0Sws3
0001:00011b78  __ZN6Xapian8Internal9RefCntPtrINS_4ESet8InternalEEaSEPS3_$w$fSP7nwKcFP5I0Sws3
0001:00011abc  __ZN6Xapian8Internal9RefCntPtrINS_4ESet8InternalEED1Ev$w$fSP7nwKcFP5I0Sws3
0001:0000e570  __ZNSt8_Rb_treeISsSt4pairIKSsPKN6Xapian12MatchDeciderEESt10_Select1stIS6_ESt4lessISsESaIS6_EE8_M_eraseEPSt13_Rb_tree_nodeIS6_E$w$fSP7nwKcFP5I0Sws3
0001:000111fa  __ZNSt14__simple_allocISt13_Rb_tree_nodeISt4pairIKSsjEESt24__default_alloc_templateILb1ELi0EEE8allocateEj$w$fSP7nwKcFP5I0Sws3
0001:000111b4  __ZNSt8_Rb_treeISsSt4pairIKSsjESt10_Select1stIS2_ESt4lessISsESaIS2_EEC1ERKS6_RKS7_$w$fSP7nwKcFP5I0Sws3
0001:0000e5fa  __ZN6Xapian8Internal9RefCntPtrIKNS_7Enquire8InternalEEaSEPS4_$w$fSP7nwKcFP5I0Sws3
0001:0000e3d0  __ZNSt8_Rb_treeIPN6Xapian6Weight8InternalES3_St9_IdentityIS3_ESt4lessIS3_ESaIS3_EE5clearEv$w$fSP7nwKcFP5I0Sws3
0001:00010fe2  __ZNSt8_Rb_treeISsSt4pairIKSsjESt10_Select1stIS2_ESt4lessISsESaIS2_EED1Ev$w$fSP7nwKcFP5I0Sws3
0001:0000e062  __ZNSt8_Rb_treeIjjSt9_IdentityIjESt4lessIjESaIjEEC1ERKS5_$w$fSP7nwKcFP5I0Sws3
0001:0000f7ee  __ZNSt8_Rb_treeISsSsSt9_IdentityISsESt4lessISsESaISsEE13insert_uniqueIN6Xapian12TermIteratorEEEvT_S9_$w$fSP7nwKcFP5I0Sws3
0001:0000e01a  __ZNSt8_Rb_treeISsSt4pairIKSsjESt10_Select1stIS2_ESt4lessISsESaIS2_EE5clearEv$w$fSP7nwKcFP5I0Sws3
0001:0000e644  __ZNSt8_Rb_treeISsSsSt9_IdentityISsESt4lessISsESaISsEE5clearEv$w$fSP7nwKcFP5I0Sws3
0001:0000e68c  __ZNSt8_Rb_treeISsSt4pairIKSsjESt10_Select1stIS2_ESt4lessISsESaIS2_EE4findERS1_$w$fSP7nwKcFP5I0Sws3
0001:00011032  __ZNSt8_Rb_treeISsSt4pairIKSsjESt10_Select1stIS2_ESt4lessISsESaIS2_EE11lower_boundERS1_$w$fSP7nwKcFP5I0Sws3
0001:0000e134  __ZNSt8_Rb_treeISsSt4pairIKSsjESt10_Select1stIS2_ESt4lessISsESaIS2_EE13insert_uniqueESt17_Rb_tree_iteratorIS2_RS2_PS2_ERKS2_$w$fSP7nwKcFP5I0Sws3
0001:0000e798  __ZSt16__introsort_loopIN9__gnu_cxx17__normal_iteratorIPSsSt6vectorISsSaISsEEEEiN6Xapian15ByQueryIndexCmpEEvT_S9_T0_T1_$w$fSP7nwKcFP5I0Sws3
0001:0000f4ca  __ZSt22__final_insertion_sortIN9__gnu_cxx17__normal_iteratorIPSsSt6vectorISsSaISsEEEEN6Xapian15ByQueryIndexCmpEEvT_S9_T0_$w$fSP7nwKcFP5I0Sws3
0001:0000fba0  __ZTV14VectorTermList$w$fSP7nwKcFP5I0Sws3
0001:0000f74a  __ZSt24__uninitialized_copy_auxIN9__gnu_cxx17__normal_iteratorIPKSsSt6vectorISsSaISsEEEEPSsET0_T_SA_S9_12__false_type$w$fSP7nwKcFP5I0Sws3
0001:0000efd6  __ZNSt6vectorISsSaISsEE13_M_insert_auxEN9__gnu_cxx17__normal_iteratorIPSsS1_EERKSs$w$fSP7nwKcFP5I0Sws3
0001:00012a94* __ZTIN6Xapian5ErrorE$w$fSP7nwKcFP5I0Sws3
0001:00011c42  __ZNSt8_Rb_treeISsSt4pairIKSsPKN6Xapian12MatchDeciderEESt10_Select1stIS6_ESt4lessISsESaIS6_EE11lower_boundERS1_$w$fSP7nwKcFP5I0Sws3
0001:0000e902  __ZNSt8_Rb_treeISsSt4pairIKSsPKN6Xapian12MatchDeciderEESt10_Select1stIS6_ESt4lessISsESaIS6_EE13insert_uniqueESt17_Rb_tree_iteratorIS6_RS6_PS6_ERKS6_$w$fSP7nwKcFP5I0Sws3
0001:0000eb6e  __ZNSt8_Rb_treeISsSt4pairIKSsPKN6Xapian12MatchDeciderEESt10_Select1stIS6_ESt4lessISsESaIS6_EE5eraseERS1_$w$fSP7nwKcFP5I0Sws3
0001:00011cd4  __ZNSt8_Rb_treeISsSt4pairIKSsN6Xapian4MSet8Internal17TermFreqAndWeightEESt10_Select1stIS6_ESt4lessISsESaIS6_EE8_M_eraseEPSt13_Rb_tree_nodeIS6_E$w$fSP7nwKcFP5I0Sws3
0001:0000ec12  __ZNSt8_Rb_treeIjjSt9_IdentityIjESt4lessIjESaIjEE7_M_copyEPSt13_Rb_tree_nodeIjES8_$w$fSP7nwKcFP5I0Sws3
0001:0000feca* __ZNSt22_Rb_tree_base_iterator12_M_decrementEv$w$fSP7nwKcFP5I0Sws3
0001:00011d5e  __ZNSt8_Rb_treeISsSt4pairIKSsjESt10_Select1stIS2_ESt4lessISsESaIS2_EE9_M_insertEPSt18_Rb_tree_node_baseSA_RKS2_$w$fSP7nwKcFP5I0Sws3
0001:0000ed10  __ZNSt8_Rb_treeISsSt4pairIKSsjESt10_Select1stIS2_ESt4lessISsESaIS2_EE13insert_uniqueERKS2_$w$fSP7nwKcFP5I0Sws3
0001:00011e72  __ZNSt8_Rb_treeIjSt4pairIKjN6Xapian8DocumentEESt10_Select1stIS4_ESt4lessIjESaIS4_EE9_M_insertEPSt18_Rb_tree_node_baseSC_RKS4_$w$fSP7nwKcFP5I0Sws3
0001:0000ee80  __ZNSt8_Rb_treeIjSt4pairIKjN6Xapian8DocumentEESt10_Select1stIS4_ESt4lessIjESaIS4_EE13insert_uniqueERKS4_$w$fSP7nwKcFP5I0Sws3
0001:0000ef4c  __ZNSt8_Rb_treeISsSsSt9_IdentityISsESt4lessISsESaISsEE8_M_eraseEPSt13_Rb_tree_nodeISsE$w$fSP7nwKcFP5I0Sws3
0001:0000f29c  __ZSt8__medianISsN6Xapian15ByQueryIndexCmpEERKT_S4_S4_S4_T0_$w$fSP7nwKcFP5I0Sws3
0001:0000f390  __ZSt21__unguarded_partitionIN9__gnu_cxx17__normal_iteratorIPSsSt6vectorISsSaISsEEEESsN6Xapian15ByQueryIndexCmpEET_S9_S9_T0_T1_$w$fSP7nwKcFP5I0Sws3
0001:00011f1c  __ZSt12partial_sortIN9__gnu_cxx17__normal_iteratorIPSsSt6vectorISsSaISsEEEEN6Xapian15ByQueryIndexCmpEEvT_S9_S9_T0_$w$fSP7nwKcFP5I0Sws3
0001:00012102  __ZNSt8_Rb_treeISsSt4pairIKSsPKN6Xapian12MatchDeciderEESt10_Select1stIS6_ESt4lessISsESaIS6_EE9_M_insertEPSt18_Rb_tree_node_baseSE_RKS6_$w$fSP7nwKcFP5I0Sws3
0001:0000f5da  __ZNSt8_Rb_treeISsSt4pairIKSsPKN6Xapian12MatchDeciderEESt10_Select1stIS6_ESt4lessISsESaIS6_EE13insert_uniqueERKS6_$w$fSP7nwKcFP5I0Sws3
0001:00012216  __ZNSt8_Rb_treeISsSt4pairIKSsPKN6Xapian12MatchDeciderEESt10_Select1stIS6_ESt4lessISsESaIS6_EE11upper_boundERS1_$w$fSP7nwKcFP5I0Sws3
0001:000122a4  __ZNSt8_Rb_treeISsSt4pairIKSsPKN6Xapian12MatchDeciderEESt10_Select1stIS6_ESt4lessISsESaIS6_EE5eraseESt17_Rb_tree_iteratorIS6_RS6_PS6_ESG_$w$fSP7nwKcFP5I0Sws3
0001:000112d2  __ZNSt8_Rb_treeIjjSt9_IdentityIjESt4lessIjESaIjEE14_M_create_nodeERKj$w$fSP7nwKcFP5I0Sws3
0001:0000f8d8  __ZSt24__uninitialized_copy_auxIN9__gnu_cxx17__normal_iteratorIPSsSt6vectorISsSaISsEEEES6_ET0_T_S8_S7_12__false_type$w$fSP7nwKcFP5I0Sws3
0001:000110c4  __ZNKSt8_Rb_treeISsSt4pairIKSsjESt10_Select1stIS2_ESt4lessISsESaIS2_EE4findERS1_$w$fSP7nwKcFP5I0Sws3
0001:000126c0  __ZSt16__insertion_sortIN9__gnu_cxx17__normal_iteratorIPSsSt6vectorISsSaISsEEEEN6Xapian15ByQueryIndexCmpEEvT_S9_T0_$w$fSP7nwKcFP5I0Sws3
0001:0000f97e  __ZSt25__unguarded_linear_insertIN9__gnu_cxx17__normal_iteratorIPSsSt6vectorISsSaISsEEEESsN6Xapian15ByQueryIndexCmpEEvT_T0_T1_$w$fSP7nwKcFP5I0Sws3
0001:0000f9e0  __ZNSt8_Rb_treeISsSsSt9_IdentityISsESt4lessISsESaISsEE13insert_uniqueERKSs$w$fSP7nwKcFP5I0Sws3
0001:00012950  __ZNSt8_Rb_treeISsSsSt9_IdentityISsESt4lessISsESaISsEE9_M_insertEPSt18_Rb_tree_node_baseS7_RKSs$w$fSP7nwKcFP5I0Sws3
0001:0000fb70  __ZTSN6Xapian12MatchDeciderE$w$fSP7nwKcFP5I0Sws3
0001:0000fb60  __ZTS13StatsGatherer$w$fSP7nwKcFP5I0Sws3
0001:0000fb88* __ZNSt15basic_streambufIcSt11char_traitsIcEE13_S_pback_sizeE$w$fSP7nwKcFP5I0Sws3
0001:00012a64  __ZTI14VectorTermList$w$fSP7nwKcFP5I0Sws3
0001:00010200  __ZN14VectorTermListD1Ev$w$fSP7nwKcFP5I0Sws3
0001:000102b4  __ZN14VectorTermListD0Ev$w$fSP7nwKcFP5I0Sws3
0001:00010374  __ZNK14VectorTermList15get_approx_sizeEv$w$fSP7nwKcFP5I0Sws3
0001:00010386  __ZNK14VectorTermList16accumulate_statsERN6Xapian8Internal11ExpandStatsE$w$fSP7nwKcFP5I0Sws3
0001:00010392  __ZNK14VectorTermList12get_termnameEv$w$fSP7nwKcFP5I0Sws3
0001:000103c2  __ZNK14VectorTermList7get_wdfEv$w$fSP7nwKcFP5I0Sws3
0001:000103fa  __ZNK14VectorTermList12get_termfreqEv$w$fSP7nwKcFP5I0Sws3
0001:0001062a  __ZN14VectorTermList4nextEv$w$fSP7nwKcFP5I0Sws3
0001:0001066c  __ZN14VectorTermList7skip_toERKSs$w$fSP7nwKcFP5I0Sws3
0001:0001089c  __ZNK14VectorTermList6at_endEv$w$fSP7nwKcFP5I0Sws3
0001:00010b60  __ZNK14VectorTermList18positionlist_countEv$w$fSP7nwKcFP5I0Sws3
0001:000108fa  __ZNK14VectorTermList18positionlist_beginEv$w$fSP7nwKcFP5I0Sws3
0001:00012b74* __ZSt21_Rb_tree_rotate_rightPSt18_Rb_tree_node_baseRS0_$w$fSP7nwKcFP5I0Sws3
0001:00012b32* __ZSt20_Rb_tree_rotate_leftPSt18_Rb_tree_node_baseRS0_$w$fSP7nwKcFP5I0Sws3
0001:00012cbe  __ZNSt8_Rb_treeIjjSt9_IdentityIjESt4lessIjESaIjEE9_M_insertEPSt18_Rb_tree_node_baseS7_RKj$w$fSP7nwKcFP5I0Sws3
0001:00012d68  __ZNSt8_Rb_treeISsSt4pairIKSsjESt10_Select1stIS2_ESt4lessISsESaIS2_EE14_M_create_nodeERKS2_$w$fSP7nwKcFP5I0Sws3
0001:00012bb6* __ZSt18_Rb_tree_rebalancePSt18_Rb_tree_node_baseRS0_$w$fSP7nwKcFP5I0Sws3
0001:00012ddc  __ZNSt8_Rb_treeIjSt4pairIKjN6Xapian8DocumentEESt10_Select1stIS4_ESt4lessIjESaIS4_EE14_M_create_nodeERKS4_$w$fSP7nwKcFP5I0Sws3
0001:00012e4e  __ZSt9make_heapIN9__gnu_cxx17__normal_iteratorIPSsSt6vectorISsSaISsEEEEN6Xapian15ByQueryIndexCmpEEvT_S9_T0_$w$fSP7nwKcFP5I0Sws3
0001:0001251e  __ZSt9sort_heapIN9__gnu_cxx17__normal_iteratorIPSsSt6vectorISsSaISsEEEEN6Xapian15ByQueryIndexCmpEEvT_S9_T0_$w$fSP7nwKcFP5I0Sws3
0001:000123aa  __ZSt13__adjust_heapIN9__gnu_cxx17__normal_iteratorIPSsSt6vectorISsSaISsEEEEiSsN6Xapian15ByQueryIndexCmpEEvT_T0_SA_T1_T2_$w$fSP7nwKcFP5I0Sws3
0001:00012f46  __ZNSt8_Rb_treeISsSt4pairIKSsPKN6Xapian12MatchDeciderEESt10_Select1stIS6_ESt4lessISsESaIS6_EE14_M_create_nodeERKS6_$w$fSP7nwKcFP5I0Sws3
0001:000128c8  __ZSt11__push_heapIN9__gnu_cxx17__normal_iteratorIPSsSt6vectorISsSaISsEEEEiSsN6Xapian15ByQueryIndexCmpEEvT_T0_SA_T1_T2_$w$fSP7nwKcFP5I0Sws3
0001:00012fba  __ZNSt8_Rb_treeISsSsSt9_IdentityISsESt4lessISsESaISsEE14_M_create_nodeERKSs$w$fSP7nwKcFP5I0Sws3
0001:00012b21  __ZTS14VectorTermList$w$fSP7nwKcFP5I0Sws3
0001:00013040* __ZTIN6Xapian12TermIterator8InternalE$w$fSP7nwKcFP5I0Sws3
0001:00012b00* __ZTSN6Xapian21InvalidOperationErrorE$w$fSP7nwKcFP5I0Sws3
0001:0001306c* __ZTIN6Xapian10LogicErrorE$w$fSP7nwKcFP5I0Sws3
0001:00012ae0* __ZTSN6Xapian20InvalidArgumentErrorE$w$fSP7nwKcFP5I0Sws3
0001:00012aac  __ZTSN6Xapian10RangeErrorE$w$fSP7nwKcFP5I0Sws3
0001:00013060  __ZTIN6Xapian12RuntimeErrorE$w$fSP7nwKcFP5I0Sws3
0001:00012a9c* __ZTSN6Xapian5ErrorE$w$fSP7nwKcFP5I0Sws3
0001:000130c0* __ZTSN6Xapian12TermIterator8InternalE$w$fSP7nwKcFP5I0Sws3
0001:000130e4* __ZTIN6Xapian8Internal10RefCntBaseE$w$fSP7nwKcFP5I0Sws3
0001:0001308e  __ZTSN6Xapian12RuntimeErrorE$w$fSP7nwKcFP5I0Sws3
0001:00013078* __ZTSN6Xapian10LogicErrorE$w$fSP7nwKcFP5I0Sws3
0001:000130ec* __ZTSN6Xapian8Internal10RefCntBaseE$w$fSP7nwKcFP5I0Sws3
0002:00022630* __ZN16__Atomicity_lockILi0EE17_S_atomicity_lockE$w$fSP7nwKcFP5I0Sws3
Module: F:\rd\dse\xapian-core-1.0.2\.libs\xapian.a(queryparser\queryparser.cc)
0001:00013456* __ZN6Xapian19ValueRangeProcessorD1Ev
0001:00013464* __ZN6Xapian19ValueRangeProcessorD0Ev
0001:00013360* __ZNK6Xapian13SimpleStopper15get_descriptionEv
0001:00013312* __ZNK6Xapian7Stopper15get_descriptionEv
0001:00013448* __ZN6Xapian19ValueRangeProcessorD2Ev
0001:00013476* __ZN6Xapian11QueryParserC2ERKS0_
0001:0001348c* __ZN6Xapian11QueryParserC1ERKS0_
0001:000134a2* __ZN6Xapian11QueryParseraSERKS0_
0001:000134c8* __ZN6Xapian11QueryParserC2Ev
0001:00013512  __ZN6Xapian11QueryParserC1Ev
0001:0001355c* __ZN6Xapian11QueryParserD2Ev
0001:00013768  __ZN6Xapian11QueryParserD1Ev
0001:00013974  __ZN6Xapian11QueryParser11set_stemmerERKNS_4StemE
0001:00013988  __ZN6Xapian11QueryParser21set_stemming_strategyENS0_13stem_strategyE
0001:00013998* __ZN6Xapian11QueryParser11set_stopperEPKNS_7StopperE
0001:000139a8* __ZN6Xapian11QueryParser14set_default_opENS_5Query2opE
0001:000139b8* __ZNK6Xapian11QueryParser14get_default_opEv
0001:000139c6  __ZN6Xapian11QueryParser12set_databaseERKNS_8DatabaseE
0001:00013a7a  __ZN6Xapian11QueryParser11parse_queryERKSsjS2_
0001:00013e60* __ZN6Xapian11QueryParser10add_prefixERKSsS2_
0001:000142aa* __ZN6Xapian11QueryParser18add_boolean_prefixERKSsS2_
0001:000146f4* __ZNK6Xapian11QueryParser14stoplist_beginEv
0001:0001480c* __ZNK6Xapian11QueryParser12unstem_beginERKSs
0001:00014a44* __ZN6Xapian11QueryParser23add_valuerangeprocessorEPNS_19ValueRangeProcessorE
0001:00014a82* __ZNK6Xapian11QueryParser26get_corrected_query_stringEv
0001:00014ac4* __ZNK6Xapian11QueryParser15get_descriptionEv
0001:00013120  __ZTVN6Xapian19ValueRangeProcessorE$w$JjcCeSldFP5hlT501
0001:00014f54  __ZTIN6Xapian19ValueRangeProcessorE$w$JjcCeSldFP5hlT501
0001:00013138  __ZTVN6Xapian13SimpleStopperE$w$JjcCeSldFP5hlT501
0001:00014f48  __ZTIN6Xapian13SimpleStopperE$w$JjcCeSldFP5hlT501
0001:00013188  __ZNK6Xapian13SimpleStopperclERKSs$w$JjcCeSldFP5hlT501
0001:000131ba  __ZN6Xapian13SimpleStopperD1Ev$w$JjcCeSldFP5hlT501
0001:00013256  __ZN6Xapian13SimpleStopperD0Ev$w$JjcCeSldFP5hlT501
0001:00013150  __ZTVN6Xapian7StopperE$w$JjcCeSldFP5hlT501
0001:00014f40  __ZTIN6Xapian7StopperE$w$JjcCeSldFP5hlT501
0001:00013168  __ZN6Xapian7StopperD1Ev$w$JjcCeSldFP5hlT501
0001:00013176  __ZN6Xapian7StopperD0Ev$w$JjcCeSldFP5hlT501
0001:00015094  __ZNKSt8_Rb_treeISsSsSt9_IdentityISsESt4lessISsESaISsEE4findERKSs$w$JjcCeSldFP5hlT501
0001:00014afa* __ZNSt8_Rb_treeISsSsSt9_IdentityISsESt4lessISsESaISsEE8_M_eraseEPSt13_Rb_tree_nodeISsE$w$JjcCeSldFP5hlT501
0001:00014ffc* __ZNSt22_Rb_tree_base_iterator12_M_incrementEv$w$JjcCeSldFP5hlT501
0001:00015ff0  __ZN6Xapian8Internal9RefCntPtrINS_11QueryParser8InternalEEaSEPS3_$w$JjcCeSldFP5hlT501
0001:00015184  __ZN6Xapian11QueryParser8InternalC1Ev$w$JjcCeSldFP5hlT501
0001:00014ca4  __ZNSt10_List_baseIPN6Xapian19ValueRangeProcessorESaIS2_EE7__clearEv$w$JjcCeSldFP5hlT501
0001:00014c5c  __ZNSt8_Rb_treeISsSt4pairIKSs10PrefixInfoESt10_Select1stIS3_ESt4lessISsESaIS3_EE5clearEv$w$JjcCeSldFP5hlT501
0001:00014b84  __ZNSt8_Rb_treeISsSt4pairIKSsSsESt10_Select1stIS2_ESt4lessISsESaIS2_EE8_M_eraseEPSt13_Rb_tree_nodeIS2_E$w$JjcCeSldFP5hlT501
0001:000139da  __ZNSt10_List_baseISsSaISsEE7__clearEv$w$JjcCeSldFP5hlT501
0001:00015376  __ZN6Xapian16QueryParserErrorD1Ev$w$JjcCeSldFP5hlT501
0001:000165d8  __ZTIN6Xapian16QueryParserErrorE$w$JjcCeSldFP5hlT501
0001:00014cde  __ZNSt8_Rb_treeISsSt4pairIKSs10PrefixInfoESt10_Select1stIS3_ESt4lessISsESaIS3_EE13insert_uniqueERKS3_$w$JjcCeSldFP5hlT501
0001:00014fc0* __ZTV14VectorTermList$w$JjcCeSldFP5hlT501
0001:00014e9a  __ZSt24__uninitialized_copy_auxISt14_List_iteratorISsRKSsPS1_EPSsET0_T_S7_S6_12__false_type$w$JjcCeSldFP5hlT501
0001:0001620a  __ZNSt8_Rb_treeISsSt4pairIKSsSsESt10_Select1stIS2_ESt4lessISsESaIS2_EE11lower_boundERS1_$w$JjcCeSldFP5hlT501
0001:0001629c  __ZNSt8_Rb_treeISsSt4pairIKSsSsESt10_Select1stIS2_ESt4lessISsESaIS2_EE11upper_boundERS1_$w$JjcCeSldFP5hlT501
0001:00014e4e  __ZNSt4listISsSaISsEE6insertESt14_List_iteratorISsRSsPSsERKSs$w$JjcCeSldFP5hlT501
0001:0001632a  __ZNSt4listIPN6Xapian19ValueRangeProcessorESaIS2_EE6insertESt14_List_iteratorIS2_RS2_PS2_ERKS2_$w$JjcCeSldFP5hlT501
0001:00016376  __ZNSt8_Rb_treeISsSt4pairIKSs10PrefixInfoESt10_Select1stIS3_ESt4lessISsESaIS3_EE8_M_eraseEPSt13_Rb_tree_nodeIS3_E$w$JjcCeSldFP5hlT501
0001:00015044* __ZNSt22_Rb_tree_base_iterator12_M_decrementEv$w$JjcCeSldFP5hlT501
0001:0001644e  __ZNSt8_Rb_treeISsSt4pairIKSs10PrefixInfoESt10_Select1stIS3_ESt4lessISsESaIS3_EE9_M_insertEPSt18_Rb_tree_node_baseSB_RKS3_$w$JjcCeSldFP5hlT501
0001:00016562  __ZNSt4listISsSaISsEE14_M_create_nodeERKSs$w$JjcCeSldFP5hlT501
0001:00014f94  __ZTSN6Xapian7StopperE$w$JjcCeSldFP5hlT501
0001:00014f7b  __ZTSN6Xapian13SimpleStopperE$w$JjcCeSldFP5hlT501
0001:00014f5c  __ZTSN6Xapian19ValueRangeProcessorE$w$JjcCeSldFP5hlT501
0001:00014fa8* __ZNSt15basic_streambufIcSt11char_traitsIcEE13_S_pback_sizeE$w$JjcCeSldFP5hlT501
0001:000165cc* __ZTI14VectorTermList$w$JjcCeSldFP5hlT501
0001:0001544a* __ZN14VectorTermListD1Ev$w$JjcCeSldFP5hlT501
0001:000154fe* __ZN14VectorTermListD0Ev$w$JjcCeSldFP5hlT501
0001:000155be* __ZNK14VectorTermList15get_approx_sizeEv$w$JjcCeSldFP5hlT501
0001:000155d0* __ZNK14VectorTermList16accumulate_statsERN6Xapian8Internal11ExpandStatsE$w$JjcCeSldFP5hlT501
0001:000155dc* __ZNK14VectorTermList12get_termnameEv$w$JjcCeSldFP5hlT501
0001:0001560c* __ZNK14VectorTermList7get_wdfEv$w$JjcCeSldFP5hlT501
0001:0001565a* __ZNK14VectorTermList12get_termfreqEv$w$JjcCeSldFP5hlT501
0001:0001588a* __ZN14VectorTermList4nextEv$w$JjcCeSldFP5hlT501
0001:000158cc* __ZN14VectorTermList7skip_toERKSs$w$JjcCeSldFP5hlT501
0001:00015afc* __ZNK14VectorTermList6at_endEv$w$JjcCeSldFP5hlT501
0001:00015dc0* __ZNK14VectorTermList18positionlist_countEv$w$JjcCeSldFP5hlT501
0001:00015b5a* __ZNK14VectorTermList18positionlist_beginEv$w$JjcCeSldFP5hlT501
0001:0001671a* __ZN6Xapian21InvalidOperationErrorD1Ev$w$JjcCeSldFP5hlT501
0001:00016920* __ZTIN6Xapian21InvalidOperationErrorE$w$JjcCeSldFP5hlT501
0001:000167ee  __ZNSt4listIPN6Xapian19ValueRangeProcessorESaIS2_EE14_M_create_nodeERKS2_$w$JjcCeSldFP5hlT501
0001:00016816  __ZNSt8_Rb_treeISsSt4pairIKSs10PrefixInfoESt10_Select1stIS3_ESt4lessISsESaIS3_EE14_M_create_nodeERKS3_$w$JjcCeSldFP5hlT501
0001:00016612* __ZSt18_Rb_tree_rebalancePSt18_Rb_tree_node_baseRS0_$w$JjcCeSldFP5hlT501
0001:00016600* __ZTS14VectorTermList$w$JjcCeSldFP5hlT501
0001:00016900* __ZTIN6Xapian12TermIterator8InternalE$w$JjcCeSldFP5hlT501
0001:000165e4  __ZTSN6Xapian16QueryParserErrorE$w$JjcCeSldFP5hlT501
0001:0001692c* __ZTIN6Xapian12RuntimeErrorE$w$JjcCeSldFP5hlT501
0001:000169c2* __ZSt20_Rb_tree_rotate_leftPSt18_Rb_tree_node_baseRS0_$w$JjcCeSldFP5hlT501
0001:00016a04* __ZSt21_Rb_tree_rotate_rightPSt18_Rb_tree_node_baseRS0_$w$JjcCeSldFP5hlT501
0001:000169a0* __ZTSN6Xapian12TermIterator8InternalE$w$JjcCeSldFP5hlT501
0001:00016a5c* __ZTIN6Xapian8Internal10RefCntBaseE$w$JjcCeSldFP5hlT501
0001:00016960* __ZTSN6Xapian21InvalidOperationErrorE$w$JjcCeSldFP5hlT501
0001:00016a50* __ZTIN6Xapian10LogicErrorE$w$JjcCeSldFP5hlT501
0001:00016938* __ZTSN6Xapian12RuntimeErrorE$w$JjcCeSldFP5hlT501
0001:00016a48* __ZTIN6Xapian5ErrorE$w$JjcCeSldFP5hlT501
0001:00016a99* __ZTSN6Xapian5ErrorE$w$JjcCeSldFP5hlT501
0001:00016a83* __ZTSN6Xapian10LogicErrorE$w$JjcCeSldFP5hlT501
0001:00016a64* __ZTSN6Xapian8Internal10RefCntBaseE$w$JjcCeSldFP5hlT501
0002:00022640* __ZN16__Atomicity_lockILi0EE17_S_atomicity_lockE$w$JjcCeSldFP5hlT501
Module: F:\rd\dse\xapian-core-1.0.2\.libs\xapian.a(languages\stem.cc)
0001:00016ac0* __ZN6Xapian4StemC2ERKS0_
0001:00016ad8* __ZN6Xapian4StemC1ERKS0_
0001:00016af0  __ZN6Xapian4StemaSERKS0_
0001:00016b02* __ZN6Xapian4StemC2Ev
0001:00016b10  __ZN6Xapian4StemC1Ev
0001:00016c1c* __ZN6Xapian4StemC2ERKSs
0001:00017722  __ZN6Xapian4StemC1ERKSs
0001:00018226* __ZN6Xapian4StemD2Ev
0001:00018256  __ZN6Xapian4StemD1Ev
0001:00018286  __ZNK6Xapian4StemclERKSs
0001:000182e8* __ZNK6Xapian4Stem15get_descriptionEv
0001:0001847e* __ZN6Xapian4Stem23get_available_languagesEv
0001:0001867e  __ZN6Xapian8Internal9RefCntPtrINS_4Stem8InternalEEaSEPS3_$w$fgK2VebdFP5JQEo40
0001:000184b4* __ZStplIcSt11char_traitsIcESaIcEESbIT_T0_T1_EPKS3_RKS6_$w$fgK2VebdFP5JQEo40
0001:000185aa* __ZN6Xapian20InvalidArgumentErrorD1Ev$w$fgK2VebdFP5JQEo40
0001:000186bc* __ZTIN6Xapian20InvalidArgumentErrorE$w$fgK2VebdFP5JQEo40
0001:000186e0* __ZTSN6Xapian20InvalidArgumentErrorE$w$fgK2VebdFP5JQEo40
0001:00018700* __ZTIN6Xapian10LogicErrorE$w$fgK2VebdFP5JQEo40
0001:0001870c* __ZTSN6Xapian10LogicErrorE$w$fgK2VebdFP5JQEo40
0001:00018724* __ZTIN6Xapian5ErrorE$w$fgK2VebdFP5JQEo40
0001:0001872c* __ZTSN6Xapian5ErrorE$w$fgK2VebdFP5JQEo40
0002:00022650* __ZN16__Atomicity_lockILi0EE17_S_atomicity_lockE$w$fgK2VebdFP5JQEo40
Module: F:\rd\dse\xapian-core-1.0.2\.libs\xapian.a(api\omquery.cc)
0001:00019274  __ZN6Xapian5QueryD1Ev
0001:0001922a  __ZN6Xapian5QueryC1Ev
0001:00018cf6  __ZN6Xapian5QueryC1ERKSsjj
0001:0001887e  __ZN6Xapian5Query12add_subqueryERKS0_
0001:000188d0* __ZN6Xapian5Query12add_subqueryEPKS0_
0001:00018b30* __ZN6Xapian5Query12add_subqueryERKSs
0001:00018b94  __ZN6Xapian5Query18start_constructionENS0_2opEj
0001:00018c04  __ZN6Xapian5Query16end_constructionEv
0001:00018c78  __ZN6Xapian5Query18abort_constructionEv
0001:00018c96* __ZN6Xapian5QueryC2ERKSsjj
0001:00018d56* __ZN6Xapian5QueryC2ENS0_2opERKS0_S3_
0001:00018e36  __ZN6Xapian5QueryC1ENS0_2opERKS0_S3_
0001:00018f16* __ZN6Xapian5QueryC2ENS0_2opES0_
0001:0001900a* __ZN6Xapian5QueryC1ENS0_2opES0_
0001:000190fe* __ZN6Xapian5QueryC2ENS0_2opEjRKSsS3_
0001:00019164  __ZN6Xapian5QueryC1ENS0_2opEjRKSsS3_
0001:000191ca* __ZN6Xapian5QueryC2ERKS0_
0001:000191e0  __ZN6Xapian5QueryC1ERKS0_
0001:000191f6  __ZN6Xapian5QueryaSERKS0_
0001:0001921c* __ZN6Xapian5QueryC2Ev
0001:00019238* __ZN6Xapian5QueryD2Ev
0001:000192c2  __ZNK6Xapian5Query15get_descriptionEv
0001:00019410  __ZNK6Xapian5Query10get_lengthEv
0001:0001942a  __ZNK6Xapian5Query15get_terms_beginEv
0001:0001946c  __ZNK6Xapian5Query5emptyEv
0001:0001947e* __ZN6Xapian5QueryC2ENS0_2opERKSsS3_
0001:000195d8* __ZN6Xapian5QueryC1ENS0_2opERKSsS3_
0002:00022660* __ZN6Xapian5Query8MatchAllE
0002:00022664* __ZN6Xapian5Query12MatchNothingE
0001:00019738* __ZN6Xapian20InvalidArgumentErrorD1Ev$w$nOjPGlLcFP5l4XVF4
0001:0001980c* __ZTIN6Xapian20InvalidArgumentErrorE$w$nOjPGlLcFP5l4XVF4
0001:00018c2e  __ZN6Xapian8Internal9RefCntPtrINS_5Query8InternalEEaSEPS3_$w$nOjPGlLcFP5l4XVF4
0001:00019734* __ZNSt15basic_streambufIcSt11char_traitsIcEE13_S_pback_sizeE$w$nOjPGlLcFP5l4XVF4
0001:00019820* __ZTSN6Xapian20InvalidArgumentErrorE$w$nOjPGlLcFP5l4XVF4
0001:00019840* __ZTIN6Xapian10LogicErrorE$w$nOjPGlLcFP5l4XVF4
0001:0001984c* __ZTSN6Xapian10LogicErrorE$w$nOjPGlLcFP5l4XVF4
0001:00019864* __ZTIN6Xapian5ErrorE$w$nOjPGlLcFP5l4XVF4
0001:0001986c* __ZTSN6Xapian5ErrorE$w$nOjPGlLcFP5l4XVF4
0002:00022668* __ZN16__Atomicity_lockILi0EE17_S_atomicity_lockE$w$nOjPGlLcFP5l4XVF4
Module: F:\rd\dse\xapian-core-1.0.2\.libs\xapian.a(api\omdocument.cc)
0001:000198c0* __ZN6Xapian8DocumentC2EPNS0_8InternalE
0001:000198d6  __ZN6Xapian8DocumentC1EPNS0_8InternalE
0001:000198ec* __ZN6Xapian8DocumentC2Ev
0001:00019a52  __ZN6Xapian8DocumentC1Ev
0001:00019bb8* __ZNK6Xapian8Document9get_valueEj
0001:0001b784  __ZNK6Xapian8Document8Internal9get_valueEj
0001:00019bea  __ZNK6Xapian8Document8get_dataEv
0001:0001b872* __ZNK6Xapian8Document8Internal8get_dataEv
0001:00019c16* __ZN6Xapian8Document8set_dataERKSs
0001:0001b8da* __ZN6Xapian8Document8Internal8set_dataERKSs
0001:00019c28  __ZN6Xapian8DocumentaSERKS0_
0001:00019c3a* __ZN6Xapian8DocumentC2ERKS0_
0001:00019c52  __ZN6Xapian8DocumentC1ERKS0_
0001:00019c6a* __ZN6Xapian8DocumentD2Ev
0001:00019c9a  __ZN6Xapian8DocumentD1Ev
0001:00019cd6* __ZNK6Xapian8Document15get_descriptionEv
0001:0001f0c0* __ZNK6Xapian8Document8Internal15get_descriptionEv
0001:00019eb2* __ZN6Xapian8Document9add_valueEjRKSs
0001:0001b96c* __ZN6Xapian8Document8Internal9add_valueEjRKSs
0001:00019ec4* __ZN6Xapian8Document12remove_valueEj
0001:0001bb6a* __ZN6Xapian8Document8Internal12remove_valueEj
0001:00019ed6* __ZN6Xapian8Document12clear_valuesEv
0001:0001c040* __ZN6Xapian8Document8Internal12clear_valuesEv
0001:00019f1e* __ZN6Xapian8Document11add_postingERKSsjj
0001:0001c0b2* __ZN6Xapian8Document8Internal11add_postingERKSsjj
0001:0001a186* __ZN6Xapian8Document8add_termERKSsj
0001:0001cce0* __ZN6Xapian8Document8Internal8add_termERKSsj
0001:0001a3e6* __ZN6Xapian8Document14remove_postingERKSsjj
0001:0001d94c* __ZN6Xapian8Document8Internal14remove_postingERKSsjj
0001:0001a64e* __ZN6Xapian8Document11remove_termERKSs
0001:0001dd4a* __ZN6Xapian8Document8Internal11remove_termERKSs
0001:0001a660* __ZN6Xapian8Document11clear_termsEv
0001:0001e250* __ZN6Xapian8Document8Internal11clear_termsEv
0001:0001a672* __ZNK6Xapian8Document14termlist_countEv
0001:0001e2a8* __ZNK6Xapian8Document8Internal14termlist_countEv
0001:0001a684  __ZNK6Xapian8Document14termlist_beginEv
0001:0001b904* __ZNK6Xapian8Document8Internal14open_term_listEv
0001:0001a6b4* __ZNK6Xapian8Document12values_countEv
0001:0001f064* __ZNK6Xapian8Document8Internal12values_countEv
0001:0001a6c6  __ZNK6Xapian8Document12values_beginEv
0001:0001a6f6  __ZNK6Xapian8Document10values_endEv
0001:0001a732* __ZNK6Xapian8Document9get_docidEv
0001:0001a740* __ZN14OmDocumentTerm12add_positionEj
0001:0001a876* __ZN14OmDocumentTerm15remove_positionEj
0001:0001af7c* __ZNK14OmDocumentTerm15get_descriptionEv
0001:0001b83a* __ZNK6Xapian8Document8Internal14get_all_valuesEv
0001:0001f8cc* __ZNK6Xapian8Document8Internal11need_valuesEv
0001:0001e2ce* __ZNK6Xapian8Document8Internal10need_termsEv
0001:000202e0  __ZTVN6Xapian8Document8InternalE$w$3I5LQpJcFP5aGf7F2
0001:0001fab4  __ZNSt8_Rb_treeISsSt4pairIKSs14OmDocumentTermESt10_Select1stIS3_ESt4lessISsESaIS3_EEC1ERKS7_RKS8_$w$3I5LQpJcFP5aGf7F2
0001:0001faae  __ZNSaISt4pairIKSs14OmDocumentTermEED1Ev$w$3I5LQpJcFP5aGf7F2
0001:000202fc  __ZNSt6vectorIjSaIjEED1Ev$w$3I5LQpJcFP5aGf7F2
0001:00020692  __ZNSt8_Rb_treeIjSt4pairIKjSsESt10_Select1stIS2_ESt4lessIjESaIS2_EED1Ev$w$3I5LQpJcFP5aGf7F2
0001:00020ee8  __ZN6Xapian8Internal9RefCntPtrINS_8Document8InternalEEaSEPS3_$w$3I5LQpJcFP5aGf7F2
0001:0001ae5e  __ZStplIcSt11char_traitsIcESaIcEESbIT_T0_T1_EPKS3_RKS6_$w$3I5LQpJcFP5aGf7F2
0001:00020a14* __ZN6Xapian20InvalidArgumentErrorD1Ev$w$3I5LQpJcFP5aGf7F2
0001:0002150c* __ZTIN6Xapian20InvalidArgumentErrorE$w$3I5LQpJcFP5aGf7F2
0001:00020f48* __ZNSt6vectorIjSaIjEE13_M_insert_auxEN9__gnu_cxx17__normal_iteratorIPjS1_EERKj$w$3I5LQpJcFP5aGf7F2
0001:0001a7da  __ZSt11lower_boundIN9__gnu_cxx17__normal_iteratorIPjSt6vectorIjSaIjEEEEjET_S7_S7_RKT0_$w$3I5LQpJcFP5aGf7F2
0001:0001fafa* __ZNSt6vectorIjSaIjEE6insertEN9__gnu_cxx17__normal_iteratorIPjS1_EERKj$w$3I5LQpJcFP5aGf7F2
0001:0001fb5a  __ZStplIcSt11char_traitsIcESaIcEESbIT_T0_T1_ERKS6_S8_$w$3I5LQpJcFP5aGf7F2
0001:0001fbda  __ZNSt6vectorIjSaIjEE5eraseEN9__gnu_cxx17__normal_iteratorIPjS1_EE$w$3I5LQpJcFP5aGf7F2
0001:0002104e  __ZNSt8_Rb_treeIjSt4pairIKjSsESt10_Select1stIS2_ESt4lessIjESaIS2_EE4findERS1_$w$3I5LQpJcFP5aGf7F2
0001:0001f9dc  __ZNSt8_Rb_treeIjSt4pairIKjSsESt10_Select1stIS2_ESt4lessIjESaIS2_EEC1ERKS8_$w$3I5LQpJcFP5aGf7F2
0001:000202a0  __ZTV11MapTermList$w$3I5LQpJcFP5aGf7F2
0001:0001fc20  __ZNSt8_Rb_treeIjSt4pairIKjSsESt10_Select1stIS2_ESt4lessIjESaIS2_EE11lower_boundERS1_$w$3I5LQpJcFP5aGf7F2
0001:000200e2  __ZNSt8_Rb_treeIjSt4pairIKjSsESt10_Select1stIS2_ESt4lessIjESaIS2_EE13insert_uniqueESt17_Rb_tree_iteratorIS2_RS2_PS2_ERKS2_$w$3I5LQpJcFP5aGf7F2
0001:0001fc54* __ZNSt6vectorIjSaIjEE5eraseEN9__gnu_cxx17__normal_iteratorIPjS1_EES5_$w$3I5LQpJcFP5aGf7F2
0001:00020376  __ZSt28_Rb_tree_rebalance_for_erasePSt18_Rb_tree_node_baseRS0_S1_S1_$w$3I5LQpJcFP5aGf7F2
0001:000210a4  __ZNSt8_Rb_treeIjSt4pairIKjSsESt10_Select1stIS2_ESt4lessIjESaIS2_EE8_M_eraseEPSt13_Rb_tree_nodeIS2_E$w$3I5LQpJcFP5aGf7F2
0001:0001fc98  __ZNSt8_Rb_treeISsSt4pairIKSs14OmDocumentTermESt10_Select1stIS3_ESt4lessISsESaIS3_EE4findERS1_$w$3I5LQpJcFP5aGf7F2
0001:00020f24  __ZNSt14__simple_allocIjSt24__default_alloc_templateILb1ELi0EEE8allocateEj$w$3I5LQpJcFP5aGf7F2
0001:0001fda4  __ZNSt8_Rb_treeISsSt4pairIKSs14OmDocumentTermESt10_Select1stIS3_ESt4lessISsESaIS3_EE13insert_uniqueERKS3_$w$3I5LQpJcFP5aGf7F2
0001:0002112e  __ZNSt8_Rb_treeISsSt4pairIKSs14OmDocumentTermESt10_Select1stIS3_ESt4lessISsESaIS3_EE8_M_eraseEPSt13_Rb_tree_nodeIS3_E$w$3I5LQpJcFP5aGf7F2
0001:0001ff14  __ZNSt8_Rb_treeIjSt4pairIKjSsESt10_Select1stIS2_ESt4lessIjESaIS2_EEaSERKS8_$w$3I5LQpJcFP5aGf7F2
0001:0001ffe4  __ZNSt8_Rb_treeIjSt4pairIKjSsESt10_Select1stIS2_ESt4lessIjESaIS2_EE7_M_copyEPSt13_Rb_tree_nodeIS2_ESB_$w$3I5LQpJcFP5aGf7F2
0001:00020326  __ZNSt22_Rb_tree_base_iterator12_M_decrementEv$w$3I5LQpJcFP5aGf7F2
0001:0002129e  __ZNSt8_Rb_treeISsSt4pairIKSs14OmDocumentTermESt10_Select1stIS3_ESt4lessISsESaIS3_EE9_M_insertEPSt18_Rb_tree_node_baseSB_RKS3_$w$3I5LQpJcFP5aGf7F2
0001:000213b2  __ZNSt8_Rb_treeIjSt4pairIKjSsESt10_Select1stIS2_ESt4lessIjESaIS2_EE14_M_create_nodeERKS2_$w$3I5LQpJcFP5aGf7F2
0001:00021424  __ZNSt8_Rb_treeIjSt4pairIKjSsESt10_Select1stIS2_ESt4lessIjESaIS2_EE9_M_insertEPSt18_Rb_tree_node_baseSA_RKS2_$w$3I5LQpJcFP5aGf7F2
0001:000201ba  __ZNSt8_Rb_treeIjSt4pairIKjSsESt10_Select1stIS2_ESt4lessIjESaIS2_EE13insert_uniqueERKS2_$w$3I5LQpJcFP5aGf7F2
0001:00020288* __ZNSt15basic_streambufIcSt11char_traitsIcEE13_S_pback_sizeE$w$3I5LQpJcFP5aGf7F2
0001:00021500  __ZTI11MapTermList$w$3I5LQpJcFP5aGf7F2
0001:00020ae8  __ZN11MapTermListD1Ev$w$3I5LQpJcFP5aGf7F2
0001:00020b04  __ZN11MapTermListD0Ev$w$3I5LQpJcFP5aGf7F2
0001:00020b2c  __ZNK11MapTermList15get_approx_sizeEv$w$3I5LQpJcFP5aGf7F2
0001:00020b38  __ZNK11MapTermList16accumulate_statsERN6Xapian8Internal11ExpandStatsE$w$3I5LQpJcFP5aGf7F2
0001:00020b44  __ZNK11MapTermList12get_termnameEv$w$3I5LQpJcFP5aGf7F2
0001:00020b70  __ZNK11MapTermList7get_wdfEv$w$3I5LQpJcFP5aGf7F2
0001:00020bf2  __ZNK11MapTermList12get_termfreqEv$w$3I5LQpJcFP5aGf7F2
0001:00020eaa  __ZN11MapTermList4nextEv$w$3I5LQpJcFP5aGf7F2
0001:00020ed0  __ZNK11MapTermList6at_endEv$w$3I5LQpJcFP5aGf7F2
0001:00020e96  __ZNK11MapTermList18positionlist_countEv$w$3I5LQpJcFP5aGf7F2
0001:00020e22  __ZNK11MapTermList18positionlist_beginEv$w$3I5LQpJcFP5aGf7F2
0001:000214e0  __ZTIN6Xapian8Document8InternalE$w$3I5LQpJcFP5aGf7F2
0001:0002065c  __ZNK6Xapian8Document8Internal12do_get_valueEj$w$3I5LQpJcFP5aGf7F2
0001:0002070c  __ZNK6Xapian8Document8Internal17do_get_all_valuesEv$w$3I5LQpJcFP5aGf7F2
0001:0002075e  __ZNK6Xapian8Document8Internal11do_get_dataEv$w$3I5LQpJcFP5aGf7F2
0001:00020794  __ZN6Xapian8Document8InternalD1Ev$w$3I5LQpJcFP5aGf7F2
0001:000208d0  __ZN6Xapian8Document8InternalD0Ev$w$3I5LQpJcFP5aGf7F2
0001:000215f4  __ZSt21_Rb_tree_rotate_rightPSt18_Rb_tree_node_baseRS0_$w$3I5LQpJcFP5aGf7F2
0001:000215b2  __ZSt20_Rb_tree_rotate_leftPSt18_Rb_tree_node_baseRS0_$w$3I5LQpJcFP5aGf7F2
0001:0002173e  __ZN6Xapian21InvalidOperationErrorD1Ev$w$3I5LQpJcFP5aGf7F2
0001:000219e0  __ZTIN6Xapian21InvalidOperationErrorE$w$3I5LQpJcFP5aGf7F2
0001:0002156a  __ZNSt22_Rb_tree_base_iterator12_M_incrementEv$w$3I5LQpJcFP5aGf7F2
0001:00021812  __ZNSt8_Rb_treeISsSt4pairIKSs14OmDocumentTermESt10_Select1stIS3_ESt4lessISsESaIS3_EE14_M_create_nodeERKS3_$w$3I5LQpJcFP5aGf7F2
0001:00021636  __ZSt18_Rb_tree_rebalancePSt18_Rb_tree_node_baseRS0_$w$3I5LQpJcFP5aGf7F2
0001:0002154e  __ZTSN6Xapian8Document8InternalE$w$3I5LQpJcFP5aGf7F2
0001:000219f8* __ZTIN6Xapian8Internal10RefCntBaseE$w$3I5LQpJcFP5aGf7F2
0001:00021540  __ZTS11MapTermList$w$3I5LQpJcFP5aGf7F2
0001:000219c0  __ZTIN6Xapian12TermIterator8InternalE$w$3I5LQpJcFP5aGf7F2
0001:00021520* __ZTSN6Xapian20InvalidArgumentErrorE$w$3I5LQpJcFP5aGf7F2
0001:000219ec* __ZTIN6Xapian10LogicErrorE$w$3I5LQpJcFP5aGf7F2
0001:00021a80  __ZTSN6Xapian12TermIterator8InternalE$w$3I5LQpJcFP5aGf7F2
0001:00021a40  __ZTSN6Xapian21InvalidOperationErrorE$w$3I5LQpJcFP5aGf7F2
0001:00021a1f* __ZTSN6Xapian10LogicErrorE$w$3I5LQpJcFP5aGf7F2
0001:00021aa4* __ZTIN6Xapian5ErrorE$w$3I5LQpJcFP5aGf7F2
0001:00021a00* __ZTSN6Xapian8Internal10RefCntBaseE$w$3I5LQpJcFP5aGf7F2
0001:00021aac* __ZTSN6Xapian5ErrorE$w$3I5LQpJcFP5aGf7F2
0002:00022670* __ZN16__Atomicity_lockILi0EE17_S_atomicity_lockE$w$3I5LQpJcFP5aGf7F2
Module: F:\rd\dse\xapian-core-1.0.2\.libs\xapian.a(api\omdatabase.cc)
0001:00024aa6* __ZN6Xapian16WritableDatabaseD1Ev
0001:00024ac2* __ZN6Xapian16WritableDatabaseD0Ev
0001:000255e8* __ZNK6Xapian16WritableDatabase15get_descriptionEv
0001:00022630  __ZN6Xapian8DatabaseD1Ev
0001:000226c6* __ZN6Xapian8DatabaseD0Ev
0001:00023cf8  __ZNK6Xapian8Database15get_descriptionEv
0001:00021f28  __ZN6Xapian8DatabaseC2Ev
0001:00021f54  __ZN6Xapian8DatabaseC1Ev
0001:00021f80* __ZN6Xapian8DatabaseC2EPNS0_8InternalE
0001:000220ca  __ZN6Xapian8DatabaseC1EPNS0_8InternalE
0001:00022214* __ZN6Xapian8DatabaseC2ERKS0_
0001:000222dc  __ZN6Xapian8DatabaseC1ERKS0_
0001:00022578  __ZN6Xapian8DatabaseaSERKS0_
0001:0002259a  __ZN6Xapian8DatabaseD2Ev
0001:0002276a* __ZN6Xapian8Database6reopenEv
0001:000227c8  __ZN6Xapian8Database12add_databaseERKS0_
0001:00022a58* __ZNK6Xapian8Database14postlist_beginERKSs
0001:00022bda  __ZNK6Xapian8Database14termlist_beginEj
0001:00022eae* __ZNK6Xapian8Database14allterms_beginEv
0001:00022f86  __ZNK6Xapian8Database14allterms_beginERKSs
0001:000230e4* __ZNK6Xapian8Database13has_positionsEv
0001:0002313e* __ZNK6Xapian8Database18positionlist_beginEjRKSs
0001:000235b0  __ZNK6Xapian8Database12get_doccountEv
0001:000235e4* __ZNK6Xapian8Database13get_lastdocidEv
0001:0002365c  __ZNK6Xapian8Database12get_avlengthEv
0001:000236ce  __ZNK6Xapian8Database12get_termfreqERKSs
0001:00023722* __ZNK6Xapian8Database19get_collection_freqERKSs
0001:00023776* __ZNK6Xapian8Database13get_doclengthEj
0001:000239e0* __ZNK6Xapian8Database12get_documentEj
0001:00023c66  __ZNK6Xapian8Database11term_existsERKSs
0001:00023cc4* __ZN6Xapian8Database10keep_aliveEv
0001:00023d2e  __ZNK6Xapian8Database23get_spelling_suggestionERKSsj
0001:00024540* __ZNK6Xapian8Database15spellings_beginEv
0001:000246a8  __ZNK6Xapian8Database14synonyms_beginERKSs
0001:00024816* __ZNK6Xapian8Database18synonym_keys_beginERKSs
0001:00024984* __ZN6Xapian16WritableDatabaseC2Ev
0001:000249a6* __ZN6Xapian16WritableDatabaseC1Ev
0001:000249c8* __ZN6Xapian16WritableDatabaseC2EPNS_8Database8InternalE
0001:000249f0  __ZN6Xapian16WritableDatabaseC1EPNS_8Database8InternalE
0001:00024a18* __ZN6Xapian16WritableDatabaseC2ERKS0_
0001:00024a40* __ZN6Xapian16WritableDatabaseC1ERKS0_
0001:00024a68* __ZN6Xapian16WritableDatabaseaSERKS0_
0001:00024a8a* __ZN6Xapian16WritableDatabaseD2Ev
0001:00024aea* __ZN6Xapian16WritableDatabase5flushEv
0001:00024b04* __ZN6Xapian16WritableDatabase17begin_transactionEb
0001:00024b26* __ZN6Xapian16WritableDatabase18commit_transactionEv
0001:00024b40* __ZN6Xapian16WritableDatabase18cancel_transactionEv
0001:00024b5a* __ZN6Xapian16WritableDatabase12add_documentERKNS_8DocumentE
0001:00024b7c* __ZN6Xapian16WritableDatabase15delete_documentEj
0001:00024df0* __ZN6Xapian16WritableDatabase15delete_documentERKSs
0001:0002504c* __ZN6Xapian16WritableDatabase16replace_documentEjRKNS_8DocumentE
0001:000252ae* __ZN6Xapian16WritableDatabase16replace_documentERKSsRKNS_8DocumentE
0001:00025514* __ZNK6Xapian16WritableDatabase12add_spellingERKSsj
0001:0002553c* __ZNK6Xapian16WritableDatabase15remove_spellingERKSsj
0001:00025564* __ZNK6Xapian16WritableDatabase11add_synonymERKSsS2_
0001:0002558c* __ZNK6Xapian16WritableDatabase14remove_synonymERKSsS2_
0001:000255b4* __ZNK6Xapian16WritableDatabase14clear_synonymsERKSs
0001:00021ac0  __ZTVN6Xapian16WritableDatabaseE$w$hF4TDhIcFP5w0YYj1
0001:00025d50  __ZTIN6Xapian16WritableDatabaseE$w$hF4TDhIcFP5w0YYj1
0001:00021ad8  __ZTVN6Xapian8DatabaseE$w$hF4TDhIcFP5w0YYj1
0001:00025d48  __ZTIN6Xapian8DatabaseE$w$hF4TDhIcFP5w0YYj1
0001:00021b00  __ZTV12LeafPostList$w$hF4TDhIcFP5w0YYj1
0001:00025d3c  __ZTI12LeafPostList$w$hF4TDhIcFP5w0YYj1
0001:00021dc6  __ZN12LeafPostListD1Ev$w$hF4TDhIcFP5w0YYj1
0001:00021e04  __ZN12LeafPostListD0Ev$w$hF4TDhIcFP5w0YYj1
0001:00021e5e  __ZNK12LeafPostList16get_termfreq_minEv$w$hF4TDhIcFP5w0YYj1
0001:00021e74  __ZNK12LeafPostList16get_termfreq_estEv$w$hF4TDhIcFP5w0YYj1
0001:00021e48  __ZNK12LeafPostList16get_termfreq_maxEv$w$hF4TDhIcFP5w0YYj1
0001:00021ef8  __ZNK12LeafPostList13get_maxweightEv$w$hF4TDhIcFP5w0YYj1
0001:00021eae  __ZNK12LeafPostList10get_weightEv$w$hF4TDhIcFP5w0YYj1
0001:00021b58  __ZNK6Xapian15PostingIterator8Internal16get_collapse_keyEv$w$hF4TDhIcFP5w0YYj1
0001:00021f10  __ZN12LeafPostList16recalc_maxweightEv$w$hF4TDhIcFP5w0YYj1
0001:00021b96  __ZNK6Xapian15PostingIterator8Internal7get_wdfEv$w$hF4TDhIcFP5w0YYj1
0001:00021e8a  __ZN12LeafPostList14set_termweightEPKN6Xapian6WeightE$w$hF4TDhIcFP5w0YYj1
0001:00025ec4  __ZN6Xapian18UnimplementedErrorD1Ev$w$hF4TDhIcFP5w0YYj1
0001:00026140  __ZTIN6Xapian18UnimplementedErrorE$w$hF4TDhIcFP5w0YYj1
0001:00025da0  __ZTVN6Xapian15PostingIterator8InternalE$w$hF4TDhIcFP5w0YYj1
0001:0002561e  __ZNSt6vectorIN6Xapian8Internal9RefCntPtrINS0_8Database8InternalEEESaIS5_EE13_M_insert_auxEN9__gnu_cxx17__normal_iteratorIPS5_S7_EERKS5_$w$hF4TDhIcFP5w0YYj1
0001:000223a4  __ZNSt6vectorIN6Xapian8Internal9RefCntPtrINS0_8Database8InternalEEESaIS5_EEaSERKS7_$w$hF4TDhIcFP5w0YYj1
0001:00025894  __ZN6Xapian8Internal9RefCntPtrINS_8Database8InternalEEaSEPS3_$w$hF4TDhIcFP5w0YYj1
0001:00025860  __ZSt24__uninitialized_copy_auxIN9__gnu_cxx17__normal_iteratorIPKN6Xapian8Internal9RefCntPtrINS2_8Database8InternalEEESt6vectorIS7_SaIS7_EEEEPS7_ET0_T_SG_SF_12__false_type$w$hF4TDhIcFP5w0YYj1
0001:00025fb8  __ZNSt6vectorIN6Xapian8Internal9RefCntPtrINS0_8Database8InternalEEESaIS5_EE20_M_allocate_and_copyIN9__gnu_cxx17__normal_iteratorIPKS5_S7_EEEEPS5_jT_SF_$w$hF4TDhIcFP5w0YYj1
0001:00025df0  __ZN6Xapian20InvalidArgumentErrorD1Ev$w$hF4TDhIcFP5w0YYj1
0001:0002614c  __ZTIN6Xapian20InvalidArgumentErrorE$w$hF4TDhIcFP5w0YYj1
0001:000258d0  __ZNSt6vectorIP12LeafPostListSaIS1_EE13_M_insert_auxEN9__gnu_cxx17__normal_iteratorIPS1_S3_EERKS1_$w$hF4TDhIcFP5w0YYj1
0001:000259d6  __ZNSt6vectorIPN6Xapian12TermIterator8InternalESaIS3_EE13_M_insert_auxEN9__gnu_cxx17__normal_iteratorIPS3_S5_EERKS3_$w$hF4TDhIcFP5w0YYj1
0001:00025adc  __ZNSt6vectorIjSaIjEE13_M_assign_auxIN6Xapian12Utf8IteratorEEEvT_S5_St18input_iterator_tag$w$hF4TDhIcFP5w0YYj1
0001:00025be2  __ZSt24__uninitialized_copy_auxIN9__gnu_cxx17__normal_iteratorIPN6Xapian8Internal9RefCntPtrINS2_8Database8InternalEEESt6vectorIS7_SaIS7_EEEESC_ET0_T_SE_SD_12__false_type$w$hF4TDhIcFP5w0YYj1
0001:00025c16  __ZNSt6vectorIjSaIjEE5eraseEN9__gnu_cxx17__normal_iteratorIPjS1_EES5_$w$hF4TDhIcFP5w0YYj1
0001:00025c5a  __ZNSt6vectorIjSaIjEE15_M_range_insertIN6Xapian12Utf8IteratorEEEvN9__gnu_cxx17__normal_iteratorIPjS1_EET_S9_St18input_iterator_tag$w$hF4TDhIcFP5w0YYj1
0001:00025cda  __ZNSt6vectorIjSaIjEE6insertEN9__gnu_cxx17__normal_iteratorIPjS1_EERKj$w$hF4TDhIcFP5w0YYj1
0001:00025ffe  __ZNSt6vectorIjSaIjEE13_M_insert_auxEN9__gnu_cxx17__normal_iteratorIPjS1_EERKj$w$hF4TDhIcFP5w0YYj1
0001:00025d8b  __ZTS12LeafPostList$w$hF4TDhIcFP5w0YYj1
0001:00026120  __ZTIN6Xapian15PostingIterator8InternalE$w$hF4TDhIcFP5w0YYj1
0001:00025d78  __ZTSN6Xapian8DatabaseE$w$hF4TDhIcFP5w0YYj1
0001:00025d5c  __ZTSN6Xapian16WritableDatabaseE$w$hF4TDhIcFP5w0YYj1
0001:00025d9c* __ZNSt15basic_streambufIcSt11char_traitsIcEE13_S_pback_sizeE$w$hF4TDhIcFP5w0YYj1
0001:00025f98  __ZN6Xapian15PostingIterator8InternalD1Ev$w$hF4TDhIcFP5w0YYj1
0001:00025fa6  __ZN6Xapian15PostingIterator8InternalD0Ev$w$hF4TDhIcFP5w0YYj1
0001:000261a0  __ZTSN6Xapian15PostingIterator8InternalE$w$hF4TDhIcFP5w0YYj1
0001:000261d0  __ZTIN6Xapian8Internal10RefCntBaseE$w$hF4TDhIcFP5w0YYj1
0001:00026180  __ZTSN6Xapian18UnimplementedErrorE$w$hF4TDhIcFP5w0YYj1
0001:000261c4  __ZTIN6Xapian10LogicErrorE$w$hF4TDhIcFP5w0YYj1
0001:00026160  __ZTSN6Xapian20InvalidArgumentErrorE$w$hF4TDhIcFP5w0YYj1
0001:000261f7  __ZTSN6Xapian10LogicErrorE$w$hF4TDhIcFP5w0YYj1
0001:00026210* __ZTIN6Xapian5ErrorE$w$hF4TDhIcFP5w0YYj1
0001:000261d8  __ZTSN6Xapian8Internal10RefCntBaseE$w$hF4TDhIcFP5w0YYj1
0001:00026218* __ZTSN6Xapian5ErrorE$w$hF4TDhIcFP5w0YYj1
0002:00022680* __ZN16__Atomicity_lockILi0EE17_S_atomicity_lockE$w$hF4TDhIcFP5w0YYj1
Module: F:\rd\dse\xapian-core-1.0.2\.libs\xapian.a(api\error.cc)
0001:00026240* __ZN6Xapian5ErrorC2ERKSsS2_PKcS4_
0001:000263ba* __ZN6Xapian5ErrorC1ERKSsS2_PKcS4_
0001:00026534* __ZNK6Xapian5Error16get_error_stringEv
0001:000265d8  __ZNK6Xapian5Error15get_descriptionEv
0002:00022690* __ZN16__Atomicity_lockILi0EE17_S_atomicity_lockE$w$hPNbTNGcFP5hEmYu1
Module: T:\tmp\ldconv_libgcc_so_d_a_509f473e9a421c96a8.lib(emx-eh.obj)
0001:00026760  ___ehInit
0001:00026789* ___POST$__ehInit
0001:00026792* ___ehTerm
0001:000267ba* ___POST$__ehTerm
Module: F:\rd\dse\xapian-core-1.0.2\.libs\xapian.a(languages\portuguese.cc)
0001:00027702* __ZN6Xapian22InternalStemPortugueseD1Ev
0001:0002771e* __ZN6Xapian22InternalStemPortugueseD0Ev
0001:0002752e* __ZN6Xapian22InternalStemPortuguese4stemEv
0001:00027752* __ZNK6Xapian22InternalStemPortuguese15get_descriptionEv
0001:000267e8* __ZN6Xapian22InternalStemPortuguese9r_preludeEv
0001:000268e0* __ZN6Xapian22InternalStemPortuguese14r_mark_regionsEv
0001:00026bd4* __ZN6Xapian22InternalStemPortuguese10r_postludeEv
0001:00026cc2* __ZN6Xapian22InternalStemPortuguese4r_RVEv
0001:00026cd6* __ZN6Xapian22InternalStemPortuguese4r_R1Ev
0001:00026cea* __ZN6Xapian22InternalStemPortuguese4r_R2Ev
0001:00026cfe* __ZN6Xapian22InternalStemPortuguese17r_standard_suffixEv
0001:00027226* __ZN6Xapian22InternalStemPortuguese13r_verb_suffixEv
0001:000272e0* __ZN6Xapian22InternalStemPortuguese17r_residual_suffixEv
0001:00027372* __ZN6Xapian22InternalStemPortuguese15r_residual_formEv
0001:0002767a* __ZN6Xapian22InternalStemPortugueseC2Ev
0001:000276b0  __ZN6Xapian22InternalStemPortugueseC1Ev
0001:000276e6* __ZN6Xapian22InternalStemPortugueseD2Ev
0001:000267d0  __ZTVN6Xapian22InternalStemPortugueseE$w$Pq4XLK9dFP5ryI7b1
0001:0002775c  __ZTIN6Xapian22InternalStemPortugueseE$w$Pq4XLK9dFP5ryI7b1
0001:00028410  __ZTSN6Xapian22InternalStemPortugueseE$w$Pq4XLK9dFP5ryI7b1
0001:00028770* __ZTIN6Xapian4Stem8InternalE$w$Pq4XLK9dFP5ryI7b1
0001:00028790* __ZTSN6Xapian4Stem8InternalE$w$Pq4XLK9dFP5ryI7b1
0001:000287a8* __ZTIN6Xapian8Internal10RefCntBaseE$w$Pq4XLK9dFP5ryI7b1
0001:000287b0* __ZTSN6Xapian8Internal10RefCntBaseE$w$Pq4XLK9dFP5ryI7b1
0002:000226b0* __ZN16__Atomicity_lockILi0EE17_S_atomicity_lockE$w$Pq4XLK9dFP5ryI7b1
Module: F:\rd\dse\xapian-core-1.0.2\.libs\xapian.a(languages\german2.cc)
0001:000292b4* __ZN6Xapian19InternalStemGerman2D1Ev
0001:000292d0* __ZN6Xapian19InternalStemGerman2D0Ev
0001:000291be* __ZN6Xapian19InternalStemGerman24stemEv
0001:00029300* __ZNK6Xapian19InternalStemGerman215get_descriptionEv
0001:000287e8* __ZN6Xapian19InternalStemGerman29r_preludeEv
0001:00028a3e* __ZN6Xapian19InternalStemGerman214r_mark_regionsEv
0001:00028b7e* __ZN6Xapian19InternalStemGerman210r_postludeEv
0001:00028c7e* __ZN6Xapian19InternalStemGerman24r_R1Ev
0001:00028c92* __ZN6Xapian19InternalStemGerman24r_R2Ev
0001:00028ca6* __ZN6Xapian19InternalStemGerman217r_standard_suffixEv
0001:0002922c* __ZN6Xapian19InternalStemGerman2C2Ev
0001:00029262  __ZN6Xapian19InternalStemGerman2C1Ev
0001:00029298* __ZN6Xapian19InternalStemGerman2D2Ev
0001:000287d0  __ZTVN6Xapian19InternalStemGerman2E$w$hPfmRT7dFP5808UN0
0001:0002930c  __ZTIN6Xapian19InternalStemGerman2E$w$hPfmRT7dFP5808UN0
0001:00029583  __ZTSN6Xapian19InternalStemGerman2E$w$hPfmRT7dFP5808UN0
0001:000295f0* __ZTIN6Xapian4Stem8InternalE$w$hPfmRT7dFP5808UN0
0001:00029610* __ZTSN6Xapian4Stem8InternalE$w$hPfmRT7dFP5808UN0
0001:00029628* __ZTIN6Xapian8Internal10RefCntBaseE$w$hPfmRT7dFP5808UN0
0001:00029630* __ZTSN6Xapian8Internal10RefCntBaseE$w$hPfmRT7dFP5808UN0
0002:000226c0* __ZN16__Atomicity_lockILi0EE17_S_atomicity_lockE$w$hPfmRT7dFP5808UN0
Module: F:\rd\dse\xapian-core-1.0.2\.libs\xapian.a(matcher\multimatch.cc)
0001:00029fe2* __ZN10MultiMatchC2ERKN6Xapian8DatabaseEPKNS0_5Query8InternalEjRKNS0_4RSetEjidNS0_7Enquire11docid_orderEjNSB_8Internal12sort_settingEbPNS0_12ErrorHandlerEP13StatsGathererPKNS0_6WeightE
0001:0002ac50  __ZN10MultiMatchC1ERKN6Xapian8DatabaseEPKNS0_5Query8InternalEjRKNS0_4RSetEjidNS0_7Enquire11docid_orderEjNSB_8Internal12sort_settingEbPNS0_12ErrorHandlerEP13StatsGathererPKNS0_6WeightE
0001:0002b8be* __ZN10MultiMatch16get_collapse_keyEPN6Xapian15PostingIterator8InternalEjjRNS0_8Internal9RefCntPtrINS0_8Document8InternalEEE
0001:0002b9c4* __ZN10MultiMatch21getorrecalc_maxweightEPN6Xapian15PostingIterator8InternalE
0001:0002ba08  __ZN10MultiMatch8get_msetEjjjRN6Xapian4MSetEPKNS0_12MatchDeciderES5_
0001:0002f852  __ZN10MultiMatch16recalc_maxweightEv
0001:00029650* __ZTV13EmptyPostList$w$rId43bidFP5n7K4N3
0001:00032d0c* __ZTI13EmptyPostList$w$rId43bidFP5n7K4N3
0001:00029ed0* __ZN13EmptyPostListD1Ev$w$rId43bidFP5n7K4N3
0001:00029f0e* __ZN13EmptyPostListD0Ev$w$rId43bidFP5n7K4N3
0001:00029e06* __ZNK12LeafPostList16get_termfreq_minEv$w$rId43bidFP5n7K4N3
0001:00029e1c* __ZNK12LeafPostList16get_termfreq_estEv$w$rId43bidFP5n7K4N3
0001:00029df0* __ZNK12LeafPostList16get_termfreq_maxEv$w$rId43bidFP5n7K4N3
0001:00029f5a* __ZNK13EmptyPostList13get_maxweightEv$w$rId43bidFP5n7K4N3
0001:00029f62* __ZNK13EmptyPostList9get_docidEv$w$rId43bidFP5n7K4N3
0001:00029f6a* __ZNK13EmptyPostList10get_weightEv$w$rId43bidFP5n7K4N3
0001:00029b00* __ZNK6Xapian15PostingIterator8Internal16get_collapse_keyEv$w$rId43bidFP5n7K4N3
0001:00029f72* __ZNK13EmptyPostList13get_doclengthEv$w$rId43bidFP5n7K4N3
0001:00029eb8* __ZN12LeafPostList16recalc_maxweightEv$w$rId43bidFP5n7K4N3
0001:00029b3e* __ZNK6Xapian15PostingIterator8Internal7get_wdfEv$w$rId43bidFP5n7K4N3
0001:00029f7a* __ZN13EmptyPostList18read_position_listEv$w$rId43bidFP5n7K4N3
0001:00029f82* __ZNK13EmptyPostList18open_position_listEv$w$rId43bidFP5n7K4N3
0001:00029f8a* __ZN13EmptyPostList4nextEd$w$rId43bidFP5n7K4N3
0001:00029f92* __ZN13EmptyPostList7skip_toEjd$w$rId43bidFP5n7K4N3
0001:00029f9a* __ZNK13EmptyPostList6at_endEv$w$rId43bidFP5n7K4N3
0001:00029fac* __ZNK13EmptyPostList15get_descriptionEv$w$rId43bidFP5n7K4N3
0001:00029f52* __ZNK13EmptyPostList12get_termfreqEv$w$rId43bidFP5n7K4N3
0001:00029e32* __ZN12LeafPostList14set_termweightEPKN6Xapian6WeightE$w$rId43bidFP5n7K4N3
0001:000296b0* __ZTV12LeafPostList$w$rId43bidFP5n7K4N3
0001:00032d00* __ZTI12LeafPostList$w$rId43bidFP5n7K4N3
0001:00029d6e* __ZN12LeafPostListD1Ev$w$rId43bidFP5n7K4N3
0001:00029dac* __ZN12LeafPostListD0Ev$w$rId43bidFP5n7K4N3
0001:00029ea0* __ZNK12LeafPostList13get_maxweightEv$w$rId43bidFP5n7K4N3
0001:00029e56* __ZNK12LeafPostList10get_weightEv$w$rId43bidFP5n7K4N3
0001:00029708* __ZTV13StatsGatherer$w$rId43bidFP5n7K4N3
0001:00032cf8* __ZTI13StatsGatherer$w$rId43bidFP5n7K4N3
0001:00029720* __ZN13StatsGathererD1Ev$w$rId43bidFP5n7K4N3
0001:00029906* __ZN13StatsGathererD0Ev$w$rId43bidFP5n7K4N3
0001:00029af2* __ZN13StatsGatherer16set_global_statsEj$w$rId43bidFP5n7K4N3
0001:0002f85e* __ZNSt8_Rb_treeISsSt4pairIKSsjESt10_Select1stIS2_ESt4lessISsESaIS2_EE8_M_eraseEPSt13_Rb_tree_nodeIS2_E$w$rId43bidFP5n7K4N3
0001:0002f8e8* __ZNSt8_Rb_treeIPN6Xapian6Weight8InternalES3_St9_IdentityIS3_ESt4lessIS3_ESaIS3_EE8_M_eraseEPSt13_Rb_tree_nodeIS3_E$w$rId43bidFP5n7K4N3
0001:00032da0* __ZN6Xapian18UnimplementedErrorD1Ev$w$rId43bidFP5n7K4N3
0001:00033cf0* __ZTIN6Xapian18UnimplementedErrorE$w$rId43bidFP5n7K4N3
0001:00032d50* __ZTVN6Xapian15PostingIterator8InternalE$w$rId43bidFP5n7K4N3
0001:00031498  __ZSt4fillIPmiEvT_S1_RKT0_$w$rId43bidFP5n7K4N3
0001:0002f9c6  __ZNSt6vectorIN6Xapian4RSetESaIS1_EE7reserveEj$w$rId43bidFP5n7K4N3
0001:00032e74* __ZNSt22_Rb_tree_base_iterator12_M_incrementEv$w$rId43bidFP5n7K4N3
0001:0002fa8a  __ZN6Xapian8Internal9RefCntPtrI8SubMatchEaSEPS2_$w$rId43bidFP5n7K4N3
0001:0002fac6  __ZNSt6vectorIN6Xapian8Internal9RefCntPtrI8SubMatchEESaIS4_EE13_M_insert_auxEN9__gnu_cxx17__normal_iteratorIPS4_S6_EERKS4_$w$rId43bidFP5n7K4N3
0001:0002fd08* __ZSt6__copyISt13_Bit_iteratorS0_ET0_T_S2_S1_St26random_access_iterator_tag$w$rId43bidFP5n7K4N3
0001:0002fdfe* __ZNSt6vectorIbSaIbEE14_M_fill_insertESt13_Bit_iteratorjb$w$rId43bidFP5n7K4N3
0001:000314b6  __ZNSt6vectorIN6Xapian4RSetESaIS1_EE13_M_insert_auxEN9__gnu_cxx17__normal_iteratorIPS1_S3_EERKS1_$w$rId43bidFP5n7K4N3
0001:00033cfc* __ZTIN6Xapian5ErrorE$w$rId43bidFP5n7K4N3
0001:00030502* __ZN6Xapian8Internal9RefCntPtrINS_8Document8InternalEEaSEPS3_$w$rId43bidFP5n7K4N3
0001:0003053e  __ZNSt6vectorIPN6Xapian15PostingIterator8InternalESaIS3_EE13_M_insert_auxEN9__gnu_cxx17__normal_iteratorIPS3_S5_EERKS3_$w$rId43bidFP5n7K4N3
0001:0003331a  __ZN6Xapian4MSet8InternalC1EjjjjddRKSt6vectorINS_8Internal8MSetItemESaIS4_EERKSt3mapISsNS1_17TermFreqAndWeightESt4lessISsESaISt4pairIKSsSA_EEEd$w$rId43bidFP5n7K4N3
0001:0002f92c* __ZNSt8_Rb_treeISsSt4pairIKSsN6Xapian4MSet8Internal17TermFreqAndWeightEESt10_Select1stIS6_ESt4lessISsESaIS6_EE8_M_eraseEPSt13_Rb_tree_nodeIS6_E$w$rId43bidFP5n7K4N3
0001:00030644  __ZNSt6vectorIN6Xapian8Internal8MSetItemESaIS2_EE7reserveEj$w$rId43bidFP5n7K4N3
0001:00030b4a  __ZSt9make_heapIN9__gnu_cxx17__normal_iteratorIPN6Xapian8Internal8MSetItemESt6vectorIS4_SaIS4_EEEE7MSetCmpEvT_SB_T0_$w$rId43bidFP5n7K4N3
0001:000331f2  __ZN6Xapian8Internal8MSetItemC1ERKS1_$w$rId43bidFP5n7K4N3
0001:00031e24  __ZSt13__adjust_heapIN9__gnu_cxx17__normal_iteratorIPN6Xapian8Internal8MSetItemESt6vectorIS4_SaIS4_EEEEiS4_7MSetCmpEvT_T0_SC_T1_T2_$w$rId43bidFP5n7K4N3
0001:00033288  __ZN6Xapian8Internal8MSetItemD1Ev$w$rId43bidFP5n7K4N3
0001:00030e98  __ZNSt6vectorIN6Xapian8Internal8MSetItemESaIS2_EE5eraseEN9__gnu_cxx17__normal_iteratorIPS2_S4_EES8_$w$rId43bidFP5n7K4N3
0001:00031220  __ZSt16__introsort_loopIN9__gnu_cxx17__normal_iteratorIPN6Xapian8Internal8MSetItemESt6vectorIS4_SaIS4_EEEEi7MSetCmpEvT_SB_T0_T1_$w$rId43bidFP5n7K4N3
0001:0003271a  __ZSt22__final_insertion_sortIN9__gnu_cxx17__normal_iteratorIPN6Xapian8Internal8MSetItemESt6vectorIS4_SaIS4_EEEE7MSetCmpEvT_SB_T0_$w$rId43bidFP5n7K4N3
0001:000308ce  __ZNSt8_Rb_treeISsSt4pairIKSsS0_IN6Xapian8Internal8MSetItemEdEESt10_Select1stIS6_ESt4lessISsESaIS6_EE4findERS1_$w$rId43bidFP5n7K4N3
0001:00032f0c* __ZSt28_Rb_tree_rebalance_for_erasePSt18_Rb_tree_node_baseRS0_S1_S1_$w$rId43bidFP5n7K4N3
0001:000307a6  __ZNSt8_Rb_treeISsSt4pairIKSsS0_IN6Xapian8Internal8MSetItemEdEESt10_Select1stIS6_ESt4lessISsESaIS6_EE8_M_eraseEPSt13_Rb_tree_nodeIS6_E$w$rId43bidFP5n7K4N3
0001:00030fd2  __ZSt11nth_elementIN9__gnu_cxx17__normal_iteratorIPN6Xapian8Internal8MSetItemESt6vectorIS4_SaIS4_EEEE7MSetCmpEvT_SB_SB_T0_$w$rId43bidFP5n7K4N3
0001:00030d3c  __ZSt11min_elementIN9__gnu_cxx17__normal_iteratorIPN6Xapian8Internal8MSetItemESt6vectorIS4_SaIS4_EEEE7MSetCmpET_SB_SB_T0_$w$rId43bidFP5n7K4N3
0001:00030d8c* __ZNSt8_Rb_treeISsSt4pairIKSsN6Xapian4MSet8Internal17TermFreqAndWeightEESt10_Select1stIS6_ESt4lessISsESaIS6_EE4findERS1_$w$rId43bidFP5n7K4N3
0001:000320d2  __ZSt11__push_heapIN9__gnu_cxx17__normal_iteratorIPN6Xapian8Internal8MSetItemESt6vectorIS4_SaIS4_EEEEiS4_7MSetCmpEvT_T0_SC_T1_T2_$w$rId43bidFP5n7K4N3
0001:00031882  __ZNSt6vectorIN6Xapian8Internal8MSetItemESaIS2_EE13_M_insert_auxEN9__gnu_cxx17__normal_iteratorIPS2_S4_EERKS2_$w$rId43bidFP5n7K4N3
0001:000309da  __ZNSt8_Rb_treeISsSt4pairIKSsS0_IN6Xapian8Internal8MSetItemEdEESt10_Select1stIS6_ESt4lessISsESaIS6_EE13insert_uniqueERKS6_$w$rId43bidFP5n7K4N3
0001:000316a6  __ZNSt6vectorIN6Xapian4RSetESaIS1_EE20_M_allocate_and_copyIPS1_EES5_jT_S6_$w$rId43bidFP5n7K4N3
0001:0003172e  __ZSt24__uninitialized_copy_auxIN9__gnu_cxx17__normal_iteratorIPN6Xapian8Internal9RefCntPtrI8SubMatchEESt6vectorIS6_SaIS6_EEEESB_ET0_T_SD_SC_12__false_type$w$rId43bidFP5n7K4N3
0001:00030454* __ZSt4fillISt13_Bit_iteratorbEvT_S1_RKT0_$w$rId43bidFP5n7K4N3
0001:00031762* __ZSt6fill_nISt13_Bit_iteratorjbET_S1_T0_RKT1_$w$rId43bidFP5n7K4N3
0001:000317fc  __ZNSt6vectorIN6Xapian8Internal8MSetItemESaIS2_EE20_M_allocate_and_copyIPS2_EES6_jT_S7_$w$rId43bidFP5n7K4N3
0001:00032ebc* __ZNSt22_Rb_tree_base_iterator12_M_decrementEv$w$rId43bidFP5n7K4N3
0001:00033798  __ZNSt8_Rb_treeISsSt4pairIKSsS0_IN6Xapian8Internal8MSetItemEdEESt10_Select1stIS6_ESt4lessISsESaIS6_EE9_M_insertEPSt18_Rb_tree_node_baseSE_RKS6_$w$rId43bidFP5n7K4N3
0001:000338ac  __ZSt8__medianIN6Xapian8Internal8MSetItemE7MSetCmpERKT_S6_S6_S6_T0_$w$rId43bidFP5n7K4N3
0001:0003219e  __ZSt21__unguarded_partitionIN9__gnu_cxx17__normal_iteratorIPN6Xapian8Internal8MSetItemESt6vectorIS4_SaIS4_EEEES4_7MSetCmpET_SB_SB_T0_T1_$w$rId43bidFP5n7K4N3
0001:000322f2  __ZSt16__insertion_sortIN9__gnu_cxx17__normal_iteratorIPN6Xapian8Internal8MSetItemESt6vectorIS4_SaIS4_EEEE7MSetCmpEvT_SB_T0_$w$rId43bidFP5n7K4N3
0001:0003392a  __ZSt12partial_sortIN9__gnu_cxx17__normal_iteratorIPN6Xapian8Internal8MSetItemESt6vectorIS4_SaIS4_EEEE7MSetCmpEvT_SB_SB_T0_$w$rId43bidFP5n7K4N3
0001:000328cc  __ZSt24__uninitialized_copy_auxIN9__gnu_cxx17__normal_iteratorIPN6Xapian4RSetESt6vectorIS3_SaIS3_EEEES8_ET0_T_SA_S9_12__false_type$w$rId43bidFP5n7K4N3
0001:0003293a  __ZSt24__uninitialized_copy_auxIPN6Xapian4RSetES2_ET0_T_S4_S3_12__false_type$w$rId43bidFP5n7K4N3
0001:000329a4  __ZSt24__uninitialized_copy_auxIPN6Xapian8Internal8MSetItemES3_ET0_T_S5_S4_12__false_type$w$rId43bidFP5n7K4N3
0001:00032b02  __ZSt24__uninitialized_copy_auxIN9__gnu_cxx17__normal_iteratorIPN6Xapian8Internal8MSetItemESt6vectorIS4_SaIS4_EEEES9_ET0_T_SB_SA_12__false_type$w$rId43bidFP5n7K4N3
0001:00032c64  __ZSt25__unguarded_linear_insertIN9__gnu_cxx17__normal_iteratorIPN6Xapian8Internal8MSetItemESt6vectorIS4_SaIS4_EEEES4_7MSetCmpEvT_T0_T1_$w$rId43bidFP5n7K4N3
0001:00032d37* __ZTS13StatsGatherer$w$rId43bidFP5n7K4N3
0001:00032d28* __ZTS12LeafPostList$w$rId43bidFP5n7K4N3
0001:00033cd0* __ZTIN6Xapian15PostingIterator8InternalE$w$rId43bidFP5n7K4N3
0001:00032d18* __ZTS13EmptyPostList$w$rId43bidFP5n7K4N3
0001:00032d48* __ZNSt15basic_streambufIcSt11char_traitsIcEE13_S_pback_sizeE$w$rId43bidFP5n7K4N3
0001:00033614* __ZN6Xapian15PostingIterator8InternalD1Ev$w$rId43bidFP5n7K4N3
0001:00033622* __ZN6Xapian15PostingIterator8InternalD0Ev$w$rId43bidFP5n7K4N3
0001:00033db6* __ZSt21_Rb_tree_rotate_rightPSt18_Rb_tree_node_baseRS0_$w$rId43bidFP5n7K4N3
0001:00033d74* __ZSt20_Rb_tree_rotate_leftPSt18_Rb_tree_node_baseRS0_$w$rId43bidFP5n7K4N3
0001:000336c6  __ZNSt8_Rb_treeISsSt4pairIKSsN6Xapian4MSet8Internal17TermFreqAndWeightEESt10_Select1stIS6_ESt4lessISsESaIS6_EEC1ERKSC_$w$rId43bidFP5n7K4N3
0001:00033b4a  __ZSt24__uninitialized_copy_auxIN9__gnu_cxx17__normal_iteratorIPKN6Xapian8Internal8MSetItemESt6vectorIS4_SaIS4_EEEEPS4_ET0_T_SD_SC_12__false_type$w$rId43bidFP5n7K4N3
0001:00033634* __ZNSt8_Rb_treeIjjSt9_IdentityIjESt4lessIjESaIjEE8_M_eraseEPSt13_Rb_tree_nodeIjE$w$rId43bidFP5n7K4N3
0001:00033678* __ZNSt8_Rb_treeIjSt4pairIKjN6Xapian8DocumentEESt10_Select1stIS4_ESt4lessIjESaIS4_EE8_M_eraseEPSt13_Rb_tree_nodeIS4_E$w$rId43bidFP5n7K4N3
0001:00033a4c  __ZNSt8_Rb_treeISsSt4pairIKSsN6Xapian4MSet8Internal17TermFreqAndWeightEESt10_Select1stIS6_ESt4lessISsESaIS6_EE7_M_copyEPSt13_Rb_tree_nodeIS6_ESF_$w$rId43bidFP5n7K4N3
0001:00033f00  __ZNSt8_Rb_treeISsSt4pairIKSsS0_IN6Xapian8Internal8MSetItemEdEESt10_Select1stIS6_ESt4lessISsESaIS6_EE14_M_create_nodeERKS6_$w$rId43bidFP5n7K4N3
0001:00033df8* __ZSt18_Rb_tree_rebalancePSt18_Rb_tree_node_baseRS0_$w$rId43bidFP5n7K4N3
0001:00033bb6  __ZSt9sort_heapIN9__gnu_cxx17__normal_iteratorIPN6Xapian8Internal8MSetItemESt6vectorIS4_SaIS4_EEEE7MSetCmpEvT_SB_T0_$w$rId43bidFP5n7K4N3
0001:00033fd2  __ZNSt8_Rb_treeISsSt4pairIKSsN6Xapian4MSet8Internal17TermFreqAndWeightEESt10_Select1stIS6_ESt4lessISsESaIS6_EE14_M_create_nodeERKS6_$w$rId43bidFP5n7K4N3
0001:00033d50* __ZTSN6Xapian15PostingIterator8InternalE$w$rId43bidFP5n7K4N3
0001:00034060* __ZTIN6Xapian8Internal10RefCntBaseE$w$rId43bidFP5n7K4N3
0001:00033d14* __ZTSN6Xapian18UnimplementedErrorE$w$rId43bidFP5n7K4N3
0001:00034054* __ZTIN6Xapian10LogicErrorE$w$rId43bidFP5n7K4N3
0001:00033d04* __ZTSN6Xapian5ErrorE$w$rId43bidFP5n7K4N3
0001:00034087* __ZTSN6Xapian10LogicErrorE$w$rId43bidFP5n7K4N3
0001:00034068* __ZTSN6Xapian8Internal10RefCntBaseE$w$rId43bidFP5n7K4N3
0002:000226d0* __ZN16__Atomicity_lockILi0EE17_S_atomicity_lockE$w$rId43bidFP5n7K4N3
Module: F:\rd\dse\xapian-core-1.0.2\.libs\xapian.a(backends\inmemory\inmemory_database.cc)
0001:00036728* __ZN16InMemoryDatabaseD1Ev
0001:00036df6* __ZN16InMemoryDatabaseD0Ev
0001:00037832* __ZNK16InMemoryDatabase12get_doccountEv
0001:0003783e* __ZNK16InMemoryDatabase13get_lastdocidEv
0001:00037850* __ZNK16InMemoryDatabase12get_avlengthEv
0001:00037896* __ZNK16InMemoryDatabase13get_doclengthEj
0001:000377ce* __ZNK16InMemoryDatabase12get_termfreqERKSs
0001:00037800* __ZNK16InMemoryDatabase19get_collection_freqERKSs
0001:0003c35e* __ZNK16InMemoryDatabase11term_existsERKSs
0001:0003c398* __ZNK16InMemoryDatabase13has_positionsEv
0001:000374d2* __ZNK16InMemoryDatabase14open_post_listERKSs
0001:00037df0* __ZNK16InMemoryDatabase14open_term_listEj
0001:0003c3a4* __ZNK16InMemoryDatabase13open_alltermsERKSs
0001:00038df0* __ZNK16InMemoryDatabase18open_position_listEjRKSs
0001:000385ec* __ZNK16InMemoryDatabase13open_documentEjb
0001:00039574* __ZN16InMemoryDatabase5flushEv
0001:0003957a* __ZN16InMemoryDatabase6cancelEv
0001:0003a1c4* __ZN16InMemoryDatabase12add_documentERKN6Xapian8DocumentE
0001:00039580* __ZN16InMemoryDatabase15delete_documentEj
0001:00039c20* __ZN16InMemoryDatabase16replace_documentEjRKN6Xapian8DocumentE
0001:00035844* __ZNK23InMemoryAllDocsPostList9get_docidEv
0001:00035850* __ZNK23InMemoryAllDocsPostList13get_doclengthEv
0001:00035870* __ZNK23InMemoryAllDocsPostList7get_wdfEv
0001:000358aa* __ZN23InMemoryAllDocsPostList18read_position_listEv
0001:00035ada* __ZNK23InMemoryAllDocsPostList18open_position_listEv
0001:00035d0a* __ZN23InMemoryAllDocsPostList4nextEd
0001:00035d3c* __ZN23InMemoryAllDocsPostList7skip_toEjd
0001:00035d7e* __ZNK23InMemoryAllDocsPostList6at_endEv
0001:00035db4* __ZNK23InMemoryAllDocsPostList15get_descriptionEv
0001:00035836* __ZNK23InMemoryAllDocsPostList12get_termfreqEv
0001:00035076* __ZNK16InMemoryTermList15get_approx_sizeEv
0001:00035090* __ZNK16InMemoryTermList16accumulate_statsERN6Xapian8Internal11ExpandStatsE
0001:000354be* __ZNK16InMemoryTermList12get_termnameEv
0001:00035048* __ZNK16InMemoryTermList7get_wdfEv
0001:00035056* __ZNK16InMemoryTermList12get_termfreqEv
0001:000354e8* __ZN16InMemoryTermList4nextEv
0001:00035502* __ZNK16InMemoryTermList6at_endEv
0001:00035550* __ZNK16InMemoryTermList18positionlist_countEv
0001:00035780* __ZNK16InMemoryTermList18positionlist_beginEv
0001:00034d52* __ZNK16InMemoryPostList9get_docidEv
0001:00034ee0* __ZNK16InMemoryPostList13get_doclengthEv
0001:00034f82* __ZNK16InMemoryPostList7get_wdfEv
0001:00034f0a* __ZN16InMemoryPostList18read_position_listEv
0001:00034f34* __ZNK16InMemoryPostList18open_position_listEv
0001:00034d60* __ZN16InMemoryPostList4nextEd
0001:00034da0* __ZN16InMemoryPostList7skip_toEjd
0001:00034de6* __ZNK16InMemoryPostList6at_endEv
0001:00034e0e* __ZNK16InMemoryPostList15get_descriptionEv
0001:00034d46* __ZNK16InMemoryPostList12get_termfreqEv
0001:00034c0e* __ZN16InMemoryPostListC2EN6Xapian8Internal9RefCntPtrIK16InMemoryDatabaseEERK12InMemoryTerm
0001:00034caa* __ZN16InMemoryPostListC1EN6Xapian8Internal9RefCntPtrIK16InMemoryDatabaseEERK12InMemoryTerm
0001:00034f90* __ZN16InMemoryTermListC2EN6Xapian8Internal9RefCntPtrIK16InMemoryDatabaseEEjRK11InMemoryDocd
0001:00034fec* __ZN16InMemoryTermListC1EN6Xapian8Internal9RefCntPtrIK16InMemoryDatabaseEEjRK11InMemoryDocd
0001:000357c6* __ZN23InMemoryAllDocsPostListC2EN6Xapian8Internal9RefCntPtrIK16InMemoryDatabaseEE
0001:000357fe* __ZN23InMemoryAllDocsPostListC1EN6Xapian8Internal9RefCntPtrIK16InMemoryDatabaseEE
0001:00035e86* __ZN16InMemoryDatabaseC2Ev
0001:00035f70  __ZN16InMemoryDatabaseC1Ev
0001:0003605a* __ZN16InMemoryDatabaseD2Ev
0001:000376aa* __ZNK16InMemoryDatabase10doc_existsEj
0001:0003951a* __ZN16InMemoryDatabase10add_valuesEjRKSt3mapIjSsSt4lessIjESaISt4pairIKjSsEEE
0001:0003a29e* __ZN16InMemoryDatabase14finish_add_docEjRKN6Xapian8DocumentE
0001:0003b878* __ZN16InMemoryDatabase8make_docERKSs
0001:0003b5fe* __ZN16InMemoryDatabase9make_termERKSs
0001:0003bbfa* __ZN16InMemoryDatabase12make_postingEP11InMemoryDocRKSsjjjb
0001:000340b0  __ZTV16InMemoryDatabase$w$bu4lHu2dFP5kMzuN0
0001:00040100  __ZTI16InMemoryDatabase$w$bu4lHu2dFP5kMzuN0
0001:000347ea* __ZN6Xapian8Database8Internal6reopenEv$w$bu4lHu2dFP5kMzuN0
0001:000347f0* __ZNK6Xapian8Database8Internal16request_documentEj$w$bu4lHu2dFP5kMzuN0
0001:000347f6* __ZNK6Xapian8Database8Internal16collect_documentEj$w$bu4lHu2dFP5kMzuN0
0001:0003481a* __ZN6Xapian8Database8Internal17as_remotedatabaseEv$w$bu4lHu2dFP5kMzuN0
0001:00034150  __ZTV23InMemoryAllDocsPostList$w$bu4lHu2dFP5kMzuN0
0001:000400e8  __ZTI23InMemoryAllDocsPostList$w$bu4lHu2dFP5kMzuN0
0001:00034a1e  __ZN23InMemoryAllDocsPostListD1Ev$w$bu4lHu2dFP5kMzuN0
0001:00034ab2  __ZN23InMemoryAllDocsPostListD0Ev$w$bu4lHu2dFP5kMzuN0
0001:0003460e* __ZNK12LeafPostList16get_termfreq_minEv$w$bu4lHu2dFP5kMzuN0
0001:00034624* __ZNK12LeafPostList16get_termfreq_estEv$w$bu4lHu2dFP5kMzuN0
0001:000345f8* __ZNK12LeafPostList16get_termfreq_maxEv$w$bu4lHu2dFP5kMzuN0
0001:000346a8* __ZNK12LeafPostList13get_maxweightEv$w$bu4lHu2dFP5kMzuN0
0001:0003465e* __ZNK12LeafPostList10get_weightEv$w$bu4lHu2dFP5kMzuN0
0001:00034308* __ZNK6Xapian15PostingIterator8Internal16get_collapse_keyEv$w$bu4lHu2dFP5kMzuN0
0001:000346c0* __ZN12LeafPostList16recalc_maxweightEv$w$bu4lHu2dFP5kMzuN0
0001:0003463a* __ZN12LeafPostList14set_termweightEPKN6Xapian6WeightE$w$bu4lHu2dFP5kMzuN0
0001:000341b0  __ZTV16InMemoryTermList$w$bu4lHu2dFP5kMzuN0
0001:000400f4  __ZTI16InMemoryTermList$w$bu4lHu2dFP5kMzuN0
0001:00034b4a  __ZN16InMemoryTermListD1Ev$w$bu4lHu2dFP5kMzuN0
0001:00034ba8  __ZN16InMemoryTermListD0Ev$w$bu4lHu2dFP5kMzuN0
0001:000341f0  __ZTV16InMemoryPostList$w$bu4lHu2dFP5kMzuN0
0001:000400dc  __ZTI16InMemoryPostList$w$bu4lHu2dFP5kMzuN0
0001:00034822  __ZN16InMemoryPostListD1Ev$w$bu4lHu2dFP5kMzuN0
0001:0003491e  __ZN16InMemoryPostListD0Ev$w$bu4lHu2dFP5kMzuN0
0001:00034250  __ZTV13EmptyPostList$w$bu4lHu2dFP5kMzuN0
0001:000400d0  __ZTI13EmptyPostList$w$bu4lHu2dFP5kMzuN0
0001:000346d8  __ZN13EmptyPostListD1Ev$w$bu4lHu2dFP5kMzuN0
0001:00034716  __ZN13EmptyPostListD0Ev$w$bu4lHu2dFP5kMzuN0
0001:00034762  __ZNK13EmptyPostList13get_maxweightEv$w$bu4lHu2dFP5kMzuN0
0001:0003476a  __ZNK13EmptyPostList9get_docidEv$w$bu4lHu2dFP5kMzuN0
0001:00034772  __ZNK13EmptyPostList10get_weightEv$w$bu4lHu2dFP5kMzuN0
0001:0003477a  __ZNK13EmptyPostList13get_doclengthEv$w$bu4lHu2dFP5kMzuN0
0001:00034346* __ZNK6Xapian15PostingIterator8Internal7get_wdfEv$w$bu4lHu2dFP5kMzuN0
0001:00034782  __ZN13EmptyPostList18read_position_listEv$w$bu4lHu2dFP5kMzuN0
0001:0003478a  __ZNK13EmptyPostList18open_position_listEv$w$bu4lHu2dFP5kMzuN0
0001:00034792  __ZN13EmptyPostList4nextEd$w$bu4lHu2dFP5kMzuN0
0001:0003479a  __ZN13EmptyPostList7skip_toEjd$w$bu4lHu2dFP5kMzuN0
0001:000347a2  __ZNK13EmptyPostList6at_endEv$w$bu4lHu2dFP5kMzuN0
0001:000347b4  __ZNK13EmptyPostList15get_descriptionEv$w$bu4lHu2dFP5kMzuN0
0001:0003475a  __ZNK13EmptyPostList12get_termfreqEv$w$bu4lHu2dFP5kMzuN0
0001:000342b0* __ZTV12LeafPostList$w$bu4lHu2dFP5kMzuN0
0001:000400c4* __ZTI12LeafPostList$w$bu4lHu2dFP5kMzuN0
0001:00034576* __ZN12LeafPostListD1Ev$w$bu4lHu2dFP5kMzuN0
0001:000345b4* __ZN12LeafPostListD0Ev$w$bu4lHu2dFP5kMzuN0
0001:000402e8* __ZN6Xapian18UnimplementedErrorD1Ev$w$bu4lHu2dFP5kMzuN0
0001:00042b50* __ZTIN6Xapian18UnimplementedErrorE$w$bu4lHu2dFP5kMzuN0
0001:00040190* __ZTVN6Xapian15PostingIterator8InternalE$w$bu4lHu2dFP5kMzuN0
0001:000401f0* __ZTVN6Xapian16PositionIterator8InternalE$w$bu4lHu2dFP5kMzuN0
0001:0003c5ec* __ZStplIcSt11char_traitsIcESaIcEESbIT_T0_T1_EPKS3_RKS6_$w$bu4lHu2dFP5kMzuN0
0001:000405e2* __ZSt6__copyISt13_Bit_iteratorS0_ET0_T_S2_S1_St26random_access_iterator_tag$w$bu4lHu2dFP5kMzuN0
0001:000405a4* __ZNSt18_Bit_iterator_base7_M_incrEi$w$bu4lHu2dFP5kMzuN0
0001:000406d8* __ZNSt6vectorIbSaIbEE14_M_fill_insertESt13_Bit_iteratorjb$w$bu4lHu2dFP5kMzuN0
0001:0003c51a* __ZNSt8_Rb_treeIjSt4pairIKjSsESt10_Select1stIS2_ESt4lessIjESaIS2_EE8_M_eraseEPSt13_Rb_tree_nodeIS2_E$w$bu4lHu2dFP5kMzuN0
0001:0003c6e2  __ZNSt8_Rb_treeISsSt4pairIKSs12InMemoryTermESt10_Select1stIS3_ESt4lessISsESaIS3_EE8_M_eraseEPSt13_Rb_tree_nodeIS3_E$w$bu4lHu2dFP5kMzuN0
0001:000376de  __ZNKSt8_Rb_treeISsSt4pairIKSs12InMemoryTermESt10_Select1stIS3_ESt4lessISsESaIS3_EE4findERS1_$w$bu4lHu2dFP5kMzuN0
0001:0003c862* __ZStplIcSt11char_traitsIcESaIcEESbIT_T0_T1_ERKS6_S8_$w$bu4lHu2dFP5kMzuN0
0001:000403bc* __ZN6Xapian16DocNotFoundErrorD1Ev$w$bu4lHu2dFP5kMzuN0
0001:00042bb0* __ZTIN6Xapian16DocNotFoundErrorE$w$bu4lHu2dFP5kMzuN0
0001:00040214* __ZN6Xapian20InvalidArgumentErrorD1Ev$w$bu4lHu2dFP5kMzuN0
0001:00042bbc* __ZTIN6Xapian20InvalidArgumentErrorE$w$bu4lHu2dFP5kMzuN0
0001:00040490* __ZN6Xapian10RangeErrorD1Ev$w$bu4lHu2dFP5kMzuN0
0001:00042bc8* __ZTIN6Xapian10RangeErrorE$w$bu4lHu2dFP5kMzuN0
0001:00041636* __ZNSt8_Rb_treeIjSt4pairIKjSsESt10_Select1stIS2_ESt4lessIjESaIS2_EEC1ERKS8_$w$bu4lHu2dFP5kMzuN0
0001:0003c8e2  __ZNSt6vectorISt3mapIjSsSt4lessIjESaISt4pairIKjSsEEESaIS7_EE13_M_insert_auxEN9__gnu_cxx17__normal_iteratorIPS7_S9_EERKS7_$w$bu4lHu2dFP5kMzuN0
0001:0003cb66  __ZNSt8_Rb_treeISsSt4pairIKSs12InMemoryTermESt10_Select1stIS3_ESt4lessISsESaIS3_EE4findERS1_$w$bu4lHu2dFP5kMzuN0
0001:0003cc72  __ZNSt6vectorI17InMemoryTermEntrySaIS0_EE5eraseEN9__gnu_cxx17__normal_iteratorIPS0_S2_EES6_$w$bu4lHu2dFP5kMzuN0
0001:0003eb34  __ZNSt6vectorI11InMemoryDocSaIS0_EE14_M_fill_insertEN9__gnu_cxx17__normal_iteratorIPS0_S2_EEjRKS0_$w$bu4lHu2dFP5kMzuN0
0001:0003d168  __ZSt13__destroy_auxIP17InMemoryTermEntryEvT_S2_12__false_type$w$bu4lHu2dFP5kMzuN0
0001:0003cdc4  __ZNSt6vectorIdSaIdEE5eraseEN9__gnu_cxx17__normal_iteratorIPdS1_EES5_$w$bu4lHu2dFP5kMzuN0
0001:0003cfd2  __ZNSt6vectorISsSaISsEE5eraseEN9__gnu_cxx17__normal_iteratorIPSsS1_EES5_$w$bu4lHu2dFP5kMzuN0
0001:0003df04  __ZNSt6vectorISt3mapIjSsSt4lessIjESaISt4pairIKjSsEEESaIS7_EE5eraseEN9__gnu_cxx17__normal_iteratorIPS7_S9_EESD_$w$bu4lHu2dFP5kMzuN0
0001:0003c5a4  __ZNSt8_Rb_treeIjSt4pairIKjSsESt10_Select1stIS2_ESt4lessIjESaIS2_EE5clearEv$w$bu4lHu2dFP5kMzuN0
0001:0003f302  __ZNSt6vectorISt3mapIjSsSt4lessIjESaISt4pairIKjSsEEESaIS7_EE14_M_fill_insertEN9__gnu_cxx17__normal_iteratorIPS7_S9_EEjRKS7_$w$bu4lHu2dFP5kMzuN0
0001:0003db90  __ZNSt6vectorISsSaISsEE14_M_fill_insertEN9__gnu_cxx17__normal_iteratorIPSsS1_EEjRKSs$w$bu4lHu2dFP5kMzuN0
0001:0003ce08  __ZNSt6vectorIdSaIdEE14_M_fill_insertEN9__gnu_cxx17__normal_iteratorIPdS1_EEjRKd$w$bu4lHu2dFP5kMzuN0
0001:0003d09c* __ZNSt8_Rb_treeIjSt4pairIKjSsESt10_Select1stIS2_ESt4lessIjESaIS2_EE13insert_uniqueERKS2_$w$bu4lHu2dFP5kMzuN0
0001:0003b56c  __ZNSt8_Rb_treeISsSt4pairIKSs12InMemoryTermESt10_Select1stIS3_ESt4lessISsESaIS3_EE11lower_boundERS1_$w$bu4lHu2dFP5kMzuN0
0001:0003d4fe  __ZNSt12_Vector_baseI15InMemoryPostingSaIS0_EEC2EjRKS1_$w$bu4lHu2dFP5kMzuN0
0001:0004100e  __ZNSaI15InMemoryPostingED1Ev$w$bu4lHu2dFP5kMzuN0
0001:0003e116  __ZSt24__uninitialized_copy_auxIN9__gnu_cxx17__normal_iteratorIPK15InMemoryPostingSt6vectorIS2_SaIS2_EEEEPS2_ET0_T_SB_SA_12__false_type$w$bu4lHu2dFP5kMzuN0
0001:0003d554  __ZNSt8_Rb_treeISsSt4pairIKSs12InMemoryTermESt10_Select1stIS3_ESt4lessISsESaIS3_EE13insert_uniqueESt17_Rb_tree_iteratorIS3_RS3_PS3_ERKS3_$w$bu4lHu2dFP5kMzuN0
0001:0004156a  __ZNSt4pairIKSs12InMemoryTermED1Ev$w$bu4lHu2dFP5kMzuN0
0001:0003d4c0  __ZSt13__destroy_auxIP15InMemoryPostingEvT_S2_12__false_type$w$bu4lHu2dFP5kMzuN0
0001:0004104c  __ZNSt14__simple_allocI15InMemoryPostingSt24__default_alloc_templateILb1ELi0EEE10deallocateEPS0_j$w$bu4lHu2dFP5kMzuN0
0001:0003dfce  __ZSt24__uninitialized_copy_auxIN9__gnu_cxx17__normal_iteratorIPK17InMemoryTermEntrySt6vectorIS2_SaIS2_EEEEPS2_ET0_T_SB_SA_12__false_type$w$bu4lHu2dFP5kMzuN0
0001:0003d230  __ZNSt6vectorI17InMemoryTermEntrySaIS0_EEaSERKS2_$w$bu4lHu2dFP5kMzuN0
0001:00041068  __ZNSt6vectorI17InMemoryTermEntrySaIS0_EED1Ev$w$bu4lHu2dFP5kMzuN0
0001:00041014  __ZNSt12_Vector_baseI15InMemoryPostingSaIS0_EED2Ev$w$bu4lHu2dFP5kMzuN0
0001:0003e86e* __ZNSt6vectorISsSaISsEE13_M_insert_auxEN9__gnu_cxx17__normal_iteratorIPSsS1_EERKSs$w$bu4lHu2dFP5kMzuN0
0001:0003d7c0  __ZNSt6vectorIdSaIdEE13_M_insert_auxEN9__gnu_cxx17__normal_iteratorIPdS1_EERKd$w$bu4lHu2dFP5kMzuN0
0001:0003e388  __ZNSt6vectorI11InMemoryDocSaIS0_EE13_M_insert_auxEN9__gnu_cxx17__normal_iteratorIPS0_S2_EERKS0_$w$bu4lHu2dFP5kMzuN0
0001:0003d8cc* __ZNSt6vectorIjSaIjEE13_M_insert_auxEN9__gnu_cxx17__normal_iteratorIPjS1_EERKj$w$bu4lHu2dFP5kMzuN0
0001:000410f8  __ZSt11lower_boundIN9__gnu_cxx17__normal_iteratorIP15InMemoryPostingSt6vectorIS2_SaIS2_EEEES2_23InMemoryPostingLessThanET_S9_S9_RKT0_T1_$w$bu4lHu2dFP5kMzuN0
0001:0004113e  __ZNSt6vectorI15InMemoryPostingSaIS0_EE6insertEN9__gnu_cxx17__normal_iteratorIPS0_S2_EERKS0_$w$bu4lHu2dFP5kMzuN0
0001:0004133c  __ZSt11lower_boundIN9__gnu_cxx17__normal_iteratorIP17InMemoryTermEntrySt6vectorIS2_SaIS2_EEEES2_25InMemoryTermEntryLessThanET_S9_S9_RKT0_T1_$w$bu4lHu2dFP5kMzuN0
0001:000413ea  __ZNSt6vectorI17InMemoryTermEntrySaIS0_EE6insertEN9__gnu_cxx17__normal_iteratorIPS0_S2_EERKS0_$w$bu4lHu2dFP5kMzuN0
0001:00040e2c  __ZNSt6vectorIjSaIjEE15_M_range_insertIN9__gnu_cxx17__normal_iteratorIPKjS1_EEEEvNS4_IPjS1_EET_SA_St20forward_iterator_tag$w$bu4lHu2dFP5kMzuN0
0001:0003c45c  __ZSt4__lgIiET_S0_$w$bu4lHu2dFP5kMzuN0
0001:0003c476  __ZSt16__introsort_loopIN9__gnu_cxx17__normal_iteratorIPjSt6vectorIjSaIjEEEEiEvT_S7_T0_$w$bu4lHu2dFP5kMzuN0
0001:0003d9d2  __ZSt22__final_insertion_sortIN9__gnu_cxx17__normal_iteratorIPjSt6vectorIjSaIjEEEEEvT_S7_$w$bu4lHu2dFP5kMzuN0
0001:00041268  __ZNSt6vectorIjSaIjEEaSERKS1_$w$bu4lHu2dFP5kMzuN0
0001:0004181e  __ZSt8__medianIjERKT_S2_S2_S2_$w$bu4lHu2dFP5kMzuN0
0001:0004187a  __ZSt21__unguarded_partitionIN9__gnu_cxx17__normal_iteratorIPjSt6vectorIjSaIjEEEEjET_S7_S7_T0_$w$bu4lHu2dFP5kMzuN0
0001:000417a2  __ZSt12partial_sortIN9__gnu_cxx17__normal_iteratorIPjSt6vectorIjSaIjEEEEEvT_S7_S7_$w$bu4lHu2dFP5kMzuN0
0001:0003da38* __ZNSt8_Rb_treeIjSt4pairIKjSsESt10_Select1stIS2_ESt4lessIjESaIS2_EEaSERKS8_$w$bu4lHu2dFP5kMzuN0
0001:0003dadc  __ZSt24__uninitialized_copy_auxIN9__gnu_cxx17__normal_iteratorIPSt3mapIjSsSt4lessIjESaISt4pairIKjSsEEESt6vectorIS9_SaIS9_EEEESE_ET0_T_SG_SF_12__false_type$w$bu4lHu2dFP5kMzuN0
0001:00042500  __ZSt4fillIN9__gnu_cxx17__normal_iteratorIPdSt6vectorIdSaIdEEEEdEvT_S7_RKT0_$w$bu4lHu2dFP5kMzuN0
0001:00042528  __ZSt6fill_nIPdjdET_S1_T0_RKT1_$w$bu4lHu2dFP5kMzuN0
0001:0003db72  __ZSt6fill_nIN9__gnu_cxx17__normal_iteratorIPdSt6vectorIdSaIdEEEEjdET_S7_T0_RKT1_$w$bu4lHu2dFP5kMzuN0
0001:00042546* __ZNSt8_Rb_treeIjSt4pairIKjSsESt10_Select1stIS2_ESt4lessIjESaIS2_EE9_M_insertEPSt18_Rb_tree_node_baseSA_RKS2_$w$bu4lHu2dFP5kMzuN0
0001:00040ddc* __ZNSt22_Rb_tree_base_iterator12_M_decrementEv$w$bu4lHu2dFP5kMzuN0
0001:000425f0  __ZNSt6vectorI17InMemoryTermEntrySaIS0_EE20_M_allocate_and_copyIN9__gnu_cxx17__normal_iteratorIPKS0_S2_EEEEPS0_jT_SA_$w$bu4lHu2dFP5kMzuN0
0001:00042670  __ZNSt8_Rb_treeISsSt4pairIKSs12InMemoryTermESt10_Select1stIS3_ESt4lessISsESaIS3_EE9_M_insertEPSt18_Rb_tree_node_baseSB_RKS3_$w$bu4lHu2dFP5kMzuN0
0001:0003e218  __ZNSt8_Rb_treeISsSt4pairIKSs12InMemoryTermESt10_Select1stIS3_ESt4lessISsESaIS3_EE13insert_uniqueERKS3_$w$bu4lHu2dFP5kMzuN0
0001:000427ba  __ZSt16__insertion_sortIN9__gnu_cxx17__normal_iteratorIPjSt6vectorIjSaIjEEEEEvT_S7_$w$bu4lHu2dFP5kMzuN0
0001:00042784  __ZSt25__unguarded_linear_insertIN9__gnu_cxx17__normal_iteratorIPjSt6vectorIjSaIjEEEEjEvT_T0_$w$bu4lHu2dFP5kMzuN0
0001:00042402* __ZNSt8_Rb_treeIjSt4pairIKjSsESt10_Select1stIS2_ESt4lessIjESaIS2_EE7_M_copyEPSt13_Rb_tree_nodeIS2_ESB_$w$bu4lHu2dFP5kMzuN0
0001:0003f1ba* __ZSt24__uninitialized_copy_auxIN9__gnu_cxx17__normal_iteratorIPSsSt6vectorISsSaISsEEEES6_ET0_T_S8_S7_12__false_type$w$bu4lHu2dFP5kMzuN0
0001:0003f260  __ZSt26__uninitialized_fill_n_auxIN9__gnu_cxx17__normal_iteratorIPSsSt6vectorISsSaISsEEEEjSsET_S7_T0_RKT1_12__false_type$w$bu4lHu2dFP5kMzuN0
0001:0003ef9c* __ZSt24__uninitialized_copy_auxIPSsS0_ET0_T_S2_S1_12__false_type$w$bu4lHu2dFP5kMzuN0
0001:0003f03e  __ZSt4fillIN9__gnu_cxx17__normal_iteratorIPSsSt6vectorISsSaISsEEEESsEvT_S7_RKT0_$w$bu4lHu2dFP5kMzuN0
0001:0003f076  __ZSt26__uninitialized_fill_n_auxIPSsjSsET_S1_T0_RKT1_12__false_type$w$bu4lHu2dFP5kMzuN0
0001:0003f116  __ZSt24__uninitialized_copy_auxIN9__gnu_cxx17__normal_iteratorIPSsSt6vectorISsSaISsEEEES2_ET0_T_S8_S7_12__false_type$w$bu4lHu2dFP5kMzuN0
0001:0003f640  __ZSt24__uninitialized_copy_auxIN9__gnu_cxx17__normal_iteratorIP11InMemoryDocSt6vectorIS2_SaIS2_EEEES7_ET0_T_S9_S8_12__false_type$w$bu4lHu2dFP5kMzuN0
0001:0003f7c8  __ZSt24__uninitialized_copy_auxIP11InMemoryDocS1_ET0_T_S3_S2_12__false_type$w$bu4lHu2dFP5kMzuN0
0001:0003f952  __ZSt4fillIN9__gnu_cxx17__normal_iteratorIP11InMemoryDocSt6vectorIS2_SaIS2_EEEES2_EvT_S8_RKT0_$w$bu4lHu2dFP5kMzuN0
0001:0003f996  __ZSt26__uninitialized_fill_n_auxIP11InMemoryDocjS0_ET_S2_T0_RKT1_12__false_type$w$bu4lHu2dFP5kMzuN0
0001:0003fb14  __ZSt24__uninitialized_copy_auxIN9__gnu_cxx17__normal_iteratorIP11InMemoryDocSt6vectorIS2_SaIS2_EEEES3_ET0_T_S9_S8_12__false_type$w$bu4lHu2dFP5kMzuN0
0001:0003fca0  __ZSt26__uninitialized_fill_n_auxIN9__gnu_cxx17__normal_iteratorIP11InMemoryDocSt6vectorIS2_SaIS2_EEEEjS2_ET_S8_T0_RKT1_12__false_type$w$bu4lHu2dFP5kMzuN0
0001:00040024  __ZSt26__uninitialized_fill_n_auxIN9__gnu_cxx17__normal_iteratorIPSt3mapIjSsSt4lessIjESaISt4pairIKjSsEEESt6vectorIS9_SaIS9_EEEEjS9_ET_SF_T0_RKT1_12__false_type$w$bu4lHu2dFP5kMzuN0
0001:0003fe1e  __ZSt24__uninitialized_copy_auxIPSt3mapIjSsSt4lessIjESaISt4pairIKjSsEEES8_ET0_T_SA_S9_12__false_type$w$bu4lHu2dFP5kMzuN0
0001:0003feb0  __ZSt4fillIN9__gnu_cxx17__normal_iteratorIPSt3mapIjSsSt4lessIjESaISt4pairIKjSsEEESt6vectorIS9_SaIS9_EEEES9_EvT_SF_RKT0_$w$bu4lHu2dFP5kMzuN0
0001:0003fee8  __ZSt26__uninitialized_fill_n_auxIPSt3mapIjSsSt4lessIjESaISt4pairIKjSsEEEjS7_ET_S9_T0_RKT1_12__false_type$w$bu4lHu2dFP5kMzuN0
0001:0003ff84  __ZSt24__uninitialized_copy_auxIN9__gnu_cxx17__normal_iteratorIPSt3mapIjSsSt4lessIjESaISt4pairIKjSsEEESt6vectorIS9_SaIS9_EEEESA_ET0_T_SG_SF_12__false_type$w$bu4lHu2dFP5kMzuN0
0001:0004016f* __ZTS12LeafPostList$w$bu4lHu2dFP5kMzuN0
0001:00042b30* __ZTIN6Xapian15PostingIterator8InternalE$w$bu4lHu2dFP5kMzuN0
0001:0004015f  __ZTS13EmptyPostList$w$bu4lHu2dFP5kMzuN0
0001:0004014c  __ZTS16InMemoryPostList$w$bu4lHu2dFP5kMzuN0
0001:00040132  __ZTS23InMemoryAllDocsPostList$w$bu4lHu2dFP5kMzuN0
0001:0004011f  __ZTS16InMemoryTermList$w$bu4lHu2dFP5kMzuN0
0001:00042b70* __ZTIN6Xapian12TermIterator8InternalE$w$bu4lHu2dFP5kMzuN0
0001:0004010c  __ZTS16InMemoryDatabase$w$bu4lHu2dFP5kMzuN0
0001:00042b90* __ZTIN6Xapian8Database8InternalE$w$bu4lHu2dFP5kMzuN0
0001:00040180* __ZNSt15basic_streambufIcSt11char_traitsIcEE13_S_pback_sizeE$w$bu4lHu2dFP5kMzuN0
0001:00040584* __ZN6Xapian15PostingIterator8InternalD1Ev$w$bu4lHu2dFP5kMzuN0
0001:00040592* __ZN6Xapian15PostingIterator8InternalD0Ev$w$bu4lHu2dFP5kMzuN0
0001:00042b10* __ZTIN6Xapian16PositionIterator8InternalE$w$bu4lHu2dFP5kMzuN0
0001:00040564* __ZN6Xapian16PositionIterator8InternalD1Ev$w$bu4lHu2dFP5kMzuN0
0001:00040572* __ZN6Xapian16PositionIterator8InternalD0Ev$w$bu4lHu2dFP5kMzuN0
0001:00040d2e* __ZSt4fillISt13_Bit_iteratorbEvT_S1_RKT0_$w$bu4lHu2dFP5kMzuN0
0001:00041708* __ZSt6fill_nISt13_Bit_iteratorjbET_S1_T0_RKT1_$w$bu4lHu2dFP5kMzuN0
0001:000418d8  __ZNSt6vectorI15InMemoryPostingSaIS0_EE13_M_insert_auxEN9__gnu_cxx17__normal_iteratorIPS0_S2_EERKS0_$w$bu4lHu2dFP5kMzuN0
0001:00042dfe  __ZNSt6vectorIjSaIjEE20_M_allocate_and_copyIN9__gnu_cxx17__normal_iteratorIPKjS1_EEEEPjjT_S9_$w$bu4lHu2dFP5kMzuN0
0001:00041d22  __ZNSt6vectorI17InMemoryTermEntrySaIS0_EE13_M_insert_auxEN9__gnu_cxx17__normal_iteratorIPS0_S2_EERKS0_$w$bu4lHu2dFP5kMzuN0
0001:00042ebe  __ZSt9make_heapIN9__gnu_cxx17__normal_iteratorIPjSt6vectorIjSaIjEEEEEvT_S7_$w$bu4lHu2dFP5kMzuN0
0001:00042f16  __ZSt9sort_heapIN9__gnu_cxx17__normal_iteratorIPjSt6vectorIjSaIjEEEEEvT_S7_$w$bu4lHu2dFP5kMzuN0
0001:00042e4c  __ZSt13__adjust_heapIN9__gnu_cxx17__normal_iteratorIPjSt6vectorIjSaIjEEEEijEvT_T0_S8_T1_$w$bu4lHu2dFP5kMzuN0
0001:00042818  __ZSt24__uninitialized_copy_auxIN9__gnu_cxx17__normal_iteratorIP15InMemoryPostingSt6vectorIS2_SaIS2_EEEES7_ET0_T_S9_S8_12__false_type$w$bu4lHu2dFP5kMzuN0
0001:00042930  __ZSt24__uninitialized_copy_auxIN9__gnu_cxx17__normal_iteratorIP17InMemoryTermEntrySt6vectorIS2_SaIS2_EEEES7_ET0_T_S9_S8_12__false_type$w$bu4lHu2dFP5kMzuN0
0001:00042f74* __ZNSt8_Rb_treeIjSt4pairIKjSsESt10_Select1stIS2_ESt4lessIjESaIS2_EE14_M_create_nodeERKS2_$w$bu4lHu2dFP5kMzuN0
0001:00042cf6* __ZSt18_Rb_tree_rebalancePSt18_Rb_tree_node_baseRS0_$w$bu4lHu2dFP5kMzuN0
0001:00042fe6  __ZNSt8_Rb_treeISsSt4pairIKSs12InMemoryTermESt10_Select1stIS3_ESt4lessISsESaIS3_EE14_M_create_nodeERKS3_$w$bu4lHu2dFP5kMzuN0
0001:00042cd0* __ZTSN6Xapian16PositionIterator8InternalE$w$bu4lHu2dFP5kMzuN0
0001:00043118* __ZTIN6Xapian8Internal10RefCntBaseE$w$bu4lHu2dFP5kMzuN0
0001:00042c90* __ZTSN6Xapian15PostingIterator8InternalE$w$bu4lHu2dFP5kMzuN0
0001:00042c71* __ZTSN6Xapian18UnimplementedErrorE$w$bu4lHu2dFP5kMzuN0
0001:0004310c* __ZTIN6Xapian10LogicErrorE$w$bu4lHu2dFP5kMzuN0
0001:00042c50* __ZTSN6Xapian12TermIterator8InternalE$w$bu4lHu2dFP5kMzuN0
0001:00042c2c* __ZTSN6Xapian8Database8InternalE$w$bu4lHu2dFP5kMzuN0
0001:00042c10* __ZTSN6Xapian16DocNotFoundErrorE$w$bu4lHu2dFP5kMzuN0
0001:00043100* __ZTIN6Xapian12RuntimeErrorE$w$bu4lHu2dFP5kMzuN0
0001:00042bf0* __ZTSN6Xapian20InvalidArgumentErrorE$w$bu4lHu2dFP5kMzuN0
0001:00042bd4* __ZTSN6Xapian10RangeErrorE$w$bu4lHu2dFP5kMzuN0
0001:0004316e* __ZSt20_Rb_tree_rotate_leftPSt18_Rb_tree_node_baseRS0_$w$bu4lHu2dFP5kMzuN0
0001:000431b0* __ZSt21_Rb_tree_rotate_rightPSt18_Rb_tree_node_baseRS0_$w$bu4lHu2dFP5kMzuN0
0001:000431f2  __ZSt11__push_heapIN9__gnu_cxx17__normal_iteratorIPjSt6vectorIjSaIjEEEEijEvT_T0_S8_T1_$w$bu4lHu2dFP5kMzuN0
0001:00043155* __ZTSN6Xapian12RuntimeErrorE$w$bu4lHu2dFP5kMzuN0
0001:0004322c* __ZTIN6Xapian5ErrorE$w$bu4lHu2dFP5kMzuN0
0001:0004313f* __ZTSN6Xapian10LogicErrorE$w$bu4lHu2dFP5kMzuN0
0001:00043120* __ZTSN6Xapian8Internal10RefCntBaseE$w$bu4lHu2dFP5kMzuN0
0001:00043234* __ZTSN6Xapian5ErrorE$w$bu4lHu2dFP5kMzuN0
0002:000226e0* __ZN16__Atomicity_lockILi0EE17_S_atomicity_lockE$w$bu4lHu2dFP5kMzuN0
Module: F:\rd\dse\xapian-core-1.0.2\.libs\xapian.a(backends\flint\flint_database.cc)
0001:0004c132* __ZN21FlintWritableDatabaseD1Ev
0001:0004c36e* __ZN21FlintWritableDatabaseD0Ev
0001:00051330* __ZNK21FlintWritableDatabase12get_doccountEv
0001:00051340* __ZNK21FlintWritableDatabase13get_lastdocidEv
0001:00051354* __ZNK21FlintWritableDatabase12get_avlengthEv
0001:000513b2* __ZNK21FlintWritableDatabase13get_doclengthEj
0001:00051410* __ZNK21FlintWritableDatabase12get_termfreqERKSs
0001:0005146e* __ZNK21FlintWritableDatabase19get_collection_freqERKSs
0001:000514cc* __ZNK21FlintWritableDatabase11term_existsERKSs
0001:000514f0* __ZNK21FlintWritableDatabase13has_positionsEv
0001:0005150c* __ZNK21FlintWritableDatabase14open_post_listERKSs
0001:00051940* __ZNK21FlintWritableDatabase14open_term_listEj
0001:00051fe0* __ZNK21FlintWritableDatabase13open_alltermsERKSs
0001:00051ba4* __ZNK21FlintWritableDatabase18open_position_listEjRKSs
0001:00051a70* __ZNK21FlintWritableDatabase13open_documentEjb
0001:00052492* __ZNK21FlintWritableDatabase22open_spelling_termlistERKSs
0001:000524a8* __ZNK21FlintWritableDatabase22open_spelling_wordlistEv
0001:000526d6* __ZNK21FlintWritableDatabase22get_spelling_frequencyERKSs
0001:00052466* __ZNK21FlintWritableDatabase12add_spellingERKSsj
0001:0005247c* __ZNK21FlintWritableDatabase15remove_spellingERKSsj
0001:000526ec* __ZNK21FlintWritableDatabase21open_synonym_termlistERKSs
0001:00052702* __ZNK21FlintWritableDatabase20open_synonym_keylistERKSs
0001:00052844* __ZNK21FlintWritableDatabase11add_synonymERKSsS1_
0001:0005285a* __ZNK21FlintWritableDatabase14remove_synonymERKSsS1_
0001:00052870* __ZNK21FlintWritableDatabase14clear_synonymsERKSs
0001:0004c5e8* __ZN21FlintWritableDatabase5flushEv
0001:00052362* __ZN21FlintWritableDatabase6cancelEv
0001:0004ca42* __ZN21FlintWritableDatabase12add_documentERKN6Xapian8DocumentE
0001:0004dcf2* __ZN21FlintWritableDatabase15delete_documentEj
0001:0004ee34* __ZN21FlintWritableDatabase16replace_documentEjRKN6Xapian8DocumentE
0001:00048550* __ZN13FlintDatabaseD1Ev
0001:00048c08* __ZN13FlintDatabaseD0Ev
0001:0004a700* __ZNK13FlintDatabase12get_doccountEv
0001:0004a710* __ZNK13FlintDatabase13get_lastdocidEv
0001:0004a724* __ZNK13FlintDatabase12get_avlengthEv
0001:0004a786* __ZNK13FlintDatabase13get_doclengthEj
0001:0004a9ca* __ZNK13FlintDatabase12get_termfreqERKSs
0001:0004a9dc* __ZNK13FlintDatabase19get_collection_freqERKSs
0001:0004a9f2* __ZNK13FlintDatabase11term_existsERKSs
0001:0004abdc* __ZNK13FlintDatabase13has_positionsEv
0001:0004abf6* __ZNK13FlintDatabase14open_post_listERKSs
0001:0004ae3a* __ZNK13FlintDatabase14open_term_listEj
0001:0004b4f8* __ZNK13FlintDatabase13open_alltermsERKSs
0001:0004b0ee* __ZNK13FlintDatabase18open_position_listEjRKSs
0001:0004af6a* __ZNK13FlintDatabase13open_documentEjb
0001:0004b610* __ZNK13FlintDatabase22open_spelling_termlistERKSs
0001:0004b628* __ZNK13FlintDatabase22open_spelling_wordlistEv
0001:0004b84e* __ZNK13FlintDatabase22get_spelling_frequencyERKSs
0001:0004b864* __ZNK13FlintDatabase21open_synonym_termlistERKSs
0001:0004b87a* __ZNK13FlintDatabase20open_synonym_keylistERKSs
0001:00049e3c* __ZN13FlintDatabase6reopenEv
0001:0004a588* __ZN13FlintDatabase6cancelEv
0001:00043920* __ZN13FlintDatabaseC2ERKSsij
0001:000492c8* __ZN13FlintDatabase15database_existsEv
0001:00049706* __ZN13FlintDatabase22open_tables_consistentEv
0001:00049eca* __ZN13FlintDatabase23get_database_write_lockEv
0001:00049350* __ZN13FlintDatabase22create_and_open_tablesEj
0001:00049d8a* __ZNK13FlintDatabase24get_next_revision_numberEv
0001:00049d9c* __ZN13FlintDatabase19set_revision_numberEj
0001:00045bdc  __ZN13FlintDatabaseC1ERKSsij
0001:00047e98* __ZN13FlintDatabaseD2Ev
0001:00049c8c* __ZN13FlintDatabase11open_tablesEj
0001:00049d7e* __ZNK13FlintDatabase19get_revision_numberEv
0001:0004a1a0* __ZN13FlintDatabase5applyEv
0001:0004b9cc* __ZN21FlintWritableDatabaseC2ERKSsii
0001:0004bc60  __ZN21FlintWritableDatabaseC1ERKSsii
0001:0004bef6* __ZN21FlintWritableDatabaseD2Ev
0001:0004c87a* __ZNK21FlintWritableDatabase14do_flush_constEv
0001:0004ccb2* __ZN21FlintWritableDatabase13add_document_EjRKN6Xapian8DocumentE
0002:000226f0* __ZN21FlintWritableDatabase15flush_thresholdE
0001:00043250  __ZTV21FlintWritableDatabase$w$bgb8VaScFP5G8Iuq2
0001:000433e8* __ZN6Xapian8Database8Internal6reopenEv$w$bgb8VaScFP5G8Iuq2
0001:000433ee* __ZNK6Xapian8Database8Internal16request_documentEj$w$bgb8VaScFP5G8Iuq2
0001:000433f4* __ZNK6Xapian8Database8Internal16collect_documentEj$w$bgb8VaScFP5G8Iuq2
0001:00043418* __ZN6Xapian8Database8Internal17as_remotedatabaseEv$w$bgb8VaScFP5G8Iuq2
0001:000432f0  __ZTV13FlintDatabase$w$bgb8VaScFP5G8Iuq2
0001:00043390* __ZTV12LeafPostList$w$bgb8VaScFP5G8Iuq2
0001:0004368e* __ZN12LeafPostListD1Ev$w$bgb8VaScFP5G8Iuq2
0001:000436cc* __ZN12LeafPostListD0Ev$w$bgb8VaScFP5G8Iuq2
0001:00043726* __ZNK12LeafPostList16get_termfreq_minEv$w$bgb8VaScFP5G8Iuq2
0001:0004373c* __ZNK12LeafPostList16get_termfreq_estEv$w$bgb8VaScFP5G8Iuq2
0001:00043710* __ZNK12LeafPostList16get_termfreq_maxEv$w$bgb8VaScFP5G8Iuq2
0001:000437c0* __ZNK12LeafPostList13get_maxweightEv$w$bgb8VaScFP5G8Iuq2
0001:00043776* __ZNK12LeafPostList10get_weightEv$w$bgb8VaScFP5G8Iuq2
0001:00043420* __ZNK6Xapian15PostingIterator8Internal16get_collapse_keyEv$w$bgb8VaScFP5G8Iuq2
0001:000437d8* __ZN12LeafPostList16recalc_maxweightEv$w$bgb8VaScFP5G8Iuq2
0001:0004345e* __ZNK6Xapian15PostingIterator8Internal7get_wdfEv$w$bgb8VaScFP5G8Iuq2
0001:00043752* __ZN12LeafPostList14set_termweightEPKN6Xapian6WeightE$w$bgb8VaScFP5G8Iuq2
0001:000529f8  __ZNSt8_Rb_treeISsSsSt9_IdentityISsESt4lessISsESaISsEEC1ERKS3_RKS4_$w$bgb8VaScFP5G8Iuq2
0001:00052906  __ZNSt14__simple_allocISt13_Rb_tree_nodeISt4pairIK8fragmentSt3setISsSt4lessISsESaISsEEEESt24__default_alloc_templateILb1ELi0EEE8allocateEj$w$bgb8VaScFP5G8Iuq2
0001:00052926  __ZNSt8_Rb_treeI8fragmentSt4pairIKS0_St3setISsSt4lessISsESaISsEEESt10_Select1stIS8_ES4_IS0_ESaIS8_EE19_M_empty_initializeEv$w$bgb8VaScFP5G8Iuq2
0001:00052bde* __ZStplIcSt11char_traitsIcESaIcEESbIT_T0_T1_EPKS3_RKS6_$w$bgb8VaScFP5G8Iuq2
0001:00052a3e* __ZNSt8_Rb_treeISsSsSt9_IdentityISsESt4lessISsESaISsEE8_M_eraseEPSt13_Rb_tree_nodeISsE$w$bgb8VaScFP5G8Iuq2
0001:00052948  __ZNSt8_Rb_treeI8fragmentSt4pairIKS0_St3setISsSt4lessISsESaISsEEESt10_Select1stIS8_ES4_IS0_ESaIS8_EE8_M_eraseEPSt13_Rb_tree_nodeIS8_E$w$bgb8VaScFP5G8Iuq2
0001:00052cd4  __ZNSt8_Rb_treeISsSt4pairIKSsS0_IiiEESt10_Select1stIS3_ESt4lessISsESaIS3_EE8_M_eraseEPSt13_Rb_tree_nodeIS3_E$w$bgb8VaScFP5G8Iuq2
0001:00052d5e  __ZNSt8_Rb_treeIjSt4pairIKjjESt10_Select1stIS2_ESt4lessIjESaIS2_EE8_M_eraseEPSt13_Rb_tree_nodeIS2_E$w$bgb8VaScFP5G8Iuq2
0001:00052da2  __ZNSt8_Rb_treeISsSt4pairIKSsSt3mapIjS0_IcjESt4lessIjESaIS0_IKjS3_EEEESt10_Select1stISA_ES4_ISsESaISA_EE8_M_eraseEPSt13_Rb_tree_nodeISA_E$w$bgb8VaScFP5G8Iuq2
0001:00052ee4  __ZNSt8_Rb_treeISsSt4pairIKSsS0_IiiEESt10_Select1stIS3_ESt4lessISsESaIS3_EE4findERS1_$w$bgb8VaScFP5G8Iuq2
0001:00053160  __ZNSt8_Rb_treeISsSt4pairIKSsSt3mapIjS0_IcjESt4lessIjESaIS0_IKjS3_EEEESt10_Select1stISA_ES4_ISsESaISA_EE4findERS1_$w$bgb8VaScFP5G8Iuq2
0001:00052ac8  __ZNSt8_Rb_treeIjSt4pairIKjS0_IcjEESt10_Select1stIS3_ESt4lessIjESaIS3_EEC1ERKS9_$w$bgb8VaScFP5G8Iuq2
0001:00052b9a  __ZNSt8_Rb_treeIjSt4pairIKjS0_IcjEESt10_Select1stIS3_ESt4lessIjESaIS3_EE8_M_eraseEPSt13_Rb_tree_nodeIS3_E$w$bgb8VaScFP5G8Iuq2
0001:00052ff0  __ZNSt8_Rb_treeISsSt4pairIKSsS0_IiiEESt10_Select1stIS3_ESt4lessISsESaIS3_EE13insert_uniqueERKS3_$w$bgb8VaScFP5G8Iuq2
0001:00052886* __ZStplIcSt11char_traitsIcESaIcEESbIT_T0_T1_ERKS6_S8_$w$bgb8VaScFP5G8Iuq2
0001:00053960  __ZTI21FlintWritableDatabase$w$bgb8VaScFP5G8Iuq2
0001:00053954  __ZTI13FlintDatabase$w$bgb8VaScFP5G8Iuq2
0001:00053948* __ZTI12LeafPostList$w$bgb8VaScFP5G8Iuq2
0001:00053afe* __ZN6Xapian18UnimplementedErrorD1Ev$w$bgb8VaScFP5G8Iuq2
0001:00054f90* __ZTIN6Xapian18UnimplementedErrorE$w$bgb8VaScFP5G8Iuq2
0001:000539b0* __ZTVN6Xapian15PostingIterator8InternalE$w$bgb8VaScFP5G8Iuq2
0001:00053ff6* __ZN6Xapian20DatabaseOpeningErrorD1Ev$w$bgb8VaScFP5G8Iuq2
0001:00054fa8* __ZTIN6Xapian20DatabaseOpeningErrorE$w$bgb8VaScFP5G8Iuq2
0001:00053d7a  __ZN6Xapian19DatabaseCreateErrorD1Ev$w$bgb8VaScFP5G8Iuq2
0001:00054fb4  __ZTIN6Xapian19DatabaseCreateErrorE$w$bgb8VaScFP5G8Iuq2
0001:0005433e* __ZNSt8_Rb_treeISsSt4pairIKSsjESt10_Select1stIS2_ESt4lessISsESaIS2_EED1Ev$w$bgb8VaScFP5G8Iuq2
0001:000543b8* __ZNSt8_Rb_treeISsSt4pairIKSsjESt10_Select1stIS2_ESt4lessISsESaIS2_EE8_M_eraseEPSt13_Rb_tree_nodeIS2_E$w$bgb8VaScFP5G8Iuq2
0001:00053f22  __ZN6Xapian21DatabaseModifiedErrorD1Ev$w$bgb8VaScFP5G8Iuq2
0001:00054fcc  __ZTIN6Xapian21DatabaseModifiedErrorE$w$bgb8VaScFP5G8Iuq2
0001:00053ca6  __ZN6Xapian20DatabaseCorruptErrorD1Ev$w$bgb8VaScFP5G8Iuq2
0001:00054fc0  __ZTIN6Xapian20DatabaseCorruptErrorE$w$bgb8VaScFP5G8Iuq2
0001:00053e4e  __ZN6Xapian17DatabaseLockErrorD1Ev$w$bgb8VaScFP5G8Iuq2
0001:00054fd8  __ZTIN6Xapian17DatabaseLockErrorE$w$bgb8VaScFP5G8Iuq2
0001:00053bd2  __ZN6Xapian13DatabaseErrorD1Ev$w$bgb8VaScFP5G8Iuq2
0001:00054fe4* __ZTIN6Xapian13DatabaseErrorE$w$bgb8VaScFP5G8Iuq2
0001:00054ffc* __ZTIN6Xapian5ErrorE$w$bgb8VaScFP5G8Iuq2
0001:000540ca* __ZN6Xapian10RangeErrorD1Ev$w$bgb8VaScFP5G8Iuq2
0001:00054ff0* __ZTIN6Xapian10RangeErrorE$w$bgb8VaScFP5G8Iuq2
0001:000545f0  __ZN17FlintAllTermsListC1EN6Xapian8Internal9RefCntPtrIKNS0_8Database8InternalEEEPK18FlintPostListTableRKSs$w$bgb8VaScFP5G8Iuq2
0001:00054442  __ZN20FlintSynonymTermListC1EN6Xapian8Internal9RefCntPtrIKNS0_8Database8InternalEEEP11FlintCursorjRKSs$w$bgb8VaScFP5G8Iuq2
0001:00053a2a* __ZN6Xapian21InvalidOperationErrorD1Ev$w$bgb8VaScFP5G8Iuq2
0001:00054f9c* __ZTIN6Xapian21InvalidOperationErrorE$w$bgb8VaScFP5G8Iuq2
0001:0005326c  __ZNSt8_Rb_treeISsSt4pairIKSsSt3mapIjS0_IcjESt4lessIjESaIS0_IKjS3_EEEESt10_Select1stISA_ES4_ISsESaISA_EE13insert_uniqueERKSA_$w$bgb8VaScFP5G8Iuq2
0001:000533dc  __ZNSt8_Rb_treeIjSt4pairIKjS0_IcjEESt10_Select1stIS3_ESt4lessIjESaIS3_EE13insert_uniqueERKS3_$w$bgb8VaScFP5G8Iuq2
0001:000534a8  __ZNSt8_Rb_treeIjSt4pairIKjjESt10_Select1stIS2_ESt4lessIjESaIS2_EE11lower_boundERS1_$w$bgb8VaScFP5G8Iuq2
0001:000534dc  __ZNSt8_Rb_treeIjSt4pairIKjjESt10_Select1stIS2_ESt4lessIjESaIS2_EE13insert_uniqueESt17_Rb_tree_iteratorIS2_RS2_PS2_ERKS2_$w$bgb8VaScFP5G8Iuq2
0001:0005419e  __Z25pack_uint_preserving_sortIjESsT_$w$bgb8VaScFP5G8Iuq2
0001:000535b4  __ZNSt8_Rb_treeIjSt4pairIKjS0_IcjEESt10_Select1stIS3_ESt4lessIjESaIS3_EE4findERS1_$w$bgb8VaScFP5G8Iuq2
0001:0005360a  __ZNSt8_Rb_treeIjSt4pairIKjjESt10_Select1stIS2_ESt4lessIjESaIS2_EE5eraseERS1_$w$bgb8VaScFP5G8Iuq2
0001:00053730  __ZNSt4listISt4pairISsjESaIS1_EE6insertESt14_List_iteratorIS1_RS1_PS1_ERKS1_$w$bgb8VaScFP5G8Iuq2
0001:000536ae  __ZNSt10_List_baseISt4pairISsjESaIS1_EE7__clearEv$w$bgb8VaScFP5G8Iuq2
0001:00055004  __ZTIN6Xapian16DocNotFoundErrorE$w$bgb8VaScFP5G8Iuq2
0001:000549d6  __ZNSt8_Rb_treeIjSt4pairIKjjESt10_Select1stIS2_ESt4lessIjESaIS2_EE4findERS1_$w$bgb8VaScFP5G8Iuq2
0001:0005377c  __ZNSt8_Rb_treeIjSt4pairIKjS0_IcjEESt10_Select1stIS3_ESt4lessIjESaIS3_EE7_M_copyEPSt13_Rb_tree_nodeIS3_ESC_$w$bgb8VaScFP5G8Iuq2
0001:000542ce* __ZNSt22_Rb_tree_base_iterator12_M_decrementEv$w$bgb8VaScFP5G8Iuq2
0001:00054a2c  __ZNSt8_Rb_treeISsSt4pairIKSsS0_IiiEESt10_Select1stIS3_ESt4lessISsESaIS3_EE9_M_insertEPSt18_Rb_tree_node_baseSB_RKS3_$w$bgb8VaScFP5G8Iuq2
0001:00054b40  __ZNSt8_Rb_treeISsSt4pairIKSsSt3mapIjS0_IcjESt4lessIjESaIS0_IKjS3_EEEESt10_Select1stISA_ES4_ISsESaISA_EE9_M_insertEPSt18_Rb_tree_node_baseSH_RKSA_$w$bgb8VaScFP5G8Iuq2
0001:00054c90  __ZNSt8_Rb_treeIjSt4pairIKjS0_IcjEESt10_Select1stIS3_ESt4lessIjESaIS3_EE9_M_insertEPSt18_Rb_tree_node_baseSB_RKS3_$w$bgb8VaScFP5G8Iuq2
0001:00054d3a  __ZNSt8_Rb_treeIjSt4pairIKjjESt10_Select1stIS2_ESt4lessIjESaIS2_EE9_M_insertEPSt18_Rb_tree_node_baseSA_RKS2_$w$bgb8VaScFP5G8Iuq2
0001:0005387a  __ZNSt8_Rb_treeIjSt4pairIKjjESt10_Select1stIS2_ESt4lessIjESaIS2_EE13insert_uniqueERKS2_$w$bgb8VaScFP5G8Iuq2
0001:00054de4  __ZNSt8_Rb_treeIjSt4pairIKjjESt10_Select1stIS2_ESt4lessIjESaIS2_EE11upper_boundERS1_$w$bgb8VaScFP5G8Iuq2
0001:00054e18  __ZNSt8_Rb_treeIjSt4pairIKjjESt10_Select1stIS2_ESt4lessIjESaIS2_EE5eraseESt17_Rb_tree_iteratorIS2_RS2_PS2_ESC_$w$bgb8VaScFP5G8Iuq2
0001:00054286* __ZNSt22_Rb_tree_base_iterator12_M_incrementEv$w$bgb8VaScFP5G8Iuq2
0001:00054ecc  __ZNSt4listISt4pairISsjESaIS1_EE14_M_create_nodeERKS1_$w$bgb8VaScFP5G8Iuq2
0001:00054c54  __ZNSt8_Rb_treeIjSt4pairIKjS0_IcjEESt10_Select1stIS3_ESt4lessIjESaIS3_EE14_M_create_nodeERKS3_$w$bgb8VaScFP5G8Iuq2
0001:00053994* __ZTS12LeafPostList$w$bgb8VaScFP5G8Iuq2
0001:00054f70* __ZTIN6Xapian15PostingIterator8InternalE$w$bgb8VaScFP5G8Iuq2
0001:00053984  __ZTS13FlintDatabase$w$bgb8VaScFP5G8Iuq2
0001:00054f50* __ZTIN6Xapian8Database8InternalE$w$bgb8VaScFP5G8Iuq2
0001:0005396c  __ZTS21FlintWritableDatabase$w$bgb8VaScFP5G8Iuq2
0001:000539a4* __ZNSt15basic_streambufIcSt11char_traitsIcEE13_S_pback_sizeE$w$bgb8VaScFP5G8Iuq2
0001:0005431e* __ZN6Xapian15PostingIterator8InternalD1Ev$w$bgb8VaScFP5G8Iuq2
0001:0005432c* __ZN6Xapian15PostingIterator8InternalD0Ev$w$bgb8VaScFP5G8Iuq2
0001:0005559e  __ZNSt8_Rb_treeISsSt4pairIKSsS0_IiiEESt10_Select1stIS3_ESt4lessISsESaIS3_EE14_M_create_nodeERKS3_$w$bgb8VaScFP5G8Iuq2
0001:000551b0* __ZSt18_Rb_tree_rebalancePSt18_Rb_tree_node_baseRS0_$w$bgb8VaScFP5G8Iuq2
0001:00055618  __ZNSt8_Rb_treeISsSt4pairIKSsSt3mapIjS0_IcjESt4lessIjESaIS0_IKjS3_EEEESt10_Select1stISA_ES4_ISsESaISA_EE14_M_create_nodeERKSA_$w$bgb8VaScFP5G8Iuq2
0001:000556de  __ZNSt8_Rb_treeIjSt4pairIKjjESt10_Select1stIS2_ESt4lessIjESaIS2_EE14_M_create_nodeERKS2_$w$bgb8VaScFP5G8Iuq2
0001:000552b8* __ZSt28_Rb_tree_rebalance_for_erasePSt18_Rb_tree_node_baseRS0_S1_S1_$w$bgb8VaScFP5G8Iuq2
0001:00055194* __ZTSN6Xapian8Database8InternalE$w$bgb8VaScFP5G8Iuq2
0001:00055724* __ZTIN6Xapian8Internal10RefCntBaseE$w$bgb8VaScFP5G8Iuq2
0001:00055170* __ZTSN6Xapian15PostingIterator8InternalE$w$bgb8VaScFP5G8Iuq2
0001:00055151* __ZTSN6Xapian18UnimplementedErrorE$w$bgb8VaScFP5G8Iuq2
0001:00055718* __ZTIN6Xapian10LogicErrorE$w$bgb8VaScFP5G8Iuq2
0001:00055130* __ZTSN6Xapian21InvalidOperationErrorE$w$bgb8VaScFP5G8Iuq2
0001:00055110* __ZTSN6Xapian20DatabaseOpeningErrorE$w$bgb8VaScFP5G8Iuq2
0001:000550f0  __ZTSN6Xapian19DatabaseCreateErrorE$w$bgb8VaScFP5G8Iuq2
0001:000550d0  __ZTSN6Xapian20DatabaseCorruptErrorE$w$bgb8VaScFP5G8Iuq2
0001:00055090  __ZTSN6Xapian21DatabaseModifiedErrorE$w$bgb8VaScFP5G8Iuq2
0001:0005506b  __ZTSN6Xapian17DatabaseLockErrorE$w$bgb8VaScFP5G8Iuq2
0001:00055052* __ZTSN6Xapian13DatabaseErrorE$w$bgb8VaScFP5G8Iuq2
0001:0005570c* __ZTIN6Xapian12RuntimeErrorE$w$bgb8VaScFP5G8Iuq2
0001:0005503c* __ZTSN6Xapian10RangeErrorE$w$bgb8VaScFP5G8Iuq2
0001:0005502c* __ZTSN6Xapian5ErrorE$w$bgb8VaScFP5G8Iuq2
0001:00055010  __ZTSN6Xapian16DocNotFoundErrorE$w$bgb8VaScFP5G8Iuq2
0001:0005577a* __ZSt20_Rb_tree_rotate_leftPSt18_Rb_tree_node_baseRS0_$w$bgb8VaScFP5G8Iuq2
0001:000557bc* __ZSt21_Rb_tree_rotate_rightPSt18_Rb_tree_node_baseRS0_$w$bgb8VaScFP5G8Iuq2
0001:00055761* __ZTSN6Xapian12RuntimeErrorE$w$bgb8VaScFP5G8Iuq2
0001:0005574b* __ZTSN6Xapian10LogicErrorE$w$bgb8VaScFP5G8Iuq2
0001:0005572c* __ZTSN6Xapian8Internal10RefCntBaseE$w$bgb8VaScFP5G8Iuq2
0002:000226f4* __ZN16__Atomicity_lockILi0EE17_S_atomicity_lockE$w$bgb8VaScFP5G8Iuq2
Module: F:\rd\dse\xapian-core-1.0.2\.libs\xapian.a(matcher\andpostlist.cc)
0001:00055e7a* __ZNK11AndPostList16get_termfreq_minEv
0001:00055e82* __ZNK11AndPostList16get_termfreq_estEv
0001:00055e3c* __ZNK11AndPostList16get_termfreq_maxEv
0001:00055f2c* __ZNK11AndPostList13get_maxweightEv
0001:00055eee* __ZNK11AndPostList9get_docidEv
0001:00055efa* __ZNK11AndPostList10get_weightEv
0001:000563bc* __ZNK11AndPostList13get_doclengthEv
0001:00055f3a* __ZN11AndPostList16recalc_maxweightEv
0001:00055da4* __ZN11AndPostList4nextEd
0001:00055de8* __ZN11AndPostList7skip_toEjd
0001:00055f6c* __ZNK11AndPostList6at_endEv
0001:00055f8a* __ZNK11AndPostList15get_descriptionEv
0001:00055ca4* __ZN11AndPostListC2EPN6Xapian15PostingIterator8InternalES3_P10MultiMatchjb
0001:00055d24  __ZN11AndPostListC1EPN6Xapian15PostingIterator8InternalES3_P10MultiMatchjb
0001:00055810  __ZTV11AndPostList$w$ZFlJ1EcdFP5qmIGE0
0001:00056620  __ZTI11AndPostList$w$ZFlJ1EcdFP5qmIGE0
0001:00055c60  __ZN11AndPostListD1Ev$w$ZFlJ1EcdFP5qmIGE0
0001:00055c7c  __ZN11AndPostListD0Ev$w$ZFlJ1EcdFP5qmIGE0
0001:00055c58* __ZNK6Xapian15PostingIterator8Internal16get_collapse_keyEv$w$ZFlJ1EcdFP5qmIGE0
0001:00055860* __ZTV13StatsGatherer$w$ZFlJ1EcdFP5qmIGE0
0001:00056618* __ZTI13StatsGatherer$w$ZFlJ1EcdFP5qmIGE0
0001:00055878* __ZN13StatsGathererD1Ev$w$ZFlJ1EcdFP5qmIGE0
0001:00055a5e* __ZN13StatsGathererD0Ev$w$ZFlJ1EcdFP5qmIGE0
0001:00055c4a* __ZN13StatsGatherer16set_global_statsEj$w$ZFlJ1EcdFP5qmIGE0
0001:000563d4* __ZNSt8_Rb_treeISsSt4pairIKSsjESt10_Select1stIS2_ESt4lessISsESaIS2_EE8_M_eraseEPSt13_Rb_tree_nodeIS2_E$w$ZFlJ1EcdFP5qmIGE0
0001:0005645e* __ZNSt8_Rb_treeIPN6Xapian6Weight8InternalES3_St9_IdentityIS3_ESt4lessIS3_ESaIS3_EE8_M_eraseEPSt13_Rb_tree_nodeIS3_E$w$ZFlJ1EcdFP5qmIGE0
0001:00056650  __ZN11AndPostList23process_next_or_skip_toEdPN6Xapian15PostingIterator8InternalE$w$ZFlJ1EcdFP5qmIGE0
0001:000564a2* __ZStplIcSt11char_traitsIcESaIcEESbIT_T0_T1_EPKS3_RKS6_$w$ZFlJ1EcdFP5qmIGE0
0001:00056598* __ZStplIcSt11char_traitsIcESaIcEESbIT_T0_T1_ERKS6_S8_$w$ZFlJ1EcdFP5qmIGE0
0001:0005663a* __ZTS13StatsGatherer$w$ZFlJ1EcdFP5qmIGE0
0001:0005662c  __ZTS11AndPostList$w$ZFlJ1EcdFP5qmIGE0
0001:0005682c* __ZTI14BranchPostList$w$ZFlJ1EcdFP5qmIGE0
0001:0005664c* __ZNSt15basic_streambufIcSt11char_traitsIcEE13_S_pback_sizeE$w$ZFlJ1EcdFP5qmIGE0
0001:00056838* __ZTS14BranchPostList$w$ZFlJ1EcdFP5qmIGE0
0001:00056850* __ZTIN6Xapian15PostingIterator8InternalE$w$ZFlJ1EcdFP5qmIGE0
0001:00056870* __ZTSN6Xapian15PostingIterator8InternalE$w$ZFlJ1EcdFP5qmIGE0
0001:00056894* __ZTIN6Xapian8Internal10RefCntBaseE$w$ZFlJ1EcdFP5qmIGE0
0001:0005689c* __ZTSN6Xapian8Internal10RefCntBaseE$w$ZFlJ1EcdFP5qmIGE0
0002:00022700* __ZN16__Atomicity_lockILi0EE17_S_atomicity_lockE$w$ZFlJ1EcdFP5qmIGE0
Module: F:\rd\dse\xapian-core-1.0.2\.libs\xapian.a(languages\porter.cc)
0001:00057856* __ZN6Xapian18InternalStemPorterD1Ev
0001:00057872* __ZN6Xapian18InternalStemPorterD0Ev
0001:0005744c* __ZN6Xapian18InternalStemPorter4stemEv
0001:000578a2* __ZNK6Xapian18InternalStemPorter15get_descriptionEv
0001:000568e8* __ZN6Xapian18InternalStemPorter8r_shortvEv
0001:0005698a* __ZN6Xapian18InternalStemPorter4r_R1Ev
0001:0005699e* __ZN6Xapian18InternalStemPorter4r_R2Ev
0001:000569b2* __ZN6Xapian18InternalStemPorter9r_Step_1aEv
0001:00056a8a* __ZN6Xapian18InternalStemPorter9r_Step_1bEv
0001:00056dce* __ZN6Xapian18InternalStemPorter9r_Step_1cEv
0001:00056e90* __ZN6Xapian18InternalStemPorter8r_Step_2Ev
0001:00057040* __ZN6Xapian18InternalStemPorter8r_Step_3Ev
0001:0005714c* __ZN6Xapian18InternalStemPorter8r_Step_4Ev
0001:00057280* __ZN6Xapian18InternalStemPorter9r_Step_5aEv
0001:000573b6* __ZN6Xapian18InternalStemPorter9r_Step_5bEv
0001:000577d2* __ZN6Xapian18InternalStemPorterC2Ev
0001:00057806  __ZN6Xapian18InternalStemPorterC1Ev
0001:0005783a* __ZN6Xapian18InternalStemPorterD2Ev
0001:000568d0  __ZTVN6Xapian18InternalStemPorterE$w$HopDsw9dFP5w04Zg2
0001:000578ac  __ZTIN6Xapian18InternalStemPorterE$w$HopDsw9dFP5w04Zg2
0001:00057d6c  __ZTSN6Xapian18InternalStemPorterE$w$HopDsw9dFP5w04Zg2
0001:00057e90* __ZTIN6Xapian4Stem8InternalE$w$HopDsw9dFP5w04Zg2
0001:00057eb0* __ZTSN6Xapian4Stem8InternalE$w$HopDsw9dFP5w04Zg2
0001:00057ec8* __ZTIN6Xapian8Internal10RefCntBaseE$w$HopDsw9dFP5w04Zg2
0001:00057ed0* __ZTSN6Xapian8Internal10RefCntBaseE$w$HopDsw9dFP5w04Zg2
0002:00022710* __ZN16__Atomicity_lockILi0EE17_S_atomicity_lockE$w$HopDsw9dFP5w04Zg2
Module: F:\rd\dse\xapian-core-1.0.2\.libs\xapian.a(backends\flint\flint_positionlist.cc)
0001:00058ffa* __ZNK17FlintPositionList8get_sizeEv
0001:0005900c* __ZNK17FlintPositionList12get_positionEv
0001:0005901a* __ZN17FlintPositionList4nextEv
0001:00059032* __ZN17FlintPositionList7skip_toEj
0001:0005906c* __ZNK17FlintPositionList6at_endEv
0001:00057fb0* __ZN6Xapian9BitReader20decode_interpolativeERSt6vectorIjSaIjEEii
0001:0005805c  __ZN22FlintPositionListTable16set_positionlistEjRKSsN6Xapian16PositionIteratorERKS3_
0001:00058850  __ZN17FlintPositionList9read_dataEPK10FlintTablejRKSs
0001:00057ef0  __ZTV17FlintPositionList$w$nQaGqOTcFP5cxbMK1
0001:00059400  __ZTI17FlintPositionList$w$nQaGqOTcFP5cxbMK1
0001:00057f14  __ZN17FlintPositionListD1Ev$w$nQaGqOTcFP5cxbMK1
0001:00057f60  __ZN17FlintPositionListD0Ev$w$nQaGqOTcFP5cxbMK1
0001:00059430  __ZTVN6Xapian16PositionIterator8InternalE$w$nQaGqOTcFP5cxbMK1
0001:00059bc0  __ZN6Xapian9BitReader6decodeEj$w$nQaGqOTcFP5cxbMK1
0001:000596f0* __Z25pack_uint_preserving_sortIjESsT_$w$nQaGqOTcFP5cxbMK1
0001:00059084* __ZStplIcSt11char_traitsIcESaIcEESbIT_T0_T1_ERKS6_S8_$w$nQaGqOTcFP5cxbMK1
0001:000595ac  __Z9pack_uintIjESsT_$w$nQaGqOTcFP5cxbMK1
0001:000597f8  __ZN9BitWriter6encodeEjj$w$nQaGqOTcFP5cxbMK1
0001:00059104* __ZNSt6vectorIjSaIjEE13_M_insert_auxEN9__gnu_cxx17__normal_iteratorIPjS1_EERKj$w$nQaGqOTcFP5cxbMK1
0001:00059c6e* __ZNSt6vectorIjSaIjEE5eraseEN9__gnu_cxx17__normal_iteratorIPjS1_EES5_$w$nQaGqOTcFP5cxbMK1
0001:00059528  __Z11unpack_uintIjEbPPKcS1_PT_$w$nQaGqOTcFP5cxbMK1
0001:0005920a  __ZNSt6vectorIjSaIjEE14_M_fill_insertEN9__gnu_cxx17__normal_iteratorIPjS1_EEjRKj$w$nQaGqOTcFP5cxbMK1
0001:00059b12  __ZN6Xapian9BitReader9read_bitsEi$w$nQaGqOTcFP5cxbMK1
0001:00059454* __ZN6Xapian20DatabaseCorruptErrorD1Ev$w$nQaGqOTcFP5cxbMK1
0001:00059e30* __ZTIN6Xapian20DatabaseCorruptErrorE$w$nQaGqOTcFP5cxbMK1
0001:00059cb2  __ZSt4fillIN9__gnu_cxx17__normal_iteratorIPjSt6vectorIjSaIjEEEEjEvT_S7_RKT0_$w$nQaGqOTcFP5cxbMK1
0001:00059cda  __ZSt6fill_nIPjjjET_S1_T0_RKT1_$w$nQaGqOTcFP5cxbMK1
0001:000593de  __ZSt6fill_nIN9__gnu_cxx17__normal_iteratorIPjSt6vectorIjSaIjEEEEjjET_S7_T0_RKT1_$w$nQaGqOTcFP5cxbMK1
0001:0005940c  __ZTS17FlintPositionList$w$nQaGqOTcFP5cxbMK1
0001:00059d10  __ZTIN6Xapian16PositionIterator8InternalE$w$nQaGqOTcFP5cxbMK1
0001:00059420* __ZNSt15basic_streambufIcSt11char_traitsIcEE13_S_pback_sizeE$w$nQaGqOTcFP5cxbMK1
0001:000597d8  __ZN6Xapian16PositionIterator8InternalD1Ev$w$nQaGqOTcFP5cxbMK1
0001:000597e6  __ZN6Xapian16PositionIterator8InternalD0Ev$w$nQaGqOTcFP5cxbMK1
0001:00059e70  __ZTSN6Xapian16PositionIterator8InternalE$w$nQaGqOTcFP5cxbMK1
0001:00059ea4* __ZTIN6Xapian8Internal10RefCntBaseE$w$nQaGqOTcFP5cxbMK1
0001:00059e50* __ZTSN6Xapian20DatabaseCorruptErrorE$w$nQaGqOTcFP5cxbMK1
0001:00059e98* __ZTIN6Xapian13DatabaseErrorE$w$nQaGqOTcFP5cxbMK1
0001:00059ecb* __ZTSN6Xapian13DatabaseErrorE$w$nQaGqOTcFP5cxbMK1
0001:00059ee4* __ZTIN6Xapian12RuntimeErrorE$w$nQaGqOTcFP5cxbMK1
0001:00059eac* __ZTSN6Xapian8Internal10RefCntBaseE$w$nQaGqOTcFP5cxbMK1
0001:00059ef0* __ZTSN6Xapian12RuntimeErrorE$w$nQaGqOTcFP5cxbMK1
0001:00059f08* __ZTIN6Xapian5ErrorE$w$nQaGqOTcFP5cxbMK1
0001:00059f10* __ZTSN6Xapian5ErrorE$w$nQaGqOTcFP5cxbMK1
0002:00022720* __ZN16__Atomicity_lockILi0EE17_S_atomicity_lockE$w$nQaGqOTcFP5cxbMK1
Module: F:\rd\dse\xapian-core-1.0.2\.libs\xapian.a(api\omqueryinternal.cc)
0001:00059f64* __ZNK6Xapian5Query8Internal9serialiseERj
0001:0005a1e0* __ZN6Xapian5Query8Internal11get_op_nameEi
0001:0005a414  __ZNK6Xapian5Query8Internal15get_descriptionEv
0001:0005b230  __ZNK6Xapian5Query8Internal10get_lengthEv
0001:0005b270* __ZNK6Xapian5Query8Internal16accumulate_termsERSt6vectorISt4pairISsjESaIS4_EE
0001:0005b442  __ZNK6Xapian5Query8Internal9get_termsEv
0001:0005b81c* __ZN6Xapian5Query8Internal11unserialiseERKSs
0001:0005ba4c* __ZN6Xapian5Query8Internal4swapERS1_
0001:0005bada* __ZN6Xapian5Query8InternalC2ERKS1_
0001:0005bca0  __ZN6Xapian5Query8InternalC1ERKS1_
0001:0005be66* __ZN6Xapian5Query8InternalC2ERKSsjj
0001:0005d4e4  __ZNK6Xapian5Query8Internal14validate_queryEv
0001:0005bfb2  __ZN6Xapian5Query8InternalC1ERKSsjj
0001:0005c158* __ZN6Xapian5Query8InternalC2Eij
0001:0005c556  __ZN6Xapian5Query8InternalC1Eij
0001:0005c98a* __ZN6Xapian5Query8InternalC2EijRKSsS3_
0001:0005cd38  __ZN6Xapian5Query8InternalC1EijRKSsS3_
0001:0005d0e6* __ZN6Xapian5Query8InternalD2Ev
0001:0005d268  __ZN6Xapian5Query8InternalD1Ev
0001:0005d3ea  __ZN6Xapian5Query8Internal16end_constructionEv
0001:0005eaec* __ZN6Xapian5Query8Internal14simplify_queryEv
0001:0005e9b0* __ZN6Xapian5Query8Internal21simplify_matchnothingEv
0001:0005eca4* __ZN6Xapian5Query8Internal14collapse_subqsEv
0001:0005eeb8* __ZN6Xapian5Query8Internal13flatten_subqsEv
0001:0005f344  __ZN6Xapian5Query8Internal12add_subqueryEPKS1_
0001:00060cf2  __ZN6Xapian13InternalErrorD1Ev$w$93fBr7McFP5MPde74
0001:00062500  __ZTIN6Xapian13InternalErrorE$w$93fBr7McFP5MPde74
0001:0005f456* __ZStplIcSt11char_traitsIcESaIcEESbIT_T0_T1_EPKS3_RKS6_$w$93fBr7McFP5MPde74
0001:0005f54c* __ZStplIcSt11char_traitsIcESaIcEESbIT_T0_T1_ERKS6_S8_$w$93fBr7McFP5MPde74
0001:0005fc44  __ZNSt6vectorISt4pairISsjESaIS1_EE13_M_insert_auxEN9__gnu_cxx17__normal_iteratorIPS1_S3_EERKS1_$w$93fBr7McFP5MPde74
0001:0005f5cc  __ZSt16__introsort_loopIN9__gnu_cxx17__normal_iteratorIPSt4pairISsjESt6vectorIS3_SaIS3_EEEEi13LessByTermposEvT_SA_T0_T1_$w$93fBr7McFP5MPde74
0001:00060366  __ZSt22__final_insertion_sortIN9__gnu_cxx17__normal_iteratorIPSt4pairISsjESt6vectorIS3_SaIS3_EEEE13LessByTermposEvT_SA_T0_$w$93fBr7McFP5MPde74
0001:0005f734  __ZSt6uniqueIN9__gnu_cxx17__normal_iteratorIPSt4pairISsjESt6vectorIS3_SaIS3_EEEEET_S9_S9_$w$93fBr7McFP5MPde74
0001:0005f778  __ZNSt6vectorISt4pairISsjESaIS1_EE5eraseEN9__gnu_cxx17__normal_iteratorIPS1_S3_EES7_$w$93fBr7McFP5MPde74
0001:0006047a* __ZNSt6vectorISsSaISsEE13_M_insert_auxEN9__gnu_cxx17__normal_iteratorIPSsS1_EERKSs$w$93fBr7McFP5MPde74
0001:00060a10* __ZTV14VectorTermList$w$93fBr7McFP5MPde74
0001:00060740* __ZSt24__uninitialized_copy_auxIN9__gnu_cxx17__normal_iteratorIPKSsSt6vectorISsSaISsEEEEPSsET0_T_SA_S9_12__false_type$w$93fBr7McFP5MPde74
0001:0005f23e  __ZNSt6vectorIPN6Xapian5Query8InternalESaIS3_EE13_M_insert_auxEN9__gnu_cxx17__normal_iteratorIPS3_S5_EERKS3_$w$93fBr7McFP5MPde74
0001:00060a76* __ZN6Xapian20InvalidArgumentErrorD1Ev$w$93fBr7McFP5MPde74
0001:0006250c* __ZTIN6Xapian20InvalidArgumentErrorE$w$93fBr7McFP5MPde74
0001:00060b4a* __ZN6Xapian21InvalidOperationErrorD1Ev$w$93fBr7McFP5MPde74
0001:000624f4* __ZTIN6Xapian21InvalidOperationErrorE$w$93fBr7McFP5MPde74
0001:0005f848  __ZNSt6vectorIPN6Xapian5Query8InternalESaIS3_EE5eraseEN9__gnu_cxx17__normal_iteratorIPS3_S5_EES9_$w$93fBr7McFP5MPde74
0001:0005f88c  __ZNSt6vectorIPN6Xapian5Query8InternalESaIS3_EE5eraseEN9__gnu_cxx17__normal_iteratorIPS3_S5_EE$w$93fBr7McFP5MPde74
0001:0005f916  __ZNSt8_Rb_treeIPN6Xapian5Query8InternalES3_St9_IdentityIS3_E11SortPosNameSaIS3_EE4findERKS3_$w$93fBr7McFP5MPde74
0001:0005fa64  __ZNSt8_Rb_treeIPN6Xapian5Query8InternalES3_St9_IdentityIS3_E11SortPosNameSaIS3_EE13insert_uniqueERKS3_$w$93fBr7McFP5MPde74
0001:0005f8d2  __ZNSt8_Rb_treeIPN6Xapian5Query8InternalES3_St9_IdentityIS3_E11SortPosNameSaIS3_EE8_M_eraseEPSt13_Rb_tree_nodeIS3_E$w$93fBr7McFP5MPde74
0001:00060c1e* __ZN6Xapian18UnimplementedErrorD1Ev$w$93fBr7McFP5MPde74
0001:00062518* __ZTIN6Xapian18UnimplementedErrorE$w$93fBr7McFP5MPde74
0001:0005ff32  __ZSt8__medianISt4pairISsjE13LessByTermposERKT_S5_S5_S5_T0_$w$93fBr7McFP5MPde74
0001:00060176  __ZSt21__unguarded_partitionIN9__gnu_cxx17__normal_iteratorIPSt4pairISsjESt6vectorIS3_SaIS3_EEEES3_13LessByTermposET_SA_SA_T0_T1_$w$93fBr7McFP5MPde74
0001:000619a6  __ZSt12partial_sortIN9__gnu_cxx17__normal_iteratorIPSt4pairISsjESt6vectorIS3_SaIS3_EEEE13LessByTermposEvT_SA_SA_T0_$w$93fBr7McFP5MPde74
0001:00061bf2  __ZSt13adjacent_findIN9__gnu_cxx17__normal_iteratorIPSt4pairISsjESt6vectorIS3_SaIS3_EEEEET_S9_S9_$w$93fBr7McFP5MPde74
0001:00061c94  __ZSt13__unique_copyIN9__gnu_cxx17__normal_iteratorIPSt4pairISsjESt6vectorIS3_SaIS3_EEEES8_ET0_T_SA_S9_St20forward_iterator_tag$w$93fBr7McFP5MPde74
0001:00061d74  __ZNSt8_Rb_treeIPN6Xapian5Query8InternalES3_St9_IdentityIS3_E11SortPosNameSaIS3_EE9_M_insertEPSt18_Rb_tree_node_baseSA_RKS3_$w$93fBr7McFP5MPde74
0001:00061956* __ZNSt22_Rb_tree_base_iterator12_M_decrementEv$w$93fBr7McFP5MPde74
0001:000607e4  __ZSt24__uninitialized_copy_auxIN9__gnu_cxx17__normal_iteratorIPSt4pairISsjESt6vectorIS3_SaIS3_EEEES8_ET0_T_SA_S9_12__false_type$w$93fBr7McFP5MPde74
0001:000621b8  __ZSt16__insertion_sortIN9__gnu_cxx17__normal_iteratorIPSt4pairISsjESt6vectorIS3_SaIS3_EEEE13LessByTermposEvT_SA_T0_$w$93fBr7McFP5MPde74
0001:00060890  __ZSt25__unguarded_linear_insertIN9__gnu_cxx17__normal_iteratorIPSt4pairISsjESt6vectorIS3_SaIS3_EEEES3_13LessByTermposEvT_T0_T1_$w$93fBr7McFP5MPde74
0001:0006094c* __ZSt24__uninitialized_copy_auxIN9__gnu_cxx17__normal_iteratorIPSsSt6vectorISsSaISsEEEES6_ET0_T_S8_S7_12__false_type$w$93fBr7McFP5MPde74
0001:000609f4* __ZNSt15basic_streambufIcSt11char_traitsIcEE13_S_pback_sizeE$w$93fBr7McFP5MPde74
0001:000624e8* __ZTI14VectorTermList$w$93fBr7McFP5MPde74
0001:00060dc6* __ZN14VectorTermListD1Ev$w$93fBr7McFP5MPde74
0001:00060e7a* __ZN14VectorTermListD0Ev$w$93fBr7McFP5MPde74
0001:00060f3a* __ZNK14VectorTermList15get_approx_sizeEv$w$93fBr7McFP5MPde74
0001:00060f4c* __ZNK14VectorTermList16accumulate_statsERN6Xapian8Internal11ExpandStatsE$w$93fBr7McFP5MPde74
0001:00060f58* __ZNK14VectorTermList12get_termnameEv$w$93fBr7McFP5MPde74
0001:00060f88* __ZNK14VectorTermList7get_wdfEv$w$93fBr7McFP5MPde74
0001:00060fc0* __ZNK14VectorTermList12get_termfreqEv$w$93fBr7McFP5MPde74
0001:000611f0* __ZN14VectorTermList4nextEv$w$93fBr7McFP5MPde74
0001:00061232* __ZN14VectorTermList7skip_toERKSs$w$93fBr7McFP5MPde74
0001:00061462* __ZNK14VectorTermList6at_endEv$w$93fBr7McFP5MPde74
0001:00061726* __ZNK14VectorTermList18positionlist_countEv$w$93fBr7McFP5MPde74
0001:000614c0* __ZNK14VectorTermList18positionlist_beginEv$w$93fBr7McFP5MPde74
0001:000626ca  __ZSt9make_heapIN9__gnu_cxx17__normal_iteratorIPSt4pairISsjESt6vectorIS3_SaIS3_EEEE13LessByTermposEvT_SA_T0_$w$93fBr7McFP5MPde74
0001:0006206e  __ZSt9sort_heapIN9__gnu_cxx17__normal_iteratorIPSt4pairISsjESt6vectorIS3_SaIS3_EEEE13LessByTermposEvT_SA_T0_$w$93fBr7McFP5MPde74
0001:00061e9c  __ZSt13__adjust_heapIN9__gnu_cxx17__normal_iteratorIPSt4pairISsjESt6vectorIS3_SaIS3_EEEEiS3_13LessByTermposEvT_T0_SB_T1_T2_$w$93fBr7McFP5MPde74
0001:000627c4  __ZNSt8_Rb_treeIPN6Xapian5Query8InternalES3_St9_IdentityIS3_E11SortPosNameSaIS3_EE14_M_create_nodeERKS3_$w$93fBr7McFP5MPde74
0001:000625c2* __ZSt18_Rb_tree_rebalancePSt18_Rb_tree_node_baseRS0_$w$93fBr7McFP5MPde74
0001:0006240e  __ZSt11__push_heapIN9__gnu_cxx17__normal_iteratorIPSt4pairISsjESt6vectorIS3_SaIS3_EEEEiS3_13LessByTermposEvT_T0_SB_T1_T2_$w$93fBr7McFP5MPde74
0001:000625b1* __ZTS14VectorTermList$w$93fBr7McFP5MPde74
0001:000627f0* __ZTIN6Xapian12TermIterator8InternalE$w$93fBr7McFP5MPde74
0001:00062590* __ZTSN6Xapian21InvalidOperationErrorE$w$93fBr7McFP5MPde74
0001:00062810* __ZTIN6Xapian10LogicErrorE$w$93fBr7McFP5MPde74
0001:00062570  __ZTSN6Xapian13InternalErrorE$w$93fBr7McFP5MPde74
0001:0006281c* __ZTIN6Xapian12RuntimeErrorE$w$93fBr7McFP5MPde74
0001:00062550* __ZTSN6Xapian20InvalidArgumentErrorE$w$93fBr7McFP5MPde74
0001:00062524* __ZTSN6Xapian18UnimplementedErrorE$w$93fBr7McFP5MPde74
0001:00062892* __ZSt20_Rb_tree_rotate_leftPSt18_Rb_tree_node_baseRS0_$w$93fBr7McFP5MPde74
0001:000628d4* __ZSt21_Rb_tree_rotate_rightPSt18_Rb_tree_node_baseRS0_$w$93fBr7McFP5MPde74
0001:00062870* __ZTSN6Xapian12TermIterator8InternalE$w$93fBr7McFP5MPde74
0001:00062920* __ZTIN6Xapian8Internal10RefCntBaseE$w$93fBr7McFP5MPde74
0001:00062840* __ZTSN6Xapian10LogicErrorE$w$93fBr7McFP5MPde74
0001:00062918* __ZTIN6Xapian5ErrorE$w$93fBr7McFP5MPde74
0001:00062828* __ZTSN6Xapian12RuntimeErrorE$w$93fBr7McFP5MPde74
0001:00062947* __ZTSN6Xapian5ErrorE$w$93fBr7McFP5MPde74
0001:00062928* __ZTSN6Xapian8Internal10RefCntBaseE$w$93fBr7McFP5MPde74
0002:00022730* __ZN16__Atomicity_lockILi0EE17_S_atomicity_lockE$w$93fBr7McFP5MPde74
Module: F:\rd\dse\xapian-core-1.0.2\.libs\xapian.a(matcher\bm25weight.cc)
0001:00062de4* __ZNK6Xapian10BM25Weight5cloneEv
0001:00062e50* __ZNK6Xapian10BM25Weight4nameEv
0001:00062e86* __ZNK6Xapian10BM25Weight9serialiseEv
0001:0006315e* __ZNK6Xapian10BM25Weight11unserialiseERKSs
0001:0006341a* __ZNK6Xapian10BM25Weight11get_sumpartEjd
0001:000634aa* __ZNK6Xapian10BM25Weight11get_maxpartEv
0001:000634e0* __ZNK6Xapian10BM25Weight12get_sumextraEd
0001:00063516* __ZNK6Xapian10BM25Weight12get_maxextraEv
0001:00063526* __ZNK6Xapian10BM25Weight27get_sumpart_needs_doclengthEv
0001:00063228* __ZNK6Xapian10BM25Weight15calc_termweightEv
0001:00062970  __ZTVN6Xapian10BM25WeightE$w$tPUqOYcdFP5PeAMn4
0001:00063720  __ZTIN6Xapian10BM25WeightE$w$tPUqOYcdFP5PeAMn4
0001:000629c0  __ZN6Xapian10BM25WeightD1Ev$w$tPUqOYcdFP5PeAMn4
0001:000629dc  __ZN6Xapian10BM25WeightD0Ev$w$tPUqOYcdFP5PeAMn4
0001:000629a8* __ZTV13StatsGatherer$w$tPUqOYcdFP5PeAMn4
0001:0006372c* __ZTI13StatsGatherer$w$tPUqOYcdFP5PeAMn4
0001:00062a04* __ZN13StatsGathererD1Ev$w$tPUqOYcdFP5PeAMn4
0001:00062bea* __ZN13StatsGathererD0Ev$w$tPUqOYcdFP5PeAMn4
0001:00062dd6* __ZN13StatsGatherer16set_global_statsEj$w$tPUqOYcdFP5PeAMn4
0001:00063562* __ZNSt8_Rb_treeISsSt4pairIKSsjESt10_Select1stIS2_ESt4lessISsESaIS2_EE8_M_eraseEPSt13_Rb_tree_nodeIS2_E$w$tPUqOYcdFP5PeAMn4
0001:000635ec* __ZNSt8_Rb_treeIPN6Xapian6Weight8InternalES3_St9_IdentityIS3_ESt4lessIS3_ESaIS3_EE8_M_eraseEPSt13_Rb_tree_nodeIS3_E$w$tPUqOYcdFP5PeAMn4
0001:00063760  __ZN6Xapian10BM25WeightC1Eddddd$w$tPUqOYcdFP5PeAMn4
0001:00063630* __ZNKSt8_Rb_treeISsSt4pairIKSsjESt10_Select1stIS2_ESt4lessISsESaIS2_EE4findERS1_$w$tPUqOYcdFP5PeAMn4
0001:00063744  __ZTSN6Xapian10BM25WeightE$w$tPUqOYcdFP5PeAMn4
0001:00063850  __ZTIN6Xapian6WeightE$w$tPUqOYcdFP5PeAMn4
0001:00063734* __ZTS13StatsGatherer$w$tPUqOYcdFP5PeAMn4
0001:0006375c* __ZNSt15basic_streambufIcSt11char_traitsIcEE13_S_pback_sizeE$w$tPUqOYcdFP5PeAMn4
0001:00063858  __ZTSN6Xapian6WeightE$w$tPUqOYcdFP5PeAMn4
0002:00022740* __ZN16__Atomicity_lockILi0EE17_S_atomicity_lockE$w$tPUqOYcdFP5PeAMn4
Module: F:\rd\dse\xapian-core-1.0.2\.libs\xapian.a(matcher\localmatch.cc)
0001:000669b8* __ZN13LocalSubMatch13prepare_matchEb
0001:00066d8c* __ZN13LocalSubMatch11start_matchEjj
0001:00066d92* __ZN13LocalSubMatch26get_postlist_and_term_infoEP10MultiMatchPSt3mapISsN6Xapian4MSet8Internal17TermFreqAndWeightESt4lessISsESaISt4pairIKSsS6_EEE
0001:00064828* __ZN13LocalSubMatchC2EPKN6Xapian8Database8InternalEPKNS0_5Query8InternalEjRKNS0_4RSetEP13StatsGathererPKNS0_6WeightE
0001:00064b62  __ZN13LocalSubMatchC1EPKN6Xapian8Database8InternalEPKNS0_5Query8InternalEjRKNS0_4RSetEP13StatsGathererPKNS0_6WeightE
0001:00064e9c* __ZN13LocalSubMatch14build_xor_treeERSt6vectorIPN6Xapian15PostingIterator8InternalESaIS4_EEP10MultiMatch
0001:00065234* __ZN13LocalSubMatch14build_and_treeERSt6vectorIPN6Xapian15PostingIterator8InternalESaIS4_EEP10MultiMatch
0001:00065378* __ZN13LocalSubMatch13build_or_treeERSt6vectorIPN6Xapian15PostingIterator8InternalESaIS4_EEP10MultiMatch
0001:00065710* __ZN13LocalSubMatch21postlist_from_queriesEiPKN6Xapian5Query8InternalEP10MultiMatchb
0001:00065e46* __ZN13LocalSubMatch19postlist_from_queryEPKN6Xapian5Query8InternalEP10MultiMatchb
0001:0006662c* __ZN13LocalSubMatch13register_termERKSs
0001:00063870  __ZTV13LocalSubMatch$w$9bFS0GfdFP5hGlCp3
0001:00068d84  __ZTI13LocalSubMatch$w$9bFS0GfdFP5hGlCp3
0001:00063fae  __ZN13LocalSubMatchD1Ev$w$9bFS0GfdFP5hGlCp3
0001:000642ae  __ZN13LocalSubMatchD0Ev$w$9bFS0GfdFP5hGlCp3
0001:00063890* __ZTV13EmptyPostList$w$9bFS0GfdFP5hGlCp3
0001:00068d9c* __ZTI13EmptyPostList$w$9bFS0GfdFP5hGlCp3
0001:00064716* __ZN13EmptyPostListD1Ev$w$9bFS0GfdFP5hGlCp3
0001:00064754* __ZN13EmptyPostListD0Ev$w$9bFS0GfdFP5hGlCp3
0001:0006464c* __ZNK12LeafPostList16get_termfreq_minEv$w$9bFS0GfdFP5hGlCp3
0001:00064662* __ZNK12LeafPostList16get_termfreq_estEv$w$9bFS0GfdFP5hGlCp3
0001:00064636* __ZNK12LeafPostList16get_termfreq_maxEv$w$9bFS0GfdFP5hGlCp3
0001:000647a0* __ZNK13EmptyPostList13get_maxweightEv$w$9bFS0GfdFP5hGlCp3
0001:000647a8* __ZNK13EmptyPostList9get_docidEv$w$9bFS0GfdFP5hGlCp3
0001:000647b0* __ZNK13EmptyPostList10get_weightEv$w$9bFS0GfdFP5hGlCp3
0001:00063d40* __ZNK6Xapian15PostingIterator8Internal16get_collapse_keyEv$w$9bFS0GfdFP5hGlCp3
0001:000647b8* __ZNK13EmptyPostList13get_doclengthEv$w$9bFS0GfdFP5hGlCp3
0001:000646fe* __ZN12LeafPostList16recalc_maxweightEv$w$9bFS0GfdFP5hGlCp3
0001:00063d7e* __ZNK6Xapian15PostingIterator8Internal7get_wdfEv$w$9bFS0GfdFP5hGlCp3
0001:000647c0* __ZN13EmptyPostList18read_position_listEv$w$9bFS0GfdFP5hGlCp3
0001:000647c8* __ZNK13EmptyPostList18open_position_listEv$w$9bFS0GfdFP5hGlCp3
0001:000647d0* __ZN13EmptyPostList4nextEd$w$9bFS0GfdFP5hGlCp3
0001:000647d8* __ZN13EmptyPostList7skip_toEjd$w$9bFS0GfdFP5hGlCp3
0001:000647e0* __ZNK13EmptyPostList6at_endEv$w$9bFS0GfdFP5hGlCp3
0001:000647f2* __ZNK13EmptyPostList15get_descriptionEv$w$9bFS0GfdFP5hGlCp3
0001:00064798* __ZNK13EmptyPostList12get_termfreqEv$w$9bFS0GfdFP5hGlCp3
0001:00064678* __ZN12LeafPostList14set_termweightEPKN6Xapian6WeightE$w$9bFS0GfdFP5hGlCp3
0001:000638f0* __ZTV12LeafPostList$w$9bFS0GfdFP5hGlCp3
0001:00068d90* __ZTI12LeafPostList$w$9bFS0GfdFP5hGlCp3
0001:000645b4* __ZN12LeafPostListD1Ev$w$9bFS0GfdFP5hGlCp3
0001:000645f2* __ZN12LeafPostListD0Ev$w$9bFS0GfdFP5hGlCp3
0001:000646e6* __ZNK12LeafPostList13get_maxweightEv$w$9bFS0GfdFP5hGlCp3
0001:0006469c* __ZNK12LeafPostList10get_weightEv$w$9bFS0GfdFP5hGlCp3
0001:00063948* __ZTV13StatsGatherer$w$9bFS0GfdFP5hGlCp3
0001:00068d7c* __ZTI13StatsGatherer$w$9bFS0GfdFP5hGlCp3
0001:00063960* __ZN13StatsGathererD1Ev$w$9bFS0GfdFP5hGlCp3
0001:00063b46* __ZN13StatsGathererD0Ev$w$9bFS0GfdFP5hGlCp3
0001:00063d32* __ZN13StatsGatherer16set_global_statsEj$w$9bFS0GfdFP5hGlCp3
0001:00066ff0* __ZNSt8_Rb_treeISsSt4pairIKSsjESt10_Select1stIS2_ESt4lessISsESaIS2_EE8_M_eraseEPSt13_Rb_tree_nodeIS2_E$w$9bFS0GfdFP5hGlCp3
0001:000673ec* __ZNSt8_Rb_treeIPN6Xapian6Weight8InternalES3_St9_IdentityIS3_ESt4lessIS3_ESaIS3_EE8_M_eraseEPSt13_Rb_tree_nodeIS3_E$w$9bFS0GfdFP5hGlCp3
0001:00068f10* __ZN6Xapian18UnimplementedErrorD1Ev$w$9bFS0GfdFP5hGlCp3
0001:00069fd0* __ZTIN6Xapian18UnimplementedErrorE$w$9bFS0GfdFP5hGlCp3
0001:00066f66* __ZNSt8_Rb_treeISsSt4pairIKSsN6Xapian4MSet8Internal17TermFreqAndWeightEESt10_Select1stIS6_ESt4lessISsESaIS6_EE8_M_eraseEPSt13_Rb_tree_nodeIS6_E$w$9bFS0GfdFP5hGlCp3
0001:00066f22* __ZNSt8_Rb_treeIjjSt9_IdentityIjESt4lessIjESaIjEE8_M_eraseEPSt13_Rb_tree_nodeIjE$w$9bFS0GfdFP5hGlCp3
0001:00068e40* __ZTV8SubMatch$w$9bFS0GfdFP5hGlCp3
0001:00068e70* __ZTVN6Xapian15PostingIterator8InternalE$w$9bFS0GfdFP5hGlCp3
0001:000670c2* __ZNSt8_Rb_treeIjjSt9_IdentityIjESt4lessIjESaIjEEC1ERKS5_$w$9bFS0GfdFP5hGlCp3
0001:0006707a* __ZNSt8_Rb_treeISsSt4pairIKSsjESt10_Select1stIS2_ESt4lessISsESaIS2_EE5clearEv$w$9bFS0GfdFP5hGlCp3
0001:00067504  __ZSt9make_heapIN9__gnu_cxx17__normal_iteratorIPPN6Xapian15PostingIterator8InternalESt6vectorIS5_SaIS5_EEEE8PLPCmpGtEvT_SC_T0_$w$9bFS0GfdFP5hGlCp3
0001:00067fb8  __ZSt11__push_heapIN9__gnu_cxx17__normal_iteratorIPPN6Xapian15PostingIterator8InternalESt6vectorIS5_SaIS5_EEEEiS5_8PLPCmpGtEvT_T0_SD_T1_T2_$w$9bFS0GfdFP5hGlCp3
0001:00067562* __ZNSt6vectorIPN6Xapian15PostingIterator8InternalESaIS3_EE13_M_insert_auxEN9__gnu_cxx17__normal_iteratorIPS3_S5_EERKS3_$w$9bFS0GfdFP5hGlCp3
0001:00067668  __ZNSt6vectorIPN6Xapian15PostingIterator8InternalESaIS3_EE5eraseEN9__gnu_cxx17__normal_iteratorIPS3_S5_EES9_$w$9bFS0GfdFP5hGlCp3
0001:000676ac  __ZSt13__adjust_heapIN9__gnu_cxx17__normal_iteratorIPPN6Xapian15PostingIterator8InternalESt6vectorIS5_SaIS5_EEEEiS5_8PLPCmpGtEvT_T0_SD_T1_T2_$w$9bFS0GfdFP5hGlCp3
0001:00067752  __ZNSt17_Temporary_bufferIN9__gnu_cxx17__normal_iteratorIPPN6Xapian15PostingIterator8InternalESt6vectorIS5_SaIS5_EEEES5_EC1ESA_SA_$w$9bFS0GfdFP5hGlCp3
0001:000680b6  __ZSt22__stable_sort_adaptiveIN9__gnu_cxx17__normal_iteratorIPPN6Xapian15PostingIterator8InternalESt6vectorIS5_SaIS5_EEEES6_i8PLPCmpLtEvT_SC_T0_T1_T2_$w$9bFS0GfdFP5hGlCp3
0001:0006801a  __ZSt21__inplace_stable_sortIN9__gnu_cxx17__normal_iteratorIPPN6Xapian15PostingIterator8InternalESt6vectorIS5_SaIS5_EEEE8PLPCmpLtEvT_SC_T0_$w$9bFS0GfdFP5hGlCp3
0001:000677dc  __ZNSt6vectorIPN6Xapian15PostingIterator8InternalESaIS3_EE7reserveEj$w$9bFS0GfdFP5hGlCp3
0001:00067430  __ZNSt6vectorIPN6Xapian15PostingIterator8InternalESaIS3_EEaSERKS5_$w$9bFS0GfdFP5hGlCp3
0001:00067874  __ZSt11nth_elementIN9__gnu_cxx17__normal_iteratorIPPN6Xapian15PostingIterator8InternalESt6vectorIS5_SaIS5_EEEE13CmpMaxOrTermsEvT_SC_SC_T0_$w$9bFS0GfdFP5hGlCp3
0001:00067900* __ZNSt8_Rb_treeISsSt4pairIKSsN6Xapian4MSet8Internal17TermFreqAndWeightEESt10_Select1stIS6_ESt4lessISsESaIS6_EE4findERS1_$w$9bFS0GfdFP5hGlCp3
0001:00069076* __ZNKSt8_Rb_treeISsSt4pairIKSsjESt10_Select1stIS2_ESt4lessISsESaIS2_EE4findERS1_$w$9bFS0GfdFP5hGlCp3
0001:00067a0c  __ZNSt8_Rb_treeISsSt4pairIKSsN6Xapian4MSet8Internal17TermFreqAndWeightEESt10_Select1stIS6_ESt4lessISsESaIS6_EE13insert_uniqueERKS6_$w$9bFS0GfdFP5hGlCp3
0001:00068fe4* __ZNSt8_Rb_treeISsSt4pairIKSsjESt10_Select1stIS2_ESt4lessISsESaIS2_EE11lower_boundERS1_$w$9bFS0GfdFP5hGlCp3
0001:00067194* __ZNSt8_Rb_treeISsSt4pairIKSsjESt10_Select1stIS2_ESt4lessISsESaIS2_EE13insert_uniqueESt17_Rb_tree_iteratorIS2_RS2_PS2_ERKS2_$w$9bFS0GfdFP5hGlCp3
0001:00067b7c  __ZNSt8_Rb_treeISsSt4pairIKSsN6Xapian4MSet8Internal17TermFreqAndWeightEESt10_Select1stIS6_ESt4lessISsESaIS6_EEaSERKSC_$w$9bFS0GfdFP5hGlCp3
0001:00068df0  __ZTV19ExtraWeightPostList$w$9bFS0GfdFP5hGlCp3
0001:00067d4a* __ZNSt8_Rb_treeIjjSt9_IdentityIjESt4lessIjESaIjEE7_M_copyEPSt13_Rb_tree_nodeIjES8_$w$9bFS0GfdFP5hGlCp3
0001:00068ec0* __ZNSt22_Rb_tree_base_iterator12_M_decrementEv$w$9bFS0GfdFP5hGlCp3
0001:0006964a* __ZNSt8_Rb_treeISsSt4pairIKSsjESt10_Select1stIS2_ESt4lessISsESaIS2_EE9_M_insertEPSt18_Rb_tree_node_baseSA_RKS2_$w$9bFS0GfdFP5hGlCp3
0001:00067e48* __ZNSt8_Rb_treeISsSt4pairIKSsjESt10_Select1stIS2_ESt4lessISsESaIS2_EE13insert_uniqueERKS2_$w$9bFS0GfdFP5hGlCp3
0001:00069854  __ZNSt6vectorIPN6Xapian15PostingIterator8InternalESaIS3_EE20_M_allocate_and_copyIN9__gnu_cxx17__normal_iteratorIPKS3_S5_EEEEPS3_jT_SD_$w$9bFS0GfdFP5hGlCp3
0001:00067774  __ZNSt17_Temporary_bufferIN9__gnu_cxx17__normal_iteratorIPPN6Xapian15PostingIterator8InternalESt6vectorIS5_SaIS5_EEEES5_E18_M_allocate_bufferEv$w$9bFS0GfdFP5hGlCp3
0001:00068192  __ZNSt6vectorIPN6Xapian15PostingIterator8InternalESaIS3_EE20_M_allocate_and_copyIPS3_EES7_jT_S8_$w$9bFS0GfdFP5hGlCp3
0001:000682ba  __ZSt16__insertion_sortIN9__gnu_cxx17__normal_iteratorIPPN6Xapian15PostingIterator8InternalESt6vectorIS5_SaIS5_EEEE13CmpMaxOrTermsEvT_SC_T0_$w$9bFS0GfdFP5hGlCp3
0001:000698a2  __ZSt8__medianIPN6Xapian15PostingIterator8InternalE13CmpMaxOrTermsERKT_S7_S7_S7_T0_$w$9bFS0GfdFP5hGlCp3
0001:000681e0  __ZSt21__unguarded_partitionIN9__gnu_cxx17__normal_iteratorIPPN6Xapian15PostingIterator8InternalESt6vectorIS5_SaIS5_EEEES5_13CmpMaxOrTermsET_SC_SC_T0_T1_$w$9bFS0GfdFP5hGlCp3
0001:00069ae2  __ZNSt8_Rb_treeISsSt4pairIKSsN6Xapian4MSet8Internal17TermFreqAndWeightEESt10_Select1stIS6_ESt4lessISsESaIS6_EE9_M_insertEPSt18_Rb_tree_node_baseSE_RKS6_$w$9bFS0GfdFP5hGlCp3
0001:00067c4c* __ZNSt8_Rb_treeISsSt4pairIKSsN6Xapian4MSet8Internal17TermFreqAndWeightEESt10_Select1stIS6_ESt4lessISsESaIS6_EE7_M_copyEPSt13_Rb_tree_nodeIS6_ESF_$w$9bFS0GfdFP5hGlCp3
0001:00069a62* __ZNSt8_Rb_treeISsSt4pairIKSsN6Xapian4MSet8Internal17TermFreqAndWeightEESt10_Select1stIS6_ESt4lessISsESaIS6_EE14_M_create_nodeERKS6_$w$9bFS0GfdFP5hGlCp3
0001:00069bf6* __ZNSt8_Rb_treeIjjSt9_IdentityIjESt4lessIjESaIjEE14_M_create_nodeERKj$w$9bFS0GfdFP5hGlCp3
0001:00069c1e  __ZSt16__insertion_sortIN9__gnu_cxx17__normal_iteratorIPPN6Xapian15PostingIterator8InternalESt6vectorIS5_SaIS5_EEEE8PLPCmpLtEvT_SC_T0_$w$9bFS0GfdFP5hGlCp3
0001:00068370  __ZSt22__merge_without_bufferIN9__gnu_cxx17__normal_iteratorIPPN6Xapian15PostingIterator8InternalESt6vectorIS5_SaIS5_EEEEi8PLPCmpLtEvT_SC_SC_T0_SD_T1_$w$9bFS0GfdFP5hGlCp3
0001:00068588  __ZSt16__merge_adaptiveIN9__gnu_cxx17__normal_iteratorIPPN6Xapian15PostingIterator8InternalESt6vectorIS5_SaIS5_EEEEiS6_8PLPCmpLtEvT_SC_SC_T0_SD_T1_SD_T2_$w$9bFS0GfdFP5hGlCp3
0001:000684f2  __ZSt24__merge_sort_with_bufferIN9__gnu_cxx17__normal_iteratorIPPN6Xapian15PostingIterator8InternalESt6vectorIS5_SaIS5_EEEES6_8PLPCmpLtEvT_SC_T0_T1_$w$9bFS0GfdFP5hGlCp3
0001:0006877a  __ZSt25__unguarded_linear_insertIN9__gnu_cxx17__normal_iteratorIPPN6Xapian15PostingIterator8InternalESt6vectorIS5_SaIS5_EEEES5_13CmpMaxOrTermsEvT_T0_T1_$w$9bFS0GfdFP5hGlCp3
0001:000687e8  __ZSt11lower_boundIN9__gnu_cxx17__normal_iteratorIPPN6Xapian15PostingIterator8InternalESt6vectorIS5_SaIS5_EEEES5_8PLPCmpLtET_SC_SC_RKT0_T1_$w$9bFS0GfdFP5hGlCp3
0001:000688de  __ZSt8__rotateIN9__gnu_cxx17__normal_iteratorIPPN6Xapian15PostingIterator8InternalESt6vectorIS5_SaIS5_EEEEEvT_SB_SB_St26random_access_iterator_tag$w$9bFS0GfdFP5hGlCp3
0001:00068862  __ZSt11upper_boundIN9__gnu_cxx17__normal_iteratorIPPN6Xapian15PostingIterator8InternalESt6vectorIS5_SaIS5_EEEES5_8PLPCmpLtET_SC_SC_RKT0_T1_$w$9bFS0GfdFP5hGlCp3
0001:00069d00  __ZSt22__chunk_insertion_sortIN9__gnu_cxx17__normal_iteratorIPPN6Xapian15PostingIterator8InternalESt6vectorIS5_SaIS5_EEEEi8PLPCmpLtEvT_SC_T0_T1_$w$9bFS0GfdFP5hGlCp3
0001:00068a34  __ZSt17__merge_sort_loopIN9__gnu_cxx17__normal_iteratorIPPN6Xapian15PostingIterator8InternalESt6vectorIS5_SaIS5_EEEES6_i8PLPCmpLtEvT_SC_T0_T1_T2_$w$9bFS0GfdFP5hGlCp3
0001:00068af4  __ZSt17__merge_sort_loopIPPN6Xapian15PostingIterator8InternalEN9__gnu_cxx17__normal_iteratorIS4_St6vectorIS3_SaIS3_EEEEi8PLPCmpLtEvT_SC_T0_T1_T2_$w$9bFS0GfdFP5hGlCp3
0001:00068c70  __ZSt17__rotate_adaptiveIN9__gnu_cxx17__normal_iteratorIPPN6Xapian15PostingIterator8InternalESt6vectorIS5_SaIS5_EEEES6_iET_SB_SB_SB_T1_SC_T0_SC_$w$9bFS0GfdFP5hGlCp3
0001:00068ba2  __ZSt16__merge_backwardIN9__gnu_cxx17__normal_iteratorIPPN6Xapian15PostingIterator8InternalESt6vectorIS5_SaIS5_EEEES6_SA_8PLPCmpLtET1_T_SD_T0_SE_SC_T2_$w$9bFS0GfdFP5hGlCp3
0001:00069d6a  __ZSt5mergeIPPN6Xapian15PostingIterator8InternalEN9__gnu_cxx17__normal_iteratorIS4_St6vectorIS3_SaIS3_EEEESA_8PLPCmpLtET1_T_SD_T0_SE_SC_T2_$w$9bFS0GfdFP5hGlCp3
0001:00069e4e  __ZSt5__gcdIiET_S0_S0_$w$9bFS0GfdFP5hGlCp3
0001:00069e1a  __ZSt11swap_rangesIN9__gnu_cxx17__normal_iteratorIPPN6Xapian15PostingIterator8InternalESt6vectorIS5_SaIS5_EEEESA_ET0_T_SC_SB_$w$9bFS0GfdFP5hGlCp3
0001:00069e68  __ZSt5mergeIN9__gnu_cxx17__normal_iteratorIPPN6Xapian15PostingIterator8InternalESt6vectorIS5_SaIS5_EEEESA_S6_8PLPCmpLtET1_T_SD_T0_SE_SC_T2_$w$9bFS0GfdFP5hGlCp3
0001:00069f06  __ZSt5mergeIPPN6Xapian15PostingIterator8InternalES4_N9__gnu_cxx17__normal_iteratorIS4_St6vectorIS3_SaIS3_EEEE8PLPCmpLtET1_T_SD_T0_SE_SC_T2_$w$9bFS0GfdFP5hGlCp3
0001:00068dd7* __ZTS13StatsGatherer$w$9bFS0GfdFP5hGlCp3
0001:00068dc7  __ZTS13LocalSubMatch$w$9bFS0GfdFP5hGlCp3
0001:00069ff0* __ZTI8SubMatch$w$9bFS0GfdFP5hGlCp3
0001:00068db8* __ZTS12LeafPostList$w$9bFS0GfdFP5hGlCp3
0001:00069fb0* __ZTIN6Xapian15PostingIterator8InternalE$w$9bFS0GfdFP5hGlCp3
0001:00068da8* __ZTS13EmptyPostList$w$9bFS0GfdFP5hGlCp3
0001:00068de8* __ZNSt15basic_streambufIcSt11char_traitsIcEE13_S_pback_sizeE$w$9bFS0GfdFP5hGlCp3
0001:0006a010  __ZTI19ExtraWeightPostList$w$9bFS0GfdFP5hGlCp3
0001:000695a6  __ZN19ExtraWeightPostListD1Ev$w$9bFS0GfdFP5hGlCp3
0001:000695f6  __ZN19ExtraWeightPostListD0Ev$w$9bFS0GfdFP5hGlCp3
0001:000691be  __ZNK19ExtraWeightPostList16get_termfreq_minEv$w$9bFS0GfdFP5hGlCp3
0001:000691d6  __ZNK19ExtraWeightPostList16get_termfreq_estEv$w$9bFS0GfdFP5hGlCp3
0001:000691a6  __ZNK19ExtraWeightPostList16get_termfreq_maxEv$w$9bFS0GfdFP5hGlCp3
0001:0006924a  __ZNK19ExtraWeightPostList13get_maxweightEv$w$9bFS0GfdFP5hGlCp3
0001:000691ee  __ZNK19ExtraWeightPostList9get_docidEv$w$9bFS0GfdFP5hGlCp3
0001:00069206  __ZNK19ExtraWeightPostList10get_weightEv$w$9bFS0GfdFP5hGlCp3
0001:0006955e  __ZNK19ExtraWeightPostList13get_doclengthEv$w$9bFS0GfdFP5hGlCp3
0001:0006926c  __ZN19ExtraWeightPostList16recalc_maxweightEv$w$9bFS0GfdFP5hGlCp3
0001:00069576  __ZN19ExtraWeightPostList18read_position_listEv$w$9bFS0GfdFP5hGlCp3
0001:0006958e  __ZNK19ExtraWeightPostList18open_position_listEv$w$9bFS0GfdFP5hGlCp3
0001:0006928e  __ZN19ExtraWeightPostList4nextEd$w$9bFS0GfdFP5hGlCp3
0001:000692ec  __ZN19ExtraWeightPostList7skip_toEjd$w$9bFS0GfdFP5hGlCp3
0001:00069352  __ZNK19ExtraWeightPostList6at_endEv$w$9bFS0GfdFP5hGlCp3
0001:00069380  __ZNK19ExtraWeightPostList15get_descriptionEv$w$9bFS0GfdFP5hGlCp3
0001:00069186* __ZN8SubMatchD1Ev$w$9bFS0GfdFP5hGlCp3
0001:00069194* __ZN8SubMatchD0Ev$w$9bFS0GfdFP5hGlCp3
0001:00069166* __ZN6Xapian15PostingIterator8InternalD1Ev$w$9bFS0GfdFP5hGlCp3
0001:00069174* __ZN6Xapian15PostingIterator8InternalD0Ev$w$9bFS0GfdFP5hGlCp3
0001:0006975e* __ZStplIcSt11char_traitsIcESaIcEESbIT_T0_T1_EPKS3_RKS6_$w$9bFS0GfdFP5hGlCp3
0001:0006a19c* __ZNSt8_Rb_treeISsSt4pairIKSsjESt10_Select1stIS2_ESt4lessISsESaIS2_EE14_M_create_nodeERKS2_$w$9bFS0GfdFP5hGlCp3
0001:0006a094* __ZSt18_Rb_tree_rebalancePSt18_Rb_tree_node_baseRS0_$w$9bFS0GfdFP5hGlCp3
0001:00069cb4  __ZSt25__unguarded_linear_insertIN9__gnu_cxx17__normal_iteratorIPPN6Xapian15PostingIterator8InternalESt6vectorIS5_SaIS5_EEEES5_8PLPCmpLtEvT_T0_T1_$w$9bFS0GfdFP5hGlCp3
0001:0006a070* __ZTSN6Xapian15PostingIterator8InternalE$w$9bFS0GfdFP5hGlCp3
0001:0006a210* __ZTIN6Xapian8Internal10RefCntBaseE$w$9bFS0GfdFP5hGlCp3
0001:0006a03c* __ZTSN6Xapian18UnimplementedErrorE$w$9bFS0GfdFP5hGlCp3
0001:0006a218* __ZTIN6Xapian10LogicErrorE$w$9bFS0GfdFP5hGlCp3
0001:0006a032* __ZTS8SubMatch$w$9bFS0GfdFP5hGlCp3
0001:0006a01c  __ZTS19ExtraWeightPostList$w$9bFS0GfdFP5hGlCp3
0001:0006a25a* __ZSt20_Rb_tree_rotate_leftPSt18_Rb_tree_node_baseRS0_$w$9bFS0GfdFP5hGlCp3
0001:0006a29c* __ZSt21_Rb_tree_rotate_rightPSt18_Rb_tree_node_baseRS0_$w$9bFS0GfdFP5hGlCp3
0001:0006a23a* __ZTSN6Xapian8Internal10RefCntBaseE$w$9bFS0GfdFP5hGlCp3
0001:0006a224* __ZTSN6Xapian10LogicErrorE$w$9bFS0GfdFP5hGlCp3
0001:0006a2e0* __ZTIN6Xapian5ErrorE$w$9bFS0GfdFP5hGlCp3
0001:0006a2e8* __ZTSN6Xapian5ErrorE$w$9bFS0GfdFP5hGlCp3
0002:00022750* __ZN16__Atomicity_lockILi0EE17_S_atomicity_lockE$w$9bFS0GfdFP5hGlCp3
Module: F:\rd\dse\xapian-core-1.0.2\.libs\xapian.a(backends\flint\flint_postlist.cc)
0001:000720c8* __ZN13FlintPostListD1Ev
0001:0007228e* __ZN13FlintPostListD0Ev
0001:0007415c  __ZN13FlintPostList18read_position_listEv
0001:00074192  __ZNK13FlintPostList18open_position_listEv
0001:00074220  __ZN13FlintPostList4nextEd
0001:00075020  __ZN13FlintPostList7skip_toEjd
0001:00075090  __ZNK13FlintPostList15get_descriptionEv
0001:0006a8c8  __ZNK18FlintPostListTable13get_lastdocidEv
0001:0006ac4e  __ZNK18FlintPostListTable12get_termfreqERKSs
0001:000707a0  __ZN13FlintPostList22read_number_of_entriesEPPKcS1_PjS3_
0001:0006b084  __ZNK18FlintPostListTable19get_collection_freqERKSs
0001:0006b4ba  __ZN18FlintPostListTable30set_total_length_and_lastdocidEyj
0001:0006b6ca  __ZNK18FlintPostListTable16get_total_lengthEv
0001:0006bcf2* __ZN19PostlistChunkReader4nextEv
0001:0006c37a* __ZN19PostlistChunkWriterC2ERKSsbS1_b
0001:0006c442* __ZN19PostlistChunkWriterC1ERKSsbS1_b
0001:0006c50a* __ZN19PostlistChunkWriter6appendEP10FlintTablejjj
0001:0006cb24* __ZN19PostlistChunkWriter5flushEP10FlintTable
0001:00070d52  __ZN13FlintPostListC2EN6Xapian8Internal9RefCntPtrIKNS0_8Database8InternalEEEPK10FlintTableS9_RKSs
0001:0007162a  __ZN13FlintPostListC1EN6Xapian8Internal9RefCntPtrIKNS0_8Database8InternalEEEPK10FlintTableS9_RKSs
0001:00071f02  __ZN13FlintPostListD2Ev
0001:0007245a* __ZN13FlintPostList13next_in_chunkEv
0001:00072b72* __ZN13FlintPostList10next_chunkEv
0001:00074256* __ZN13FlintPostList22current_chunk_containsEj
0001:00074274* __ZN13FlintPostList24move_to_chunk_containingEj
0001:00074fd2* __ZN13FlintPostList33move_forward_in_chunk_to_at_leastEj
0001:00075286* __ZN18FlintPostListTable9get_chunkERKSsjbPP19PostlistChunkReaderPP19PostlistChunkWriter
0001:000770b8  __ZN18FlintPostListTable13merge_changesERKSt3mapISsS0_IjSt4pairIcjESt4lessIjESaIS1_IKjS2_EEES3_ISsESaIS1_IKSsS8_EEERKS0_IjjS4_SaIS1_IS5_jEEERKS0_ISsS1_IiiES9_SaIS1_ISA_SL_EEE
0001:0006a310  __ZTV13FlintPostList$w$nkGITUUcFP5FPRwH0
0001:00078cd4* __ZTI13FlintPostList$w$nkGITUUcFP5FPRwH0
0001:0006a774* __ZNK12LeafPostList16get_termfreq_minEv$w$nkGITUUcFP5FPRwH0
0001:0006a78a* __ZNK12LeafPostList16get_termfreq_estEv$w$nkGITUUcFP5FPRwH0
0001:0006a75e* __ZNK12LeafPostList16get_termfreq_maxEv$w$nkGITUUcFP5FPRwH0
0001:0006a80e* __ZNK12LeafPostList13get_maxweightEv$w$nkGITUUcFP5FPRwH0
0001:0006a84a  __ZNK13FlintPostList9get_docidEv$w$nkGITUUcFP5FPRwH0
0001:0006a7c4* __ZNK12LeafPostList10get_weightEv$w$nkGITUUcFP5FPRwH0
0001:0006a470* __ZNK6Xapian15PostingIterator8Internal16get_collapse_keyEv$w$nkGITUUcFP5FPRwH0
0001:0006a856  __ZNK13FlintPostList13get_doclengthEv$w$nkGITUUcFP5FPRwH0
0001:0006a826* __ZN12LeafPostList16recalc_maxweightEv$w$nkGITUUcFP5FPRwH0
0001:0006a86c  __ZNK13FlintPostList7get_wdfEv$w$nkGITUUcFP5FPRwH0
0001:0006a878  __ZNK13FlintPostList6at_endEv$w$nkGITUUcFP5FPRwH0
0001:0006a83e  __ZNK13FlintPostList12get_termfreqEv$w$nkGITUUcFP5FPRwH0
0001:0006a7a0* __ZN12LeafPostList14set_termweightEPKN6Xapian6WeightE$w$nkGITUUcFP5FPRwH0
0001:0006a370* __ZTV12LeafPostList$w$nkGITUUcFP5FPRwH0
0001:00078cc8* __ZTI12LeafPostList$w$nkGITUUcFP5FPRwH0
0001:0006a6dc* __ZN12LeafPostListD1Ev$w$nkGITUUcFP5FPRwH0
0001:0006a71a* __ZN12LeafPostListD0Ev$w$nkGITUUcFP5FPRwH0
0001:0006a4ac* __ZNK6Xapian15PostingIterator8Internal7get_wdfEv$w$nkGITUUcFP5FPRwH0
0001:00078f9e* __ZN6Xapian18UnimplementedErrorD1Ev$w$nkGITUUcFP5FPRwH0
0001:00079ad0* __ZTIN6Xapian18UnimplementedErrorE$w$nkGITUUcFP5FPRwH0
0001:00078d10* __ZTVN6Xapian15PostingIterator8InternalE$w$nkGITUUcFP5FPRwH0
0001:0007925a* __Z11unpack_uintIjEbPPKcS1_PT_$w$nkGITUUcFP5FPRwH0
0001:00079072* __ZN6Xapian20DatabaseCorruptErrorD1Ev$w$nkGITUUcFP5FPRwH0
0001:00079adc* __ZTIN6Xapian20DatabaseCorruptErrorE$w$nkGITUUcFP5FPRwH0
0001:000792de* __Z9pack_uintIjESsT_$w$nkGITUUcFP5FPRwH0
0001:000788f8  __Z14pack_uint_lastIyESsT_$w$nkGITUUcFP5FPRwH0
0001:000789be  __Z16unpack_uint_lastIyEbPPKcS1_PT_$w$nkGITUUcFP5FPRwH0
0001:00078e06  __ZN6Xapian5ErrorC2ERKSsS2_PKci$w$nkGITUUcFP5FPRwH0
0001:00079146* __ZN6Xapian10RangeErrorD1Ev$w$nkGITUUcFP5FPRwH0
0001:00079ae8* __ZTIN6Xapian10RangeErrorE$w$nkGITUUcFP5FPRwH0
0001:0007884a* __ZStplIcSt11char_traitsIcESaIcEESbIT_T0_T1_ERKS6_S8_$w$nkGITUUcFP5FPRwH0
0001:000795a0* __Z25pack_uint_preserving_sortIjESsT_$w$nkGITUUcFP5FPRwH0
0001:00079422  __Z29unpack_string_preserving_sortPPKcS0_RSs$w$nkGITUUcFP5FPRwH0
0001:00078a4a  __Z27unpack_uint_preserving_sortIjEbPPKcS1_PT_$w$nkGITUUcFP5FPRwH0
0001:000788ca  __ZNSsC1IPKcEET_S2_RKSaIcE$w$nkGITUUcFP5FPRwH0
0001:00078d70* __ZTVN6Xapian16PositionIterator8InternalE$w$nkGITUUcFP5FPRwH0
0001:00078aa2* __ZStplIcSt11char_traitsIcESaIcEESbIT_T0_T1_EPKS3_RKS6_$w$nkGITUUcFP5FPRwH0
0001:00078dbe* __ZNSt22_Rb_tree_base_iterator12_M_incrementEv$w$nkGITUUcFP5FPRwH0
0001:00078b98  __ZNKSt8_Rb_treeISsSt4pairIKSsS0_IiiEESt10_Select1stIS3_ESt4lessISsESaIS3_EE4findERS1_$w$nkGITUUcFP5FPRwH0
0001:00078c88  __ZNKSt8_Rb_treeIjSt4pairIKjjESt10_Select1stIS2_ESt4lessIjESaIS2_EE4findERS1_$w$nkGITUUcFP5FPRwH0
0001:00078ef6  __ZNSs12_S_constructIPKcEEPcT_S3_RKSaIcESt20forward_iterator_tag$w$nkGITUUcFP5FPRwH0
0001:00078cf0* __ZTS12LeafPostList$w$nkGITUUcFP5FPRwH0
0001:00079ab0* __ZTIN6Xapian15PostingIterator8InternalE$w$nkGITUUcFP5FPRwH0
0001:00078ce0* __ZTS13FlintPostList$w$nkGITUUcFP5FPRwH0
0001:00078d00* __ZNSt15basic_streambufIcSt11char_traitsIcEE13_S_pback_sizeE$w$nkGITUUcFP5FPRwH0
0001:0007923a* __ZN6Xapian15PostingIterator8InternalD1Ev$w$nkGITUUcFP5FPRwH0
0001:00079248* __ZN6Xapian15PostingIterator8InternalD0Ev$w$nkGITUUcFP5FPRwH0
0001:00079a90* __ZTIN6Xapian16PositionIterator8InternalE$w$nkGITUUcFP5FPRwH0
0001:0007921a* __ZN6Xapian16PositionIterator8InternalD1Ev$w$nkGITUUcFP5FPRwH0
0001:00079228* __ZN6Xapian16PositionIterator8InternalD0Ev$w$nkGITUUcFP5FPRwH0
0001:00079bb6  __Z11unpack_boolPPKcS0_Pb$w$nkGITUUcFP5FPRwH0
0001:00079b90* __ZTSN6Xapian16PositionIterator8InternalE$w$nkGITUUcFP5FPRwH0
0001:00079c20* __ZTIN6Xapian8Internal10RefCntBaseE$w$nkGITUUcFP5FPRwH0
0001:00079b50* __ZTSN6Xapian15PostingIterator8InternalE$w$nkGITUUcFP5FPRwH0
0001:00079b30* __ZTSN6Xapian18UnimplementedErrorE$w$nkGITUUcFP5FPRwH0
0001:00079c14* __ZTIN6Xapian10LogicErrorE$w$nkGITUUcFP5FPRwH0
0001:00079b10* __ZTSN6Xapian20DatabaseCorruptErrorE$w$nkGITUUcFP5FPRwH0
0001:00079c08* __ZTIN6Xapian13DatabaseErrorE$w$nkGITUUcFP5FPRwH0
0001:00079af4* __ZTSN6Xapian10RangeErrorE$w$nkGITUUcFP5FPRwH0
0001:00079bfc* __ZTIN6Xapian12RuntimeErrorE$w$nkGITUUcFP5FPRwH0
0001:00079c76* __ZTSN6Xapian12RuntimeErrorE$w$nkGITUUcFP5FPRwH0
0001:00079c90* __ZTIN6Xapian5ErrorE$w$nkGITUUcFP5FPRwH0
0001:00079c5d* __ZTSN6Xapian13DatabaseErrorE$w$nkGITUUcFP5FPRwH0
0001:00079c47* __ZTSN6Xapian10LogicErrorE$w$nkGITUUcFP5FPRwH0
0001:00079c28* __ZTSN6Xapian8Internal10RefCntBaseE$w$nkGITUUcFP5FPRwH0
0001:00079c98* __ZTSN6Xapian5ErrorE$w$nkGITUUcFP5FPRwH0
0002:00022760* __ZN16__Atomicity_lockILi0EE17_S_atomicity_lockE$w$nkGITUUcFP5FPRwH0
Module: F:\rd\dse\xapian-core-1.0.2\.libs\xapian.a(matcher\selectpostlist.cc)
0001:0007a300  __ZN14SelectPostList4nextEd
0001:0007a348  __ZN14SelectPostList7skip_toEjd
0001:00079cf0  __ZTV14SelectPostList$w$ZZnneFjdFP5NXUIK0
0001:0007a4b4* __ZTI14SelectPostList$w$ZZnneFjdFP5NXUIK0
0001:0007a096  __ZN14SelectPostListD1Ev$w$ZZnneFjdFP5NXUIK0
0001:0007a0d4  __ZN14SelectPostListD0Ev$w$ZZnneFjdFP5NXUIK0
0001:00079fca* __ZNK14SelectPostList16get_termfreq_minEv$w$ZZnneFjdFP5NXUIK0
0001:00079fb2* __ZNK14SelectPostList16get_termfreq_maxEv$w$ZZnneFjdFP5NXUIK0
0001:00079fd2* __ZNK14SelectPostList13get_maxweightEv$w$ZZnneFjdFP5NXUIK0
0001:00079fea* __ZNK14SelectPostList9get_docidEv$w$ZZnneFjdFP5NXUIK0
0001:0007a002* __ZNK14SelectPostList10get_weightEv$w$ZZnneFjdFP5NXUIK0
0001:00079d44* __ZNK6Xapian15PostingIterator8Internal16get_collapse_keyEv$w$ZZnneFjdFP5NXUIK0
0001:0007a01a* __ZNK14SelectPostList13get_doclengthEv$w$ZZnneFjdFP5NXUIK0
0001:0007a032* __ZN14SelectPostList16recalc_maxweightEv$w$ZZnneFjdFP5NXUIK0
0001:00079d82* __ZNK6Xapian15PostingIterator8Internal7get_wdfEv$w$ZZnneFjdFP5NXUIK0
0001:0007a04a* __ZN14SelectPostList18read_position_listEv$w$ZZnneFjdFP5NXUIK0
0001:0007a062* __ZNK14SelectPostList18open_position_listEv$w$ZZnneFjdFP5NXUIK0
0001:0007a07a* __ZNK14SelectPostList6at_endEv$w$ZZnneFjdFP5NXUIK0
0001:0007a122  __ZNK14SelectPostList15get_descriptionEv$w$ZZnneFjdFP5NXUIK0
0001:0007a540* __ZN6Xapian18UnimplementedErrorD1Ev$w$ZZnneFjdFP5NXUIK0
0001:0007a670* __ZTIN6Xapian18UnimplementedErrorE$w$ZZnneFjdFP5NXUIK0
0001:0007a4f0* __ZTVN6Xapian15PostingIterator8InternalE$w$ZZnneFjdFP5NXUIK0
0001:0007a3be* __ZStplIcSt11char_traitsIcESaIcEESbIT_T0_T1_EPKS3_RKS6_$w$ZZnneFjdFP5NXUIK0
0001:0007a4c0* __ZTS14SelectPostList$w$ZZnneFjdFP5NXUIK0
0001:0007a650* __ZTIN6Xapian15PostingIterator8InternalE$w$ZZnneFjdFP5NXUIK0
0001:0007a4d4* __ZNSt15basic_streambufIcSt11char_traitsIcEE13_S_pback_sizeE$w$ZZnneFjdFP5NXUIK0
0001:0007a614* __ZN6Xapian15PostingIterator8InternalD1Ev$w$ZZnneFjdFP5NXUIK0
0001:0007a622* __ZN6Xapian15PostingIterator8InternalD0Ev$w$ZZnneFjdFP5NXUIK0
0001:0007a6b0* __ZTSN6Xapian15PostingIterator8InternalE$w$ZZnneFjdFP5NXUIK0
0001:0007a6e0* __ZTIN6Xapian8Internal10RefCntBaseE$w$ZZnneFjdFP5NXUIK0
0001:0007a67c* __ZTSN6Xapian18UnimplementedErrorE$w$ZZnneFjdFP5NXUIK0
0001:0007a6d4* __ZTIN6Xapian10LogicErrorE$w$ZZnneFjdFP5NXUIK0
0001:0007a707* __ZTSN6Xapian10LogicErrorE$w$ZZnneFjdFP5NXUIK0
0001:0007a720* __ZTIN6Xapian5ErrorE$w$ZZnneFjdFP5NXUIK0
0001:0007a6e8* __ZTSN6Xapian8Internal10RefCntBaseE$w$ZZnneFjdFP5NXUIK0
0001:0007a728* __ZTSN6Xapian5ErrorE$w$ZZnneFjdFP5NXUIK0
0002:00022780* __ZN16__Atomicity_lockILi0EE17_S_atomicity_lockE$w$ZZnneFjdFP5NXUIK0
Module: F:\rd\dse\xapian-core-1.0.2\.libs\xapian.a(matcher\msetcmp.cc)
0001:0007b5a8  __Z20get_msetcmp_functionN6Xapian7Enquire8Internal12sort_settingEbb
0001:0007a750  __Z20msetcmp_by_relevanceILb0EEbRKN6Xapian8Internal8MSetItemES4_$w$vQwIhugdFP5MTMG81
0001:0007a794  __Z20msetcmp_by_relevanceILb1EEbRKN6Xapian8Internal8MSetItemES4_$w$vQwIhugdFP5MTMG81
0001:0007a7d8  __Z16msetcmp_by_valueILb0ELb0EEbRKN6Xapian8Internal8MSetItemES4_$w$vQwIhugdFP5MTMG81
0001:0007a8fc  __Z16msetcmp_by_valueILb1ELb0EEbRKN6Xapian8Internal8MSetItemES4_$w$vQwIhugdFP5MTMG81
0001:0007a9ec  __Z16msetcmp_by_valueILb0ELb1EEbRKN6Xapian8Internal8MSetItemES4_$w$vQwIhugdFP5MTMG81
0001:0007ab10  __Z16msetcmp_by_valueILb1ELb1EEbRKN6Xapian8Internal8MSetItemES4_$w$vQwIhugdFP5MTMG81
0001:0007ac00  __Z31msetcmp_by_value_then_relevanceILb0ELb0EEbRKN6Xapian8Internal8MSetItemES4_$w$vQwIhugdFP5MTMG81
0001:0007ad4c  __Z31msetcmp_by_value_then_relevanceILb1ELb0EEbRKN6Xapian8Internal8MSetItemES4_$w$vQwIhugdFP5MTMG81
0001:0007ae66  __Z31msetcmp_by_value_then_relevanceILb0ELb1EEbRKN6Xapian8Internal8MSetItemES4_$w$vQwIhugdFP5MTMG81
0001:0007afb2  __Z31msetcmp_by_value_then_relevanceILb1ELb1EEbRKN6Xapian8Internal8MSetItemES4_$w$vQwIhugdFP5MTMG81
0001:0007b0cc  __Z31msetcmp_by_relevance_then_valueILb1ELb1EEbRKN6Xapian8Internal8MSetItemES4_$w$vQwIhugdFP5MTMG81
0001:0007b1fc  __Z31msetcmp_by_relevance_then_valueILb0ELb1EEbRKN6Xapian8Internal8MSetItemES4_$w$vQwIhugdFP5MTMG81
0001:0007b33a  __Z31msetcmp_by_relevance_then_valueILb1ELb0EEbRKN6Xapian8Internal8MSetItemES4_$w$vQwIhugdFP5MTMG81
0001:0007b46a  __Z31msetcmp_by_relevance_then_valueILb0ELb0EEbRKN6Xapian8Internal8MSetItemES4_$w$vQwIhugdFP5MTMG81
0001:0007b5c6  __Z14msetcmp_by_didILb0ELb1EEbRKN6Xapian8Internal8MSetItemES4_$w$vQwIhugdFP5MTMG81
0001:0007b5de  __Z14msetcmp_by_didILb1ELb1EEbRKN6Xapian8Internal8MSetItemES4_$w$vQwIhugdFP5MTMG81
0001:0007b606  __Z14msetcmp_by_didILb0ELb0EEbRKN6Xapian8Internal8MSetItemES4_$w$vQwIhugdFP5MTMG81
0001:0007b61e  __Z14msetcmp_by_didILb1ELb0EEbRKN6Xapian8Internal8MSetItemES4_$w$vQwIhugdFP5MTMG81
0001:0007b638* __ZNSt15basic_streambufIcSt11char_traitsIcEE13_S_pback_sizeE$w$vQwIhugdFP5MTMG81
0002:00022790* __ZN16__Atomicity_lockILi0EE17_S_atomicity_lockE$w$vQwIhugdFP5MTMG81
Module: F:\rd\dse\xapian-core-1.0.2\.libs\xapian.a(backends\flint\flint_spelling.cc)
0001:0007f548* __ZN21FlintSpellingTermListD1Ev
0001:0007f5e8* __ZN21FlintSpellingTermListD0Ev
0001:0007f690* __ZNK21FlintSpellingTermList15get_approx_sizeEv
0001:0007f6ec* __ZNK21FlintSpellingTermList16accumulate_statsERN6Xapian8Internal11ExpandStatsE
0001:0007f91c* __ZNK21FlintSpellingTermList12get_termnameEv
0001:0007f946* __ZNK21FlintSpellingTermList7get_wdfEv
0001:0007f950* __ZNK21FlintSpellingTermList12get_termfreqEv
0001:0007f95a* __ZNK21FlintSpellingTermList19get_collection_freqEv
0001:0007f97a* __ZN21FlintSpellingTermList4nextEv
0001:0007fcb2* __ZNK21FlintSpellingTermList6at_endEv
0001:0007fd08* __ZNK21FlintSpellingTermList18positionlist_countEv
0001:0007ff74* __ZNK21FlintSpellingTermList18positionlist_beginEv
0001:0007b67e  __ZN18FlintSpellingTable13merge_changesEv
0001:0007c1d4* __ZN18FlintSpellingTable12add_fragmentE8fragmentRKSs
0001:0007c5da  __ZN18FlintSpellingTable8add_wordERKSsj
0001:0007d024* __ZN18FlintSpellingTable15remove_fragmentE8fragmentRKSs
0001:0007d07a  __ZN18FlintSpellingTable11remove_wordERKSsj
0001:0007db14  __ZN18FlintSpellingTable13open_termlistERKSs
0001:0007effc  __ZNK18FlintSpellingTable18get_word_frequencyERKSs
0001:0007f4a8* __ZN21FlintSpellingTermListD2Ev
0001:0007b640  __ZTV21FlintSpellingTermList$w$ljklpQVcFP5Tq8Yy4
0001:0008112c  __ZTI21FlintSpellingTermList$w$ljklpQVcFP5Tq8Yy4
0001:000812fc* __ZNSt22_Rb_tree_base_iterator12_M_incrementEv$w$ljklpQVcFP5Tq8Yy4
0001:00081814  __ZN28PrefixCompressedStringWriter6appendERKSs$w$ljklpQVcFP5Tq8Yy4
0001:0008154a  __ZN26PrefixCompressedStringItorppEv$w$ljklpQVcFP5Tq8Yy4
0001:0007c4b8* __ZStplIcSt11char_traitsIcESaIcEESbIT_T0_T1_EPKS3_RKS6_$w$ljklpQVcFP5Tq8Yy4
0001:00080254  __Z14pack_uint_lastIjESsT_$w$ljklpQVcFP5Tq8Yy4
0001:0008149c* __ZNSt8_Rb_treeISsSt4pairIKSsjESt10_Select1stIS2_ESt4lessISsESaIS2_EE8_M_eraseEPSt13_Rb_tree_nodeIS2_E$w$ljklpQVcFP5Tq8Yy4
0001:000801a4* __ZNSt8_Rb_treeI8fragmentSt4pairIKS0_St3setISsSt4lessISsESaISsEEESt10_Select1stIS8_ES4_IS0_ESaIS8_EE8_M_eraseEPSt13_Rb_tree_nodeIS8_E$w$ljklpQVcFP5Tq8Yy4
0001:00081956  __ZNSt8_Rb_treeI8fragmentSt4pairIKS0_St3setISsSt4lessISsESaISsEEESt10_Select1stIS8_ES4_IS0_ESaIS8_EE4findERS2_$w$ljklpQVcFP5Tq8Yy4
0001:00080398  __ZNSt8_Rb_treeISsSsSt9_IdentityISsESt4lessISsESaISsEEC1ERKS5_$w$ljklpQVcFP5Tq8Yy4
0001:0008046a  __ZNSt8_Rb_treeI8fragmentSt4pairIKS0_St3setISsSt4lessISsESaISsEEESt10_Select1stIS8_ES4_IS0_ESaIS8_EE13insert_uniqueERKS8_$w$ljklpQVcFP5Tq8Yy4
0001:0008030e* __ZNSt8_Rb_treeISsSsSt9_IdentityISsESt4lessISsESaISsEE8_M_eraseEPSt13_Rb_tree_nodeISsE$w$ljklpQVcFP5Tq8Yy4
0001:00080560* __ZNSt8_Rb_treeISsSsSt9_IdentityISsESt4lessISsESaISsEE13insert_uniqueERKSs$w$ljklpQVcFP5Tq8Yy4
0001:000819ec* __ZNSt8_Rb_treeISsSt4pairIKSsjESt10_Select1stIS2_ESt4lessISsESaIS2_EE4findERS1_$w$ljklpQVcFP5Tq8Yy4
0001:0008071a* __ZNSt8_Rb_treeISsSt4pairIKSsjESt10_Select1stIS2_ESt4lessISsESaIS2_EE11lower_boundERS1_$w$ljklpQVcFP5Tq8Yy4
0001:00080c38* __ZNSt8_Rb_treeISsSt4pairIKSsjESt10_Select1stIS2_ESt4lessISsESaIS2_EE13insert_uniqueESt17_Rb_tree_iteratorIS2_RS2_PS2_ERKS2_$w$ljklpQVcFP5Tq8Yy4
0001:000806d0  __Z16unpack_uint_lastIjEbPPKcS1_PT_$w$ljklpQVcFP5Tq8Yy4
0001:00081228* __ZN6Xapian20DatabaseCorruptErrorD1Ev$w$ljklpQVcFP5Tq8Yy4
0001:000820c0* __ZTIN6Xapian20DatabaseCorruptErrorE$w$ljklpQVcFP5Tq8Yy4
0001:000807ac  __ZNSt8_Rb_treeISsSsSt9_IdentityISsESt4lessISsESaISsEE5eraseERKSs$w$ljklpQVcFP5Tq8Yy4
0001:00080850  __ZSt9make_heapIN9__gnu_cxx17__normal_iteratorIPPN6Xapian12TermIterator8InternalESt6vectorIS5_SaIS5_EEEE25TermListGreaterApproxSizeEvT_SC_T0_$w$ljklpQVcFP5Tq8Yy4
0001:000809b4  __ZSt13__adjust_heapIN9__gnu_cxx17__normal_iteratorIPPN6Xapian12TermIterator8InternalESt6vectorIS5_SaIS5_EEEEiS5_25TermListGreaterApproxSizeEvT_T0_SD_T1_T2_$w$ljklpQVcFP5Tq8Yy4
0001:00080ea4  __ZSt11__push_heapIN9__gnu_cxx17__normal_iteratorIPPN6Xapian12TermIterator8InternalESt6vectorIS5_SaIS5_EEEEiS5_25TermListGreaterApproxSizeEvT_T0_SD_T1_T2_$w$ljklpQVcFP5Tq8Yy4
0001:000808ae* __ZNSt6vectorIPN6Xapian12TermIterator8InternalESaIS3_EE13_M_insert_auxEN9__gnu_cxx17__normal_iteratorIPS3_S5_EERKS3_$w$ljklpQVcFP5Tq8Yy4
0001:00080f06  __ZNSt6vectorIPN6Xapian12TermIterator8InternalESaIS3_EE5eraseEN9__gnu_cxx17__normal_iteratorIPS3_S5_EES9_$w$ljklpQVcFP5Tq8Yy4
0001:00081af8* __ZNKSt8_Rb_treeISsSt4pairIKSsjESt10_Select1stIS2_ESt4lessISsESaIS2_EE4findERS1_$w$ljklpQVcFP5Tq8Yy4
0001:00081154* __ZN6Xapian18UnimplementedErrorD1Ev$w$ljklpQVcFP5Tq8Yy4
0001:000820cc* __ZTIN6Xapian18UnimplementedErrorE$w$ljklpQVcFP5Tq8Yy4
0001:00080a5a  __ZNSt8_Rb_treeISsSsSt9_IdentityISsESt4lessISsESaISsEE7_M_copyEPSt13_Rb_tree_nodeISsES8_$w$ljklpQVcFP5Tq8Yy4
0001:00081344* __ZNSt22_Rb_tree_base_iterator12_M_decrementEv$w$ljklpQVcFP5Tq8Yy4
0001:00080b58  __ZNSt8_Rb_treeI8fragmentSt4pairIKS0_St3setISsSt4lessISsESaISsEEESt10_Select1stIS8_ES4_IS0_ESaIS8_EE9_M_insertEPSt18_Rb_tree_node_baseSF_RKS8_$w$ljklpQVcFP5Tq8Yy4
0001:00081c50* __ZNSt8_Rb_treeISsSsSt9_IdentityISsESt4lessISsESaISsEE9_M_insertEPSt18_Rb_tree_node_baseS7_RKSs$w$ljklpQVcFP5Tq8Yy4
0001:00081d64  __ZNSt8_Rb_treeISsSsSt9_IdentityISsESt4lessISsESaISsEE11lower_boundERKSs$w$ljklpQVcFP5Tq8Yy4
0001:00081df6  __ZNSt8_Rb_treeISsSsSt9_IdentityISsESt4lessISsESaISsEE11upper_boundERKSs$w$ljklpQVcFP5Tq8Yy4
0001:00081e84  __ZNSt8_Rb_treeISsSsSt9_IdentityISsESt4lessISsESaISsEE5eraseESt17_Rb_tree_iteratorISsRSsPSsES9_$w$ljklpQVcFP5Tq8Yy4
0001:00081be8* __ZNSt8_Rb_treeISsSsSt9_IdentityISsESt4lessISsESaISsEE14_M_create_nodeERKSs$w$ljklpQVcFP5Tq8Yy4
0001:00080f4a  __ZNSt8_Rb_treeI8fragmentSt4pairIKS0_St3setISsSt4lessISsESaISsEEESt10_Select1stIS8_ES4_IS0_ESaIS8_EE14_M_create_nodeERKS8_$w$ljklpQVcFP5Tq8Yy4
0001:00081394* __ZSt18_Rb_tree_rebalancePSt18_Rb_tree_node_baseRS0_$w$ljklpQVcFP5Tq8Yy4
0001:00081f8a* __ZNSt8_Rb_treeISsSt4pairIKSsjESt10_Select1stIS2_ESt4lessISsESaIS2_EE9_M_insertEPSt18_Rb_tree_node_baseSA_RKS2_$w$ljklpQVcFP5Tq8Yy4
0001:00080fbc* __ZNSt8_Rb_treeISsSt4pairIKSsjESt10_Select1stIS2_ESt4lessISsESaIS2_EE13insert_uniqueERKS2_$w$ljklpQVcFP5Tq8Yy4
0001:00081138  __ZTS21FlintSpellingTermList$w$ljklpQVcFP5Tq8Yy4
0001:000820a0* __ZTIN6Xapian12TermIterator8InternalE$w$ljklpQVcFP5Tq8Yy4
0001:00081150* __ZNSt15basic_streambufIcSt11char_traitsIcEE13_S_pback_sizeE$w$ljklpQVcFP5Tq8Yy4
0001:00082142* __ZSt20_Rb_tree_rotate_leftPSt18_Rb_tree_node_baseRS0_$w$ljklpQVcFP5Tq8Yy4
0001:00082184* __ZSt21_Rb_tree_rotate_rightPSt18_Rb_tree_node_baseRS0_$w$ljklpQVcFP5Tq8Yy4
0001:000821c6* __ZSt28_Rb_tree_rebalance_for_erasePSt18_Rb_tree_node_baseRS0_S1_S1_$w$ljklpQVcFP5Tq8Yy4
0001:000824ac* __ZNSt8_Rb_treeISsSt4pairIKSsjESt10_Select1stIS2_ESt4lessISsESaIS2_EE14_M_create_nodeERKS2_$w$ljklpQVcFP5Tq8Yy4
0001:00082120* __ZTSN6Xapian12TermIterator8InternalE$w$ljklpQVcFP5Tq8Yy4
0001:00082538* __ZTIN6Xapian8Internal10RefCntBaseE$w$ljklpQVcFP5Tq8Yy4
0001:00082100* __ZTSN6Xapian20DatabaseCorruptErrorE$w$ljklpQVcFP5Tq8Yy4
0001:0008252c* __ZTIN6Xapian13DatabaseErrorE$w$ljklpQVcFP5Tq8Yy4
0001:000820d8* __ZTSN6Xapian18UnimplementedErrorE$w$ljklpQVcFP5Tq8Yy4
0001:00082520* __ZTIN6Xapian10LogicErrorE$w$ljklpQVcFP5Tq8Yy4
0001:00082578* __ZTSN6Xapian10LogicErrorE$w$ljklpQVcFP5Tq8Yy4
0001:0008259c* __ZTIN6Xapian5ErrorE$w$ljklpQVcFP5Tq8Yy4
0001:0008255f* __ZTSN6Xapian13DatabaseErrorE$w$ljklpQVcFP5Tq8Yy4
0001:00082590* __ZTIN6Xapian12RuntimeErrorE$w$ljklpQVcFP5Tq8Yy4
0001:00082540* __ZTSN6Xapian8Internal10RefCntBaseE$w$ljklpQVcFP5Tq8Yy4
0001:000825b4* __ZTSN6Xapian12RuntimeErrorE$w$ljklpQVcFP5Tq8Yy4
0001:000825a4* __ZTSN6Xapian5ErrorE$w$ljklpQVcFP5Tq8Yy4
0002:000227a0* __ZN16__Atomicity_lockILi0EE17_S_atomicity_lockE$w$ljklpQVcFP5Tq8Yy4
Module: F:\rd\dse\xapian-core-1.0.2\.libs\xapian.a(matcher\exactphrasepostlist.cc)
0001:00082a3e* __ZN19ExactPhrasePostListD1Ev
0001:00082aec* __ZN19ExactPhrasePostListD0Ev
0001:00082e4a* __ZNK19ExactPhrasePostList16get_termfreq_estEv
0001:00082df8* __ZNK19ExactPhrasePostList7get_wdfEv
0001:00082e76* __ZNK19ExactPhrasePostList15get_descriptionEv
0001:00082be6* __ZN19ExactPhrasePostList8test_docEv
0001:00082720* __ZN19ExactPhrasePostListC2EPN6Xapian15PostingIterator8InternalERKSt6vectorIS3_SaIS3_EE
0001:00082858  __ZN19ExactPhrasePostListC1EPN6Xapian15PostingIterator8InternalERKSt6vectorIS3_SaIS3_EE
0001:00082990* __ZN19ExactPhrasePostListD2Ev
0001:00082ba0* __ZN19ExactPhrasePostList19start_position_listEj
0001:000825e0  __ZTV19ExactPhrasePostList$w$BHGWc4edFP5p3e973
0001:0008321c  __ZTI19ExactPhrasePostList$w$BHGWc4edFP5p3e973
0001:00082654* __ZNK14SelectPostList16get_termfreq_minEv$w$BHGWc4edFP5p3e973
0001:0008263c* __ZNK14SelectPostList16get_termfreq_maxEv$w$BHGWc4edFP5p3e973
0001:0008265c* __ZNK14SelectPostList13get_maxweightEv$w$BHGWc4edFP5p3e973
0001:00082674* __ZNK14SelectPostList9get_docidEv$w$BHGWc4edFP5p3e973
0001:0008268c* __ZNK14SelectPostList10get_weightEv$w$BHGWc4edFP5p3e973
0001:00082634* __ZNK6Xapian15PostingIterator8Internal16get_collapse_keyEv$w$BHGWc4edFP5p3e973
0001:000826a4* __ZNK14SelectPostList13get_doclengthEv$w$BHGWc4edFP5p3e973
0001:000826bc* __ZN14SelectPostList16recalc_maxweightEv$w$BHGWc4edFP5p3e973
0001:000826d4* __ZN14SelectPostList18read_position_listEv$w$BHGWc4edFP5p3e973
0001:000826ec* __ZNK14SelectPostList18open_position_listEv$w$BHGWc4edFP5p3e973
0001:00082704* __ZNK14SelectPostList6at_endEv$w$BHGWc4edFP5p3e973
0001:00083260* __ZTVN6Xapian15PostingIterator8InternalE$w$BHGWc4edFP5p3e973
0001:00083536  __ZSt16__introsort_loopIPji11TermCompareEvT_S2_T0_T1_$w$BHGWc4edFP5p3e973
0001:0008314a  __ZSt22__final_insertion_sortIPj11TermCompareEvT_S2_T0_$w$BHGWc4edFP5p3e973
0001:00083054* __ZStplIcSt11char_traitsIcESaIcEESbIT_T0_T1_EPKS3_RKS6_$w$BHGWc4edFP5p3e973
0001:000837dc  __ZSt16__insertion_sortIPj11TermCompareEvT_S2_T0_$w$BHGWc4edFP5p3e973
0001:000831b6  __ZSt25__unguarded_linear_insertIPjj11TermCompareEvT_T0_T1_$w$BHGWc4edFP5p3e973
0001:00083228  __ZTS19ExactPhrasePostList$w$BHGWc4edFP5p3e973
0001:000838c0* __ZTI14SelectPostList$w$BHGWc4edFP5p3e973
0001:00083240* __ZNSt15basic_streambufIcSt11char_traitsIcEE13_S_pback_sizeE$w$BHGWc4edFP5p3e973
0001:000838a0* __ZTIN6Xapian15PostingIterator8InternalE$w$BHGWc4edFP5p3e973
0001:000832b0* __ZN6Xapian15PostingIterator8InternalD1Ev$w$BHGWc4edFP5p3e973
0001:000832be* __ZN6Xapian15PostingIterator8InternalD0Ev$w$BHGWc4edFP5p3e973
0001:00083306* __ZNK6Xapian15PostingIterator8Internal7get_wdfEv$w$BHGWc4edFP5p3e973
0001:00083904* __ZN6Xapian18UnimplementedErrorD1Ev$w$BHGWc4edFP5p3e973
0001:00083af4* __ZTIN6Xapian18UnimplementedErrorE$w$BHGWc4edFP5p3e973
0001:000835fc  __ZSt8__medianIj11TermCompareERKT_S3_S3_S3_T0_$w$BHGWc4edFP5p3e973
0001:00083728  __ZSt21__unguarded_partitionIPjj11TermCompareET_S2_S2_T0_T1_$w$BHGWc4edFP5p3e973
0001:000839d8  __ZSt12partial_sortIPj11TermCompareEvT_S2_S2_T0_$w$BHGWc4edFP5p3e973
0001:000838e0* __ZTSN6Xapian15PostingIterator8InternalE$w$BHGWc4edFP5p3e973
0001:00083b00* __ZTIN6Xapian8Internal10RefCntBaseE$w$BHGWc4edFP5p3e973
0001:000838cc* __ZTS14SelectPostList$w$BHGWc4edFP5p3e973
0001:00083b46  __ZSt9make_heapIPj11TermCompareEvT_S2_T0_$w$BHGWc4edFP5p3e973
0001:00083a96  __ZSt9sort_heapIPj11TermCompareEvT_S2_T0_$w$BHGWc4edFP5p3e973
0001:00083b9c  __ZSt13__adjust_heapIPjij11TermCompareEvT_T0_S3_T1_T2_$w$BHGWc4edFP5p3e973
0001:00083b27* __ZTSN6Xapian18UnimplementedErrorE$w$BHGWc4edFP5p3e973
0001:00083cd4* __ZTIN6Xapian10LogicErrorE$w$BHGWc4edFP5p3e973
0001:00083b08* __ZTSN6Xapian8Internal10RefCntBaseE$w$BHGWc4edFP5p3e973
0001:00083c52  __ZSt11__push_heapIPjij11TermCompareEvT_T0_S3_T1_T2_$w$BHGWc4edFP5p3e973
0001:00083ce0* __ZTSN6Xapian10LogicErrorE$w$BHGWc4edFP5p3e973
0001:00083cf8* __ZTIN6Xapian5ErrorE$w$BHGWc4edFP5p3e973
0001:00083d00* __ZTSN6Xapian5ErrorE$w$BHGWc4edFP5p3e973
0002:000227b0* __ZN16__Atomicity_lockILi0EE17_S_atomicity_lockE$w$BHGWc4edFP5p3e973
Module: F:\rd\dse\xapian-core-1.0.2\.libs\xapian.a(backends\inmemory\inmemory_alltermslist.cc)
0001:00084336* __ZN20InMemoryAllTermsListD1Ev
0001:000843d0* __ZN20InMemoryAllTermsListD0Ev
0001:00084472* __ZNK20InMemoryAllTermsList15get_approx_sizeEv
0001:00084480* __ZNK20InMemoryAllTermsList12get_termnameEv
0001:000844ac* __ZNK20InMemoryAllTermsList12get_termfreqEv
0001:00084500* __ZNK20InMemoryAllTermsList19get_collection_freqEv
0001:00084a56* __ZN20InMemoryAllTermsList4nextEv
0001:00084730* __ZN20InMemoryAllTermsList7skip_toERKSs
0001:00084afc* __ZNK20InMemoryAllTermsList6at_endEv
0001:00084188* __ZN20InMemoryAllTermsListC2EPKSt3mapISs12InMemoryTermSt4lessISsESaISt4pairIKSsS1_EEEN6Xapian8Internal9RefCntPtrIK16InMemoryDatabaseEERS5_
0001:00084212  __ZN20InMemoryAllTermsListC1EPKSt3mapISs12InMemoryTermSt4lessISsESaISt4pairIKSsS1_EEEN6Xapian8Internal9RefCntPtrIK16InMemoryDatabaseEERS5_
0001:0008429c* __ZN20InMemoryAllTermsListD2Ev
0001:00083d20  __ZTV20InMemoryAllTermsList$w$1XlVbLYcFP5XCzIV3
0001:00084b24  __ZTI20InMemoryAllTermsList$w$1XlVbLYcFP5XCzIV3
0001:00083d60* __ZTV12LeafPostList$w$1XlVbLYcFP5XCzIV3
0001:00084b18* __ZTI12LeafPostList$w$1XlVbLYcFP5XCzIV3
0001:00084026* __ZN12LeafPostListD1Ev$w$1XlVbLYcFP5XCzIV3
0001:00084064* __ZN12LeafPostListD0Ev$w$1XlVbLYcFP5XCzIV3
0001:000840be* __ZNK12LeafPostList16get_termfreq_minEv$w$1XlVbLYcFP5XCzIV3
0001:000840d4* __ZNK12LeafPostList16get_termfreq_estEv$w$1XlVbLYcFP5XCzIV3
0001:000840a8* __ZNK12LeafPostList16get_termfreq_maxEv$w$1XlVbLYcFP5XCzIV3
0001:00084158* __ZNK12LeafPostList13get_maxweightEv$w$1XlVbLYcFP5XCzIV3
0001:0008410e* __ZNK12LeafPostList10get_weightEv$w$1XlVbLYcFP5XCzIV3
0001:00083db8* __ZNK6Xapian15PostingIterator8Internal16get_collapse_keyEv$w$1XlVbLYcFP5XCzIV3
0001:00084170* __ZN12LeafPostList16recalc_maxweightEv$w$1XlVbLYcFP5XCzIV3
0001:00083df6* __ZNK6Xapian15PostingIterator8Internal7get_wdfEv$w$1XlVbLYcFP5XCzIV3
0001:000840ea* __ZN12LeafPostList14set_termweightEPKN6Xapian6WeightE$w$1XlVbLYcFP5XCzIV3
0001:00084bb0* __ZN6Xapian18UnimplementedErrorD1Ev$w$1XlVbLYcFP5XCzIV3
0001:00084d20* __ZTIN6Xapian18UnimplementedErrorE$w$1XlVbLYcFP5XCzIV3
0001:00084b60* __ZTVN6Xapian15PostingIterator8InternalE$w$1XlVbLYcFP5XCzIV3
0001:000849ce  __ZNKSt8_Rb_treeISsSt4pairIKSs12InMemoryTermESt10_Select1stIS3_ESt4lessISsESaIS3_EE11lower_boundERS1_$w$1XlVbLYcFP5XCzIV3
0001:00084ca4* __ZNSt22_Rb_tree_base_iterator12_M_incrementEv$w$1XlVbLYcFP5XCzIV3
0001:00084b47* __ZTS12LeafPostList$w$1XlVbLYcFP5XCzIV3
0001:00084d00* __ZTIN6Xapian15PostingIterator8InternalE$w$1XlVbLYcFP5XCzIV3
0001:00084b30  __ZTS20InMemoryAllTermsList$w$1XlVbLYcFP5XCzIV3
0001:00084cec* __ZTI12AllTermsList$w$1XlVbLYcFP5XCzIV3
0001:00084b58* __ZNSt15basic_streambufIcSt11char_traitsIcEE13_S_pback_sizeE$w$1XlVbLYcFP5XCzIV3
0001:00084c84* __ZN6Xapian15PostingIterator8InternalD1Ev$w$1XlVbLYcFP5XCzIV3
0001:00084c92* __ZN6Xapian15PostingIterator8InternalD0Ev$w$1XlVbLYcFP5XCzIV3
0001:00084d84* __ZTS12AllTermsList$w$1XlVbLYcFP5XCzIV3
0001:00084da0* __ZTIN6Xapian12TermIterator8InternalE$w$1XlVbLYcFP5XCzIV3
0001:00084d60* __ZTSN6Xapian15PostingIterator8InternalE$w$1XlVbLYcFP5XCzIV3
0001:00084dcc* __ZTIN6Xapian8Internal10RefCntBaseE$w$1XlVbLYcFP5XCzIV3
0001:00084d2c* __ZTSN6Xapian18UnimplementedErrorE$w$1XlVbLYcFP5XCzIV3
0001:00084dc0* __ZTIN6Xapian10LogicErrorE$w$1XlVbLYcFP5XCzIV3
0001:00084e20* __ZTSN6Xapian12TermIterator8InternalE$w$1XlVbLYcFP5XCzIV3
0001:00084df3* __ZTSN6Xapian10LogicErrorE$w$1XlVbLYcFP5XCzIV3
0001:00084e44* __ZTIN6Xapian5ErrorE$w$1XlVbLYcFP5XCzIV3
0001:00084dd4* __ZTSN6Xapian8Internal10RefCntBaseE$w$1XlVbLYcFP5XCzIV3
0001:00084e4c* __ZTSN6Xapian5ErrorE$w$1XlVbLYcFP5XCzIV3
0002:000227c0* __ZN16__Atomicity_lockILi0EE17_S_atomicity_lockE$w$1XlVbLYcFP5XCzIV3
Module: F:\rd\dse\xapian-core-1.0.2\.libs\xapian.a(languages\swedish.cc)
0001:000853ae* __ZN6Xapian19InternalStemSwedishD1Ev
0001:000853ca* __ZN6Xapian19InternalStemSwedishD0Ev
0001:000852be* __ZN6Xapian19InternalStemSwedish4stemEv
0001:000853fa* __ZNK6Xapian19InternalStemSwedish15get_descriptionEv
0001:00084e78* __ZN6Xapian19InternalStemSwedish14r_mark_regionsEv
0001:00084f46* __ZN6Xapian19InternalStemSwedish13r_main_suffixEv
0001:00085060* __ZN6Xapian19InternalStemSwedish16r_consonant_pairEv
0001:0008518c* __ZN6Xapian19InternalStemSwedish14r_other_suffixEv
0001:00085332* __ZN6Xapian19InternalStemSwedishC2Ev
0001:00085362  __ZN6Xapian19InternalStemSwedishC1Ev
0001:00085392* __ZN6Xapian19InternalStemSwedishD2Ev
0001:00084e60  __ZTVN6Xapian19InternalStemSwedishE$w$PkpTXCadFP5DABak4
0001:00085404  __ZTIN6Xapian19InternalStemSwedishE$w$PkpTXCadFP5DABak4
0001:0008576e  __ZTSN6Xapian19InternalStemSwedishE$w$PkpTXCadFP5DABak4
0001:00085840* __ZTIN6Xapian4Stem8InternalE$w$PkpTXCadFP5DABak4
0001:00085860* __ZTSN6Xapian4Stem8InternalE$w$PkpTXCadFP5DABak4
0001:00085878* __ZTIN6Xapian8Internal10RefCntBaseE$w$PkpTXCadFP5DABak4
0001:00085880* __ZTSN6Xapian8Internal10RefCntBaseE$w$PkpTXCadFP5DABak4
0002:000227d0* __ZN16__Atomicity_lockILi0EE17_S_atomicity_lockE$w$PkpTXCadFP5DABak4
Module: F:\rd\dse\xapian-core-1.0.2\.libs\xapian.a(api\editdistance.cc)
0001:000858a0  __Z22edit_distance_unsignedPKjiS0_i
0001:00085b28  __ZN11edist_stateIjEC1EPKjiS2_i$w$hhKsaAGcFP5wOhyV2
0001:000859dc  __ZN11edist_stateIjE15edist_calc_f_kpEii$w$hhKsaAGcFP5wOhyV2
0001:000859c4  __ZN11edist_stateIjED1Ev$w$hhKsaAGcFP5wOhyV2
0002:000227e0* __ZN16__Atomicity_lockILi0EE17_S_atomicity_lockE$w$hhKsaAGcFP5wOhyV2
Module: F:\rd\dse\xapian-core-1.0.2\.libs\xapian.a(matcher\stats.cc)
0001:000868f2  __ZN16LocalStatsSourceD1Ev
0001:00086b08* __ZN16LocalStatsSourceD0Ev
0001:0008645e* __ZNK18LocalStatsGatherer9get_statsEv
0001:0008644c* __ZN13StatsGatherer13contrib_statsERK5Stats
0001:000863be* __ZN13StatsGatherer9add_childEPN6Xapian6Weight8InternalE
0001:0008642c* __ZN13StatsGatherer12remove_childEPN6Xapian6Weight8InternalE
0001:000864a8* __ZN16LocalStatsSourceC2EP13StatsGatherer
0001:000865c2  __ZN16LocalStatsSourceC1EP13StatsGatherer
0001:000866dc* __ZN16LocalStatsSourceD2Ev
0001:00086d2c  __ZNK6Xapian6Weight8Internal15perform_requestEv
0001:00085c00  __ZTV16LocalStatsSource$w$Dco354kdFP5w63b42
0001:00086e34  __ZTI16LocalStatsSource$w$Dco354kdFP5w63b42
0001:0008639e  __ZN16LocalStatsSource16contrib_my_statsEv$w$Dco354kdFP5w63b42
0001:00085c18  __ZTV18LocalStatsGatherer$w$Dco354kdFP5w63b42
0001:00086e28  __ZTI18LocalStatsGatherer$w$Dco354kdFP5w63b42
0001:0008601a  __ZN18LocalStatsGathererD1Ev$w$Dco354kdFP5w63b42
0001:000861d2  __ZN18LocalStatsGathererD0Ev$w$Dco354kdFP5w63b42
0001:00086390* __ZN13StatsGatherer16set_global_statsEj$w$Dco354kdFP5w63b42
0001:00085c30* __ZTV13StatsGatherer$w$Dco354kdFP5w63b42
0001:00086e20* __ZTI13StatsGatherer$w$Dco354kdFP5w63b42
0001:00085c48* __ZN13StatsGathererD1Ev$w$Dco354kdFP5w63b42
0001:00085e2e* __ZN13StatsGathererD0Ev$w$Dco354kdFP5w63b42
0001:00086d4e* __ZNSt8_Rb_treeISsSt4pairIKSsjESt10_Select1stIS2_ESt4lessISsESaIS2_EE8_M_eraseEPSt13_Rb_tree_nodeIS2_E$w$Dco354kdFP5w63b42
0001:000863e8* __ZNSt8_Rb_treeIPN6Xapian6Weight8InternalES3_St9_IdentityIS3_ESt4lessIS3_ESaIS3_EE8_M_eraseEPSt13_Rb_tree_nodeIS3_E$w$Dco354kdFP5w63b42
0001:00086dd8* __ZNSt8_Rb_treeISsSt4pairIKSsjESt10_Select1stIS2_ESt4lessISsESaIS2_EE5clearEv$w$Dco354kdFP5w63b42
0001:000874a8  __ZNSt8_Rb_treeIPN6Xapian6Weight8InternalES3_St9_IdentityIS3_ESt4lessIS3_ESaIS3_EE13insert_uniqueERKS3_$w$Dco354kdFP5w63b42
0001:00087574  __ZNSt8_Rb_treeIPN6Xapian6Weight8InternalES3_St9_IdentityIS3_ESt4lessIS3_ESaIS3_EE5eraseERKS3_$w$Dco354kdFP5w63b42
0001:00087054  __ZN5StatspLERKS_$w$Dco354kdFP5w63b42
0001:00086e94* __ZNSt22_Rb_tree_base_iterator12_M_incrementEv$w$Dco354kdFP5w63b42
0001:00086e80  __ZTVN6Xapian6Weight8InternalE$w$Dco354kdFP5w63b42
0001:00086edc* __ZNSt14__simple_allocISt13_Rb_tree_nodeISt4pairIKSsjEESt24__default_alloc_templateILb1ELi0EEE8allocateEj$w$Dco354kdFP5w63b42
0001:00086f00* __ZNSt8_Rb_treeISsSt4pairIKSsjESt10_Select1stIS2_ESt4lessISsESaIS2_EED1Ev$w$Dco354kdFP5w63b42
0001:00086e68* __ZTS13StatsGatherer$w$Dco354kdFP5w63b42
0001:00086e53  __ZTS18LocalStatsGatherer$w$Dco354kdFP5w63b42
0001:00086e40  __ZTS16LocalStatsSource$w$Dco354kdFP5w63b42
0001:000879f4  __ZTIN6Xapian6Weight8InternalE$w$Dco354kdFP5w63b42
0001:00086e78* __ZNSt15basic_streambufIcSt11char_traitsIcEE13_S_pback_sizeE$w$Dco354kdFP5w63b42
0001:00086f50  __ZN6Xapian6Weight8InternalD1Ev$w$Dco354kdFP5w63b42
0001:00086fce  __ZN6Xapian6Weight8InternalD0Ev$w$Dco354kdFP5w63b42
0001:00087a66* __ZNSt8_Rb_treeISsSt4pairIKSsjESt10_Select1stIS2_ESt4lessISsESaIS2_EE11lower_boundERS1_$w$Dco354kdFP5w63b42
0001:00087618* __ZNSt8_Rb_treeISsSt4pairIKSsjESt10_Select1stIS2_ESt4lessISsESaIS2_EE13insert_uniqueESt17_Rb_tree_iteratorIS2_RS2_PS2_ERKS2_$w$Dco354kdFP5w63b42
0001:00087af8  __ZNSt8_Rb_treeIPN6Xapian6Weight8InternalES3_St9_IdentityIS3_ESt4lessIS3_ESaIS3_EE9_M_insertEPSt18_Rb_tree_node_baseSB_RKS3_$w$Dco354kdFP5w63b42
0001:00087a16* __ZNSt22_Rb_tree_base_iterator12_M_decrementEv$w$Dco354kdFP5w63b42
0001:00087ba2  __ZNSt8_Rb_treeIPN6Xapian6Weight8InternalES3_St9_IdentityIS3_ESt4lessIS3_ESaIS3_EE11lower_boundERKS3_$w$Dco354kdFP5w63b42
0001:00087bd6  __ZNSt8_Rb_treeIPN6Xapian6Weight8InternalES3_St9_IdentityIS3_ESt4lessIS3_ESaIS3_EE11upper_boundERKS3_$w$Dco354kdFP5w63b42
0001:00087c0a  __ZNSt8_Rb_treeIPN6Xapian6Weight8InternalES3_St9_IdentityIS3_ESt4lessIS3_ESaIS3_EE5eraseESt17_Rb_tree_iteratorIS3_RS3_PS3_ESD_$w$Dco354kdFP5w63b42
0001:00087cbe* __ZNSt8_Rb_treeISsSt4pairIKSsjESt10_Select1stIS2_ESt4lessISsESaIS2_EE9_M_insertEPSt18_Rb_tree_node_baseSA_RKS2_$w$Dco354kdFP5w63b42
0001:00087884* __ZNSt8_Rb_treeISsSt4pairIKSsjESt10_Select1stIS2_ESt4lessISsESaIS2_EE13insert_uniqueERKS2_$w$Dco354kdFP5w63b42
0001:000879fc  __ZTSN6Xapian6Weight8InternalE$w$Dco354kdFP5w63b42
0001:000881c0  __ZNSt8_Rb_treeIPN6Xapian6Weight8InternalES3_St9_IdentityIS3_ESt4lessIS3_ESaIS3_EE14_M_create_nodeERKS3_$w$Dco354kdFP5w63b42
0001:00087dd2* __ZSt18_Rb_tree_rebalancePSt18_Rb_tree_node_baseRS0_$w$Dco354kdFP5w63b42
0001:00087eda* __ZSt28_Rb_tree_rebalance_for_erasePSt18_Rb_tree_node_baseRS0_S1_S1_$w$Dco354kdFP5w63b42
0001:000881e8* __ZNSt8_Rb_treeISsSt4pairIKSsjESt10_Select1stIS2_ESt4lessISsESaIS2_EE14_M_create_nodeERKS2_$w$Dco354kdFP5w63b42
0001:0008825c* __ZSt20_Rb_tree_rotate_leftPSt18_Rb_tree_node_baseRS0_$w$Dco354kdFP5w63b42
0001:0008829e* __ZSt21_Rb_tree_rotate_rightPSt18_Rb_tree_node_baseRS0_$w$Dco354kdFP5w63b42
0002:000227f0* __ZN16__Atomicity_lockILi0EE17_S_atomicity_lockE$w$Dco354kdFP5w63b42
Module: F:\rd\dse\xapian-core-1.0.2\.libs\xapian.a(expand\expand.cc)
0001:000882e0* __ZN8OmExpand10build_treeEPK5RSetI
0001:0008880c  __ZN8OmExpand6expandEjRN6Xapian4ESetEPK5RSetIPKNS0_13ExpandDeciderEbd
0001:00088d80  __ZSt9make_heapIN9__gnu_cxx17__normal_iteratorIPPN6Xapian12TermIterator8InternalESt6vectorIS5_SaIS5_EEEE8TLPCmpGtEvT_SC_T0_$w$xlwczZ5dFP5XD2ax4
0001:0008925c  __ZSt11__push_heapIN9__gnu_cxx17__normal_iteratorIPPN6Xapian12TermIterator8InternalESt6vectorIS5_SaIS5_EEEEiS5_8TLPCmpGtEvT_T0_SD_T1_T2_$w$xlwczZ5dFP5XD2ax4
0001:00089d48* __ZNSt22_Rb_tree_base_iterator12_M_incrementEv$w$xlwczZ5dFP5XD2ax4
0001:00088dde* __ZNSt6vectorIPN6Xapian12TermIterator8InternalESaIS3_EE13_M_insert_auxEN9__gnu_cxx17__normal_iteratorIPS3_S5_EERKS3_$w$xlwczZ5dFP5XD2ax4
0001:00088ee4  __ZSt13__adjust_heapIN9__gnu_cxx17__normal_iteratorIPPN6Xapian12TermIterator8InternalESt6vectorIS5_SaIS5_EEEEiS5_8TLPCmpGtEvT_T0_SD_T1_T2_$w$xlwczZ5dFP5XD2ax4
0001:000892be* __ZNSt6vectorIPN6Xapian12TermIterator8InternalESaIS3_EE5eraseEN9__gnu_cxx17__normal_iteratorIPS3_S5_EES9_$w$xlwczZ5dFP5XD2ax4
0001:00089d90  __ZNSt6vectorIN6Xapian8Internal8ESetItemESaIS2_EE5eraseEN9__gnu_cxx17__normal_iteratorIPS2_S4_EES8_$w$xlwczZ5dFP5XD2ax4
0001:00088f8a  __ZSt11nth_elementIN9__gnu_cxx17__normal_iteratorIPN6Xapian8Internal8ESetItemESt6vectorIS4_SaIS4_EEEE9OmESetCmpEvT_SB_SB_T0_$w$xlwczZ5dFP5XD2ax4
0001:00089302  __ZNSt6vectorIN6Xapian8Internal8ESetItemESaIS2_EE13_M_insert_auxEN9__gnu_cxx17__normal_iteratorIPS2_S4_EERKS2_$w$xlwczZ5dFP5XD2ax4
0001:000890de  __ZSt16__introsort_loopIN9__gnu_cxx17__normal_iteratorIPN6Xapian8Internal8ESetItemESt6vectorIS4_SaIS4_EEEEi9OmESetCmpEvT_SB_T0_T1_$w$xlwczZ5dFP5XD2ax4
0001:00089aa4  __ZSt22__final_insertion_sortIN9__gnu_cxx17__normal_iteratorIPN6Xapian8Internal8ESetItemESt6vectorIS4_SaIS4_EEEE9OmESetCmpEvT_SB_T0_$w$xlwczZ5dFP5XD2ax4
0001:00089e6c  __ZSt8__medianIN6Xapian8Internal8ESetItemE9OmESetCmpERKT_S6_S6_S6_T0_$w$xlwczZ5dFP5XD2ax4
0001:0008961c  __ZSt21__unguarded_partitionIN9__gnu_cxx17__normal_iteratorIPN6Xapian8Internal8ESetItemESt6vectorIS4_SaIS4_EEEES4_9OmESetCmpET_SB_SB_T0_T1_$w$xlwczZ5dFP5XD2ax4
0001:00089816  __ZSt16__insertion_sortIN9__gnu_cxx17__normal_iteratorIPN6Xapian8Internal8ESetItemESt6vectorIS4_SaIS4_EEEE9OmESetCmpEvT_SB_T0_$w$xlwczZ5dFP5XD2ax4
0001:0008a110  __ZSt12partial_sortIN9__gnu_cxx17__normal_iteratorIPN6Xapian8Internal8ESetItemESt6vectorIS4_SaIS4_EEEE9OmESetCmpEvT_SB_SB_T0_$w$xlwczZ5dFP5XD2ax4
0001:00089bc0  __ZSt24__uninitialized_copy_auxIN9__gnu_cxx17__normal_iteratorIPN6Xapian8Internal8ESetItemESt6vectorIS4_SaIS4_EEEES9_ET0_T_SB_SA_12__false_type$w$xlwczZ5dFP5XD2ax4
0001:00089c70  __ZSt25__unguarded_linear_insertIN9__gnu_cxx17__normal_iteratorIPN6Xapian8Internal8ESetItemESt6vectorIS4_SaIS4_EEEES4_9OmESetCmpEvT_T0_T1_$w$xlwczZ5dFP5XD2ax4
0001:00089d44* __ZNSt15basic_streambufIcSt11char_traitsIcEE13_S_pback_sizeE$w$xlwczZ5dFP5XD2ax4
0001:0008a806  __ZSt9make_heapIN9__gnu_cxx17__normal_iteratorIPN6Xapian8Internal8ESetItemESt6vectorIS4_SaIS4_EEEE9OmESetCmpEvT_SB_T0_$w$xlwczZ5dFP5XD2ax4
0001:0008a380  __ZSt13__adjust_heapIN9__gnu_cxx17__normal_iteratorIPN6Xapian8Internal8ESetItemESt6vectorIS4_SaIS4_EEEEiS4_9OmESetCmpEvT_T0_SC_T1_T2_$w$xlwczZ5dFP5XD2ax4
0001:0008a576  __ZSt9sort_heapIN9__gnu_cxx17__normal_iteratorIPN6Xapian8Internal8ESetItemESt6vectorIS4_SaIS4_EEEE9OmESetCmpEvT_SB_T0_$w$xlwczZ5dFP5XD2ax4
0001:0008a6de  __ZSt11__push_heapIN9__gnu_cxx17__normal_iteratorIPN6Xapian8Internal8ESetItemESt6vectorIS4_SaIS4_EEEEiS4_9OmESetCmpEvT_T0_SC_T1_T2_$w$xlwczZ5dFP5XD2ax4
0002:00022800* __ZN16__Atomicity_lockILi0EE17_S_atomicity_lockE$w$xlwczZ5dFP5XD2ax4
Module: F:\rd\dse\xapian-core-1.0.2\.libs\xapian.a(matcher\emptysubmatch.cc)
0001:0008aeea* __ZN13EmptySubMatch13prepare_matchEb
0001:0008aef4* __ZN13EmptySubMatch11start_matchEjj
0001:0008aefa* __ZN13EmptySubMatch26get_postlist_and_term_infoEP10MultiMatchPSt3mapISsN6Xapian4MSet8Internal17TermFreqAndWeightESt4lessISsESaISt4pairIKSsS6_EEE
0001:0008a910  __ZTV13EmptySubMatch$w$DOpyJIddFP59ZUsd3
0001:0008afac  __ZTI13EmptySubMatch$w$DOpyJIddFP59ZUsd3
0001:0008aeca  __ZN13EmptySubMatchD1Ev$w$DOpyJIddFP59ZUsd3
0001:0008aed8  __ZN13EmptySubMatchD0Ev$w$DOpyJIddFP59ZUsd3
0001:0008a930* __ZTV13EmptyPostList$w$DOpyJIddFP59ZUsd3
0001:0008afa0* __ZTI13EmptyPostList$w$DOpyJIddFP59ZUsd3
0001:0008adb8* __ZN13EmptyPostListD1Ev$w$DOpyJIddFP59ZUsd3
0001:0008adf6* __ZN13EmptyPostListD0Ev$w$DOpyJIddFP59ZUsd3
0001:0008acee* __ZNK12LeafPostList16get_termfreq_minEv$w$DOpyJIddFP59ZUsd3
0001:0008ad04* __ZNK12LeafPostList16get_termfreq_estEv$w$DOpyJIddFP59ZUsd3
0001:0008acd8* __ZNK12LeafPostList16get_termfreq_maxEv$w$DOpyJIddFP59ZUsd3
0001:0008ae42* __ZNK13EmptyPostList13get_maxweightEv$w$DOpyJIddFP59ZUsd3
0001:0008ae4a* __ZNK13EmptyPostList9get_docidEv$w$DOpyJIddFP59ZUsd3
0001:0008ae52* __ZNK13EmptyPostList10get_weightEv$w$DOpyJIddFP59ZUsd3
0001:0008a9e8* __ZNK6Xapian15PostingIterator8Internal16get_collapse_keyEv$w$DOpyJIddFP59ZUsd3
0001:0008ae5a* __ZNK13EmptyPostList13get_doclengthEv$w$DOpyJIddFP59ZUsd3
0001:0008ada0* __ZN12LeafPostList16recalc_maxweightEv$w$DOpyJIddFP59ZUsd3
0001:0008aa26* __ZNK6Xapian15PostingIterator8Internal7get_wdfEv$w$DOpyJIddFP59ZUsd3
0001:0008ae62* __ZN13EmptyPostList18read_position_listEv$w$DOpyJIddFP59ZUsd3
0001:0008ae6a* __ZNK13EmptyPostList18open_position_listEv$w$DOpyJIddFP59ZUsd3
0001:0008ae72* __ZN13EmptyPostList4nextEd$w$DOpyJIddFP59ZUsd3
0001:0008ae7a* __ZN13EmptyPostList7skip_toEjd$w$DOpyJIddFP59ZUsd3
0001:0008ae82* __ZNK13EmptyPostList6at_endEv$w$DOpyJIddFP59ZUsd3
0001:0008ae94* __ZNK13EmptyPostList15get_descriptionEv$w$DOpyJIddFP59ZUsd3
0001:0008ae3a* __ZNK13EmptyPostList12get_termfreqEv$w$DOpyJIddFP59ZUsd3
0001:0008ad1a* __ZN12LeafPostList14set_termweightEPKN6Xapian6WeightE$w$DOpyJIddFP59ZUsd3
0001:0008a990* __ZTV12LeafPostList$w$DOpyJIddFP59ZUsd3
0001:0008af94* __ZTI12LeafPostList$w$DOpyJIddFP59ZUsd3
0001:0008ac56* __ZN12LeafPostListD1Ev$w$DOpyJIddFP59ZUsd3
0001:0008ac94* __ZN12LeafPostListD0Ev$w$DOpyJIddFP59ZUsd3
0001:0008ad88* __ZNK12LeafPostList13get_maxweightEv$w$DOpyJIddFP59ZUsd3
0001:0008ad3e* __ZNK12LeafPostList10get_weightEv$w$DOpyJIddFP59ZUsd3
0001:0008b060* __ZN6Xapian18UnimplementedErrorD1Ev$w$DOpyJIddFP59ZUsd3
0001:0008b1b0* __ZTIN6Xapian18UnimplementedErrorE$w$DOpyJIddFP59ZUsd3
0001:0008b010* __ZTVN6Xapian15PostingIterator8InternalE$w$DOpyJIddFP59ZUsd3
0001:0008aff0  __ZTV8SubMatch$w$DOpyJIddFP59ZUsd3
0001:0008afd8* __ZTS12LeafPostList$w$DOpyJIddFP59ZUsd3
0001:0008b190* __ZTIN6Xapian15PostingIterator8InternalE$w$DOpyJIddFP59ZUsd3
0001:0008afc8* __ZTS13EmptyPostList$w$DOpyJIddFP59ZUsd3
0001:0008afb8  __ZTS13EmptySubMatch$w$DOpyJIddFP59ZUsd3
0001:0008b1d0  __ZTI8SubMatch$w$DOpyJIddFP59ZUsd3
0001:0008afe8* __ZNSt15basic_streambufIcSt11char_traitsIcEE13_S_pback_sizeE$w$DOpyJIddFP59ZUsd3
0001:0008b154  __ZN8SubMatchD1Ev$w$DOpyJIddFP59ZUsd3
0001:0008b162  __ZN8SubMatchD0Ev$w$DOpyJIddFP59ZUsd3
0001:0008b134* __ZN6Xapian15PostingIterator8InternalD1Ev$w$DOpyJIddFP59ZUsd3
0001:0008b142* __ZN6Xapian15PostingIterator8InternalD0Ev$w$DOpyJIddFP59ZUsd3
0001:0008b230* __ZTSN6Xapian15PostingIterator8InternalE$w$DOpyJIddFP59ZUsd3
0001:0008b254* __ZTIN6Xapian8Internal10RefCntBaseE$w$DOpyJIddFP59ZUsd3
0001:0008b1fa* __ZTSN6Xapian18UnimplementedErrorE$w$DOpyJIddFP59ZUsd3
0001:0008b25c* __ZTIN6Xapian10LogicErrorE$w$DOpyJIddFP59ZUsd3
0001:0008b1f0  __ZTS8SubMatch$w$DOpyJIddFP59ZUsd3
0001:0008b27e* __ZTSN6Xapian8Internal10RefCntBaseE$w$DOpyJIddFP59ZUsd3
0001:0008b268* __ZTSN6Xapian10LogicErrorE$w$DOpyJIddFP59ZUsd3
0001:0008b2a0* __ZTIN6Xapian5ErrorE$w$DOpyJIddFP59ZUsd3
0001:0008b2a8* __ZTSN6Xapian5ErrorE$w$DOpyJIddFP59ZUsd3
0002:00022810* __ZN16__Atomicity_lockILi0EE17_S_atomicity_lockE$w$DOpyJIddFP59ZUsd3
Module: F:\rd\dse\xapian-core-1.0.2\.libs\xapian.a(languages\english.cc)
0001:0008c7f8* __ZN6Xapian19InternalStemEnglishD1Ev
0001:0008c814* __ZN6Xapian19InternalStemEnglishD0Ev
0001:0008c580* __ZN6Xapian19InternalStemEnglish4stemEv
0001:0008c844* __ZNK6Xapian19InternalStemEnglish15get_descriptionEv
0001:0008b2e8* __ZN6Xapian19InternalStemEnglish9r_preludeEv
0001:0008b466* __ZN6Xapian19InternalStemEnglish14r_mark_regionsEv
0001:0008b5c8* __ZN6Xapian19InternalStemEnglish8r_shortvEv
0001:0008b6da* __ZN6Xapian19InternalStemEnglish4r_R1Ev
0001:0008b6ee* __ZN6Xapian19InternalStemEnglish4r_R2Ev
0001:0008b702* __ZN6Xapian19InternalStemEnglish9r_Step_1aEv
0001:0008b950* __ZN6Xapian19InternalStemEnglish9r_Step_1bEv
0001:0008bc1e* __ZN6Xapian19InternalStemEnglish9r_Step_1cEv
0001:0008bcf6* __ZN6Xapian19InternalStemEnglish8r_Step_2Ev
0001:0008bf32* __ZN6Xapian19InternalStemEnglish8r_Step_3Ev
0001:0008c096* __ZN6Xapian19InternalStemEnglish8r_Step_4Ev
0001:0008c1ca* __ZN6Xapian19InternalStemEnglish8r_Step_5Ev
0001:0008c2fa* __ZN6Xapian19InternalStemEnglish12r_exception2Ev
0001:0008c36e* __ZN6Xapian19InternalStemEnglish12r_exception1Ev
0001:0008c4d0* __ZN6Xapian19InternalStemEnglish10r_postludeEv
0001:0008c774* __ZN6Xapian19InternalStemEnglishC2Ev
0001:0008c7a8  __ZN6Xapian19InternalStemEnglishC1Ev
0001:0008c7dc* __ZN6Xapian19InternalStemEnglishD2Ev
0001:0008b2d0  __ZTVN6Xapian19InternalStemEnglishE$w$djsMtg7dFP5IBJi14
0001:0008c850  __ZTIN6Xapian19InternalStemEnglishE$w$djsMtg7dFP5IBJi14
0001:0008d017  __ZTSN6Xapian19InternalStemEnglishE$w$djsMtg7dFP5IBJi14
0001:0008d210* __ZTIN6Xapian4Stem8InternalE$w$djsMtg7dFP5IBJi14
0001:0008d230* __ZTSN6Xapian4Stem8InternalE$w$djsMtg7dFP5IBJi14
0001:0008d248* __ZTIN6Xapian8Internal10RefCntBaseE$w$djsMtg7dFP5IBJi14
0001:0008d250* __ZTSN6Xapian8Internal10RefCntBaseE$w$djsMtg7dFP5IBJi14
0002:00022820* __ZN16__Atomicity_lockILi0EE17_S_atomicity_lockE$w$djsMtg7dFP5IBJi14
Module: F:\rd\dse\xapian-core-1.0.2\.libs\xapian.a(backends\flint\flint_termlist.cc)
0001:00090502* __ZNK13FlintTermList15get_approx_sizeEv
0001:00090ed0* __ZNK13FlintTermList16accumulate_statsERN6Xapian8Internal11ExpandStatsE
0001:00090e5a  __ZNK13FlintTermList12get_termnameEv
0001:00090e84  __ZNK13FlintTermList7get_wdfEv
0001:00090e90* __ZNK13FlintTermList12get_termfreqEv
0001:00090572  __ZN13FlintTermList4nextEv
0001:00090e4e  __ZNK13FlintTermList6at_endEv
0001:0009133e* __ZNK13FlintTermList18positionlist_countEv
0001:0009156e* __ZNK13FlintTermList18positionlist_beginEv
0001:0008d47c  __ZN18FlintTermListTable11set_entriesEjN6Xapian12TermIteratorERKS1_jb
0001:0008e038  __ZN18FlintTermListTable15delete_termlistEj
0001:0008e1e6* __ZN13FlintTermListC2EN6Xapian8Internal9RefCntPtrIKNS0_8Database8InternalEEEPK10FlintTablejj
0001:0008f374  __ZN13FlintTermListC1EN6Xapian8Internal9RefCntPtrIKNS0_8Database8InternalEEEPK10FlintTablejj
0001:0009050e  __ZNK13FlintTermList13get_doclengthEv
0001:0008d270  __ZTV13FlintTermList$w$78eFAOXcFP5nzqEK0
0001:000916ac  __ZTI13FlintTermList$w$78eFAOXcFP5nzqEK0
0001:0008d2ac  __ZN13FlintTermListD1Ev$w$78eFAOXcFP5nzqEK0
0001:0008d382  __ZN13FlintTermListD0Ev$w$78eFAOXcFP5nzqEK0
0001:000922d8* __Z9pack_uintIjESsT_$w$78eFAOXcFP5nzqEK0
0001:00092460* __Z25pack_uint_preserving_sortIjESsT_$w$78eFAOXcFP5nzqEK0
0001:000915b4* __ZStplIcSt11char_traitsIcESaIcEESbIT_T0_T1_EPKS3_RKS6_$w$78eFAOXcFP5nzqEK0
0001:00091874* __ZN6Xapian16DocNotFoundErrorD1Ev$w$78eFAOXcFP5nzqEK0
0001:00092610* __ZTIN6Xapian16DocNotFoundErrorE$w$78eFAOXcFP5nzqEK0
0001:00092254* __Z11unpack_uintIjEbPPKcS1_PT_$w$78eFAOXcFP5nzqEK0
0001:00091948* __ZN6Xapian10RangeErrorD1Ev$w$78eFAOXcFP5nzqEK0
0001:0009261c* __ZTIN6Xapian10RangeErrorE$w$78eFAOXcFP5nzqEK0
0001:000917a0* __ZN6Xapian20DatabaseCorruptErrorD1Ev$w$78eFAOXcFP5nzqEK0
0001:00092628* __ZTIN6Xapian20DatabaseCorruptErrorE$w$78eFAOXcFP5nzqEK0
0001:0009241c* __Z11unpack_boolPPKcS0_Pb$w$78eFAOXcFP5nzqEK0
0001:00091a5a  __ZSt6__copyISt13_Bit_iteratorS0_ET0_T_S2_S1_St26random_access_iterator_tag$w$78eFAOXcFP5nzqEK0
0001:00091a1c  __ZNSt18_Bit_iterator_base7_M_incrEi$w$78eFAOXcFP5nzqEK0
0001:00091b50  __ZNSt6vectorIbSaIbEE14_M_fill_insertESt13_Bit_iteratorjb$w$78eFAOXcFP5nzqEK0
0001:000916cc* __ZN6Xapian18UnimplementedErrorD1Ev$w$78eFAOXcFP5nzqEK0
0001:00092634* __ZTIN6Xapian18UnimplementedErrorE$w$78eFAOXcFP5nzqEK0
0001:000916b8  __ZTS13FlintTermList$w$78eFAOXcFP5nzqEK0
0001:000925f0* __ZTIN6Xapian12TermIterator8InternalE$w$78eFAOXcFP5nzqEK0
0001:000916c8* __ZNSt15basic_streambufIcSt11char_traitsIcEE13_S_pback_sizeE$w$78eFAOXcFP5nzqEK0
0001:000921a6  __ZSt4fillISt13_Bit_iteratorbEvT_S1_RKT0_$w$78eFAOXcFP5nzqEK0
0001:00092548  __ZSt6fill_nISt13_Bit_iteratorjbET_S1_T0_RKT1_$w$78eFAOXcFP5nzqEK0
0001:000926d0* __ZTSN6Xapian12TermIterator8InternalE$w$78eFAOXcFP5nzqEK0
0001:00092718* __ZTIN6Xapian8Internal10RefCntBaseE$w$78eFAOXcFP5nzqEK0
0001:000926a6* __ZTSN6Xapian16DocNotFoundErrorE$w$78eFAOXcFP5nzqEK0
0001:0009270c* __ZTIN6Xapian12RuntimeErrorE$w$78eFAOXcFP5nzqEK0
0001:00092690* __ZTSN6Xapian10RangeErrorE$w$78eFAOXcFP5nzqEK0
0001:00092670* __ZTSN6Xapian20DatabaseCorruptErrorE$w$78eFAOXcFP5nzqEK0
0001:00092700* __ZTIN6Xapian13DatabaseErrorE$w$78eFAOXcFP5nzqEK0
0001:00092640* __ZTSN6Xapian18UnimplementedErrorE$w$78eFAOXcFP5nzqEK0
0001:000926f4* __ZTIN6Xapian10LogicErrorE$w$78eFAOXcFP5nzqEK0
0001:00092770* __ZTSN6Xapian10LogicErrorE$w$78eFAOXcFP5nzqEK0
0001:00092788* __ZTIN6Xapian5ErrorE$w$78eFAOXcFP5nzqEK0
0001:00092757* __ZTSN6Xapian13DatabaseErrorE$w$78eFAOXcFP5nzqEK0
0001:0009273f* __ZTSN6Xapian12RuntimeErrorE$w$78eFAOXcFP5nzqEK0
0001:00092720* __ZTSN6Xapian8Internal10RefCntBaseE$w$78eFAOXcFP5nzqEK0
0001:00092790* __ZTSN6Xapian5ErrorE$w$78eFAOXcFP5nzqEK0
0002:00022830* __ZN16__Atomicity_lockILi0EE17_S_atomicity_lockE$w$78eFAOXcFP5nzqEK0
Module: F:\rd\dse\xapian-core-1.0.2\.libs\xapian.a(api\omvalueiterator.cc)
0001:000927b0  __ZNK6Xapian13ValueIteratordeEv
0001:00092a32* __ZNK6Xapian13ValueIteratorptEv
0001:00092cb4  __ZNK6Xapian13ValueIterator11get_valuenoEv
0001:00092dd2* __ZNK6Xapian13ValueIterator15get_descriptionEv
0001:00092fbe  __ZNSt6vectorIjSaIjEE7reserveEj$w$L8gTaJMcFP5OAkbp1
0001:0009347c* __ZNSt22_Rb_tree_base_iterator12_M_incrementEv$w$L8gTaJMcFP5OAkbp1
0001:0009315c* __ZNSt8_Rb_treeIjSt4pairIKjSsESt10_Select1stIS2_ESt4lessIjESaIS2_EE11lower_boundERS1_$w$L8gTaJMcFP5OAkbp1
0001:000932d4* __ZNSt8_Rb_treeIjSt4pairIKjSsESt10_Select1stIS2_ESt4lessIjESaIS2_EE13insert_uniqueESt17_Rb_tree_iteratorIS2_RS2_PS2_ERKS2_$w$L8gTaJMcFP5OAkbp1
0001:00093056* __ZNSt6vectorIjSaIjEE13_M_insert_auxEN9__gnu_cxx17__normal_iteratorIPjS1_EERKj$w$L8gTaJMcFP5OAkbp1
0001:00093190* __ZStplIcSt11char_traitsIcESaIcEESbIT_T0_T1_EPKS3_RKS6_$w$L8gTaJMcFP5OAkbp1
0001:00093286  __ZNSt6vectorIjSaIjEE20_M_allocate_and_copyIPjEES3_jT_S4_$w$L8gTaJMcFP5OAkbp1
0001:000934c4* __ZNSt22_Rb_tree_base_iterator12_M_decrementEv$w$L8gTaJMcFP5OAkbp1
0001:00093514* __ZNSt8_Rb_treeIjSt4pairIKjSsESt10_Select1stIS2_ESt4lessIjESaIS2_EE9_M_insertEPSt18_Rb_tree_node_baseSA_RKS2_$w$L8gTaJMcFP5OAkbp1
0001:000933ac* __ZNSt8_Rb_treeIjSt4pairIKjSsESt10_Select1stIS2_ESt4lessIjESaIS2_EE13insert_uniqueERKS2_$w$L8gTaJMcFP5OAkbp1
0001:00093478* __ZNSt15basic_streambufIcSt11char_traitsIcEE13_S_pback_sizeE$w$L8gTaJMcFP5OAkbp1
0001:000936c6* __ZNSt8_Rb_treeIjSt4pairIKjSsESt10_Select1stIS2_ESt4lessIjESaIS2_EE14_M_create_nodeERKS2_$w$L8gTaJMcFP5OAkbp1
0001:000935be* __ZSt18_Rb_tree_rebalancePSt18_Rb_tree_node_baseRS0_$w$L8gTaJMcFP5OAkbp1
0001:00093738* __ZSt20_Rb_tree_rotate_leftPSt18_Rb_tree_node_baseRS0_$w$L8gTaJMcFP5OAkbp1
0001:0009377a* __ZSt21_Rb_tree_rotate_rightPSt18_Rb_tree_node_baseRS0_$w$L8gTaJMcFP5OAkbp1
0002:00022840* __ZN16__Atomicity_lockILi0EE17_S_atomicity_lockE$w$L8gTaJMcFP5OAkbp1
Module: F:\rd\dse\xapian-core-1.0.2\.libs\xapian.a(languages\steminternal.cc)
0001:00093980* __ZN6Xapian4Stem8InternalD1Ev
0001:000939a6* __ZN6Xapian4Stem8InternalD0Ev
0001:000937d8  __Z8create_sv
0001:0009382e  __Z9skip_utf8PKhiiii
0001:000938c2  __ZN6Xapian4Stem8InternalC2Ev
0001:0009390e* __ZN6Xapian4Stem8InternalC1Ev
0001:0009395a  __ZN6Xapian4Stem8InternalD2Ev
0001:000939fc  __ZN6Xapian4Stem8InternalclERKSs
0001:000942c8* __ZN6Xapian4Stem8Internal9replace_sEiiiPKh
0001:00093c9c* __ZN6Xapian4Stem8Internal8get_utf8EPi
0001:00093d2e* __ZN6Xapian4Stem8Internal10get_b_utf8EPi
0001:00093dba  __ZN6Xapian4Stem8Internal13in_grouping_UEPKhiii
0001:00093e22  __ZN6Xapian4Stem8Internal15in_grouping_b_UEPKhiii
0001:00093e8a  __ZN6Xapian4Stem8Internal14out_grouping_UEPKhiii
0001:00093ef2  __ZN6Xapian4Stem8Internal16out_grouping_b_UEPKhiii
0001:00093f5a  __ZN6Xapian4Stem8Internal4eq_sEiPKh
0001:00093fb6  __ZN6Xapian4Stem8Internal6eq_s_bEiPKh
0001:00094016  __ZN6Xapian4Stem8Internal10find_amongEPK5amongiPKhPKPFiPS1_E
0001:0009416e  __ZN6Xapian4Stem8Internal12find_among_bEPK5amongiPKhPKPFiPS1_E
0001:000943ca* __ZN6Xapian4Stem8Internal11slice_checkEv
0001:000943ee  __ZN6Xapian4Stem8Internal12slice_from_sEiPKh
0001:00094438  __ZN6Xapian4Stem8Internal8insert_sEiiiPKh
0001:00094490  __ZN6Xapian4Stem8Internal8slice_toEPh
0001:00094540* __ZN6Xapian4Stem8Internal9assign_toEPh
0001:000937c0  __ZTVN6Xapian4Stem8InternalE$w$VXXbftbdFP56Y3f44
0001:000945e0  __ZTIN6Xapian4Stem8InternalE$w$VXXbftbdFP56Y3f44
0001:000946ec* __ZTISt9bad_alloc$w$VXXbftbdFP56Y3f44
0001:00094618* __ZN6Xapian13InternalErrorD1Ev$w$VXXbftbdFP56Y3f44
0001:000946f8* __ZTIN6Xapian13InternalErrorE$w$VXXbftbdFP56Y3f44
0001:00094600  __ZTSN6Xapian4Stem8InternalE$w$VXXbftbdFP56Y3f44
0001:00094704* __ZTIN6Xapian8Internal10RefCntBaseE$w$VXXbftbdFP56Y3f44
0001:00094744* __ZTSSt9bad_alloc$w$VXXbftbdFP56Y3f44
0001:00094754* __ZTISt9exception$w$VXXbftbdFP56Y3f44
0001:0009472b* __ZTSN6Xapian13InternalErrorE$w$VXXbftbdFP56Y3f44
0001:0009475c* __ZTIN6Xapian12RuntimeErrorE$w$VXXbftbdFP56Y3f44
0001:0009470c* __ZTSN6Xapian8Internal10RefCntBaseE$w$VXXbftbdFP56Y3f44
0001:00094780* __ZTSSt9exception$w$VXXbftbdFP56Y3f44
0001:00094768* __ZTSN6Xapian12RuntimeErrorE$w$VXXbftbdFP56Y3f44
0001:00094790* __ZTIN6Xapian5ErrorE$w$VXXbftbdFP56Y3f44
0001:00094798* __ZTSN6Xapian5ErrorE$w$VXXbftbdFP56Y3f44
0002:00022850* __ZN16__Atomicity_lockILi0EE17_S_atomicity_lockE$w$VXXbftbdFP56Y3f44
Module: F:\rd\dse\xapian-core-1.0.2\.libs\xapian.a(backends\inmemory\inmemory_positionlist.cc)
0001:00094a0c* __ZNK20InMemoryPositionList8get_sizeEv
0001:00094a1e* __ZNK20InMemoryPositionList12get_positionEv
0001:00094a2c* __ZN20InMemoryPositionList4nextEv
0001:00094a44* __ZN20InMemoryPositionList7skip_toEj
0001:00094a7e* __ZNK20InMemoryPositionList6at_endEv
0001:00094880* __ZN20InMemoryPositionListC2ERKSt6vectorIjSaIjEE
0001:0009492e  __ZN20InMemoryPositionListC1ERKSt6vectorIjSaIjEE
0001:000949dc  __ZN20InMemoryPositionList8set_dataERKSt6vectorIjSaIjEE
0001:000947c0  __ZTV20InMemoryPositionList$w$9xGVIi3dFP52Xa9D0
0001:00094a98  __ZTI20InMemoryPositionList$w$9xGVIi3dFP52Xa9D0
0001:000947e4  __ZN20InMemoryPositionListD1Ev$w$9xGVIi3dFP52Xa9D0
0001:00094830  __ZN20InMemoryPositionListD0Ev$w$9xGVIi3dFP52Xa9D0
0001:00094ac0* __ZTVN6Xapian16PositionIterator8InternalE$w$9xGVIi3dFP52Xa9D0
0001:00094b04* __ZNSt6vectorIjSaIjEEaSERKS1_$w$9xGVIi3dFP52Xa9D0
0001:00094aa4  __ZTS20InMemoryPositionList$w$9xGVIi3dFP52Xa9D0
0001:00094be0* __ZTIN6Xapian16PositionIterator8InternalE$w$9xGVIi3dFP52Xa9D0
0001:00094abc* __ZNSt15basic_streambufIcSt11char_traitsIcEE13_S_pback_sizeE$w$9xGVIi3dFP52Xa9D0
0001:00094ae4* __ZN6Xapian16PositionIterator8InternalD1Ev$w$9xGVIi3dFP52Xa9D0
0001:00094af2* __ZN6Xapian16PositionIterator8InternalD0Ev$w$9xGVIi3dFP52Xa9D0
0001:00094c26* __ZNSt6vectorIjSaIjEE20_M_allocate_and_copyIN9__gnu_cxx17__normal_iteratorIPKjS1_EEEEPjjT_S9_$w$9xGVIi3dFP52Xa9D0
0001:00094c00* __ZTSN6Xapian16PositionIterator8InternalE$w$9xGVIi3dFP52Xa9D0
0001:00094c74* __ZTIN6Xapian8Internal10RefCntBaseE$w$9xGVIi3dFP52Xa9D0
0001:00094c7c* __ZTSN6Xapian8Internal10RefCntBaseE$w$9xGVIi3dFP52Xa9D0
0002:00022860* __ZN16__Atomicity_lockILi0EE17_S_atomicity_lockE$w$9xGVIi3dFP52Xa9D0
Module: F:\rd\dse\xapian-core-1.0.2\.libs\xapian.a(matcher\andmaybepostlist.cc)
0001:00095472* __ZNK16AndMaybePostList16get_termfreq_minEv
0001:0009548a* __ZNK16AndMaybePostList16get_termfreq_estEv
0001:0009545a* __ZNK16AndMaybePostList16get_termfreq_maxEv
0001:000954f2* __ZNK16AndMaybePostList13get_maxweightEv
0001:000954a2* __ZNK16AndMaybePostList9get_docidEv
0001:000954ae* __ZNK16AndMaybePostList10get_weightEv
0001:00095986* __ZNK16AndMaybePostList13get_doclengthEv
0001:00095500* __ZN16AndMaybePostList16recalc_maxweightEv
0001:0009521a* __ZN16AndMaybePostList4nextEd
0001:0009532a* __ZN16AndMaybePostList7skip_toEjd
0001:00095532* __ZNK16AndMaybePostList6at_endEv
0001:00095554* __ZNK16AndMaybePostList15get_descriptionEv
0001:00095134* __ZN16AndMaybePostList23process_next_or_skip_toEdPN6Xapian15PostingIterator8InternalE
0001:00094ca0  __ZTV16AndMaybePostList$w$5dBXORbdFP5Cdibk4
0001:00095bec  __ZTI16AndMaybePostList$w$5dBXORbdFP5Cdibk4
0001:000950f0  __ZN16AndMaybePostListD1Ev$w$5dBXORbdFP5Cdibk4
0001:0009510c  __ZN16AndMaybePostListD0Ev$w$5dBXORbdFP5Cdibk4
0001:000950e8* __ZNK6Xapian15PostingIterator8Internal16get_collapse_keyEv$w$5dBXORbdFP5Cdibk4
0001:00094cf0* __ZTV13StatsGatherer$w$5dBXORbdFP5Cdibk4
0001:00095be4* __ZTI13StatsGatherer$w$5dBXORbdFP5Cdibk4
0001:00094d08* __ZN13StatsGathererD1Ev$w$5dBXORbdFP5Cdibk4
0001:00094eee* __ZN13StatsGathererD0Ev$w$5dBXORbdFP5Cdibk4
0001:000950da* __ZN13StatsGatherer16set_global_statsEj$w$5dBXORbdFP5Cdibk4
0001:0009599e* __ZNSt8_Rb_treeISsSt4pairIKSsjESt10_Select1stIS2_ESt4lessISsESaIS2_EE8_M_eraseEPSt13_Rb_tree_nodeIS2_E$w$5dBXORbdFP5Cdibk4
0001:00095a28* __ZNSt8_Rb_treeIPN6Xapian6Weight8InternalES3_St9_IdentityIS3_ESt4lessIS3_ESaIS3_EE8_M_eraseEPSt13_Rb_tree_nodeIS3_E$w$5dBXORbdFP5Cdibk4
0001:00095a6c* __ZStplIcSt11char_traitsIcESaIcEESbIT_T0_T1_EPKS3_RKS6_$w$5dBXORbdFP5Cdibk4
0001:00095b62* __ZStplIcSt11char_traitsIcESaIcEESbIT_T0_T1_ERKS6_S8_$w$5dBXORbdFP5Cdibk4
0001:00095c0b* __ZTS13StatsGatherer$w$5dBXORbdFP5Cdibk4
0001:00095bf8  __ZTS16AndMaybePostList$w$5dBXORbdFP5Cdibk4
0001:00095c20* __ZTI14BranchPostList$w$5dBXORbdFP5Cdibk4
0001:00095c1c* __ZNSt15basic_streambufIcSt11char_traitsIcEE13_S_pback_sizeE$w$5dBXORbdFP5Cdibk4
0001:00095c2c* __ZTS14BranchPostList$w$5dBXORbdFP5Cdibk4
0001:00095c40* __ZTIN6Xapian15PostingIterator8InternalE$w$5dBXORbdFP5Cdibk4
0001:00095c60* __ZTSN6Xapian15PostingIterator8InternalE$w$5dBXORbdFP5Cdibk4
0001:00095c84* __ZTIN6Xapian8Internal10RefCntBaseE$w$5dBXORbdFP5Cdibk4
0001:00095c8c* __ZTSN6Xapian8Internal10RefCntBaseE$w$5dBXORbdFP5Cdibk4
0002:00022870* __ZN16__Atomicity_lockILi0EE17_S_atomicity_lockE$w$5dBXORbdFP5Cdibk4
Module: F:\rd\dse\xapian-core-1.0.2\.libs\xapian.a(matcher\phrasepostlist.cc)
0001:00096b5a* __ZNK14PhrasePostList7get_wdfEv
0001:00096bce* __ZNK14PhrasePostList15get_descriptionEv
0001:000967fc* __ZN14PhrasePostList8test_docEv
0001:00096356* __ZNK12NearPostList7get_wdfEv
0001:000963ca* __ZNK12NearPostList15get_descriptionEv
0001:000960da* __ZN12NearPostList8test_docEv
0001:00096264* __ZN12NearPostList7do_testERSt6vectorIPN6Xapian16PositionIterator8InternalESaIS4_EEjjj
0001:000969ba* __ZN14PhrasePostList7do_testERSt6vectorIPN6Xapian16PositionIterator8InternalESaIS4_EEjjj
0001:00095cc0  __ZTV14PhrasePostList$w$nS7kEYidFP58pqyH2
0001:00097544  __ZTI14PhrasePostList$w$nS7kEYidFP58pqyH2
0001:00095f98  __ZN14PhrasePostListD1Ev$w$nS7kEYidFP58pqyH2
0001:00096024  __ZN14PhrasePostListD0Ev$w$nS7kEYidFP58pqyH2
0001:00095d94  __ZNK14SelectPostList16get_termfreq_minEv$w$nS7kEYidFP58pqyH2
0001:000960b6  __ZNK14PhrasePostList16get_termfreq_estEv$w$nS7kEYidFP58pqyH2
0001:00095d7c  __ZNK14SelectPostList16get_termfreq_maxEv$w$nS7kEYidFP58pqyH2
0001:00095d9c  __ZNK14SelectPostList13get_maxweightEv$w$nS7kEYidFP58pqyH2
0001:00095db4  __ZNK14SelectPostList9get_docidEv$w$nS7kEYidFP58pqyH2
0001:00095dcc  __ZNK14SelectPostList10get_weightEv$w$nS7kEYidFP58pqyH2
0001:00095d74* __ZNK6Xapian15PostingIterator8Internal16get_collapse_keyEv$w$nS7kEYidFP58pqyH2
0001:00095de4  __ZNK14SelectPostList13get_doclengthEv$w$nS7kEYidFP58pqyH2
0001:00095dfc  __ZN14SelectPostList16recalc_maxweightEv$w$nS7kEYidFP58pqyH2
0001:00095e14  __ZN14SelectPostList18read_position_listEv$w$nS7kEYidFP58pqyH2
0001:00095e2c  __ZNK14SelectPostList18open_position_listEv$w$nS7kEYidFP58pqyH2
0001:00095e44  __ZNK14SelectPostList6at_endEv$w$nS7kEYidFP58pqyH2
0001:00095d20  __ZTV12NearPostList$w$nS7kEYidFP58pqyH2
0001:00097538  __ZTI12NearPostList$w$nS7kEYidFP58pqyH2
0001:00095e60  __ZN12NearPostListD1Ev$w$nS7kEYidFP58pqyH2
0001:00095eec  __ZN12NearPostListD0Ev$w$nS7kEYidFP58pqyH2
0001:00095f7e  __ZNK12NearPostList16get_termfreq_estEv$w$nS7kEYidFP58pqyH2
0001:00097580* __ZTVN6Xapian15PostingIterator8InternalE$w$nS7kEYidFP58pqyH2
0001:000970f6  __ZNSt6vectorIPN6Xapian16PositionIterator8InternalESaIS3_EE13_M_insert_auxEN9__gnu_cxx17__normal_iteratorIPS3_S5_EERKS3_$w$nS7kEYidFP58pqyH2
0001:000971fc  __ZSt16__introsort_loopIN9__gnu_cxx17__normal_iteratorIPPN6Xapian16PositionIterator8InternalESt6vectorIS5_SaIS5_EEEEi17PositionListCmpLtEvT_SC_T0_T1_$w$nS7kEYidFP58pqyH2
0001:00097476  __ZSt22__final_insertion_sortIN9__gnu_cxx17__normal_iteratorIPPN6Xapian16PositionIterator8InternalESt6vectorIS5_SaIS5_EEEE17PositionListCmpLtEvT_SC_T0_$w$nS7kEYidFP58pqyH2
0001:00097000* __ZStplIcSt11char_traitsIcESaIcEESbIT_T0_T1_EPKS3_RKS6_$w$nS7kEYidFP58pqyH2
0001:000972b4* __ZStplIcSt11char_traitsIcESaIcEESbIT_T0_T1_ERKS6_S8_$w$nS7kEYidFP58pqyH2
0001:00097334  __ZSt8__medianIPN6Xapian16PositionIterator8InternalE17PositionListCmpLtERKT_S7_S7_S7_T0_$w$nS7kEYidFP58pqyH2
0001:000973fe  __ZSt21__unguarded_partitionIN9__gnu_cxx17__normal_iteratorIPPN6Xapian16PositionIterator8InternalESt6vectorIS5_SaIS5_EEEES5_17PositionListCmpLtET_SC_SC_T0_T1_$w$nS7kEYidFP58pqyH2
0001:00097856  __ZSt12partial_sortIN9__gnu_cxx17__normal_iteratorIPPN6Xapian16PositionIterator8InternalESt6vectorIS5_SaIS5_EEEE17PositionListCmpLtEvT_SC_SC_T0_$w$nS7kEYidFP58pqyH2
0001:00097960  __ZSt16__insertion_sortIN9__gnu_cxx17__normal_iteratorIPPN6Xapian16PositionIterator8InternalESt6vectorIS5_SaIS5_EEEE17PositionListCmpLtEvT_SC_T0_$w$nS7kEYidFP58pqyH2
0001:000974ec  __ZSt25__unguarded_linear_insertIN9__gnu_cxx17__normal_iteratorIPPN6Xapian16PositionIterator8InternalESt6vectorIS5_SaIS5_EEEES5_17PositionListCmpLtEvT_T0_T1_$w$nS7kEYidFP58pqyH2
0001:00097561  __ZTS12NearPostList$w$nS7kEYidFP58pqyH2
0001:00097a20  __ZTI14SelectPostList$w$nS7kEYidFP58pqyH2
0001:00097550  __ZTS14PhrasePostList$w$nS7kEYidFP58pqyH2
0001:00097570* __ZNSt15basic_streambufIcSt11char_traitsIcEE13_S_pback_sizeE$w$nS7kEYidFP58pqyH2
0001:00097a00* __ZTIN6Xapian15PostingIterator8InternalE$w$nS7kEYidFP58pqyH2
0001:000975d0* __ZN6Xapian15PostingIterator8InternalD1Ev$w$nS7kEYidFP58pqyH2
0001:000975de* __ZN6Xapian15PostingIterator8InternalD0Ev$w$nS7kEYidFP58pqyH2
0001:00097626* __ZNK6Xapian15PostingIterator8Internal7get_wdfEv$w$nS7kEYidFP58pqyH2
0001:00097a64* __ZN6Xapian18UnimplementedErrorD1Ev$w$nS7kEYidFP58pqyH2
0001:00097ca0* __ZTIN6Xapian18UnimplementedErrorE$w$nS7kEYidFP58pqyH2
0001:00097b38  __ZSt9make_heapIN9__gnu_cxx17__normal_iteratorIPPN6Xapian16PositionIterator8InternalESt6vectorIS5_SaIS5_EEEE17PositionListCmpLtEvT_SC_T0_$w$nS7kEYidFP58pqyH2
0001:000978fe  __ZSt9sort_heapIN9__gnu_cxx17__normal_iteratorIPPN6Xapian16PositionIterator8InternalESt6vectorIS5_SaIS5_EEEE17PositionListCmpLtEvT_SC_T0_$w$nS7kEYidFP58pqyH2
0001:00097b96  __ZSt13__adjust_heapIN9__gnu_cxx17__normal_iteratorIPPN6Xapian16PositionIterator8InternalESt6vectorIS5_SaIS5_EEEEiS5_17PositionListCmpLtEvT_T0_SD_T1_T2_$w$nS7kEYidFP58pqyH2
0001:00097a40* __ZTSN6Xapian15PostingIterator8InternalE$w$nS7kEYidFP58pqyH2
0001:00097cac* __ZTIN6Xapian8Internal10RefCntBaseE$w$nS7kEYidFP58pqyH2
0001:00097a2c  __ZTS14SelectPostList$w$nS7kEYidFP58pqyH2
0001:00097c3c  __ZSt11__push_heapIN9__gnu_cxx17__normal_iteratorIPPN6Xapian16PositionIterator8InternalESt6vectorIS5_SaIS5_EEEEiS5_17PositionListCmpLtEvT_T0_SD_T1_T2_$w$nS7kEYidFP58pqyH2
0001:00097cd3* __ZTSN6Xapian18UnimplementedErrorE$w$nS7kEYidFP58pqyH2
0001:00097cf4* __ZTIN6Xapian10LogicErrorE$w$nS7kEYidFP58pqyH2
0001:00097cb4* __ZTSN6Xapian8Internal10RefCntBaseE$w$nS7kEYidFP58pqyH2
0001:00097d00* __ZTSN6Xapian10LogicErrorE$w$nS7kEYidFP58pqyH2
0001:00097d18* __ZTIN6Xapian5ErrorE$w$nS7kEYidFP58pqyH2
0001:00097d20* __ZTSN6Xapian5ErrorE$w$nS7kEYidFP58pqyH2
0002:00022880* __ZN16__Atomicity_lockILi0EE17_S_atomicity_lockE$w$nS7kEYidFP58pqyH2
Module: F:\rd\dse\xapian-core-1.0.2\.libs\xapian.a(backends\flint\flint_document.cc)
0001:00099342* __ZNK13FlintDocument12do_get_valueEj
0001:000993f6* __ZNK13FlintDocument17do_get_all_valuesEv
0001:000994b6* __ZNK13FlintDocument11do_get_dataEv
0001:00098c16* __ZN13FlintDocumentD1Ev
0001:00098fa8* __ZN13FlintDocumentD0Ev
0001:00098188* __ZN13FlintDocumentC2EN6Xapian8Internal9RefCntPtrIKNS0_8Database8InternalEEEPK15FlintValueTablePK16FlintRecordTablejb
0001:00098506  __ZN13FlintDocumentC1EN6Xapian8Internal9RefCntPtrIKNS0_8Database8InternalEEEPK15FlintValueTablePK16FlintRecordTablejb
0001:00098884* __ZN13FlintDocumentD2Ev
0001:00097d40  __ZTV13FlintDocument$w$pffA5EScFP5kOZCL3
0001:00099614  __ZTI13FlintDocument$w$pffA5EScFP5kOZCL3
0001:00097d60* __ZTV12LeafPostList$w$pffA5EScFP5kOZCL3
0001:00099608* __ZTI12LeafPostList$w$pffA5EScFP5kOZCL3
0001:00098026* __ZN12LeafPostListD1Ev$w$pffA5EScFP5kOZCL3
0001:00098064* __ZN12LeafPostListD0Ev$w$pffA5EScFP5kOZCL3
0001:000980be* __ZNK12LeafPostList16get_termfreq_minEv$w$pffA5EScFP5kOZCL3
0001:000980d4* __ZNK12LeafPostList16get_termfreq_estEv$w$pffA5EScFP5kOZCL3
0001:000980a8* __ZNK12LeafPostList16get_termfreq_maxEv$w$pffA5EScFP5kOZCL3
0001:00098158* __ZNK12LeafPostList13get_maxweightEv$w$pffA5EScFP5kOZCL3
0001:0009810e* __ZNK12LeafPostList10get_weightEv$w$pffA5EScFP5kOZCL3
0001:00097db8* __ZNK6Xapian15PostingIterator8Internal16get_collapse_keyEv$w$pffA5EScFP5kOZCL3
0001:00098170* __ZN12LeafPostList16recalc_maxweightEv$w$pffA5EScFP5kOZCL3
0001:00097df6* __ZNK6Xapian15PostingIterator8Internal7get_wdfEv$w$pffA5EScFP5kOZCL3
0001:000980ea* __ZN12LeafPostList14set_termweightEPKN6Xapian6WeightE$w$pffA5EScFP5kOZCL3
0001:000996d0* __ZN6Xapian18UnimplementedErrorD1Ev$w$pffA5EScFP5kOZCL3
0001:00099ce0* __ZTIN6Xapian18UnimplementedErrorE$w$pffA5EScFP5kOZCL3
0001:00099680* __ZTVN6Xapian15PostingIterator8InternalE$w$pffA5EScFP5kOZCL3
0001:00099648* __ZTVN6Xapian8Document8InternalE$w$pffA5EScFP5kOZCL3
0001:0009957a* __ZNSt8_Rb_treeISsSt4pairIKSs14OmDocumentTermESt10_Select1stIS3_ESt4lessISsESaIS3_EEC1ERKS7_RKS8_$w$pffA5EScFP5kOZCL3
0001:00099574* __ZNSaISt4pairIKSs14OmDocumentTermEED1Ev$w$pffA5EScFP5kOZCL3
0001:000997a4* __ZNSt6vectorIjSaIjEED1Ev$w$pffA5EScFP5kOZCL3
0001:00099824* __ZNSt8_Rb_treeIjSt4pairIKjSsESt10_Select1stIS2_ESt4lessIjESaIS2_EED1Ev$w$pffA5EScFP5kOZCL3
0001:000995c0  __ZNSt8_Rb_treeISsSt4pairIKSs14OmDocumentTermESt10_Select1stIS3_ESt4lessISsESaIS3_EE5clearEv$w$pffA5EScFP5kOZCL3
0001:000994ea* __ZNSt8_Rb_treeIjSt4pairIKjSsESt10_Select1stIS2_ESt4lessIjESaIS2_EE8_M_eraseEPSt13_Rb_tree_nodeIS2_E$w$pffA5EScFP5kOZCL3
0001:00099b4a* __ZNSt8_Rb_treeISsSt4pairIKSs14OmDocumentTermESt10_Select1stIS3_ESt4lessISsESaIS3_EE8_M_eraseEPSt13_Rb_tree_nodeIS3_E$w$pffA5EScFP5kOZCL3
0001:00099630* __ZTS12LeafPostList$w$pffA5EScFP5kOZCL3
0001:00099cc0* __ZTIN6Xapian15PostingIterator8InternalE$w$pffA5EScFP5kOZCL3
0001:00099620  __ZTS13FlintDocument$w$pffA5EScFP5kOZCL3
0001:00099d00* __ZTIN6Xapian8Document8InternalE$w$pffA5EScFP5kOZCL3
0001:00099640* __ZNSt15basic_streambufIcSt11char_traitsIcEE13_S_pback_sizeE$w$pffA5EScFP5kOZCL3
0001:000997ee* __ZNK6Xapian8Document8Internal12do_get_valueEj$w$pffA5EScFP5kOZCL3
0001:0009989e* __ZNK6Xapian8Document8Internal17do_get_all_valuesEv$w$pffA5EScFP5kOZCL3
0001:000998f0* __ZNK6Xapian8Document8Internal11do_get_dataEv$w$pffA5EScFP5kOZCL3
0001:00099926* __ZN6Xapian8Document8InternalD1Ev$w$pffA5EScFP5kOZCL3
0001:00099a34* __ZN6Xapian8Document8InternalD0Ev$w$pffA5EScFP5kOZCL3
0001:000997ce* __ZN6Xapian15PostingIterator8InternalD1Ev$w$pffA5EScFP5kOZCL3
0001:000997dc* __ZN6Xapian15PostingIterator8InternalD0Ev$w$pffA5EScFP5kOZCL3
0001:00099d60* __ZTSN6Xapian15PostingIterator8InternalE$w$pffA5EScFP5kOZCL3
0001:00099d84* __ZTIN6Xapian8Internal10RefCntBaseE$w$pffA5EScFP5kOZCL3
0001:00099d3c* __ZTSN6Xapian18UnimplementedErrorE$w$pffA5EScFP5kOZCL3
0001:00099d8c* __ZTIN6Xapian10LogicErrorE$w$pffA5EScFP5kOZCL3
0001:00099d20* __ZTSN6Xapian8Document8InternalE$w$pffA5EScFP5kOZCL3
0001:00099dae* __ZTSN6Xapian8Internal10RefCntBaseE$w$pffA5EScFP5kOZCL3
0001:00099d98* __ZTSN6Xapian10LogicErrorE$w$pffA5EScFP5kOZCL3
0001:00099dd0* __ZTIN6Xapian5ErrorE$w$pffA5EScFP5kOZCL3
0001:00099dd8* __ZTSN6Xapian5ErrorE$w$pffA5EScFP5kOZCL3
0002:00022890* __ZN16__Atomicity_lockILi0EE17_S_atomicity_lockE$w$pffA5EScFP5kOZCL3
Module: F:\rd\dse\xapian-core-1.0.2\.libs\xapian.a(matcher\orpostlist.cc)
0001:0009aac2* __ZNK10OrPostList16get_termfreq_minEv
0001:0009ab00* __ZNK10OrPostList16get_termfreq_estEv
0001:0009aa7a* __ZNK10OrPostList16get_termfreq_maxEv
0001:0009abde* __ZNK10OrPostList13get_maxweightEv
0001:0009ab72* __ZNK10OrPostList9get_docidEv
0001:0009ab92* __ZNK10OrPostList10get_weightEv
0001:0009b082* __ZNK10OrPostList13get_doclengthEv
0001:0009abec* __ZN10OrPostList16recalc_maxweightEv
0001:0009a320* __ZN10OrPostList4nextEd
0001:0009a70a* __ZN10OrPostList7skip_toEjd
0001:0009ac40* __ZNK10OrPostList6at_endEv
0001:0009ac50* __ZNK10OrPostList15get_descriptionEv
0001:0009a294* __ZN10OrPostListC2EPN6Xapian15PostingIterator8InternalES3_P10MultiMatchj
0001:0009a2da  __ZN10OrPostListC1EPN6Xapian15PostingIterator8InternalES3_P10MultiMatchj
0001:00099e00  __ZTV10OrPostList$w$HQD3uAidFP5E6gWn0
0001:0009b2f4  __ZTI10OrPostList$w$HQD3uAidFP5E6gWn0
0001:0009a250  __ZN10OrPostListD1Ev$w$HQD3uAidFP5E6gWn0
0001:0009a26c  __ZN10OrPostListD0Ev$w$HQD3uAidFP5E6gWn0
0001:0009a248* __ZNK6Xapian15PostingIterator8Internal16get_collapse_keyEv$w$HQD3uAidFP5E6gWn0
0001:00099e50* __ZTV13StatsGatherer$w$HQD3uAidFP5E6gWn0
0001:0009b2ec* __ZTI13StatsGatherer$w$HQD3uAidFP5E6gWn0
0001:00099e68* __ZN13StatsGathererD1Ev$w$HQD3uAidFP5E6gWn0
0001:0009a04e* __ZN13StatsGathererD0Ev$w$HQD3uAidFP5E6gWn0
0001:0009a23a* __ZN13StatsGatherer16set_global_statsEj$w$HQD3uAidFP5E6gWn0
0001:0009b0a8* __ZNSt8_Rb_treeISsSt4pairIKSsjESt10_Select1stIS2_ESt4lessISsESaIS2_EE8_M_eraseEPSt13_Rb_tree_nodeIS2_E$w$HQD3uAidFP5E6gWn0
0001:0009b132* __ZNSt8_Rb_treeIPN6Xapian6Weight8InternalES3_St9_IdentityIS3_ESt4lessIS3_ESaIS3_EE8_M_eraseEPSt13_Rb_tree_nodeIS3_E$w$HQD3uAidFP5E6gWn0
0001:0009b176* __ZStplIcSt11char_traitsIcESaIcEESbIT_T0_T1_EPKS3_RKS6_$w$HQD3uAidFP5E6gWn0
0001:0009b26c* __ZStplIcSt11char_traitsIcESaIcEESbIT_T0_T1_ERKS6_S8_$w$HQD3uAidFP5E6gWn0
0001:0009b30d* __ZTS13StatsGatherer$w$HQD3uAidFP5E6gWn0
0001:0009b300  __ZTS10OrPostList$w$HQD3uAidFP5E6gWn0
0001:0009b324  __ZTI14BranchPostList$w$HQD3uAidFP5E6gWn0
0001:0009b320* __ZNSt15basic_streambufIcSt11char_traitsIcEE13_S_pback_sizeE$w$HQD3uAidFP5E6gWn0
0001:0009b330  __ZTS14BranchPostList$w$HQD3uAidFP5E6gWn0
0001:0009b360* __ZTIN6Xapian15PostingIterator8InternalE$w$HQD3uAidFP5E6gWn0
0001:0009b380* __ZTSN6Xapian15PostingIterator8InternalE$w$HQD3uAidFP5E6gWn0
0001:0009b3a4* __ZTIN6Xapian8Internal10RefCntBaseE$w$HQD3uAidFP5E6gWn0
0001:0009b3ac* __ZTSN6Xapian8Internal10RefCntBaseE$w$HQD3uAidFP5E6gWn0
0002:000228a0* __ZN16__Atomicity_lockILi0EE17_S_atomicity_lockE$w$HQD3uAidFP5E6gWn0
Module: F:\rd\dse\xapian-core-1.0.2\.libs\xapian.a(queryparser\queryparser_internal.cc)
0001:0009b3e0* __ZNK4Term9make_termEv
0001:0009b836* __ZNK4Term22as_query_with_synonymsEv
0001:0009be56* __ZNK4Term27as_query_with_auto_synonymsEv
0001:0009bf5e* __ZNK4Term19as_wildcarded_queryEP5State
0001:0009c356* __ZNK4Term16as_partial_queryEP5State
0001:0009c8cc* __ZN6Xapian11QueryParser8Internal10parse_termERNS_12Utf8IteratorERKS2_Rb
0001:0009d576  __ZN6Xapian11QueryParser8Internal11parse_queryERKSsjS3_
0001:000a117e* __ZNK9TermGroup8as_groupEP5State
0001:000a2368  __ZNSt8_Rb_treeISsSt4pairIKSsSsESt10_Select1stIS2_ESt4lessISsESaIS2_EE12insert_equalERKS2_$w$9VGVB5ndFP55llnC4
0001:000a26ba  __ZNSt4pairIKSsSsED1Ev$w$9VGVB5ndFP55llnC4
0001:000a283c  __ZNSt4pairISsSsED1Ev$w$9VGVB5ndFP55llnC4
0001:000a274a  __ZN6Xapian12Utf8IteratorppEv$w$9VGVB5ndFP55llnC4
0001:000a27f0* __ZNSt4listISsSaISsEE6insertESt14_List_iteratorISsRSsPSsERKSs$w$9VGVB5ndFP55llnC4
0001:000a278c  __Z17is_not_whitespacej$w$9VGVB5ndFP55llnC4
0001:000a22e6* __ZNSt10_List_baseISsSaISsEE7__clearEv$w$9VGVB5ndFP55llnC4
0001:000a241e  __ZNSt4listISsSaISsEE5eraseESt14_List_iteratorISsRSsPSsE$w$9VGVB5ndFP55llnC4
0001:000a27be  __Z15is_not_wordcharj$w$9VGVB5ndFP55llnC4
0001:000a249e  __ZNSt8_Rb_treeISsSt4pairIKSs10PrefixInfoESt10_Select1stIS3_ESt4lessISsESaIS3_EE4findERS1_$w$9VGVB5ndFP55llnC4
0001:000a28cc  __ZNSt10_List_baseIP4TermSaIS1_EE7__clearEv$w$9VGVB5ndFP55llnC4
0001:000a25aa  __ZNSt8_Rb_treeI15filter_group_idSt4pairIKS0_N6Xapian5QueryEESt10_Select1stIS5_ESt4lessIS0_ESaIS5_EE8_M_eraseEPSt13_Rb_tree_nodeIS5_E$w$9VGVB5ndFP55llnC4
0001:000a2906  __ZNSt10_List_baseIN6Xapian5QueryESaIS1_EE7__clearEv$w$9VGVB5ndFP55llnC4
0001:000a7022  __ZNSt8_Rb_treeISsSt4pairIKSsSsESt10_Select1stIS2_ESt4lessISsESaIS2_EE9_M_insertEPSt18_Rb_tree_node_baseSA_RKS2_$w$9VGVB5ndFP55llnC4
0001:000a268c* __ZNSt15basic_streambufIcSt11char_traitsIcEE13_S_pback_sizeE$w$9VGVB5ndFP55llnC4
0001:000a8066* __ZNSt4listISsSaISsEE14_M_create_nodeERKSs$w$9VGVB5ndFP55llnC4
0001:000a7ec6* __ZNSt22_Rb_tree_base_iterator12_M_incrementEv$w$9VGVB5ndFP55llnC4
0001:000a80e6  __ZN5State11value_rangeERN6Xapian5QueryEP4TermS4_$w$9VGVB5ndFP55llnC4
0001:000a723a  __ZNSt8_Rb_treeI15filter_group_idSt4pairIKS0_N6Xapian5QueryEESt10_Select1stIS5_ESt4lessIS0_ESaIS5_EE11lower_boundERS2_$w$9VGVB5ndFP55llnC4
0001:000a7354  __ZNSt8_Rb_treeI15filter_group_idSt4pairIKS0_N6Xapian5QueryEESt10_Select1stIS5_ESt4lessIS0_ESaIS5_EE13insert_uniqueESt17_Rb_tree_iteratorIS5_RS5_PS5_ERKS5_$w$9VGVB5ndFP55llnC4
0001:000a8536  __ZNSt4pairIK15filter_group_idN6Xapian5QueryEED1Ev$w$9VGVB5ndFP55llnC4
0001:000a7182  __ZN6Xapian5QueryC1ISt14_List_iteratorIS0_RKS0_PS3_EEENS0_2opET_S8_j$w$9VGVB5ndFP55llnC4
0001:000a7136  __ZNSt4listIN6Xapian5QueryESaIS1_EE6insertESt14_List_iteratorIS1_RS1_PS1_ERKS1_$w$9VGVB5ndFP55llnC4
0001:000a85de  __ZNSt4listIP4TermSaIS1_EE6insertESt14_List_iteratorIS1_RS1_PS1_ERKS1_$w$9VGVB5ndFP55llnC4
0001:000a867c  __ZNSt8_Rb_treeISsSt4pairIKSsSsESt10_Select1stIS2_ESt4lessISsESaIS2_EE14_M_create_nodeERKS2_$w$9VGVB5ndFP55llnC4
0001:000a7f5e* __ZSt18_Rb_tree_rebalancePSt18_Rb_tree_node_baseRS0_$w$9VGVB5ndFP55llnC4
0001:000a8742  __ZNSt4listIN6Xapian5QueryESaIS1_EE14_M_create_nodeERKS1_$w$9VGVB5ndFP55llnC4
0001:000a7f0e* __ZNSt22_Rb_tree_base_iterator12_M_decrementEv$w$9VGVB5ndFP55llnC4
0001:000a87aa  __ZNSt8_Rb_treeI15filter_group_idSt4pairIKS0_N6Xapian5QueryEESt10_Select1stIS5_ESt4lessIS0_ESaIS5_EE9_M_insertEPSt18_Rb_tree_node_baseSD_RKS5_$w$9VGVB5ndFP55llnC4
0001:000a782a  __ZNSt8_Rb_treeI15filter_group_idSt4pairIKS0_N6Xapian5QueryEESt10_Select1stIS5_ESt4lessIS0_ESaIS5_EE13insert_uniqueERKS5_$w$9VGVB5ndFP55llnC4
0001:000a89d2* __ZSt20_Rb_tree_rotate_leftPSt18_Rb_tree_node_baseRS0_$w$9VGVB5ndFP55llnC4
0001:000a8a14* __ZSt21_Rb_tree_rotate_rightPSt18_Rb_tree_node_baseRS0_$w$9VGVB5ndFP55llnC4
0001:000a8a56  __ZNSt4listIP4TermSaIS1_EE14_M_create_nodeERKS1_$w$9VGVB5ndFP55llnC4
0001:000a8a7e  __ZNSt8_Rb_treeI15filter_group_idSt4pairIKS0_N6Xapian5QueryEESt10_Select1stIS5_ESt4lessIS0_ESaIS5_EE14_M_create_nodeERKS5_$w$9VGVB5ndFP55llnC4
0002:000228b0* __ZN16__Atomicity_lockILi0EE17_S_atomicity_lockE$w$9VGVB5ndFP55llnC4
Module: F:\rd\dse\xapian-core-1.0.2\.libs\xapian.a(matcher\weight.cc)
0001:000a8d38* __ZNK6Xapian10BoolWeight5cloneEv
0001:000a8dac* __ZN6Xapian10BoolWeightD1Ev
0001:000a8dc8* __ZN6Xapian10BoolWeightD0Ev
0001:000a8df6* __ZNK6Xapian10BoolWeight4nameEv
0001:000a8e2e* __ZNK6Xapian10BoolWeight9serialiseEv
0001:000a8e64* __ZNK6Xapian10BoolWeight11unserialiseERKSs
0001:000a8ebc* __ZNK6Xapian10BoolWeight11get_sumpartEjd
0001:000a8ec4* __ZNK6Xapian10BoolWeight11get_maxpartEv
0001:000a8ecc* __ZNK6Xapian10BoolWeight12get_sumextraEd
0001:000a8ed4* __ZNK6Xapian10BoolWeight12get_maxextraEv
0001:000a8edc* __ZNK6Xapian10BoolWeight27get_sumpart_needs_doclengthEv
0001:000a8c2c* __ZN6Xapian6WeightD1Ev
0001:000a8c84* __ZN6Xapian6WeightD0Ev
0001:000a8d2e* __ZNK6Xapian6Weight27get_sumpart_needs_doclengthEv
0001:000a8bd4  __ZN6Xapian6WeightD2Ev
0001:000a8ce6  __ZNK6Xapian6Weight6createEPKNS0_8InternalEdjRKSs
0001:000a8d90* __ZN6Xapian10BoolWeightD2Ev
0001:000a8b60  __ZTVN6Xapian10BoolWeightE$w$tjc0EWkdFP5zRiAO3
0001:000a8eec  __ZTIN6Xapian10BoolWeightE$w$tjc0EWkdFP5zRiAO3
0001:000a8ba0  __ZTVN6Xapian6WeightE$w$tjc0EWkdFP5zRiAO3
0001:000a8ee4* __ZTIN6Xapian6WeightE$w$tjc0EWkdFP5zRiAO3
0001:000a8f0e* __ZTSN6Xapian6WeightE$w$tjc0EWkdFP5zRiAO3
0001:000a8ef8  __ZTSN6Xapian10BoolWeightE$w$tjc0EWkdFP5zRiAO3
0001:000a8f20* __ZNSt15basic_streambufIcSt11char_traitsIcEE13_S_pback_sizeE$w$tjc0EWkdFP5zRiAO3
0002:000228c0* __ZN16__Atomicity_lockILi0EE17_S_atomicity_lockE$w$tjc0EWkdFP5zRiAO3
Module: F:\rd\dse\xapian-core-1.0.2\.libs\xapian.a(backends\flint\flint_modifiedpostlist.cc)
0001:000a94ba* __ZN21FlintModifiedPostListD1Ev
0001:000a95ac* __ZN21FlintModifiedPostListD0Ev
0001:000a9740* __ZNK21FlintModifiedPostList9get_docidEv
0001:000a977c* __ZNK21FlintModifiedPostList13get_doclengthEv
0001:000a97c0* __ZNK21FlintModifiedPostList7get_wdfEv
0001:000a9800* __ZN21FlintModifiedPostList18read_position_listEv
0001:000a987e* __ZNK21FlintModifiedPostList18open_position_listEv
0001:000a98d0* __ZN21FlintModifiedPostList4nextEd
0001:000a995c* __ZN21FlintModifiedPostList7skip_toEjd
0001:000a99c2* __ZNK21FlintModifiedPostList6at_endEv
0001:000a99f8* __ZNK21FlintModifiedPostList15get_descriptionEv
0001:000a9720* __ZNK21FlintModifiedPostList12get_termfreqEv
0001:000a93c8* __ZN21FlintModifiedPostListD2Ev
0001:000a96a4* __ZN21FlintModifiedPostList12skip_deletesEd
0001:000a8f40  __ZTV21FlintModifiedPostList$w$hnXzHqTcFP5YstYz3
0001:000a9b7c  __ZTI21FlintModifiedPostList$w$hnXzHqTcFP5YstYz3
0001:000a92fe* __ZNK12LeafPostList16get_termfreq_minEv$w$hnXzHqTcFP5YstYz3
0001:000a9314* __ZNK12LeafPostList16get_termfreq_estEv$w$hnXzHqTcFP5YstYz3
0001:000a92e8* __ZNK12LeafPostList16get_termfreq_maxEv$w$hnXzHqTcFP5YstYz3
0001:000a9398* __ZNK12LeafPostList13get_maxweightEv$w$hnXzHqTcFP5YstYz3
0001:000a934e* __ZNK12LeafPostList10get_weightEv$w$hnXzHqTcFP5YstYz3
0001:000a8ff8* __ZNK6Xapian15PostingIterator8Internal16get_collapse_keyEv$w$hnXzHqTcFP5YstYz3
0001:000a93b0* __ZN12LeafPostList16recalc_maxweightEv$w$hnXzHqTcFP5YstYz3
0001:000a932a* __ZN12LeafPostList14set_termweightEPKN6Xapian6WeightE$w$hnXzHqTcFP5YstYz3
0001:000a8fa0* __ZTV12LeafPostList$w$hnXzHqTcFP5YstYz3
0001:000a9b70* __ZTI12LeafPostList$w$hnXzHqTcFP5YstYz3
0001:000a9266* __ZN12LeafPostListD1Ev$w$hnXzHqTcFP5YstYz3
0001:000a92a4* __ZN12LeafPostListD0Ev$w$hnXzHqTcFP5YstYz3
0001:000a9036* __ZNK6Xapian15PostingIterator8Internal7get_wdfEv$w$hnXzHqTcFP5YstYz3
0001:000a9c58* __ZN6Xapian18UnimplementedErrorD1Ev$w$hnXzHqTcFP5YstYz3
0001:000a9d80* __ZTIN6Xapian18UnimplementedErrorE$w$hnXzHqTcFP5YstYz3
0001:000a9bc0* __ZTVN6Xapian15PostingIterator8InternalE$w$hnXzHqTcFP5YstYz3
0001:000a9b2c* __ZNSt8_Rb_treeIjSt4pairIKjS0_IcjEESt10_Select1stIS3_ESt4lessIjESaIS3_EE8_M_eraseEPSt13_Rb_tree_nodeIS3_E$w$hnXzHqTcFP5YstYz3
0001:000a9c10* __ZNSt22_Rb_tree_base_iterator12_M_incrementEv$w$hnXzHqTcFP5YstYz3
0001:000a9ba0* __ZTS12LeafPostList$w$hnXzHqTcFP5YstYz3
0001:000a9d60* __ZTIN6Xapian15PostingIterator8InternalE$w$hnXzHqTcFP5YstYz3
0001:000a9b88  __ZTS21FlintModifiedPostList$w$hnXzHqTcFP5YstYz3
0001:000a9d8c  __ZTI13FlintPostList$w$hnXzHqTcFP5YstYz3
0001:000a9bb0* __ZNSt15basic_streambufIcSt11char_traitsIcEE13_S_pback_sizeE$w$hnXzHqTcFP5YstYz3
0001:000a9d2c* __ZN6Xapian15PostingIterator8InternalD1Ev$w$hnXzHqTcFP5YstYz3
0001:000a9d3a* __ZN6Xapian15PostingIterator8InternalD0Ev$w$hnXzHqTcFP5YstYz3
0001:000a9de0* __ZTSN6Xapian15PostingIterator8InternalE$w$hnXzHqTcFP5YstYz3
0001:000a9e10* __ZTIN6Xapian8Internal10RefCntBaseE$w$hnXzHqTcFP5YstYz3
0001:000a9da8* __ZTSN6Xapian18UnimplementedErrorE$w$hnXzHqTcFP5YstYz3
0001:000a9e04* __ZTIN6Xapian10LogicErrorE$w$hnXzHqTcFP5YstYz3
0001:000a9d98  __ZTS13FlintPostList$w$hnXzHqTcFP5YstYz3
0001:000a9e37* __ZTSN6Xapian10LogicErrorE$w$hnXzHqTcFP5YstYz3
0001:000a9e50* __ZTIN6Xapian5ErrorE$w$hnXzHqTcFP5YstYz3
0001:000a9e18* __ZTSN6Xapian8Internal10RefCntBaseE$w$hnXzHqTcFP5YstYz3
0001:000a9e58* __ZTSN6Xapian5ErrorE$w$hnXzHqTcFP5YstYz3
0002:000228d0* __ZN16__Atomicity_lockILi0EE17_S_atomicity_lockE$w$hnXzHqTcFP5YstYz3
Module: F:\rd\dse\xapian-core-1.0.2\.libs\xapian.a(languages\spanish.cc)
0001:000aaeb6* __ZN6Xapian19InternalStemSpanishD1Ev
0001:000aaed2* __ZN6Xapian19InternalStemSpanishD0Ev
0001:000aad82* __ZN6Xapian19InternalStemSpanish4stemEv
0001:000aaf02* __ZNK6Xapian19InternalStemSpanish15get_descriptionEv
0001:000a9e98* __ZN6Xapian19InternalStemSpanish14r_mark_regionsEv
0001:000aa18c* __ZN6Xapian19InternalStemSpanish10r_postludeEv
0001:000aa2ca* __ZN6Xapian19InternalStemSpanish4r_RVEv
0001:000aa2de* __ZN6Xapian19InternalStemSpanish4r_R1Ev
0001:000aa2f2* __ZN6Xapian19InternalStemSpanish4r_R2Ev
0001:000aa306* __ZN6Xapian19InternalStemSpanish18r_attached_pronounEv
0001:000aa4e6* __ZN6Xapian19InternalStemSpanish17r_standard_suffixEv
0001:000aaa1c* __ZN6Xapian19InternalStemSpanish15r_y_verb_suffixEv
0001:000aaaf2* __ZN6Xapian19InternalStemSpanish13r_verb_suffixEv
0001:000aac0c* __ZN6Xapian19InternalStemSpanish17r_residual_suffixEv
0001:000aae2e* __ZN6Xapian19InternalStemSpanishC2Ev
0001:000aae64  __ZN6Xapian19InternalStemSpanishC1Ev
0001:000aae9a* __ZN6Xapian19InternalStemSpanishD2Ev
0001:000a9e80  __ZTVN6Xapian19InternalStemSpanishE$w$Btb6UoadFP5u8Bmf0
0001:000aaf0c  __ZTIN6Xapian19InternalStemSpanishE$w$Btb6UoadFP5u8Bmf0
0001:000abc3c  __ZTSN6Xapian19InternalStemSpanishE$w$Btb6UoadFP5u8Bmf0
0001:000abfc0* __ZTIN6Xapian4Stem8InternalE$w$Btb6UoadFP5u8Bmf0
0001:000abfe0* __ZTSN6Xapian4Stem8InternalE$w$Btb6UoadFP5u8Bmf0
0001:000abff8* __ZTIN6Xapian8Internal10RefCntBaseE$w$Btb6UoadFP5u8Bmf0
0001:000ac000* __ZTSN6Xapian8Internal10RefCntBaseE$w$Btb6UoadFP5u8Bmf0
0002:000228e0* __ZN16__Atomicity_lockILi0EE17_S_atomicity_lockE$w$Btb6UoadFP5u8Bmf0
Module: F:\rd\dse\xapian-core-1.0.2\.libs\xapian.a(languages\russian.cc)
0001:000ac928* __ZN6Xapian19InternalStemRussianD1Ev
0001:000ac944* __ZN6Xapian19InternalStemRussianD0Ev
0001:000ac748* __ZN6Xapian19InternalStemRussian4stemEv
0001:000ac974* __ZNK6Xapian19InternalStemRussian15get_descriptionEv
0001:000ac038* __ZN6Xapian19InternalStemRussian14r_mark_regionsEv
0001:000ac12a* __ZN6Xapian19InternalStemRussian4r_R2Ev
0001:000ac13e* __ZN6Xapian19InternalStemRussian19r_perfective_gerundEv
0001:000ac218* __ZN6Xapian19InternalStemRussian11r_adjectiveEv
0001:000ac296* __ZN6Xapian19InternalStemRussian12r_adjectivalEv
0001:000ac39a* __ZN6Xapian19InternalStemRussian11r_reflexiveEv
0001:000ac434* __ZN6Xapian19InternalStemRussian6r_verbEv
0001:000ac50e* __ZN6Xapian19InternalStemRussian6r_nounEv
0001:000ac58c* __ZN6Xapian19InternalStemRussian14r_derivationalEv
0001:000ac63e* __ZN6Xapian19InternalStemRussian9r_tidy_upEv
0001:000ac8ac* __ZN6Xapian19InternalStemRussianC2Ev
0001:000ac8dc  __ZN6Xapian19InternalStemRussianC1Ev
0001:000ac90c* __ZN6Xapian19InternalStemRussianD2Ev
0001:000ac020  __ZTVN6Xapian19InternalStemRussianE$w$BllrN9adFP5LhfPY1
0001:000ac980  __ZTIN6Xapian19InternalStemRussianE$w$BllrN9adFP5LhfPY1
0001:000ad218  __ZTSN6Xapian19InternalStemRussianE$w$BllrN9adFP5LhfPY1
0001:000ad4c0* __ZTIN6Xapian4Stem8InternalE$w$BllrN9adFP5LhfPY1
0001:000ad4e0* __ZTSN6Xapian4Stem8InternalE$w$BllrN9adFP5LhfPY1
0001:000ad4f8* __ZTIN6Xapian8Internal10RefCntBaseE$w$BllrN9adFP5LhfPY1
0001:000ad500* __ZTSN6Xapian8Internal10RefCntBaseE$w$BllrN9adFP5LhfPY1
0002:000228f0* __ZN16__Atomicity_lockILi0EE17_S_atomicity_lockE$w$BllrN9adFP5LhfPY1
Module: F:\rd\dse\xapian-core-1.0.2\.libs\xapian.a(api\expanddecider.cc)
0001:000ad776* __ZNK6Xapian24ExpandDeciderFilterTermsclERKSs
0001:000ad71e* __ZNK6Xapian16ExpandDeciderAndclERKSs
0001:000ad6fe* __ZN6Xapian13ExpandDeciderD1Ev
0001:000ad70c* __ZN6Xapian13ExpandDeciderD0Ev
0001:000ad6f0  __ZN6Xapian13ExpandDeciderD2Ev
0001:000ad520  __ZTVN6Xapian24ExpandDeciderFilterTermsE$w$TqZu0dHcFP574QYf3
0001:000ad848  __ZTIN6Xapian24ExpandDeciderFilterTermsE$w$TqZu0dHcFP574QYf3
0001:000ad5a8  __ZN6Xapian24ExpandDeciderFilterTermsD1Ev$w$TqZu0dHcFP574QYf3
0001:000ad648  __ZN6Xapian24ExpandDeciderFilterTermsD0Ev$w$TqZu0dHcFP574QYf3
0001:000ad538  __ZTVN6Xapian16ExpandDeciderAndE$w$TqZu0dHcFP574QYf3
0001:000ad83c  __ZTIN6Xapian16ExpandDeciderAndE$w$TqZu0dHcFP574QYf3
0001:000ad564  __ZN6Xapian16ExpandDeciderAndD1Ev$w$TqZu0dHcFP574QYf3
0001:000ad580  __ZN6Xapian16ExpandDeciderAndD0Ev$w$TqZu0dHcFP574QYf3
0001:000ad550  __ZTVN6Xapian13ExpandDeciderE$w$TqZu0dHcFP574QYf3
0001:000ad834  __ZTIN6Xapian13ExpandDeciderE$w$TqZu0dHcFP574QYf3
0001:000ad7a8* __ZNSt8_Rb_treeISsSsSt9_IdentityISsESt4lessISsESaISsEE8_M_eraseEPSt13_Rb_tree_nodeISsE$w$TqZu0dHcFP574QYf3
0001:000ad8ba* __ZNKSt8_Rb_treeISsSsSt9_IdentityISsESt4lessISsESaISsEE4findERKSs$w$TqZu0dHcFP574QYf3
0001:000ad8a0  __ZTSN6Xapian13ExpandDeciderE$w$TqZu0dHcFP574QYf3
0001:000ad884  __ZTSN6Xapian16ExpandDeciderAndE$w$TqZu0dHcFP574QYf3
0001:000ad860  __ZTSN6Xapian24ExpandDeciderFilterTermsE$w$TqZu0dHcFP574QYf3
0002:00022900* __ZN16__Atomicity_lockILi0EE17_S_atomicity_lockE$w$TqZu0dHcFP574QYf3
Module: F:\rd\dse\xapian-core-1.0.2\.libs\xapian.a(backends\multi\multi_termlist.cc)
0001:000adb48* __ZN13MultiTermListD1Ev
0001:000adb90* __ZN13MultiTermListD0Ev
0001:000adbe0* __ZNK13MultiTermList15get_approx_sizeEv
0001:000adbf8* __ZNK13MultiTermList16accumulate_statsERN6Xapian8Internal11ExpandStatsE
0001:000adc26* __ZNK13MultiTermList12get_termnameEv
0001:000adc52* __ZNK13MultiTermList7get_wdfEv
0001:000adc6a* __ZNK13MultiTermList12get_termfreqEv
0001:000adcb4* __ZN13MultiTermList4nextEv
0001:000adccc* __ZNK13MultiTermList6at_endEv
0001:000adce8* __ZNK13MultiTermList18positionlist_countEv
0001:000add00* __ZNK13MultiTermList18positionlist_beginEv
0001:000ad9fc* __ZN13MultiTermListC2EPN6Xapian12TermIterator8InternalERKNS0_8DatabaseEj
0001:000ada7e  __ZN13MultiTermListC1EPN6Xapian12TermIterator8InternalERKNS0_8DatabaseEj
0001:000adb00* __ZN13MultiTermListD2Ev
0001:000ad9c0  __ZTV13MultiTermList$w$xlqRrk4dFP5HNLaE0
0001:000add2c  __ZTI13MultiTermList$w$xlqRrk4dFP5HNLaE0
0001:000add38  __ZTS13MultiTermList$w$xlqRrk4dFP5HNLaE0
0001:000add60* __ZTIN6Xapian12TermIterator8InternalE$w$xlqRrk4dFP5HNLaE0
0001:000add48* __ZNSt15basic_streambufIcSt11char_traitsIcEE13_S_pback_sizeE$w$xlqRrk4dFP5HNLaE0
0001:000add80* __ZTSN6Xapian12TermIterator8InternalE$w$xlqRrk4dFP5HNLaE0
0001:000adda4* __ZTIN6Xapian8Internal10RefCntBaseE$w$xlqRrk4dFP5HNLaE0
0001:000addac* __ZTSN6Xapian8Internal10RefCntBaseE$w$xlqRrk4dFP5HNLaE0
0002:00022910* __ZN16__Atomicity_lockILi0EE17_S_atomicity_lockE$w$xlqRrk4dFP5HNLaE0
Module: F:\rd\dse\xapian-core-1.0.2\.libs\xapian.a(backends\flint\flint_synonym.cc)
0001:000af678* __ZN20FlintSynonymTermListD1Ev
0001:000af798* __ZN20FlintSynonymTermListD0Ev
0001:000af8c0* __ZNK20FlintSynonymTermList15get_approx_sizeEv
0001:000af8cc* __ZNK20FlintSynonymTermList12get_termnameEv
0001:000af942* __ZNK20FlintSynonymTermList12get_termfreqEv
0001:000afbae* __ZNK20FlintSynonymTermList19get_collection_freqEv
0001:000afdde* __ZN20FlintSynonymTermList4nextEv
0001:000afe4c* __ZN20FlintSynonymTermList7skip_toERKSs
0001:000afe8c* __ZNK20FlintSynonymTermList6at_endEv
0001:000ade1c  __ZN17FlintSynonymTable13merge_changesEv
0001:000ae0cc  __ZN17FlintSynonymTable11add_synonymERKSsS1_
0001:000ae626  __ZN17FlintSynonymTable14remove_synonymERKSsS1_
0001:000aebf2  __ZN17FlintSynonymTable14clear_synonymsERKSs
0001:000aecdc  __ZN17FlintSynonymTable13open_termlistERKSs
0001:000af558* __ZN20FlintSynonymTermListD2Ev
0001:000adde0  __ZTV20FlintSynonymTermList$w$5JTU8HWcFP5Yrzae3
0001:000b06f0  __ZTI20FlintSynonymTermList$w$5JTU8HWcFP5Yrzae3
0001:000b0904* __ZNSt22_Rb_tree_base_iterator12_M_incrementEv$w$5JTU8HWcFP5Yrzae3
0001:000aeb68* __ZNSt8_Rb_treeISsSsSt9_IdentityISsESt4lessISsESaISsEE8_M_eraseEPSt13_Rb_tree_nodeISsE$w$5JTU8HWcFP5Yrzae3
0001:000afe9c* __ZNSt8_Rb_treeISsSsSt9_IdentityISsESt4lessISsESaISsEE13insert_uniqueERKSs$w$5JTU8HWcFP5Yrzae3
0001:000b0830* __ZN6Xapian20DatabaseCorruptErrorD1Ev$w$5JTU8HWcFP5Yrzae3
0001:000b188c* __ZTIN6Xapian20DatabaseCorruptErrorE$w$5JTU8HWcFP5Yrzae3
0001:000b000c* __ZNSt8_Rb_treeISsSsSt9_IdentityISsESt4lessISsESaISsEE5eraseERKSs$w$5JTU8HWcFP5Yrzae3
0001:000b00c0  __ZNSt6vectorISsSaISsEE7reserveEj$w$5JTU8HWcFP5Yrzae3
0001:000b023e* __ZNSt6vectorISsSaISsEE13_M_insert_auxEN9__gnu_cxx17__normal_iteratorIPSsS1_EERKSs$w$5JTU8HWcFP5Yrzae3
0001:000b0720* __ZTV14VectorTermList$w$5JTU8HWcFP5Yrzae3
0001:000b0504* __ZSt24__uninitialized_copy_auxIN9__gnu_cxx17__normal_iteratorIPKSsSt6vectorISsSaISsEEEEPSsET0_T_SA_S9_12__false_type$w$5JTU8HWcFP5Yrzae3
0001:000b075c* __ZN6Xapian21InvalidOperationErrorD1Ev$w$5JTU8HWcFP5Yrzae3
0001:000b1880* __ZTIN6Xapian21InvalidOperationErrorE$w$5JTU8HWcFP5Yrzae3
0001:000b094c* __ZNSt22_Rb_tree_base_iterator12_M_decrementEv$w$5JTU8HWcFP5Yrzae3
0001:000b152c* __ZNSt8_Rb_treeISsSsSt9_IdentityISsESt4lessISsESaISsEE9_M_insertEPSt18_Rb_tree_node_baseS7_RKSs$w$5JTU8HWcFP5Yrzae3
0001:000b1640* __ZNSt8_Rb_treeISsSsSt9_IdentityISsESt4lessISsESaISsEE11lower_boundERKSs$w$5JTU8HWcFP5Yrzae3
0001:000b16d2* __ZNSt8_Rb_treeISsSsSt9_IdentityISsESt4lessISsESaISsEE11upper_boundERKSs$w$5JTU8HWcFP5Yrzae3
0001:000b1760* __ZNSt8_Rb_treeISsSsSt9_IdentityISsESt4lessISsESaISsEE5eraseESt17_Rb_tree_iteratorISsRSsPSsES9_$w$5JTU8HWcFP5Yrzae3
0001:000b01b6  __ZNSt6vectorISsSaISsEE20_M_allocate_and_copyIPSsEES3_jT_S4_$w$5JTU8HWcFP5Yrzae3
0001:000b05a8  __ZSt24__uninitialized_copy_auxIPSsS0_ET0_T_S2_S1_12__false_type$w$5JTU8HWcFP5Yrzae3
0001:000b064a* __ZSt24__uninitialized_copy_auxIN9__gnu_cxx17__normal_iteratorIPSsSt6vectorISsSaISsEEEES6_ET0_T_S8_S7_12__false_type$w$5JTU8HWcFP5Yrzae3
0001:000b06fc  __ZTS20FlintSynonymTermList$w$5JTU8HWcFP5Yrzae3
0001:000b1868* __ZTI12AllTermsList$w$5JTU8HWcFP5Yrzae3
0001:000b0714* __ZNSt15basic_streambufIcSt11char_traitsIcEE13_S_pback_sizeE$w$5JTU8HWcFP5Yrzae3
0001:000b1874* __ZTI14VectorTermList$w$5JTU8HWcFP5Yrzae3
0001:000b099c* __ZN14VectorTermListD1Ev$w$5JTU8HWcFP5Yrzae3
0001:000b0a50* __ZN14VectorTermListD0Ev$w$5JTU8HWcFP5Yrzae3
0001:000b0b10* __ZNK14VectorTermList15get_approx_sizeEv$w$5JTU8HWcFP5Yrzae3
0001:000b0b22* __ZNK14VectorTermList16accumulate_statsERN6Xapian8Internal11ExpandStatsE$w$5JTU8HWcFP5Yrzae3
0001:000b0b2e* __ZNK14VectorTermList12get_termnameEv$w$5JTU8HWcFP5Yrzae3
0001:000b0b5e* __ZNK14VectorTermList7get_wdfEv$w$5JTU8HWcFP5Yrzae3
0001:000b0b96* __ZNK14VectorTermList12get_termfreqEv$w$5JTU8HWcFP5Yrzae3
0001:000b0dc6* __ZN14VectorTermList4nextEv$w$5JTU8HWcFP5Yrzae3
0001:000b0e08* __ZN14VectorTermList7skip_toERKSs$w$5JTU8HWcFP5Yrzae3
0001:000b1038* __ZNK14VectorTermList6at_endEv$w$5JTU8HWcFP5Yrzae3
0001:000b12fc* __ZNK14VectorTermList18positionlist_countEv$w$5JTU8HWcFP5Yrzae3
0001:000b1096* __ZNK14VectorTermList18positionlist_beginEv$w$5JTU8HWcFP5Yrzae3
0001:000b1cf0* __ZNSt8_Rb_treeISsSsSt9_IdentityISsESt4lessISsESaISsEE14_M_create_nodeERKSs$w$5JTU8HWcFP5Yrzae3
0001:000b1902* __ZSt18_Rb_tree_rebalancePSt18_Rb_tree_node_baseRS0_$w$5JTU8HWcFP5Yrzae3
0001:000b1a0a* __ZSt28_Rb_tree_rebalance_for_erasePSt18_Rb_tree_node_baseRS0_S1_S1_$w$5JTU8HWcFP5Yrzae3
0001:000b18f2* __ZTS12AllTermsList$w$5JTU8HWcFP5Yrzae3
0001:000b1d60* __ZTIN6Xapian12TermIterator8InternalE$w$5JTU8HWcFP5Yrzae3
0001:000b18e1* __ZTS14VectorTermList$w$5JTU8HWcFP5Yrzae3
0001:000b18c0* __ZTSN6Xapian21InvalidOperationErrorE$w$5JTU8HWcFP5Yrzae3
0001:000b1d8c* __ZTIN6Xapian10LogicErrorE$w$5JTU8HWcFP5Yrzae3
0001:000b18a0* __ZTSN6Xapian20DatabaseCorruptErrorE$w$5JTU8HWcFP5Yrzae3
0001:000b1d80* __ZTIN6Xapian13DatabaseErrorE$w$5JTU8HWcFP5Yrzae3
0001:000b1e02* __ZSt20_Rb_tree_rotate_leftPSt18_Rb_tree_node_baseRS0_$w$5JTU8HWcFP5Yrzae3
0001:000b1e44* __ZSt21_Rb_tree_rotate_rightPSt18_Rb_tree_node_baseRS0_$w$5JTU8HWcFP5Yrzae3
0001:000b1de0* __ZTSN6Xapian12TermIterator8InternalE$w$5JTU8HWcFP5Yrzae3
0001:000b1e9c* __ZTIN6Xapian8Internal10RefCntBaseE$w$5JTU8HWcFP5Yrzae3
0001:000b1dae* __ZTSN6Xapian13DatabaseErrorE$w$5JTU8HWcFP5Yrzae3
0001:000b1e90* __ZTIN6Xapian12RuntimeErrorE$w$5JTU8HWcFP5Yrzae3
0001:000b1d98* __ZTSN6Xapian10LogicErrorE$w$5JTU8HWcFP5Yrzae3
0001:000b1e88* __ZTIN6Xapian5ErrorE$w$5JTU8HWcFP5Yrzae3
0001:000b1edb* __ZTSN6Xapian5ErrorE$w$5JTU8HWcFP5Yrzae3
0001:000b1ec3* __ZTSN6Xapian12RuntimeErrorE$w$5JTU8HWcFP5Yrzae3
0001:000b1ea4* __ZTSN6Xapian8Internal10RefCntBaseE$w$5JTU8HWcFP5Yrzae3
0002:00022920* __ZN16__Atomicity_lockILi0EE17_S_atomicity_lockE$w$5JTU8HWcFP5Yrzae3
Module: F:\rd\dse\xapian-core-1.0.2\.libs\xapian.a(api\errorhandler.cc)
0001:000b1f22* __ZN6Xapian12ErrorHandlerD1Ev
0001:000b1f30* __ZN6Xapian12ErrorHandlerD0Ev
0001:000b1f14* __ZN6Xapian12ErrorHandlerD2Ev
0001:000b1f42  __ZN6Xapian12ErrorHandlerclERNS_5ErrorE
0001:000b1f00  __ZTVN6Xapian12ErrorHandlerE$w$xH3qi0HcFP553ENC0
0001:000b2070  __ZTIN6Xapian12ErrorHandlerE$w$xH3qi0HcFP553ENC0
0001:000b2164* __ZTIN6Xapian5ErrorE$w$xH3qi0HcFP553ENC0
0001:000b2090  __ZN6Xapian5ErrorD1Ev$w$xH3qi0HcFP553ENC0
0001:000b2078  __ZTSN6Xapian12ErrorHandlerE$w$xH3qi0HcFP553ENC0
0001:000b216c* __ZTSN6Xapian5ErrorE$w$xH3qi0HcFP553ENC0
0002:00022930* __ZN16__Atomicity_lockILi0EE17_S_atomicity_lockE$w$xH3qi0HcFP553ENC0
Module: F:\rd\dse\xapian-core-1.0.2\.libs\xapian.a(backends\flint\flint_table.cc)
0001:000b21a8* __ZNK10FlintTable10read_blockEmPh
0001:000b246a* __ZNK10FlintTable11write_blockEmPKh
0001:000b2b7c* __ZNK10FlintTable15set_overwrittenEv
0001:000b2fcc* __ZNK10FlintTable15block_to_cursorEP7Cursor_im
0001:000b30f4* __ZN10FlintTable5alterEv
0001:000b3204* __ZN10FlintTable13find_in_blockEPKh4Key_bi
0001:000ba14e* __ZNK4Key_ltES_
0001:000b3314  __ZNK10FlintTable4findEP7Cursor_
0001:000ba1d8* __ZNK4Key_eqES_
0001:000b343e* __ZN10FlintTable7compactEPh
0001:000b3540* __ZN10FlintTable10split_rootEm
0001:000b3c5e* __ZN10FlintTable8add_itemE8Item_wr_i
0001:000b3872* __ZN10FlintTable9enter_keyEi4Key_S0_
0001:000b3ac4* __ZN10FlintTable9mid_pointEPh
0001:000b3b56* __ZN10FlintTable17add_item_to_blockEPh8Item_wr_i
0001:000b3ed8* __ZN10FlintTable11delete_itemEib
0001:000b4132* __ZN10FlintTable6add_ktEb
0001:000b42e0* __ZN10FlintTable9delete_ktEv
0001:000b4372  __ZNK10FlintTable8form_keyERKSs
0001:000b447e  __ZN10FlintTable3addERKSsSsb
0001:000b8300  __ZN10FlintTable15create_and_openEj
0001:000b5324  __ZN10FlintTable3delERKSs
0001:000b53be  __ZNK10FlintTable15get_exact_entryERKSsRSs
0001:000b543a* __ZNK10FlintTable8find_tagERKSsPSs
0001:000b53f4  __ZNK10FlintTable10key_existsERKSs
0001:000b5504  __ZNK10FlintTable8read_tagEP7Cursor_PSsb
0001:000b6140* __ZN10FlintTable19set_full_compactionEb
0001:000b615a  __ZNK10FlintTable10cursor_getEv
0001:000b61dc* __ZN10FlintTable10basic_openEbj
0001:000b6848* __ZN10FlintTable9read_rootEv
0001:000b69d0* __ZN10FlintTable16do_open_to_writeEbjb
0001:000b9f68* __ZNK10FlintTable12prev_defaultEP7Cursor_i
0001:000ba056* __ZNK10FlintTable12next_defaultEP7Cursor_i
0001:000b7122  __ZN10FlintTableC2ESsbib
0001:000b723c* __ZN10FlintTableC1ESsbib
0001:000b7362  __ZNK10FlintTable6existsEv
0001:000b770a  __ZN10FlintTable5eraseEv
0001:000b8a20* __ZN10FlintTable5closeEv
0001:000b82d8  __ZN10FlintTable14set_block_sizeEj
0001:000b88a8  __ZN10FlintTableD2Ev
0001:000b8964* __ZN10FlintTableD1Ev
0001:000b8b18  __ZN10FlintTable6commitEj
0001:000b9290  __ZN10FlintTable6cancelEv
0001:000b967a* __ZN10FlintTable15do_open_to_readEbj
0001:000b9dd4* __ZNK10FlintTable19prev_for_sequentialEP7Cursor_i
0001:000b9e9a* __ZNK10FlintTable19next_for_sequentialEP7Cursor_i
0001:000b9d04  __ZN10FlintTable4openEv
0001:000b9d60  __ZN10FlintTable4openEj
0001:000ba4bc* __ZN6Xapian13DatabaseErrorD1Ev$w$JlvPuhXcFP5BoWMn2
0001:000ba824* __ZTIN6Xapian13DatabaseErrorE$w$JlvPuhXcFP5BoWMn2
0001:000ba324* __ZN6Xapian5ErrorC2ERKSsS2_PKci$w$JlvPuhXcFP5BoWMn2
0001:000ba590* __ZN6Xapian20DatabaseCorruptErrorD1Ev$w$JlvPuhXcFP5BoWMn2
0001:000ba818* __ZTIN6Xapian20DatabaseCorruptErrorE$w$JlvPuhXcFP5BoWMn2
0001:000ba664* __ZN6Xapian21DatabaseModifiedErrorD1Ev$w$JlvPuhXcFP5BoWMn2
0001:000ba830* __ZTIN6Xapian21DatabaseModifiedErrorE$w$JlvPuhXcFP5BoWMn2
0001:000ba22a* __ZStplIcSt11char_traitsIcESaIcEESbIT_T0_T1_EPKS3_RKS6_$w$JlvPuhXcFP5BoWMn2
0001:000ba3e8* __ZN6Xapian20InvalidArgumentErrorD1Ev$w$JlvPuhXcFP5BoWMn2
0001:000ba83c* __ZTIN6Xapian20InvalidArgumentErrorE$w$JlvPuhXcFP5BoWMn2
0001:000ba80c  __ZTISt9bad_alloc$w$JlvPuhXcFP5BoWMn2
0001:000ba738* __ZN6Xapian20DatabaseOpeningErrorD1Ev$w$JlvPuhXcFP5BoWMn2
0001:000ba848* __ZTIN6Xapian20DatabaseOpeningErrorE$w$JlvPuhXcFP5BoWMn2
0001:000ba900  __ZTSSt9bad_alloc$w$JlvPuhXcFP5BoWMn2
0001:000ba910  __ZTISt9exception$w$JlvPuhXcFP5BoWMn2
0001:000ba8e0* __ZTSN6Xapian20DatabaseCorruptErrorE$w$JlvPuhXcFP5BoWMn2
0001:000ba8c1* __ZTSN6Xapian13DatabaseErrorE$w$JlvPuhXcFP5BoWMn2
0001:000ba924* __ZTIN6Xapian12RuntimeErrorE$w$JlvPuhXcFP5BoWMn2
0001:000ba8a0* __ZTSN6Xapian21DatabaseModifiedErrorE$w$JlvPuhXcFP5BoWMn2
0001:000ba880* __ZTSN6Xapian20InvalidArgumentErrorE$w$JlvPuhXcFP5BoWMn2
0001:000ba918* __ZTIN6Xapian10LogicErrorE$w$JlvPuhXcFP5BoWMn2
0001:000ba860* __ZTSN6Xapian20DatabaseOpeningErrorE$w$JlvPuhXcFP5BoWMn2
0001:000ba95e  __ZTSSt9exception$w$JlvPuhXcFP5BoWMn2
0001:000ba948* __ZTSN6Xapian10LogicErrorE$w$JlvPuhXcFP5BoWMn2
0001:000ba96c* __ZTIN6Xapian5ErrorE$w$JlvPuhXcFP5BoWMn2
0001:000ba930* __ZTSN6Xapian12RuntimeErrorE$w$JlvPuhXcFP5BoWMn2
0001:000ba974* __ZTSN6Xapian5ErrorE$w$JlvPuhXcFP5BoWMn2
0002:00022940* __ZN16__Atomicity_lockILi0EE17_S_atomicity_lockE$w$JlvPuhXcFP5BoWMn2
Module: F:\rd\dse\xapian-core-1.0.2\.libs\xapian.a(languages\kraaij_pohlmann.cc)
0001:000bcae6* __ZN6Xapian27InternalStemKraaij_pohlmannD1Ev
0001:000bcb1a* __ZN6Xapian27InternalStemKraaij_pohlmannD0Ev
0001:000bc694* __ZN6Xapian27InternalStemKraaij_pohlmann4stemEv
0001:000bcb64* __ZNK6Xapian27InternalStemKraaij_pohlmann15get_descriptionEv
0001:000ba9b8* __ZN6Xapian27InternalStemKraaij_pohlmann4r_R1Ev
0001:000ba9d0* __ZN6Xapian27InternalStemKraaij_pohlmann4r_R2Ev
0001:000ba9e8* __ZN6Xapian27InternalStemKraaij_pohlmann3r_VEv
0001:000baa6a* __ZN6Xapian27InternalStemKraaij_pohlmann4r_VXEv
0001:000bab2a* __ZN6Xapian27InternalStemKraaij_pohlmann3r_CEv
0001:000babae* __ZN6Xapian27InternalStemKraaij_pohlmann12r_lengthen_VEv
0001:000bae32* __ZN6Xapian27InternalStemKraaij_pohlmann8r_Step_1Ev
0001:000bb2da* __ZN6Xapian27InternalStemKraaij_pohlmann8r_Step_2Ev
0001:000bb7f0* __ZN6Xapian27InternalStemKraaij_pohlmann8r_Step_3Ev
0001:000bbb26* __ZN6Xapian27InternalStemKraaij_pohlmann8r_Step_4Ev
0001:000bbe88* __ZN6Xapian27InternalStemKraaij_pohlmann8r_Step_7Ev
0001:000bbf42* __ZN6Xapian27InternalStemKraaij_pohlmann8r_Step_6Ev
0001:000bc14e* __ZN6Xapian27InternalStemKraaij_pohlmann9r_Step_1cEv
0001:000bc276* __ZN6Xapian27InternalStemKraaij_pohlmann13r_Lose_prefixEv
0001:000bc37e* __ZN6Xapian27InternalStemKraaij_pohlmann12r_Lose_infixEv
0001:000bc4de* __ZN6Xapian27InternalStemKraaij_pohlmann9r_measureEv
0001:000bc9de* __ZN6Xapian27InternalStemKraaij_pohlmannC2Ev
0001:000bca48  __ZN6Xapian27InternalStemKraaij_pohlmannC1Ev
0001:000bcab2* __ZN6Xapian27InternalStemKraaij_pohlmannD2Ev
0001:000ba9a0  __ZTVN6Xapian27InternalStemKraaij_pohlmannE$w$nQa8NQ8dFP5WytcB3
0001:000bcb70  __ZTIN6Xapian27InternalStemKraaij_pohlmannE$w$nQa8NQ8dFP5WytcB3
0001:000bd140  __ZTSN6Xapian27InternalStemKraaij_pohlmannE$w$nQa8NQ8dFP5WytcB3
0001:000bd260* __ZTIN6Xapian4Stem8InternalE$w$nQa8NQ8dFP5WytcB3
0001:000bd280* __ZTSN6Xapian4Stem8InternalE$w$nQa8NQ8dFP5WytcB3
0001:000bd298* __ZTIN6Xapian8Internal10RefCntBaseE$w$nQa8NQ8dFP5WytcB3
0001:000bd2a0* __ZTSN6Xapian8Internal10RefCntBaseE$w$nQa8NQ8dFP5WytcB3
0002:00022950* __ZN16__Atomicity_lockILi0EE17_S_atomicity_lockE$w$nQa8NQ8dFP5WytcB3
Module: F:\rd\dse\xapian-core-1.0.2\.libs\xapian.a(backends\flint\flint_alldocspostlist.cc)
0001:000be010* __ZN20FlintAllDocsPostListD1Ev
0001:000be0de* __ZN20FlintAllDocsPostListD0Ev
0001:000be236* __ZN20FlintAllDocsPostList4nextEd
0001:000be784* __ZN20FlintAllDocsPostList7skip_toEjd
0001:000bedc8* __ZNK20FlintAllDocsPostList15get_descriptionEv
0001:000bdc3e* __ZN20FlintAllDocsPostListC2EN6Xapian8Internal9RefCntPtrIKNS0_8Database8InternalEEEPK10FlintTablej
0001:000bddc0  __ZN20FlintAllDocsPostListC1EN6Xapian8Internal9RefCntPtrIKNS0_8Database8InternalEEEPK10FlintTablej
0001:000bdf42* __ZN20FlintAllDocsPostListD2Ev
0001:000bd2c0  __ZTV20FlintAllDocsPostList$w$bofo3RPcFP5BymuG0
0001:000beff4  __ZTI20FlintAllDocsPostList$w$bofo3RPcFP5BymuG0
0001:000bd67e* __ZNK12LeafPostList16get_termfreq_minEv$w$bofo3RPcFP5BymuG0
0001:000bd694* __ZNK12LeafPostList16get_termfreq_estEv$w$bofo3RPcFP5BymuG0
0001:000bd668* __ZNK12LeafPostList16get_termfreq_maxEv$w$bofo3RPcFP5BymuG0
0001:000bd718* __ZNK12LeafPostList13get_maxweightEv$w$bofo3RPcFP5BymuG0
0001:000bd754  __ZNK20FlintAllDocsPostList9get_docidEv$w$bofo3RPcFP5BymuG0
0001:000bd6ce* __ZNK12LeafPostList10get_weightEv$w$bofo3RPcFP5BymuG0
0001:000bd378* __ZNK6Xapian15PostingIterator8Internal16get_collapse_keyEv$w$bofo3RPcFP5BymuG0
0001:000bd760  __ZNK20FlintAllDocsPostList13get_doclengthEv$w$bofo3RPcFP5BymuG0
0001:000bd730* __ZN12LeafPostList16recalc_maxweightEv$w$bofo3RPcFP5BymuG0
0001:000bd780  __ZNK20FlintAllDocsPostList7get_wdfEv$w$bofo3RPcFP5BymuG0
0001:000bd7d2  __ZN20FlintAllDocsPostList18read_position_listEv$w$bofo3RPcFP5BymuG0
0001:000bda02  __ZNK20FlintAllDocsPostList18open_position_listEv$w$bofo3RPcFP5BymuG0
0001:000bdc32  __ZNK20FlintAllDocsPostList6at_endEv$w$bofo3RPcFP5BymuG0
0001:000bd748  __ZNK20FlintAllDocsPostList12get_termfreqEv$w$bofo3RPcFP5BymuG0
0001:000bd6aa* __ZN12LeafPostList14set_termweightEPKN6Xapian6WeightE$w$bofo3RPcFP5BymuG0
0001:000bd320* __ZTV12LeafPostList$w$bofo3RPcFP5BymuG0
0001:000befe8* __ZTI12LeafPostList$w$bofo3RPcFP5BymuG0
0001:000bd5e6* __ZN12LeafPostListD1Ev$w$bofo3RPcFP5BymuG0
0001:000bd624* __ZN12LeafPostListD0Ev$w$bofo3RPcFP5BymuG0
0001:000bd3b6* __ZNK6Xapian15PostingIterator8Internal7get_wdfEv$w$bofo3RPcFP5BymuG0
0001:000bf164* __ZN6Xapian18UnimplementedErrorD1Ev$w$bofo3RPcFP5BymuG0
0001:000bf520* __ZTIN6Xapian18UnimplementedErrorE$w$bofo3RPcFP5BymuG0
0001:000bf040* __ZTVN6Xapian15PostingIterator8InternalE$w$bofo3RPcFP5BymuG0
0001:000bf090* __ZN6Xapian21InvalidOperationErrorD1Ev$w$bofo3RPcFP5BymuG0
0001:000bf52c* __ZTIN6Xapian21InvalidOperationErrorE$w$bofo3RPcFP5BymuG0
0001:000bee9a* __Z27unpack_uint_preserving_sortIjEbPPKcS1_PT_$w$bofo3RPcFP5BymuG0
0001:000bf238* __ZN6Xapian20DatabaseCorruptErrorD1Ev$w$bofo3RPcFP5BymuG0
0001:000bf538* __ZTIN6Xapian20DatabaseCorruptErrorE$w$bofo3RPcFP5BymuG0
0001:000bf30c* __ZN6Xapian10RangeErrorD1Ev$w$bofo3RPcFP5BymuG0
0001:000bf544* __ZTIN6Xapian10RangeErrorE$w$bofo3RPcFP5BymuG0
0001:000bf400* __Z25pack_uint_preserving_sortIjESsT_$w$bofo3RPcFP5BymuG0
0001:000beef2* __ZStplIcSt11char_traitsIcESaIcEESbIT_T0_T1_EPKS3_RKS6_$w$bofo3RPcFP5BymuG0
0001:000bf017* __ZTS12LeafPostList$w$bofo3RPcFP5BymuG0
0001:000bf500* __ZTIN6Xapian15PostingIterator8InternalE$w$bofo3RPcFP5BymuG0
0001:000bf000  __ZTS20FlintAllDocsPostList$w$bofo3RPcFP5BymuG0
0001:000bf028* __ZNSt15basic_streambufIcSt11char_traitsIcEE13_S_pback_sizeE$w$bofo3RPcFP5BymuG0
0001:000bf3e0* __ZN6Xapian15PostingIterator8InternalD1Ev$w$bofo3RPcFP5BymuG0
0001:000bf3ee* __ZN6Xapian15PostingIterator8InternalD0Ev$w$bofo3RPcFP5BymuG0
0001:000bf5e0* __ZTSN6Xapian15PostingIterator8InternalE$w$bofo3RPcFP5BymuG0
0001:000bf628* __ZTIN6Xapian8Internal10RefCntBaseE$w$bofo3RPcFP5BymuG0
0001:000bf5c1* __ZTSN6Xapian18UnimplementedErrorE$w$bofo3RPcFP5BymuG0
0001:000bf61c* __ZTIN6Xapian10LogicErrorE$w$bofo3RPcFP5BymuG0
0001:000bf5a0* __ZTSN6Xapian21InvalidOperationErrorE$w$bofo3RPcFP5BymuG0
0001:000bf580* __ZTSN6Xapian20DatabaseCorruptErrorE$w$bofo3RPcFP5BymuG0
0001:000bf610* __ZTIN6Xapian13DatabaseErrorE$w$bofo3RPcFP5BymuG0
0001:000bf550* __ZTSN6Xapian10RangeErrorE$w$bofo3RPcFP5BymuG0
0001:000bf604* __ZTIN6Xapian12RuntimeErrorE$w$bofo3RPcFP5BymuG0
0001:000bf67e* __ZTSN6Xapian12RuntimeErrorE$w$bofo3RPcFP5BymuG0
0001:000bf698* __ZTIN6Xapian5ErrorE$w$bofo3RPcFP5BymuG0
0001:000bf665* __ZTSN6Xapian13DatabaseErrorE$w$bofo3RPcFP5BymuG0
0001:000bf64f* __ZTSN6Xapian10LogicErrorE$w$bofo3RPcFP5BymuG0
0001:000bf630* __ZTSN6Xapian8Internal10RefCntBaseE$w$bofo3RPcFP5BymuG0
0001:000bf6a0* __ZTSN6Xapian5ErrorE$w$bofo3RPcFP5BymuG0
0002:00022960* __ZN16__Atomicity_lockILi0EE17_S_atomicity_lockE$w$bofo3RPcFP5BymuG0
Module: F:\rd\dse\xapian-core-1.0.2\.libs\xapian.a(expand\ortermlist.cc)
0001:000c0348* __ZN19FreqAdderOrTermListD1Ev
0001:000c0364* __ZN19FreqAdderOrTermListD0Ev
0001:000bfb70* __ZNK10OrTermList15get_approx_sizeEv
0001:000bfba6* __ZNK10OrTermList16accumulate_statsERN6Xapian8Internal11ExpandStatsE
0001:000bfcbe* __ZNK10OrTermList12get_termnameEv
0001:000bfd46* __ZNK10OrTermList7get_wdfEv
0001:000c038c* __ZNK19FreqAdderOrTermList12get_termfreqEv
0001:000bfeca* __ZN10OrTermList4nextEv
0001:000c02f4* __ZNK10OrTermList6at_endEv
0001:000c02fc* __ZNK10OrTermList18positionlist_countEv
0001:000c0304* __ZNK10OrTermList18positionlist_beginEv
0001:000bf8a4* __ZN10OrTermListD1Ev
0001:000bfa06* __ZN10OrTermListD0Ev
0001:000bfe4a* __ZNK10OrTermList12get_termfreqEv
0001:000bf73c* __ZNK10OrTermList13check_startedEv
0001:000bf742* __ZN10OrTermListD2Ev
0001:000c032c* __ZN19FreqAdderOrTermListD2Ev
0001:000bf6c0  __ZTV19FreqAdderOrTermList$w$7m9Vxx6dFP5Ubs9O1
0001:000c049c  __ZTI19FreqAdderOrTermList$w$7m9Vxx6dFP5Ubs9O1
0001:000bf700  __ZTV10OrTermList$w$7m9Vxx6dFP5Ubs9O1
0001:000c0490  __ZTI10OrTermList$w$7m9Vxx6dFP5Ubs9O1
0001:000c04be  __ZTS10OrTermList$w$7m9Vxx6dFP5Ubs9O1
0001:000c04e0* __ZTIN6Xapian12TermIterator8InternalE$w$7m9Vxx6dFP5Ubs9O1
0001:000c04a8  __ZTS19FreqAdderOrTermList$w$7m9Vxx6dFP5Ubs9O1
0001:000c04cc* __ZNSt15basic_streambufIcSt11char_traitsIcEE13_S_pback_sizeE$w$7m9Vxx6dFP5Ubs9O1
0001:000c0500* __ZTSN6Xapian12TermIterator8InternalE$w$7m9Vxx6dFP5Ubs9O1
0001:000c0524* __ZTIN6Xapian8Internal10RefCntBaseE$w$7m9Vxx6dFP5Ubs9O1
0001:000c052c* __ZTSN6Xapian8Internal10RefCntBaseE$w$7m9Vxx6dFP5Ubs9O1
0002:00022970* __ZN16__Atomicity_lockILi0EE17_S_atomicity_lockE$w$7m9Vxx6dFP5Ubs9O1
Module: F:\rd\dse\xapian-core-1.0.2\.libs\xapian.a(languages\romanian.cc)
0001:000c11e0* __ZN6Xapian20InternalStemRomanianD1Ev
0001:000c11fc* __ZN6Xapian20InternalStemRomanianD0Ev
0001:000c1094* __ZN6Xapian20InternalStemRomanian4stemEv
0001:000c122e* __ZNK6Xapian20InternalStemRomanian15get_descriptionEv
0001:000c0578* __ZN6Xapian20InternalStemRomanian9r_preludeEv
0001:000c06e0* __ZN6Xapian20InternalStemRomanian14r_mark_regionsEv
0001:000c09d4* __ZN6Xapian20InternalStemRomanian10r_postludeEv
0001:000c0ac8* __ZN6Xapian20InternalStemRomanian4r_RVEv
0001:000c0adc* __ZN6Xapian20InternalStemRomanian4r_R1Ev
0001:000c0af0* __ZN6Xapian20InternalStemRomanian4r_R2Ev
0001:000c0b04* __ZN6Xapian20InternalStemRomanian8r_step_0Ev
0001:000c0ca4* __ZN6Xapian20InternalStemRomanian14r_combo_suffixEv
0001:000c0dae* __ZN6Xapian20InternalStemRomanian17r_standard_suffixEv
0001:000c0ed4* __ZN6Xapian20InternalStemRomanian13r_verb_suffixEv
0001:000c1002* __ZN6Xapian20InternalStemRomanian14r_vowel_suffixEv
0001:000c1150* __ZN6Xapian20InternalStemRomanianC2Ev
0001:000c118a  __ZN6Xapian20InternalStemRomanianC1Ev
0001:000c11c4* __ZN6Xapian20InternalStemRomanianD2Ev
0001:000c0560  __ZTVN6Xapian20InternalStemRomanianE$w$9zbFKX9dFP5FwsFn0
0001:000c1238  __ZTIN6Xapian20InternalStemRomanianE$w$9zbFKX9dFP5FwsFn0
0001:000c20e0  __ZTSN6Xapian20InternalStemRomanianE$w$9zbFKX9dFP5FwsFn0
0001:000c2520* __ZTIN6Xapian4Stem8InternalE$w$9zbFKX9dFP5FwsFn0
0001:000c2540* __ZTSN6Xapian4Stem8InternalE$w$9zbFKX9dFP5FwsFn0
0001:000c2558* __ZTIN6Xapian8Internal10RefCntBaseE$w$9zbFKX9dFP5FwsFn0
0001:000c2560* __ZTSN6Xapian8Internal10RefCntBaseE$w$9zbFKX9dFP5FwsFn0
0002:00022980* __ZN16__Atomicity_lockILi0EE17_S_atomicity_lockE$w$9zbFKX9dFP5FwsFn0
Module: F:\rd\dse\xapian-core-1.0.2\.libs\xapian.a(api\ompositionlistiterator.cc)
0001:000c2580* __ZN6Xapian16PositionIteratorC2EPNS0_8InternalE
0001:000c2602  __ZN6Xapian16PositionIteratorC1EPNS0_8InternalE
0001:000c2684* __ZN6Xapian16PositionIteratorC2Ev
0001:000c2692* __ZN6Xapian16PositionIteratorC1Ev
0001:000c26a0* __ZN6Xapian16PositionIteratorC2ERKS0_
0001:000c26b8  __ZN6Xapian16PositionIteratorC1ERKS0_
0001:000c26d0* __ZN6Xapian16PositionIteratorD2Ev
0001:000c2700  __ZN6Xapian16PositionIteratorD1Ev
0001:000c276c* __ZN6Xapian16PositionIteratoraSERKS0_
0001:000c277a  __ZNK6Xapian16PositionIteratordeEv
0001:000c2792  __ZN6Xapian16PositionIteratorppEv
0001:000c27d2* __ZN6Xapian16PositionIterator7skip_toEj
0001:000c2834* __ZNK6Xapian16PositionIterator15get_descriptionEv
0001:000c2730  __ZN6Xapian8Internal9RefCntPtrINS_16PositionIterator8InternalEEaSEPS3_$w$X0raXLKcFP52AzWX2
0001:000c286c* __ZNSt15basic_streambufIcSt11char_traitsIcEE13_S_pback_sizeE$w$X0raXLKcFP52AzWX2
0002:00022990* __ZN16__Atomicity_lockILi0EE17_S_atomicity_lockE$w$X0raXLKcFP52AzWX2
Module: F:\rd\dse\xapian-core-1.0.2\.libs\xapian.a(backends\inmemory\inmemory_document.cc)
0001:000c3856* __ZNK16InMemoryDocument12do_get_valueEj
0001:000c3990* __ZNK16InMemoryDocument17do_get_all_valuesEv
0001:000c39ba* __ZNK16InMemoryDocument11do_get_dataEv
0001:000c3140* __ZN16InMemoryDocumentC2EPKN6Xapian8Database8InternalEjRKSsRKSt3mapIjSsSt4lessIjESaISt4pairIKjSsEEE
0001:000c34ca  __ZN16InMemoryDocumentC1EPKN6Xapian8Database8InternalEjRKSsRKSt3mapIjSsSt4lessIjESaISt4pairIKjSsEEE
0001:000c2870  __ZTV16InMemoryDocument$w$dVdzJV2dFP5YrRC82
0001:000c3c00  __ZTI16InMemoryDocument$w$dVdzJV2dFP5YrRC82
0001:000c288c  __ZN16InMemoryDocumentD1Ev$w$dVdzJV2dFP5YrRC82
0001:000c2ce2  __ZN16InMemoryDocumentD0Ev$w$dVdzJV2dFP5YrRC82
0001:000c39e4* __ZNSt8_Rb_treeIjSt4pairIKjSsESt10_Select1stIS2_ESt4lessIjESaIS2_EE8_M_eraseEPSt13_Rb_tree_nodeIS2_E$w$dVdzJV2dFP5YrRC82
0001:000c3c28* __ZTVN6Xapian8Document8InternalE$w$dVdzJV2dFP5YrRC82
0001:000c3aba* __ZNSt8_Rb_treeISsSt4pairIKSs14OmDocumentTermESt10_Select1stIS3_ESt4lessISsESaIS3_EE5clearEv$w$dVdzJV2dFP5YrRC82
0001:000c3a74* __ZNSt8_Rb_treeISsSt4pairIKSs14OmDocumentTermESt10_Select1stIS3_ESt4lessISsESaIS3_EEC1ERKS7_RKS8_$w$dVdzJV2dFP5YrRC82
0001:000c3a6e* __ZNSaISt4pairIKSs14OmDocumentTermEED1Ev$w$dVdzJV2dFP5YrRC82
0001:000c38be* __ZNSt8_Rb_treeIjSt4pairIKjSsESt10_Select1stIS2_ESt4lessIjESaIS2_EEC1ERKS8_$w$dVdzJV2dFP5YrRC82
0001:000c3c44* __ZNSt6vectorIjSaIjEED1Ev$w$dVdzJV2dFP5YrRC82
0001:000c3ca4* __ZNSt8_Rb_treeIjSt4pairIKjSsESt10_Select1stIS2_ESt4lessIjESaIS2_EED1Ev$w$dVdzJV2dFP5YrRC82
0001:000c3fca  __ZNKSt8_Rb_treeIjSt4pairIKjSsESt10_Select1stIS2_ESt4lessIjESaIS2_EE4findERS1_$w$dVdzJV2dFP5YrRC82
0001:000c3b02* __ZNSt8_Rb_treeIjSt4pairIKjSsESt10_Select1stIS2_ESt4lessIjESaIS2_EE7_M_copyEPSt13_Rb_tree_nodeIS2_ESB_$w$dVdzJV2dFP5YrRC82
0001:000c400a* __ZNSt8_Rb_treeISsSt4pairIKSs14OmDocumentTermESt10_Select1stIS3_ESt4lessISsESaIS3_EE8_M_eraseEPSt13_Rb_tree_nodeIS3_E$w$dVdzJV2dFP5YrRC82
0001:000c417a* __ZNSt8_Rb_treeIjSt4pairIKjSsESt10_Select1stIS2_ESt4lessIjESaIS2_EE14_M_create_nodeERKS2_$w$dVdzJV2dFP5YrRC82
0001:000c3c0c  __ZTS16InMemoryDocument$w$dVdzJV2dFP5YrRC82
0001:000c41f0* __ZTIN6Xapian8Document8InternalE$w$dVdzJV2dFP5YrRC82
0001:000c3c20* __ZNSt15basic_streambufIcSt11char_traitsIcEE13_S_pback_sizeE$w$dVdzJV2dFP5YrRC82
0001:000c3c6e* __ZNK6Xapian8Document8Internal12do_get_valueEj$w$dVdzJV2dFP5YrRC82
0001:000c3d1e* __ZNK6Xapian8Document8Internal17do_get_all_valuesEv$w$dVdzJV2dFP5YrRC82
0001:000c3d70* __ZNK6Xapian8Document8Internal11do_get_dataEv$w$dVdzJV2dFP5YrRC82
0001:000c3da6* __ZN6Xapian8Document8InternalD1Ev$w$dVdzJV2dFP5YrRC82
0001:000c3eb4* __ZN6Xapian8Document8InternalD0Ev$w$dVdzJV2dFP5YrRC82
0001:000c4210* __ZTSN6Xapian8Document8InternalE$w$dVdzJV2dFP5YrRC82
0001:000c422c* __ZTIN6Xapian8Internal10RefCntBaseE$w$dVdzJV2dFP5YrRC82
0001:000c4234* __ZTSN6Xapian8Internal10RefCntBaseE$w$dVdzJV2dFP5YrRC82
0002:000229a0* __ZN16__Atomicity_lockILi0EE17_S_atomicity_lockE$w$dVdzJV2dFP5YrRC82
Module: F:\rd\dse\xapian-core-1.0.2\.libs\xapian.a(common\serialise-double.cc)
0001:000c42ac  __Z16serialise_doubled
0001:000c4828  __Z18unserialise_doublePPKcS0_
0001:000c4fb8  __ZN6Xapian12NetworkErrorD1Ev$w$rUD8Cc5dFP5LWxpB4
0001:000c508c  __ZTIN6Xapian12NetworkErrorE$w$rUD8Cc5dFP5LWxpB4
0001:000c5098  __ZTSN6Xapian12NetworkErrorE$w$rUD8Cc5dFP5LWxpB4
0001:000c50b0* __ZTIN6Xapian12RuntimeErrorE$w$rUD8Cc5dFP5LWxpB4
0001:000c50bc* __ZTSN6Xapian12RuntimeErrorE$w$rUD8Cc5dFP5LWxpB4
0001:000c50d4* __ZTIN6Xapian5ErrorE$w$rUD8Cc5dFP5LWxpB4
0001:000c50dc* __ZTSN6Xapian5ErrorE$w$rUD8Cc5dFP5LWxpB4
0002:000229b0* __ZN16__Atomicity_lockILi0EE17_S_atomicity_lockE$w$rUD8Cc5dFP5LWxpB4
Module: F:\rd\dse\xapian-core-1.0.2\.libs\xapian.a(backends\multi\multi_postlist.cc)
0001:000c5930* __ZN13MultiPostListD1Ev
0001:000c5a88* __ZN13MultiPostListD0Ev
0001:000c5c6c* __ZNK13MultiPostList9get_docidEv
0001:000c5c78* __ZNK13MultiPostList13get_doclengthEv
0001:000c5ca0* __ZNK13MultiPostList7get_wdfEv
0001:000c5cc8* __ZN13MultiPostList18read_position_listEv
0001:000c5cf0* __ZNK13MultiPostList18open_position_listEv
0001:000c5d18* __ZN13MultiPostList4nextEd
0001:000c5dce* __ZN13MultiPostList7skip_toEjd
0001:000c5e90* __ZNK13MultiPostList6at_endEv
0001:000c5ea4* __ZNK13MultiPostList15get_descriptionEv
0001:000c5c26* __ZNK13MultiPostList12get_termfreqEv
0001:000c5be6* __ZN13MultiPostList14set_termweightEPKN6Xapian6WeightE
0001:000c5578* __ZN13MultiPostListC2ERSt6vectorIP12LeafPostListSaIS2_EERKN6Xapian8DatabaseE
0001:000c56a8  __ZN13MultiPostListC1ERSt6vectorIP12LeafPostListSaIS2_EERKN6Xapian8DatabaseE
0001:000c57d8* __ZN13MultiPostListD2Ev
0001:000c50f0  __ZTV13MultiPostList$w$1PPoO34dFP5Z3d3B0
0001:000c62a4  __ZTI13MultiPostList$w$1PPoO34dFP5Z3d3B0
0001:000c54ae* __ZNK12LeafPostList16get_termfreq_minEv$w$1PPoO34dFP5Z3d3B0
0001:000c54c4* __ZNK12LeafPostList16get_termfreq_estEv$w$1PPoO34dFP5Z3d3B0
0001:000c5498* __ZNK12LeafPostList16get_termfreq_maxEv$w$1PPoO34dFP5Z3d3B0
0001:000c5548* __ZNK12LeafPostList13get_maxweightEv$w$1PPoO34dFP5Z3d3B0
0001:000c54fe* __ZNK12LeafPostList10get_weightEv$w$1PPoO34dFP5Z3d3B0
0001:000c51a8* __ZNK6Xapian15PostingIterator8Internal16get_collapse_keyEv$w$1PPoO34dFP5Z3d3B0
0001:000c5560* __ZN12LeafPostList16recalc_maxweightEv$w$1PPoO34dFP5Z3d3B0
0001:000c5150* __ZTV12LeafPostList$w$1PPoO34dFP5Z3d3B0
0001:000c6298* __ZTI12LeafPostList$w$1PPoO34dFP5Z3d3B0
0001:000c5416* __ZN12LeafPostListD1Ev$w$1PPoO34dFP5Z3d3B0
0001:000c5454* __ZN12LeafPostListD0Ev$w$1PPoO34dFP5Z3d3B0
0001:000c51e6* __ZNK6Xapian15PostingIterator8Internal7get_wdfEv$w$1PPoO34dFP5Z3d3B0
0001:000c54da* __ZN12LeafPostList14set_termweightEPKN6Xapian6WeightE$w$1PPoO34dFP5Z3d3B0
0001:000c6340* __ZN6Xapian18UnimplementedErrorD1Ev$w$1PPoO34dFP5Z3d3B0
0001:000c6470* __ZTIN6Xapian18UnimplementedErrorE$w$1PPoO34dFP5Z3d3B0
0001:000c62f0* __ZTVN6Xapian15PostingIterator8InternalE$w$1PPoO34dFP5Z3d3B0
0001:000c61d4  __ZNSt6vectorIP12LeafPostListSaIS1_EE5eraseEN9__gnu_cxx17__normal_iteratorIPS1_S3_EES7_$w$1PPoO34dFP5Z3d3B0
0001:000c6218* __ZStplIcSt11char_traitsIcESaIcEESbIT_T0_T1_ERKS6_S8_$w$1PPoO34dFP5Z3d3B0
0001:000c62c0* __ZTS12LeafPostList$w$1PPoO34dFP5Z3d3B0
0001:000c6450* __ZTIN6Xapian15PostingIterator8InternalE$w$1PPoO34dFP5Z3d3B0
0001:000c62b0  __ZTS13MultiPostList$w$1PPoO34dFP5Z3d3B0
0001:000c62d0* __ZNSt15basic_streambufIcSt11char_traitsIcEE13_S_pback_sizeE$w$1PPoO34dFP5Z3d3B0
0001:000c6414* __ZN6Xapian15PostingIterator8InternalD1Ev$w$1PPoO34dFP5Z3d3B0
0001:000c6422* __ZN6Xapian15PostingIterator8InternalD0Ev$w$1PPoO34dFP5Z3d3B0
0001:000c64b0* __ZTSN6Xapian15PostingIterator8InternalE$w$1PPoO34dFP5Z3d3B0
0001:000c64e0* __ZTIN6Xapian8Internal10RefCntBaseE$w$1PPoO34dFP5Z3d3B0
0001:000c647c* __ZTSN6Xapian18UnimplementedErrorE$w$1PPoO34dFP5Z3d3B0
0001:000c64d4* __ZTIN6Xapian10LogicErrorE$w$1PPoO34dFP5Z3d3B0
0001:000c6507* __ZTSN6Xapian10LogicErrorE$w$1PPoO34dFP5Z3d3B0
0001:000c6520* __ZTIN6Xapian5ErrorE$w$1PPoO34dFP5Z3d3B0
0001:000c64e8* __ZTSN6Xapian8Internal10RefCntBaseE$w$1PPoO34dFP5Z3d3B0
0001:000c6528* __ZTSN6Xapian5ErrorE$w$1PPoO34dFP5Z3d3B0
0002:000229e0* __ZN16__Atomicity_lockILi0EE17_S_atomicity_lockE$w$1PPoO34dFP5Z3d3B0
Module: F:\rd\dse\xapian-core-1.0.2\.libs\xapian.a(matcher\andnotpostlist.cc)
0001:000c6c92* __ZNK14AndNotPostList16get_termfreq_minEv
0001:000c6ce0* __ZNK14AndNotPostList16get_termfreq_estEv
0001:000c6c7a* __ZNK14AndNotPostList16get_termfreq_maxEv
0001:000c6d74* __ZNK14AndNotPostList13get_maxweightEv
0001:000c6d50* __ZNK14AndNotPostList9get_docidEv
0001:000c6d5c* __ZNK14AndNotPostList10get_weightEv
0001:000c71f6* __ZNK14AndNotPostList13get_doclengthEv
0001:000c6d8c* __ZN14AndNotPostList16recalc_maxweightEv
0001:000c6bbc* __ZN14AndNotPostList4nextEd
0001:000c6c2a* __ZN14AndNotPostList7skip_toEjd
0001:000c6da4* __ZNK14AndNotPostList6at_endEv
0001:000c6dc4* __ZNK14AndNotPostList15get_descriptionEv
0001:000c69e4* __ZN14AndNotPostList21advance_to_next_matchEdPN6Xapian15PostingIterator8InternalE
0001:000c6b44* __ZN14AndNotPostListC2EPN6Xapian15PostingIterator8InternalES3_P10MultiMatchj
0001:000c6b80  __ZN14AndNotPostListC1EPN6Xapian15PostingIterator8InternalES3_P10MultiMatchj
0001:000c6bfa  __ZN14AndNotPostList16sync_and_skip_toEjdjj
0001:000c6550  __ZTV14AndNotPostList$w$vk6NUfcdFP5bIrEw4
0001:000c745c  __ZTI14AndNotPostList$w$vk6NUfcdFP5bIrEw4
0001:000c69a0  __ZN14AndNotPostListD1Ev$w$vk6NUfcdFP5bIrEw4
0001:000c69bc  __ZN14AndNotPostListD0Ev$w$vk6NUfcdFP5bIrEw4
0001:000c6998* __ZNK6Xapian15PostingIterator8Internal16get_collapse_keyEv$w$vk6NUfcdFP5bIrEw4
0001:000c65a0* __ZTV13StatsGatherer$w$vk6NUfcdFP5bIrEw4
0001:000c7454* __ZTI13StatsGatherer$w$vk6NUfcdFP5bIrEw4
0001:000c65b8* __ZN13StatsGathererD1Ev$w$vk6NUfcdFP5bIrEw4
0001:000c679e* __ZN13StatsGathererD0Ev$w$vk6NUfcdFP5bIrEw4
0001:000c698a* __ZN13StatsGatherer16set_global_statsEj$w$vk6NUfcdFP5bIrEw4
0001:000c720e* __ZNSt8_Rb_treeISsSt4pairIKSsjESt10_Select1stIS2_ESt4lessISsESaIS2_EE8_M_eraseEPSt13_Rb_tree_nodeIS2_E$w$vk6NUfcdFP5bIrEw4
0001:000c7298* __ZNSt8_Rb_treeIPN6Xapian6Weight8InternalES3_St9_IdentityIS3_ESt4lessIS3_ESaIS3_EE8_M_eraseEPSt13_Rb_tree_nodeIS3_E$w$vk6NUfcdFP5bIrEw4
0001:000c72dc* __ZStplIcSt11char_traitsIcESaIcEESbIT_T0_T1_EPKS3_RKS6_$w$vk6NUfcdFP5bIrEw4
0001:000c73d2* __ZStplIcSt11char_traitsIcESaIcEESbIT_T0_T1_ERKS6_S8_$w$vk6NUfcdFP5bIrEw4
0001:000c7479* __ZTS13StatsGatherer$w$vk6NUfcdFP5bIrEw4
0001:000c7468  __ZTS14AndNotPostList$w$vk6NUfcdFP5bIrEw4
0001:000c7490* __ZTI14BranchPostList$w$vk6NUfcdFP5bIrEw4
0001:000c748c* __ZNSt15basic_streambufIcSt11char_traitsIcEE13_S_pback_sizeE$w$vk6NUfcdFP5bIrEw4
0001:000c749c* __ZTS14BranchPostList$w$vk6NUfcdFP5bIrEw4
0001:000c74b0* __ZTIN6Xapian15PostingIterator8InternalE$w$vk6NUfcdFP5bIrEw4
0001:000c74d0* __ZTSN6Xapian15PostingIterator8InternalE$w$vk6NUfcdFP5bIrEw4
0001:000c74f4* __ZTIN6Xapian8Internal10RefCntBaseE$w$vk6NUfcdFP5bIrEw4
0001:000c74fc* __ZTSN6Xapian8Internal10RefCntBaseE$w$vk6NUfcdFP5bIrEw4
0002:000229f0* __ZN16__Atomicity_lockILi0EE17_S_atomicity_lockE$w$vk6NUfcdFP5bIrEw4
Module: F:\rd\dse\xapian-core-1.0.2\.libs\xapian.a(matcher\mergepostlist.cc)
0001:000c8118* __ZN13MergePostListD1Ev
0001:000c81a6* __ZN13MergePostListD0Ev
0001:000c862c* __ZNK13MergePostList16get_termfreq_minEv
0001:000c8660* __ZNK13MergePostList16get_termfreq_estEv
0001:000c85f8* __ZNK13MergePostList16get_termfreq_maxEv
0001:000c8718* __ZNK13MergePostList13get_maxweightEv
0001:000c8694* __ZNK13MergePostList9get_docidEv
0001:000c86d8* __ZNK13MergePostList10get_weightEv
0001:000c86f8* __ZNK13MergePostList16get_collapse_keyEv
0001:000c8ae2* __ZNK13MergePostList13get_doclengthEv
0001:000c8724* __ZN13MergePostList16recalc_maxweightEv
0001:000c85d8* __ZNK13MergePostList7get_wdfEv
0001:000c8b34* __ZN13MergePostList18read_position_listEv
0001:000c8d96* __ZNK13MergePostList18open_position_listEv
0001:000c823a* __ZN13MergePostList4nextEd
0001:000c83a8* __ZN13MergePostList7skip_toEjd
0001:000c87ea* __ZNK13MergePostList6at_endEv
0001:000c8812* __ZNK13MergePostList15get_descriptionEv
0001:000c7f22* __ZN13MergePostListC2ESt6vectorIPN6Xapian15PostingIterator8InternalESaIS4_EEP10MultiMatchPNS1_12ErrorHandlerE
0001:000c7fd6  __ZN13MergePostListC1ESt6vectorIPN6Xapian15PostingIterator8InternalESaIS4_EEP10MultiMatchPNS1_12ErrorHandlerE
0001:000c808a* __ZN13MergePostListD2Ev
0001:000c7530  __ZTV13MergePostList$w$dncly9gdFP5BV8Xv1
0001:000c90b4  __ZTI13MergePostList$w$dncly9gdFP5BV8Xv1
0001:000c7590* __ZTV13EmptyPostList$w$dncly9gdFP5BV8Xv1
0001:000c90a8* __ZTI13EmptyPostList$w$dncly9gdFP5BV8Xv1
0001:000c7e10* __ZN13EmptyPostListD1Ev$w$dncly9gdFP5BV8Xv1
0001:000c7e4e* __ZN13EmptyPostListD0Ev$w$dncly9gdFP5BV8Xv1
0001:000c7d46* __ZNK12LeafPostList16get_termfreq_minEv$w$dncly9gdFP5BV8Xv1
0001:000c7d5c* __ZNK12LeafPostList16get_termfreq_estEv$w$dncly9gdFP5BV8Xv1
0001:000c7d30* __ZNK12LeafPostList16get_termfreq_maxEv$w$dncly9gdFP5BV8Xv1
0001:000c7e9a* __ZNK13EmptyPostList13get_maxweightEv$w$dncly9gdFP5BV8Xv1
0001:000c7ea2* __ZNK13EmptyPostList9get_docidEv$w$dncly9gdFP5BV8Xv1
0001:000c7eaa* __ZNK13EmptyPostList10get_weightEv$w$dncly9gdFP5BV8Xv1
0001:000c7a40* __ZNK6Xapian15PostingIterator8Internal16get_collapse_keyEv$w$dncly9gdFP5BV8Xv1
0001:000c7eb2* __ZNK13EmptyPostList13get_doclengthEv$w$dncly9gdFP5BV8Xv1
0001:000c7df8* __ZN12LeafPostList16recalc_maxweightEv$w$dncly9gdFP5BV8Xv1
0001:000c7a7e* __ZNK6Xapian15PostingIterator8Internal7get_wdfEv$w$dncly9gdFP5BV8Xv1
0001:000c7eba* __ZN13EmptyPostList18read_position_listEv$w$dncly9gdFP5BV8Xv1
0001:000c7ec2* __ZNK13EmptyPostList18open_position_listEv$w$dncly9gdFP5BV8Xv1
0001:000c7eca* __ZN13EmptyPostList4nextEd$w$dncly9gdFP5BV8Xv1
0001:000c7ed2* __ZN13EmptyPostList7skip_toEjd$w$dncly9gdFP5BV8Xv1
0001:000c7eda* __ZNK13EmptyPostList6at_endEv$w$dncly9gdFP5BV8Xv1
0001:000c7eec* __ZNK13EmptyPostList15get_descriptionEv$w$dncly9gdFP5BV8Xv1
0001:000c7e92* __ZNK13EmptyPostList12get_termfreqEv$w$dncly9gdFP5BV8Xv1
0001:000c7d72* __ZN12LeafPostList14set_termweightEPKN6Xapian6WeightE$w$dncly9gdFP5BV8Xv1
0001:000c75f0* __ZTV12LeafPostList$w$dncly9gdFP5BV8Xv1
0001:000c909c* __ZTI12LeafPostList$w$dncly9gdFP5BV8Xv1
0001:000c7cae* __ZN12LeafPostListD1Ev$w$dncly9gdFP5BV8Xv1
0001:000c7cec* __ZN12LeafPostListD0Ev$w$dncly9gdFP5BV8Xv1
0001:000c7de0* __ZNK12LeafPostList13get_maxweightEv$w$dncly9gdFP5BV8Xv1
0001:000c7d96* __ZNK12LeafPostList10get_weightEv$w$dncly9gdFP5BV8Xv1
0001:000c7648* __ZTV13StatsGatherer$w$dncly9gdFP5BV8Xv1
0001:000c9094* __ZTI13StatsGatherer$w$dncly9gdFP5BV8Xv1
0001:000c7660* __ZN13StatsGathererD1Ev$w$dncly9gdFP5BV8Xv1
0001:000c7846* __ZN13StatsGathererD0Ev$w$dncly9gdFP5BV8Xv1
0001:000c7a32* __ZN13StatsGatherer16set_global_statsEj$w$dncly9gdFP5BV8Xv1
0001:000c8fc6* __ZNSt8_Rb_treeISsSt4pairIKSsjESt10_Select1stIS2_ESt4lessISsESaIS2_EE8_M_eraseEPSt13_Rb_tree_nodeIS2_E$w$dncly9gdFP5BV8Xv1
0001:000c9050* __ZNSt8_Rb_treeIPN6Xapian6Weight8InternalES3_St9_IdentityIS3_ESt4lessIS3_ESaIS3_EE8_M_eraseEPSt13_Rb_tree_nodeIS3_E$w$dncly9gdFP5BV8Xv1
0001:000c9234* __ZN6Xapian18UnimplementedErrorD1Ev$w$dncly9gdFP5BV8Xv1
0001:000c9350* __ZTIN6Xapian18UnimplementedErrorE$w$dncly9gdFP5BV8Xv1
0001:000c9110* __ZTVN6Xapian15PostingIterator8InternalE$w$dncly9gdFP5BV8Xv1
0001:000c9368* __ZTIN6Xapian5ErrorE$w$dncly9gdFP5BV8Xv1
0001:000c9160* __ZN6Xapian21InvalidOperationErrorD1Ev$w$dncly9gdFP5BV8Xv1
0001:000c935c* __ZTIN6Xapian21InvalidOperationErrorE$w$dncly9gdFP5BV8Xv1
0001:000c90ef* __ZTS13StatsGatherer$w$dncly9gdFP5BV8Xv1
0001:000c90e0* __ZTS12LeafPostList$w$dncly9gdFP5BV8Xv1
0001:000c9330* __ZTIN6Xapian15PostingIterator8InternalE$w$dncly9gdFP5BV8Xv1
0001:000c90d0* __ZTS13EmptyPostList$w$dncly9gdFP5BV8Xv1
0001:000c90c0  __ZTS13MergePostList$w$dncly9gdFP5BV8Xv1
0001:000c9100* __ZNSt15basic_streambufIcSt11char_traitsIcEE13_S_pback_sizeE$w$dncly9gdFP5BV8Xv1
0001:000c9308* __ZN6Xapian15PostingIterator8InternalD1Ev$w$dncly9gdFP5BV8Xv1
0001:000c9316* __ZN6Xapian15PostingIterator8InternalD0Ev$w$dncly9gdFP5BV8Xv1
0001:000c93d0* __ZTSN6Xapian15PostingIterator8InternalE$w$dncly9gdFP5BV8Xv1
0001:000c9400* __ZTIN6Xapian8Internal10RefCntBaseE$w$dncly9gdFP5BV8Xv1
0001:000c93b1* __ZTSN6Xapian18UnimplementedErrorE$w$dncly9gdFP5BV8Xv1
0001:000c93f4* __ZTIN6Xapian10LogicErrorE$w$dncly9gdFP5BV8Xv1
0001:000c9390* __ZTSN6Xapian21InvalidOperationErrorE$w$dncly9gdFP5BV8Xv1
0001:000c9370* __ZTSN6Xapian5ErrorE$w$dncly9gdFP5BV8Xv1
0001:000c9427* __ZTSN6Xapian10LogicErrorE$w$dncly9gdFP5BV8Xv1
0001:000c9408* __ZTSN6Xapian8Internal10RefCntBaseE$w$dncly9gdFP5BV8Xv1
0002:00022a00* __ZN16__Atomicity_lockILi0EE17_S_atomicity_lockE$w$dncly9gdFP5BV8Xv1
Module: F:\rd\dse\xapian-core-1.0.2\.libs\xapian.a(languages\dutch.cc)
0001:000ca278* __ZN6Xapian17InternalStemDutchD1Ev
0001:000ca294* __ZN6Xapian17InternalStemDutchD0Ev
0001:000ca186* __ZN6Xapian17InternalStemDutch4stemEv
0001:000ca2c2* __ZNK6Xapian17InternalStemDutch15get_descriptionEv
0001:000c9468* __ZN6Xapian17InternalStemDutch9r_preludeEv
0001:000c9736* __ZN6Xapian17InternalStemDutch14r_mark_regionsEv
0001:000c983a* __ZN6Xapian17InternalStemDutch10r_postludeEv
0001:000c992e* __ZN6Xapian17InternalStemDutch4r_R1Ev
0001:000c9942* __ZN6Xapian17InternalStemDutch4r_R2Ev
0001:000c9956* __ZN6Xapian17InternalStemDutch10r_undoubleEv
0001:000c9a48* __ZN6Xapian17InternalStemDutch10r_e_endingEv
0001:000c9b20* __ZN6Xapian17InternalStemDutch11r_en_endingEv
0001:000c9bf8* __ZN6Xapian17InternalStemDutch17r_standard_suffixEv
0001:000ca1f4* __ZN6Xapian17InternalStemDutchC2Ev
0001:000ca228  __ZN6Xapian17InternalStemDutchC1Ev
0001:000ca25c* __ZN6Xapian17InternalStemDutchD2Ev
0001:000c9450  __ZTVN6Xapian17InternalStemDutchE$w$9Ljak27dFP5oU5vq0
0001:000ca2cc  __ZTIN6Xapian17InternalStemDutchE$w$9Ljak27dFP5oU5vq0
0001:000ca586  __ZTSN6Xapian17InternalStemDutchE$w$9Ljak27dFP5oU5vq0
0001:000ca5f0* __ZTIN6Xapian4Stem8InternalE$w$9Ljak27dFP5oU5vq0
0001:000ca610* __ZTSN6Xapian4Stem8InternalE$w$9Ljak27dFP5oU5vq0
0001:000ca628* __ZTIN6Xapian8Internal10RefCntBaseE$w$9Ljak27dFP5oU5vq0
0001:000ca630* __ZTSN6Xapian8Internal10RefCntBaseE$w$9Ljak27dFP5oU5vq0
0002:00022a10* __ZN16__Atomicity_lockILi0EE17_S_atomicity_lockE$w$9Ljak27dFP5oU5vq0
Module: F:\rd\dse\xapian-core-1.0.2\.libs\xapian.a(backends\flint\contiguousalldocspostlist.cc)
0001:000cab6c* __ZN25ContiguousAllDocsPostListD1Ev
0001:000cac00* __ZN25ContiguousAllDocsPostListD0Ev
0001:000caca4* __ZNK25ContiguousAllDocsPostList9get_docidEv
0001:000cacb0* __ZNK25ContiguousAllDocsPostList13get_doclengthEv
0001:000cacd0* __ZNK25ContiguousAllDocsPostList7get_wdfEv
0001:000cacda* __ZN25ContiguousAllDocsPostList18read_position_listEv
0001:000cad32* __ZNK25ContiguousAllDocsPostList18open_position_listEv
0001:000caf62* __ZN25ContiguousAllDocsPostList4nextEd
0001:000caf94* __ZN25ContiguousAllDocsPostList7skip_toEjd
0001:000cafc8* __ZNK25ContiguousAllDocsPostList6at_endEv
0001:000caffa* __ZNK25ContiguousAllDocsPostList15get_descriptionEv
0001:000cac98* __ZNK25ContiguousAllDocsPostList12get_termfreqEv
0001:000caad8* __ZN25ContiguousAllDocsPostListD2Ev
0001:000ca650  __ZTV25ContiguousAllDocsPostList$w$Zrs85rPcFP5j3k8g2
0001:000cb140  __ZTI25ContiguousAllDocsPostList$w$Zrs85rPcFP5j3k8g2
0001:000caa0e* __ZNK12LeafPostList16get_termfreq_minEv$w$Zrs85rPcFP5j3k8g2
0001:000caa24* __ZNK12LeafPostList16get_termfreq_estEv$w$Zrs85rPcFP5j3k8g2
0001:000ca9f8* __ZNK12LeafPostList16get_termfreq_maxEv$w$Zrs85rPcFP5j3k8g2
0001:000caaa8* __ZNK12LeafPostList13get_maxweightEv$w$Zrs85rPcFP5j3k8g2
0001:000caa5e* __ZNK12LeafPostList10get_weightEv$w$Zrs85rPcFP5j3k8g2
0001:000ca708* __ZNK6Xapian15PostingIterator8Internal16get_collapse_keyEv$w$Zrs85rPcFP5j3k8g2
0001:000caac0* __ZN12LeafPostList16recalc_maxweightEv$w$Zrs85rPcFP5j3k8g2
0001:000caa3a* __ZN12LeafPostList14set_termweightEPKN6Xapian6WeightE$w$Zrs85rPcFP5j3k8g2
0001:000ca6b0* __ZTV12LeafPostList$w$Zrs85rPcFP5j3k8g2
0001:000cb134* __ZTI12LeafPostList$w$Zrs85rPcFP5j3k8g2
0001:000ca976* __ZN12LeafPostListD1Ev$w$Zrs85rPcFP5j3k8g2
0001:000ca9b4* __ZN12LeafPostListD0Ev$w$Zrs85rPcFP5j3k8g2
0001:000ca746* __ZNK6Xapian15PostingIterator8Internal7get_wdfEv$w$Zrs85rPcFP5j3k8g2
0001:000cb2b4* __ZN6Xapian18UnimplementedErrorD1Ev$w$Zrs85rPcFP5j3k8g2
0001:000cb410* __ZTIN6Xapian18UnimplementedErrorE$w$Zrs85rPcFP5j3k8g2
0001:000cb190* __ZTVN6Xapian15PostingIterator8InternalE$w$Zrs85rPcFP5j3k8g2
0001:000cb1e0* __ZN6Xapian21InvalidOperationErrorD1Ev$w$Zrs85rPcFP5j3k8g2
0001:000cb41c* __ZTIN6Xapian21InvalidOperationErrorE$w$Zrs85rPcFP5j3k8g2
0001:000cb3a8  __ZN6Xapian8Internal9RefCntPtrIKNS_8Database8InternalEEaSEPS4_$w$Zrs85rPcFP5j3k8g2
0001:000cb168* __ZTS12LeafPostList$w$Zrs85rPcFP5j3k8g2
0001:000cb3f0* __ZTIN6Xapian15PostingIterator8InternalE$w$Zrs85rPcFP5j3k8g2
0001:000cb14c  __ZTS25ContiguousAllDocsPostList$w$Zrs85rPcFP5j3k8g2
0001:000cb178* __ZNSt15basic_streambufIcSt11char_traitsIcEE13_S_pback_sizeE$w$Zrs85rPcFP5j3k8g2
0001:000cb388* __ZN6Xapian15PostingIterator8InternalD1Ev$w$Zrs85rPcFP5j3k8g2
0001:000cb396* __ZN6Xapian15PostingIterator8InternalD0Ev$w$Zrs85rPcFP5j3k8g2
0001:000cb470* __ZTSN6Xapian15PostingIterator8InternalE$w$Zrs85rPcFP5j3k8g2
0001:000cb4a0* __ZTIN6Xapian8Internal10RefCntBaseE$w$Zrs85rPcFP5j3k8g2
0001:000cb451* __ZTSN6Xapian18UnimplementedErrorE$w$Zrs85rPcFP5j3k8g2
0001:000cb494* __ZTIN6Xapian10LogicErrorE$w$Zrs85rPcFP5j3k8g2
0001:000cb430* __ZTSN6Xapian21InvalidOperationErrorE$w$Zrs85rPcFP5j3k8g2
0001:000cb4c7* __ZTSN6Xapian10LogicErrorE$w$Zrs85rPcFP5j3k8g2
0001:000cb4e0* __ZTIN6Xapian5ErrorE$w$Zrs85rPcFP5j3k8g2
0001:000cb4a8* __ZTSN6Xapian8Internal10RefCntBaseE$w$Zrs85rPcFP5j3k8g2
0001:000cb4e8* __ZTSN6Xapian5ErrorE$w$Zrs85rPcFP5j3k8g2
0002:00022a20* __ZN16__Atomicity_lockILi0EE17_S_atomicity_lockE$w$Zrs85rPcFP5j3k8g2
Module: F:\rd\dse\xapian-core-1.0.2\.libs\xapian.a(languages\italian.cc)
0001:000cc584* __ZN6Xapian19InternalStemItalianD1Ev
0001:000cc5a0* __ZN6Xapian19InternalStemItalianD0Ev
0001:000cc452* __ZN6Xapian19InternalStemItalian4stemEv
0001:000cc5d0* __ZNK6Xapian19InternalStemItalian15get_descriptionEv
0001:000cb528* __ZN6Xapian19InternalStemItalian9r_preludeEv
0001:000cb7a2* __ZN6Xapian19InternalStemItalian14r_mark_regionsEv
0001:000cba96* __ZN6Xapian19InternalStemItalian10r_postludeEv
0001:000cbb8a* __ZN6Xapian19InternalStemItalian4r_RVEv
0001:000cbb9e* __ZN6Xapian19InternalStemItalian4r_R1Ev
0001:000cbbb2* __ZN6Xapian19InternalStemItalian4r_R2Ev
0001:000cbbc6* __ZN6Xapian19InternalStemItalian18r_attached_pronounEv
0001:000cbd16* __ZN6Xapian19InternalStemItalian17r_standard_suffixEv
0001:000cc1ec* __ZN6Xapian19InternalStemItalian13r_verb_suffixEv
0001:000cc2a6* __ZN6Xapian19InternalStemItalian14r_vowel_suffixEv
0001:000cc4fc* __ZN6Xapian19InternalStemItalianC2Ev
0001:000cc532  __ZN6Xapian19InternalStemItalianC1Ev
0001:000cc568* __ZN6Xapian19InternalStemItalianD2Ev
0001:000cb510  __ZTVN6Xapian19InternalStemItalianE$w$RBtDQA8dFP5EBsCv0
0001:000cc5dc  __ZTIN6Xapian19InternalStemItalianE$w$RBtDQA8dFP5EBsCv0
0001:000cd2ed  __ZTSN6Xapian19InternalStemItalianE$w$RBtDQA8dFP5EBsCv0
0001:000cd630* __ZTIN6Xapian4Stem8InternalE$w$RBtDQA8dFP5EBsCv0
0001:000cd650* __ZTSN6Xapian4Stem8InternalE$w$RBtDQA8dFP5EBsCv0
0001:000cd668* __ZTIN6Xapian8Internal10RefCntBaseE$w$RBtDQA8dFP5EBsCv0
0001:000cd670* __ZTSN6Xapian8Internal10RefCntBaseE$w$RBtDQA8dFP5EBsCv0
0002:00022a30* __ZN16__Atomicity_lockILi0EE17_S_atomicity_lockE$w$RBtDQA8dFP5EBsCv0
Module: F:\rd\dse\xapian-core-1.0.2\.libs\xapian.a(backends\multi\multi_alltermslist.cc)
0001:000cd9c8* __ZN17MultiAllTermsListD1Ev
0001:000cdaf0* __ZN17MultiAllTermsListD0Ev
0001:000cde1a* __ZNK17MultiAllTermsList15get_approx_sizeEv
0001:000cde4e* __ZNK17MultiAllTermsList12get_termnameEv
0001:000cde78* __ZNK17MultiAllTermsList12get_termfreqEv
0001:000cdf8e* __ZNK17MultiAllTermsList19get_collection_freqEv
0001:000ce0f4* __ZN17MultiAllTermsList4nextEv
0001:000ce0a4* __ZN17MultiAllTermsList7skip_toERKSs
0001:000ce228* __ZNK17MultiAllTermsList6at_endEv
0001:000cd6cc* __ZN17MultiAllTermsListC2ERKSt6vectorIPN6Xapian12TermIterator8InternalESaIS4_EE
0001:000cd7b6  __ZN17MultiAllTermsListC1ERKSt6vectorIPN6Xapian12TermIterator8InternalESaIS4_EE
0001:000cd8a0* __ZN17MultiAllTermsListD2Ev
0001:000cdc20* __ZN17MultiAllTermsList14update_currentEv
0001:000cd690  __ZTV17MultiAllTermsList$w$xNspEC3dFP5vfKFf1
0001:000ce278  __ZTI17MultiAllTermsList$w$xNspEC3dFP5vfKFf1
0001:000ce234* __ZNSt6vectorIPN6Xapian12TermIterator8InternalESaIS3_EE5eraseEN9__gnu_cxx17__normal_iteratorIPS3_S5_EES9_$w$xNspEC3dFP5vfKFf1
0001:000ce284  __ZTS17MultiAllTermsList$w$xNspEC3dFP5vfKFf1
0001:000ce29c* __ZTI12AllTermsList$w$xNspEC3dFP5vfKFf1
0001:000ce298* __ZNSt15basic_streambufIcSt11char_traitsIcEE13_S_pback_sizeE$w$xNspEC3dFP5vfKFf1
0001:000ce2a8* __ZTS12AllTermsList$w$xNspEC3dFP5vfKFf1
0001:000ce2d0* __ZTIN6Xapian12TermIterator8InternalE$w$xNspEC3dFP5vfKFf1
0001:000ce2f0* __ZTSN6Xapian12TermIterator8InternalE$w$xNspEC3dFP5vfKFf1
0001:000ce314* __ZTIN6Xapian8Internal10RefCntBaseE$w$xNspEC3dFP5vfKFf1
0001:000ce31c* __ZTSN6Xapian8Internal10RefCntBaseE$w$xNspEC3dFP5vfKFf1
0002:00022a40* __ZN16__Atomicity_lockILi0EE17_S_atomicity_lockE$w$xNspEC3dFP5vfKFf1
Module: F:\rd\dse\xapian-core-1.0.2\.libs\xapian.a(backends\flint\flint_spellingwordslist.cc)
0001:000ce42c* __ZN22FlintSpellingWordsListD1Ev
0001:000ce4cc* __ZN22FlintSpellingWordsListD0Ev
0001:000ce5c2* __ZNK22FlintSpellingWordsList15get_approx_sizeEv
0001:000ce808* __ZNK22FlintSpellingWordsList12get_termnameEv
0001:000ce88e* __ZNK22FlintSpellingWordsList12get_termfreqEv
0001:000ceb58* __ZNK22FlintSpellingWordsList19get_collection_freqEv
0001:000ced88* __ZN22FlintSpellingWordsList4nextEv
0001:000cedc6* __ZN22FlintSpellingWordsList7skip_toERKSs
0001:000ceeae* __ZNK22FlintSpellingWordsList6at_endEv
0001:000ce38c* __ZN22FlintSpellingWordsListD2Ev
0001:000ce350  __ZTV22FlintSpellingWordsList$w$5Vx26cWcFP5sXExp4
0001:000cef08  __ZTI22FlintSpellingWordsList$w$5Vx26cWcFP5sXExp4
0001:000cf008* __ZN6Xapian18UnimplementedErrorD1Ev$w$5Vx26cWcFP5sXExp4
0001:000cf2b4* __ZTIN6Xapian18UnimplementedErrorE$w$5Vx26cWcFP5sXExp4
0001:000ceebe* __Z16unpack_uint_lastIjEbPPKcS1_PT_$w$5Vx26cWcFP5sXExp4
0001:000cf0dc* __ZN6Xapian20DatabaseCorruptErrorD1Ev$w$5Vx26cWcFP5sXExp4
0001:000cf2c0* __ZTIN6Xapian20DatabaseCorruptErrorE$w$5Vx26cWcFP5sXExp4
0001:000cef34* __ZN6Xapian21InvalidOperationErrorD1Ev$w$5Vx26cWcFP5sXExp4
0001:000cf2cc* __ZTIN6Xapian21InvalidOperationErrorE$w$5Vx26cWcFP5sXExp4
0001:000cf1b0* __ZStplIcSt11char_traitsIcESaIcEESbIT_T0_T1_EPKS3_RKS6_$w$5Vx26cWcFP5sXExp4
0001:000cef14  __ZTS22FlintSpellingWordsList$w$5Vx26cWcFP5sXExp4
0001:000cf2a8  __ZTI12AllTermsList$w$5Vx26cWcFP5sXExp4
0001:000cef30* __ZNSt15basic_streambufIcSt11char_traitsIcEE13_S_pback_sizeE$w$5Vx26cWcFP5sXExp4
0001:000cf36e  __ZTS12AllTermsList$w$5Vx26cWcFP5sXExp4
0001:000cf390* __ZTIN6Xapian12TermIterator8InternalE$w$5Vx26cWcFP5sXExp4
0001:000cf350* __ZTSN6Xapian18UnimplementedErrorE$w$5Vx26cWcFP5sXExp4
0001:000cf3b0* __ZTIN6Xapian10LogicErrorE$w$5Vx26cWcFP5sXExp4
0001:000cf330* __ZTSN6Xapian20DatabaseCorruptErrorE$w$5Vx26cWcFP5sXExp4
0001:000cf3bc* __ZTIN6Xapian13DatabaseErrorE$w$5Vx26cWcFP5sXExp4
0001:000cf2f0* __ZTSN6Xapian21InvalidOperationErrorE$w$5Vx26cWcFP5sXExp4
0001:000cf410* __ZTSN6Xapian12TermIterator8InternalE$w$5Vx26cWcFP5sXExp4
0001:000cf448* __ZTIN6Xapian8Internal10RefCntBaseE$w$5Vx26cWcFP5sXExp4
0001:000cf3e1* __ZTSN6Xapian10LogicErrorE$w$5Vx26cWcFP5sXExp4
0001:000cf440* __ZTIN6Xapian5ErrorE$w$5Vx26cWcFP5sXExp4
0001:000cf3c8* __ZTSN6Xapian13DatabaseErrorE$w$5Vx26cWcFP5sXExp4
0001:000cf434* __ZTIN6Xapian12RuntimeErrorE$w$5Vx26cWcFP5sXExp4
0001:000cf47f* __ZTSN6Xapian12RuntimeErrorE$w$5Vx26cWcFP5sXExp4
0001:000cf46f* __ZTSN6Xapian5ErrorE$w$5Vx26cWcFP5sXExp4
0001:000cf450* __ZTSN6Xapian8Internal10RefCntBaseE$w$5Vx26cWcFP5sXExp4
0002:00022a50* __ZN16__Atomicity_lockILi0EE17_S_atomicity_lockE$w$5Vx26cWcFP5sXExp4
Module: F:\rd\dse\xapian-core-1.0.2\.libs\xapian.a(languages\german.cc)
0001:000cff34* __ZN6Xapian18InternalStemGermanD1Ev
0001:000cff50* __ZN6Xapian18InternalStemGermanD0Ev
0001:000cfe3e* __ZN6Xapian18InternalStemGerman4stemEv
0001:000cff80* __ZNK6Xapian18InternalStemGerman15get_descriptionEv
0001:000cf4c8* __ZN6Xapian18InternalStemGerman9r_preludeEv
0001:000cf6c0* __ZN6Xapian18InternalStemGerman14r_mark_regionsEv
0001:000cf800* __ZN6Xapian18InternalStemGerman10r_postludeEv
0001:000cf8fe* __ZN6Xapian18InternalStemGerman4r_R1Ev
0001:000cf912* __ZN6Xapian18InternalStemGerman4r_R2Ev
0001:000cf926* __ZN6Xapian18InternalStemGerman17r_standard_suffixEv
0001:000cfeac* __ZN6Xapian18InternalStemGermanC2Ev
0001:000cfee2  __ZN6Xapian18InternalStemGermanC1Ev
0001:000cff18* __ZN6Xapian18InternalStemGermanD2Ev
0001:000cf4b0  __ZTVN6Xapian18InternalStemGermanE$w$j4tzY88dFP54P2Wr0
0001:000cff8c  __ZTIN6Xapian18InternalStemGermanE$w$j4tzY88dFP54P2Wr0
0001:000d019f  __ZTSN6Xapian18InternalStemGermanE$w$j4tzY88dFP54P2Wr0
0001:000d0210* __ZTIN6Xapian4Stem8InternalE$w$j4tzY88dFP54P2Wr0
0001:000d0230* __ZTSN6Xapian4Stem8InternalE$w$j4tzY88dFP54P2Wr0
0001:000d0248* __ZTIN6Xapian8Internal10RefCntBaseE$w$j4tzY88dFP54P2Wr0
0001:000d0250* __ZTSN6Xapian8Internal10RefCntBaseE$w$j4tzY88dFP54P2Wr0
0002:00022a60* __ZN16__Atomicity_lockILi0EE17_S_atomicity_lockE$w$j4tzY88dFP54P2Wr0
Module: F:\rd\dse\xapian-core-1.0.2\.libs\xapian.a(languages\finnish.cc)
0001:000d1280* __ZN6Xapian19InternalStemFinnishD1Ev
0001:000d12b4* __ZN6Xapian19InternalStemFinnishD0Ev
0001:000d10b2* __ZN6Xapian19InternalStemFinnish4stemEv
0001:000d12f6* __ZNK6Xapian19InternalStemFinnish15get_descriptionEv
0001:000d0288* __ZN6Xapian19InternalStemFinnish14r_mark_regionsEv
0001:000d037a* __ZN6Xapian19InternalStemFinnish4r_R2Ev
0001:000d038e* __ZN6Xapian19InternalStemFinnish14r_particle_etcEv
0001:000d04a2* __ZN6Xapian19InternalStemFinnish12r_possessiveEv
0001:000d06f0* __ZN6Xapian19InternalStemFinnish6r_LONGEv
0001:000d072e* __ZN6Xapian19InternalStemFinnish4r_VIEv
0001:000d0792* __ZN6Xapian19InternalStemFinnish13r_case_endingEv
0001:000d09f2* __ZN6Xapian19InternalStemFinnish15r_other_endingsEv
0001:000d0ad2* __ZN6Xapian19InternalStemFinnish10r_i_pluralEv
0001:000d0b8a* __ZN6Xapian19InternalStemFinnish10r_t_pluralEv
0001:000d0d44* __ZN6Xapian19InternalStemFinnish6r_tidyEv
0001:000d1198* __ZN6Xapian19InternalStemFinnishC2Ev
0001:000d11f2  __ZN6Xapian19InternalStemFinnishC1Ev
0001:000d124c* __ZN6Xapian19InternalStemFinnishD2Ev
0001:000d0270  __ZTVN6Xapian19InternalStemFinnishE$w$nSHIpt7dFP5hNjO53
0001:000d1300  __ZTIN6Xapian19InternalStemFinnishE$w$nSHIpt7dFP5hNjO53
0001:000d1957  __ZTSN6Xapian19InternalStemFinnishE$w$nSHIpt7dFP5hNjO53
0001:000d1b30* __ZTIN6Xapian4Stem8InternalE$w$nSHIpt7dFP5hNjO53
0001:000d1b50* __ZTSN6Xapian4Stem8InternalE$w$nSHIpt7dFP5hNjO53
0001:000d1b68* __ZTIN6Xapian8Internal10RefCntBaseE$w$nSHIpt7dFP5hNjO53
0001:000d1b70* __ZTSN6Xapian8Internal10RefCntBaseE$w$nSHIpt7dFP5hNjO53
0002:00022a70* __ZN16__Atomicity_lockILi0EE17_S_atomicity_lockE$w$nSHIpt7dFP5hNjO53
Module: F:\rd\dse\xapian-core-1.0.2\.libs\xapian.a(languages\danish.cc)
0001:000d2282* __ZN6Xapian18InternalStemDanishD1Ev
0001:000d22b6* __ZN6Xapian18InternalStemDanishD0Ev
0001:000d2114* __ZN6Xapian18InternalStemDanish4stemEv
0001:000d22f8* __ZNK6Xapian18InternalStemDanish15get_descriptionEv
0001:000d1ba8* __ZN6Xapian18InternalStemDanish14r_mark_regionsEv
0001:000d1c76* __ZN6Xapian18InternalStemDanish13r_main_suffixEv
0001:000d1d90* __ZN6Xapian18InternalStemDanish16r_consonant_pairEv
0001:000d1e8c* __ZN6Xapian18InternalStemDanish14r_other_suffixEv
0001:000d202a* __ZN6Xapian18InternalStemDanish10r_undoubleEv
0001:000d21a2* __ZN6Xapian18InternalStemDanishC2Ev
0001:000d21f8  __ZN6Xapian18InternalStemDanishC1Ev
0001:000d224e* __ZN6Xapian18InternalStemDanishD2Ev
0001:000d1b90  __ZTVN6Xapian18InternalStemDanishE$w$VLDS2M6dFP5F153M3
0001:000d2304  __ZTIN6Xapian18InternalStemDanishE$w$VLDS2M6dFP5F153M3
0001:000d25cc  __ZTSN6Xapian18InternalStemDanishE$w$VLDS2M6dFP5F153M3
0001:000d2690* __ZTIN6Xapian4Stem8InternalE$w$VLDS2M6dFP5F153M3
0001:000d26b0* __ZTSN6Xapian4Stem8InternalE$w$VLDS2M6dFP5F153M3
0001:000d26c8* __ZTIN6Xapian8Internal10RefCntBaseE$w$VLDS2M6dFP5F153M3
0001:000d26d0* __ZTSN6Xapian8Internal10RefCntBaseE$w$VLDS2M6dFP5F153M3
0002:00022a80* __ZN16__Atomicity_lockILi0EE17_S_atomicity_lockE$w$VLDS2M6dFP5F153M3
Module: F:\rd\dse\xapian-core-1.0.2\.libs\xapian.a(backends\flint\flint_alltermslist.cc)
0001:000d2d4c* __ZN17FlintAllTermsListD1Ev
0001:000d2ef0* __ZN17FlintAllTermsListD0Ev
0001:000d30a0* __ZNK17FlintAllTermsList15get_approx_sizeEv
0001:000d30ac* __ZNK17FlintAllTermsList12get_termnameEv
0001:000d30d6* __ZNK17FlintAllTermsList12get_termfreqEv
0001:000d30fe* __ZNK17FlintAllTermsList19get_collection_freqEv
0001:000d3164* __ZN17FlintAllTermsList4nextEv
0001:000d345a* __ZN17FlintAllTermsList7skip_toERKSs
0001:000d36d6* __ZNK17FlintAllTermsList6at_endEv
0001:000d2b58* __ZNK17FlintAllTermsList26read_termfreq_and_collfreqEv
0001:000d2ba8* __ZN17FlintAllTermsListD2Ev
0001:000d26f0  __ZTV17FlintAllTermsList$w$rQxkrdQcFP531lGm0
0001:000d36f4  __ZTI17FlintAllTermsList$w$rQxkrdQcFP531lGm0
0001:000d2730* __ZTV12LeafPostList$w$rQxkrdQcFP531lGm0
0001:000d36e8* __ZTI12LeafPostList$w$rQxkrdQcFP531lGm0
0001:000d29f6* __ZN12LeafPostListD1Ev$w$rQxkrdQcFP531lGm0
0001:000d2a34* __ZN12LeafPostListD0Ev$w$rQxkrdQcFP531lGm0
0001:000d2a8e* __ZNK12LeafPostList16get_termfreq_minEv$w$rQxkrdQcFP531lGm0
0001:000d2aa4* __ZNK12LeafPostList16get_termfreq_estEv$w$rQxkrdQcFP531lGm0
0001:000d2a78* __ZNK12LeafPostList16get_termfreq_maxEv$w$rQxkrdQcFP531lGm0
0001:000d2b28* __ZNK12LeafPostList13get_maxweightEv$w$rQxkrdQcFP531lGm0
0001:000d2ade* __ZNK12LeafPostList10get_weightEv$w$rQxkrdQcFP531lGm0
0001:000d2788* __ZNK6Xapian15PostingIterator8Internal16get_collapse_keyEv$w$rQxkrdQcFP531lGm0
0001:000d2b40* __ZN12LeafPostList16recalc_maxweightEv$w$rQxkrdQcFP531lGm0
0001:000d27c6* __ZNK6Xapian15PostingIterator8Internal7get_wdfEv$w$rQxkrdQcFP531lGm0
0001:000d2aba* __ZN12LeafPostList14set_termweightEPKN6Xapian6WeightE$w$rQxkrdQcFP531lGm0
0001:000d3780* __ZN6Xapian18UnimplementedErrorD1Ev$w$rQxkrdQcFP531lGm0
0001:000d3b10* __ZTIN6Xapian18UnimplementedErrorE$w$rQxkrdQcFP531lGm0
0001:000d3730* __ZTVN6Xapian15PostingIterator8InternalE$w$rQxkrdQcFP531lGm0
0001:000d3948* __Z29unpack_string_preserving_sortPPKcS0_RSs$w$rQxkrdQcFP531lGm0
0001:000d3854* __ZN6Xapian20DatabaseCorruptErrorD1Ev$w$rQxkrdQcFP531lGm0
0001:000d3b1c* __ZTIN6Xapian20DatabaseCorruptErrorE$w$rQxkrdQcFP531lGm0
0001:000d3714* __ZTS12LeafPostList$w$rQxkrdQcFP531lGm0
0001:000d3af0* __ZTIN6Xapian15PostingIterator8InternalE$w$rQxkrdQcFP531lGm0
0001:000d3700  __ZTS17FlintAllTermsList$w$rQxkrdQcFP531lGm0
0001:000d3ac8* __ZTI12AllTermsList$w$rQxkrdQcFP531lGm0
0001:000d3724* __ZNSt15basic_streambufIcSt11char_traitsIcEE13_S_pback_sizeE$w$rQxkrdQcFP531lGm0
0001:000d3928* __ZN6Xapian15PostingIterator8InternalD1Ev$w$rQxkrdQcFP531lGm0
0001:000d3936* __ZN6Xapian15PostingIterator8InternalD0Ev$w$rQxkrdQcFP531lGm0
0001:000d3b94* __ZTS12AllTermsList$w$rQxkrdQcFP531lGm0
0001:000d3bb0* __ZTIN6Xapian12TermIterator8InternalE$w$rQxkrdQcFP531lGm0
0001:000d3b70* __ZTSN6Xapian15PostingIterator8InternalE$w$rQxkrdQcFP531lGm0
0001:000d3be8* __ZTIN6Xapian8Internal10RefCntBaseE$w$rQxkrdQcFP531lGm0
0001:000d3b50* __ZTSN6Xapian18UnimplementedErrorE$w$rQxkrdQcFP531lGm0
0001:000d3bdc* __ZTIN6Xapian10LogicErrorE$w$rQxkrdQcFP531lGm0
0001:000d3b30* __ZTSN6Xapian20DatabaseCorruptErrorE$w$rQxkrdQcFP531lGm0
0001:000d3bd0* __ZTIN6Xapian13DatabaseErrorE$w$rQxkrdQcFP531lGm0
0001:000d3c50* __ZTSN6Xapian12TermIterator8InternalE$w$rQxkrdQcFP531lGm0
0001:000d3c25* __ZTSN6Xapian13DatabaseErrorE$w$rQxkrdQcFP531lGm0
0001:000d3c7c* __ZTIN6Xapian12RuntimeErrorE$w$rQxkrdQcFP531lGm0
0001:000d3c0f* __ZTSN6Xapian10LogicErrorE$w$rQxkrdQcFP531lGm0
0001:000d3c74* __ZTIN6Xapian5ErrorE$w$rQxkrdQcFP531lGm0
0001:000d3bf0* __ZTSN6Xapian8Internal10RefCntBaseE$w$rQxkrdQcFP531lGm0
0001:000d3ca0* __ZTSN6Xapian5ErrorE$w$rQxkrdQcFP531lGm0
0001:000d3c88* __ZTSN6Xapian12RuntimeErrorE$w$rQxkrdQcFP531lGm0
0002:00022a90* __ZN16__Atomicity_lockILi0EE17_S_atomicity_lockE$w$rQxkrdQcFP531lGm0
Module: F:\rd\dse\xapian-core-1.0.2\.libs\xapian.a(matcher\valuerangepostlist.cc)
0001:000d40b2* __ZNK18ValueRangePostList16get_termfreq_minEv
0001:000d40ba* __ZNK18ValueRangePostList16get_termfreq_estEv
0001:000d40d4* __ZNK18ValueRangePostList16get_termfreq_maxEv
0001:000d40ec* __ZNK18ValueRangePostList13get_maxweightEv
0001:000d40f4* __ZNK18ValueRangePostList9get_docidEv
0001:000d4100* __ZNK18ValueRangePostList10get_weightEv
0001:000d4108* __ZNK18ValueRangePostList13get_doclengthEv
0001:000d4110* __ZN18ValueRangePostList16recalc_maxweightEv
0001:000d4118* __ZN18ValueRangePostList18read_position_listEv
0001:000d4120* __ZNK18ValueRangePostList18open_position_listEv
0001:000d4128* __ZN18ValueRangePostList4nextEd
0001:000d434c* __ZN18ValueRangePostList7skip_toEjd
0001:000d437c* __ZNK18ValueRangePostList6at_endEv
0001:000d43a8* __ZNK18ValueRangePostList15get_descriptionEv
0001:000d3cb0  __ZTV18ValueRangePostList$w$9x4CaHkdFP5zjUN31
0001:000d4568  __ZTI18ValueRangePostList$w$9x4CaHkdFP5zjUN31
0001:000d3f6e  __ZN18ValueRangePostListD1Ev$w$9x4CaHkdFP5zjUN31
0001:000d400c  __ZN18ValueRangePostListD0Ev$w$9x4CaHkdFP5zjUN31
0001:000d3d00* __ZNK6Xapian15PostingIterator8Internal16get_collapse_keyEv$w$9x4CaHkdFP5zjUN31
0001:000d3d3e* __ZNK6Xapian15PostingIterator8Internal7get_wdfEv$w$9x4CaHkdFP5zjUN31
0001:000d45e0* __ZN6Xapian18UnimplementedErrorD1Ev$w$9x4CaHkdFP5zjUN31
0001:000d4710* __ZTIN6Xapian18UnimplementedErrorE$w$9x4CaHkdFP5zjUN31
0001:000d4590* __ZTVN6Xapian15PostingIterator8InternalE$w$9x4CaHkdFP5zjUN31
0001:000d471c* __ZTIN6Xapian16DocNotFoundErrorE$w$9x4CaHkdFP5zjUN31
0001:000d4574  __ZTS18ValueRangePostList$w$9x4CaHkdFP5zjUN31
0001:000d46f0* __ZTIN6Xapian15PostingIterator8InternalE$w$9x4CaHkdFP5zjUN31
0001:000d458c* __ZNSt15basic_streambufIcSt11char_traitsIcEE13_S_pback_sizeE$w$9x4CaHkdFP5zjUN31
0001:000d46b4* __ZN6Xapian15PostingIterator8InternalD1Ev$w$9x4CaHkdFP5zjUN31
0001:000d46c2* __ZN6Xapian15PostingIterator8InternalD0Ev$w$9x4CaHkdFP5zjUN31
0001:000d4770* __ZTSN6Xapian15PostingIterator8InternalE$w$9x4CaHkdFP5zjUN31
0001:000d47ac* __ZTIN6Xapian8Internal10RefCntBaseE$w$9x4CaHkdFP5zjUN31
0001:000d4744* __ZTSN6Xapian18UnimplementedErrorE$w$9x4CaHkdFP5zjUN31
0001:000d47a0* __ZTIN6Xapian10LogicErrorE$w$9x4CaHkdFP5zjUN31
0001:000d4728* __ZTSN6Xapian16DocNotFoundErrorE$w$9x4CaHkdFP5zjUN31
0001:000d4794* __ZTIN6Xapian12RuntimeErrorE$w$9x4CaHkdFP5zjUN31
0001:000d47e9* __ZTSN6Xapian12RuntimeErrorE$w$9x4CaHkdFP5zjUN31
0001:000d4804* __ZTIN6Xapian5ErrorE$w$9x4CaHkdFP5zjUN31
0001:000d47d3* __ZTSN6Xapian10LogicErrorE$w$9x4CaHkdFP5zjUN31
0001:000d47b4* __ZTSN6Xapian8Internal10RefCntBaseE$w$9x4CaHkdFP5zjUN31
0001:000d480c* __ZTSN6Xapian5ErrorE$w$9x4CaHkdFP5zjUN31
0002:00022aa0* __ZN16__Atomicity_lockILi0EE17_S_atomicity_lockE$w$9x4CaHkdFP5zjUN31
Module: F:\rd\dse\xapian-core-1.0.2\.libs\xapian.a(languages\turkish.cc)
0001:000d72bc* __ZN6Xapian19InternalStemTurkishD1Ev
0001:000d72d8* __ZN6Xapian19InternalStemTurkishD0Ev
0001:000d71cc* __ZN6Xapian19InternalStemTurkish4stemEv
0001:000d7308* __ZNK6Xapian19InternalStemTurkish15get_descriptionEv
0001:000d4848* __ZN6Xapian19InternalStemTurkish21r_check_vowel_harmonyEv
0001:000d4b42* __ZN6Xapian19InternalStemTurkish39r_mark_suffix_with_optional_n_consonantEv
0001:000d4c66* __ZN6Xapian19InternalStemTurkish39r_mark_suffix_with_optional_s_consonantEv
0001:000d4d8a* __ZN6Xapian19InternalStemTurkish39r_mark_suffix_with_optional_y_consonantEv
0001:000d4eae* __ZN6Xapian19InternalStemTurkish35r_mark_suffix_with_optional_U_vowelEv
0001:000d4ff2* __ZN6Xapian19InternalStemTurkish18r_mark_possessivesEv
0001:000d5082* __ZN6Xapian19InternalStemTurkish9r_mark_sUEv
0001:000d50f0* __ZN6Xapian19InternalStemTurkish11r_mark_lArIEv
0001:000d514c* __ZN6Xapian19InternalStemTurkish9r_mark_yUEv
0001:000d51ba* __ZN6Xapian19InternalStemTurkish9r_mark_nUEv
0001:000d5212* __ZN6Xapian19InternalStemTurkish10r_mark_nUnEv
0001:000d5298* __ZN6Xapian19InternalStemTurkish9r_mark_yAEv
0001:000d5320* __ZN6Xapian19InternalStemTurkish9r_mark_nAEv
0001:000d5398* __ZN6Xapian19InternalStemTurkish9r_mark_DAEv
0001:000d5410* __ZN6Xapian19InternalStemTurkish10r_mark_ndAEv
0001:000d5488* __ZN6Xapian19InternalStemTurkish10r_mark_DAnEv
0001:000d54fa* __ZN6Xapian19InternalStemTurkish11r_mark_ndAnEv
0001:000d556c* __ZN6Xapian19InternalStemTurkish10r_mark_ylAEv
0001:000d55f8* __ZN6Xapian19InternalStemTurkish9r_mark_kiEv
0001:000d5626* __ZN6Xapian19InternalStemTurkish10r_mark_ncAEv
0001:000d56b2* __ZN6Xapian19InternalStemTurkish10r_mark_yUmEv
0001:000d5738* __ZN6Xapian19InternalStemTurkish10r_mark_sUnEv
0001:000d57aa* __ZN6Xapian19InternalStemTurkish10r_mark_yUzEv
0001:000d5830* __ZN6Xapian19InternalStemTurkish12r_mark_sUnUzEv
0001:000d5886* __ZN6Xapian19InternalStemTurkish10r_mark_lArEv
0001:000d58f8* __ZN6Xapian19InternalStemTurkish10r_mark_nUzEv
0001:000d596a* __ZN6Xapian19InternalStemTurkish10r_mark_DUrEv
0001:000d59dc* __ZN6Xapian19InternalStemTurkish13r_mark_cAsInAEv
0001:000d5a38* __ZN6Xapian19InternalStemTurkish10r_mark_yDUEv
0001:000d5aa6* __ZN6Xapian19InternalStemTurkish10r_mark_ysAEv
0001:000d5b3a* __ZN6Xapian19InternalStemTurkish12r_mark_ymUs_Ev
0001:000d5bc0* __ZN6Xapian19InternalStemTurkish11r_mark_ykenEv
0001:000d5c0e* __ZN6Xapian19InternalStemTurkish28r_stem_nominal_verb_suffixesEv
0001:000d610a* __ZN6Xapian19InternalStemTurkish29r_stem_suffix_chain_before_kiEv
0001:000d646e* __ZN6Xapian19InternalStemTurkish20r_stem_noun_suffixesEv
0001:000d6c58* __ZN6Xapian19InternalStemTurkish30r_post_process_last_consonantsEv
0001:000d6d14* __ZN6Xapian19InternalStemTurkish38r_append_U_to_stems_ending_with_d_or_gEv
0001:000d7008* __ZN6Xapian19InternalStemTurkish29r_more_than_one_syllable_wordEv
0001:000d7078* __ZN6Xapian19InternalStemTurkish18r_is_reserved_wordEv
0001:000d7162* __ZN6Xapian19InternalStemTurkish10r_postludeEv
0001:000d7248* __ZN6Xapian19InternalStemTurkishC2Ev
0001:000d7274  __ZN6Xapian19InternalStemTurkishC1Ev
0001:000d72a0* __ZN6Xapian19InternalStemTurkishD2Ev
0001:000d4830  __ZTVN6Xapian19InternalStemTurkishE$w$bA9WxYadFP5MNeYB0
0001:000d7314  __ZTIN6Xapian19InternalStemTurkishE$w$bA9WxYadFP5MNeYB0
0001:000d7b66  __ZTSN6Xapian19InternalStemTurkishE$w$bA9WxYadFP5MNeYB0
0001:000d7d10* __ZTIN6Xapian4Stem8InternalE$w$bA9WxYadFP5MNeYB0
0001:000d7d30* __ZTSN6Xapian4Stem8InternalE$w$bA9WxYadFP5MNeYB0
0001:000d7d48* __ZTIN6Xapian8Internal10RefCntBaseE$w$bA9WxYadFP5MNeYB0
0001:000d7d50* __ZTSN6Xapian8Internal10RefCntBaseE$w$bA9WxYadFP5MNeYB0
0002:00022ab0* __ZN16__Atomicity_lockILi0EE17_S_atomicity_lockE$w$bA9WxYadFP5MNeYB0
Module: F:\rd\dse\xapian-core-1.0.2\.libs\xapian.a(languages\french.cc)
0001:000d938a* __ZN6Xapian18InternalStemFrenchD1Ev
0001:000d93a6* __ZN6Xapian18InternalStemFrenchD0Ev
0001:000d9190* __ZN6Xapian18InternalStemFrench4stemEv
0001:000d93d6* __ZNK6Xapian18InternalStemFrench15get_descriptionEv
0001:000d7d88* __ZN6Xapian18InternalStemFrench9r_preludeEv
0001:000d7fda* __ZN6Xapian18InternalStemFrench14r_mark_regionsEv
0001:000d8264* __ZN6Xapian18InternalStemFrench10r_postludeEv
0001:000d8382* __ZN6Xapian18InternalStemFrench4r_RVEv
0001:000d8396* __ZN6Xapian18InternalStemFrench4r_R1Ev
0001:000d83aa* __ZN6Xapian18InternalStemFrench4r_R2Ev
0001:000d83be* __ZN6Xapian18InternalStemFrench17r_standard_suffixEv
0001:000d8b40* __ZN6Xapian18InternalStemFrench15r_i_verb_suffixEv
0001:000d8c5a* __ZN6Xapian18InternalStemFrench13r_verb_suffixEv
0001:000d8db4* __ZN6Xapian18InternalStemFrench17r_residual_suffixEv
0001:000d8fca* __ZN6Xapian18InternalStemFrench11r_un_doubleEv
0001:000d90bc* __ZN6Xapian18InternalStemFrench11r_un_accentEv
0001:000d9302* __ZN6Xapian18InternalStemFrenchC2Ev
0001:000d9338  __ZN6Xapian18InternalStemFrenchC1Ev
0001:000d936e* __ZN6Xapian18InternalStemFrenchD2Ev
0001:000d7d70  __ZTVN6Xapian18InternalStemFrenchE$w$74szTH7dFP5IDTPs3
0001:000d93e0  __ZTIN6Xapian18InternalStemFrenchE$w$74szTH7dFP5IDTPs3
0001:000d9db1  __ZTSN6Xapian18InternalStemFrenchE$w$74szTH7dFP5IDTPs3
0001:000da050* __ZTIN6Xapian4Stem8InternalE$w$74szTH7dFP5IDTPs3
0001:000da070* __ZTSN6Xapian4Stem8InternalE$w$74szTH7dFP5IDTPs3
0001:000da088* __ZTIN6Xapian8Internal10RefCntBaseE$w$74szTH7dFP5IDTPs3
0001:000da090* __ZTSN6Xapian8Internal10RefCntBaseE$w$74szTH7dFP5IDTPs3
0002:00022ac0* __ZN16__Atomicity_lockILi0EE17_S_atomicity_lockE$w$74szTH7dFP5IDTPs3
Module: F:\rd\dse\xapian-core-1.0.2\.libs\xapian.a(backends\flint\flint_btreebase.cc)
0001:000da0b0* __ZN15FlintTable_baseC2Ev
0001:000da106  __ZN15FlintTable_baseC1Ev
0001:000da15c* __ZN15FlintTable_baseC2ERKS_
0001:000da238* __ZN15FlintTable_baseC1ERKS_
0001:000da314  __ZN15FlintTable_base4swapERS_
0001:000da3b2* __ZN15FlintTable_baseD2Ev
0001:000da3f6  __ZN15FlintTable_baseD1Ev
0001:000da452* __ZN15FlintTable_base14do_unpack_uintEPPKcS1_PmRSsRKSsS1_
0001:000da9ae  __ZN15FlintTable_base4readERKSscRSs
0001:000dccfe  __ZN15FlintTable_base13write_to_fileERKSs
0001:000ddc1c* __ZN15FlintTable_base20calculate_last_blockEv
0001:000dda0c  __ZNK15FlintTable_base19block_free_at_startEm
0001:000dda38  __ZN15FlintTable_base10free_blockEm
0001:000dda8a* __ZN15FlintTable_base14extend_bit_mapEv
0001:000ddb8a  __ZN15FlintTable_base15next_free_blockEv
0001:000ddbf0* __ZN15FlintTable_base14block_free_nowEm
0001:000ddc82* __ZNK15FlintTable_base8is_emptyEv
0001:000ddcac  __ZN15FlintTable_base13clear_bit_mapEv
0001:000ddcd4  __ZN15FlintTable_base6commitEv
0001:000de1da  __Z11unpack_uintImEbPPKcS1_PT_$w$fEw9TCQcFP5YHp9p1
0001:000ddd88* __ZStplIcSt11char_traitsIcESaIcEESbIT_T0_T1_EPKS3_RKS6_$w$fEw9TCQcFP5YHp9p1
0001:000ddd08* __ZStplIcSt11char_traitsIcESaIcEESbIT_T0_T1_ERKS6_S8_$w$fEw9TCQcFP5YHp9p1
0001:000dde7e  __Z9pack_uintImESsT_$w$fEw9TCQcFP5YHp9p1
0001:000de096* __Z9pack_uintIjESsT_$w$fEw9TCQcFP5YHp9p1
0001:000ddfc2* __ZN6Xapian20DatabaseOpeningErrorD1Ev$w$fEw9TCQcFP5YHp9p1
0001:000de260* __ZTIN6Xapian20DatabaseOpeningErrorE$w$fEw9TCQcFP5YHp9p1
0001:000de270* __ZTSN6Xapian20DatabaseOpeningErrorE$w$fEw9TCQcFP5YHp9p1
0001:000de290* __ZTIN6Xapian13DatabaseErrorE$w$fEw9TCQcFP5YHp9p1
0001:000de29c* __ZTSN6Xapian13DatabaseErrorE$w$fEw9TCQcFP5YHp9p1
0001:000de2b8* __ZTIN6Xapian12RuntimeErrorE$w$fEw9TCQcFP5YHp9p1
0001:000de2c4* __ZTSN6Xapian12RuntimeErrorE$w$fEw9TCQcFP5YHp9p1
0001:000de2dc* __ZTIN6Xapian5ErrorE$w$fEw9TCQcFP5YHp9p1
0001:000de2e4* __ZTSN6Xapian5ErrorE$w$fEw9TCQcFP5YHp9p1
0002:00022ad0* __ZN16__Atomicity_lockILi0EE17_S_atomicity_lockE$w$fEw9TCQcFP5YHp9p1
Module: F:\rd\dse\xapian-core-1.0.2\.libs\xapian.a(matcher\xorpostlist.cc)
0001:000decfe* __ZNK11XorPostList16get_termfreq_minEv
0001:000ded68* __ZNK11XorPostList16get_termfreq_estEv
0001:000decc8* __ZNK11XorPostList16get_termfreq_maxEv
0001:000dee22* __ZNK11XorPostList13get_maxweightEv
0001:000deddc* __ZNK11XorPostList9get_docidEv
0001:000dedfc* __ZNK11XorPostList10get_weightEv
0001:000df2f4* __ZNK11XorPostList13get_doclengthEv
0001:000dee46* __ZN11XorPostList16recalc_maxweightEv
0001:000de81c* __ZN11XorPostList4nextEd
0001:000dea6e* __ZN11XorPostList7skip_toEjd
0001:000deea4* __ZNK11XorPostList6at_endEv
0001:000deec2* __ZNK11XorPostList15get_descriptionEv
0001:000de7a4* __ZN11XorPostListC2EPN6Xapian15PostingIterator8InternalES3_P10MultiMatchj
0001:000de7e0  __ZN11XorPostListC1EPN6Xapian15PostingIterator8InternalES3_P10MultiMatchj
0001:000de310  __ZTV11XorPostList$w$XWkUrlldFP5ezFT62
0001:000df568  __ZTI11XorPostList$w$XWkUrlldFP5ezFT62
0001:000de760  __ZN11XorPostListD1Ev$w$XWkUrlldFP5ezFT62
0001:000de77c  __ZN11XorPostListD0Ev$w$XWkUrlldFP5ezFT62
0001:000de758* __ZNK6Xapian15PostingIterator8Internal16get_collapse_keyEv$w$XWkUrlldFP5ezFT62
0001:000de360* __ZTV13StatsGatherer$w$XWkUrlldFP5ezFT62
0001:000df560* __ZTI13StatsGatherer$w$XWkUrlldFP5ezFT62
0001:000de378* __ZN13StatsGathererD1Ev$w$XWkUrlldFP5ezFT62
0001:000de55e* __ZN13StatsGathererD0Ev$w$XWkUrlldFP5ezFT62
0001:000de74a* __ZN13StatsGatherer16set_global_statsEj$w$XWkUrlldFP5ezFT62
0001:000df31a* __ZNSt8_Rb_treeISsSt4pairIKSsjESt10_Select1stIS2_ESt4lessISsESaIS2_EE8_M_eraseEPSt13_Rb_tree_nodeIS2_E$w$XWkUrlldFP5ezFT62
0001:000df3a4* __ZNSt8_Rb_treeIPN6Xapian6Weight8InternalES3_St9_IdentityIS3_ESt4lessIS3_ESaIS3_EE8_M_eraseEPSt13_Rb_tree_nodeIS3_E$w$XWkUrlldFP5ezFT62
0001:000df598  __ZN11XorPostList21advance_to_next_matchEd$w$XWkUrlldFP5ezFT62
0001:000df3e8* __ZStplIcSt11char_traitsIcESaIcEESbIT_T0_T1_EPKS3_RKS6_$w$XWkUrlldFP5ezFT62
0001:000df4de* __ZStplIcSt11char_traitsIcESaIcEESbIT_T0_T1_ERKS6_S8_$w$XWkUrlldFP5ezFT62
0001:000df582* __ZTS13StatsGatherer$w$XWkUrlldFP5ezFT62
0001:000df574  __ZTS11XorPostList$w$XWkUrlldFP5ezFT62
0001:000df6c0* __ZTI14BranchPostList$w$XWkUrlldFP5ezFT62
0001:000df594* __ZNSt15basic_streambufIcSt11char_traitsIcEE13_S_pback_sizeE$w$XWkUrlldFP5ezFT62
0001:000df6cc* __ZTS14BranchPostList$w$XWkUrlldFP5ezFT62
0001:000df6f0* __ZTIN6Xapian15PostingIterator8InternalE$w$XWkUrlldFP5ezFT62
0001:000df710* __ZTSN6Xapian15PostingIterator8InternalE$w$XWkUrlldFP5ezFT62
0001:000df734* __ZTIN6Xapian8Internal10RefCntBaseE$w$XWkUrlldFP5ezFT62
0001:000df73c* __ZTSN6Xapian8Internal10RefCntBaseE$w$XWkUrlldFP5ezFT62
0002:00022ae0* __ZN16__Atomicity_lockILi0EE17_S_atomicity_lockE$w$XWkUrlldFP5ezFT62
Module: F:\rd\dse\xapian-core-1.0.2\.libs\xapian.a(api\omtermlistiterator.cc)
0001:000df770* __ZN6Xapian12TermIteratorC2EPNS0_8InternalE
0001:000df802  __ZN6Xapian12TermIteratorC1EPNS0_8InternalE
0001:000df894* __ZN6Xapian12TermIteratorC2Ev
0001:000df8a2  __ZN6Xapian12TermIteratorC1Ev
0001:000df8b0* __ZN6Xapian12TermIteratorD2Ev
0001:000df8e0  __ZN6Xapian12TermIteratorD1Ev
0001:000df910* __ZN6Xapian12TermIteratorC2ERKS0_
0001:000df928  __ZN6Xapian12TermIteratorC1ERKS0_
0001:000df940  __ZN6Xapian12TermIteratoraSERKS0_
0001:000df952  __ZNK6Xapian12TermIteratordeEv
0001:000df97e  __ZNK6Xapian12TermIterator7get_wdfEv
0001:000df996  __ZNK6Xapian12TermIterator12get_termfreqEv
0001:000df9ae  __ZN6Xapian12TermIteratorppEv
0001:000df9fe* __ZN6Xapian12TermIterator7skip_toERKSs
0001:000dfa5a* __ZNK6Xapian12TermIterator18positionlist_countEv
0001:000dfa72  __ZNK6Xapian12TermIterator18positionlist_beginEv
0001:000dfab4* __ZNK6Xapian12TermIterator15get_descriptionEv
0001:000dfaf0  __ZN6Xapian8Internal9RefCntPtrINS_12TermIterator8InternalEEaSEPS3_$w$9JKOnnMcFP5fJ5Ot2
0001:000dfaec* __ZNSt15basic_streambufIcSt11char_traitsIcEE13_S_pback_sizeE$w$9JKOnnMcFP5fJ5Ot2
0002:00022af0* __ZN16__Atomicity_lockILi0EE17_S_atomicity_lockE$w$9JKOnnMcFP5fJ5Ot2
Module: F:\rd\dse\xapian-core-1.0.2\.libs\xapian.a(languages\lovins.cc)
0001:000e1594* __ZN6Xapian18InternalStemLovinsD1Ev
0001:000e15b0* __ZN6Xapian18InternalStemLovinsD0Ev
0001:000e14d4* __ZN6Xapian18InternalStemLovins4stemEv
0001:000e15e0* __ZNK6Xapian18InternalStemLovins15get_descriptionEv
0001:000dfb48* __ZN6Xapian18InternalStemLovins3r_AEv
0001:000dfb94* __ZN6Xapian18InternalStemLovins3r_BEv
0001:000dfbe0* __ZN6Xapian18InternalStemLovins3r_CEv
0001:000dfc2c* __ZN6Xapian18InternalStemLovins3r_DEv
0001:000dfc78* __ZN6Xapian18InternalStemLovins3r_EEv
0001:000dfd02* __ZN6Xapian18InternalStemLovins3r_FEv
0001:000dfd8c* __ZN6Xapian18InternalStemLovins3r_GEv
0001:000dfe02* __ZN6Xapian18InternalStemLovins3r_HEv
0001:000dfea8* __ZN6Xapian18InternalStemLovins3r_IEv
0001:000dff5e* __ZN6Xapian18InternalStemLovins3r_JEv
0001:000e0014* __ZN6Xapian18InternalStemLovins3r_KEv
0001:000e013a* __ZN6Xapian18InternalStemLovins3r_LEv
0001:000e0254* __ZN6Xapian18InternalStemLovins3r_MEv
0001:000e036a* __ZN6Xapian18InternalStemLovins3r_NEv
0001:000e0452* __ZN6Xapian18InternalStemLovins3r_OEv
0001:000e04f8* __ZN6Xapian18InternalStemLovins3r_PEv
0001:000e0582* __ZN6Xapian18InternalStemLovins3r_QEv
0001:000e066e* __ZN6Xapian18InternalStemLovins3r_REv
0001:000e0714* __ZN6Xapian18InternalStemLovins3r_SEv
0001:000e07e6* __ZN6Xapian18InternalStemLovins3r_TEv
0001:000e08b8* __ZN6Xapian18InternalStemLovins3r_UEv
0001:000e09aa* __ZN6Xapian18InternalStemLovins3r_VEv
0001:000e0a20* __ZN6Xapian18InternalStemLovins3r_WEv
0001:000e0ad6* __ZN6Xapian18InternalStemLovins3r_XEv
0001:000e0bfc* __ZN6Xapian18InternalStemLovins3r_YEv
0001:000e0c72* __ZN6Xapian18InternalStemLovins3r_ZEv
0001:000e0cfc* __ZN6Xapian18InternalStemLovins4r_AAEv
0001:000e0db4* __ZN6Xapian18InternalStemLovins4r_BBEv
0001:000e0e6a* __ZN6Xapian18InternalStemLovins4r_CCEv
0001:000e0ee0* __ZN6Xapian18InternalStemLovins9r_endingsEv
0001:000e0f5e* __ZN6Xapian18InternalStemLovins10r_undoubleEv
0001:000e1050* __ZN6Xapian18InternalStemLovins9r_respellEv
0001:000e1534* __ZN6Xapian18InternalStemLovinsC2Ev
0001:000e1556  __ZN6Xapian18InternalStemLovinsC1Ev
0001:000e1578* __ZN6Xapian18InternalStemLovinsD2Ev
0001:000dfb30  __ZTVN6Xapian18InternalStemLovinsE$w$F7Pgc89dFP5RH2OB3
0001:000e15ec  __ZTIN6Xapian18InternalStemLovinsE$w$F7Pgc89dFP5RH2OB3
0001:000e2e34  __ZTSN6Xapian18InternalStemLovinsE$w$F7Pgc89dFP5RH2OB3
0001:000e38b0* __ZTIN6Xapian4Stem8InternalE$w$F7Pgc89dFP5RH2OB3
0001:000e38d0* __ZTSN6Xapian4Stem8InternalE$w$F7Pgc89dFP5RH2OB3
0001:000e38e8* __ZTIN6Xapian8Internal10RefCntBaseE$w$F7Pgc89dFP5RH2OB3
0001:000e38f0* __ZTSN6Xapian8Internal10RefCntBaseE$w$F7Pgc89dFP5RH2OB3
0002:00022b00* __ZN16__Atomicity_lockILi0EE17_S_atomicity_lockE$w$F7Pgc89dFP5RH2OB3
Module: F:\rd\dse\xapian-core-1.0.2\.libs\xapian.a(backends\alltermslist.cc)
0001:000e3968* __ZN12AllTermsListD1Ev
0001:000e3984* __ZN12AllTermsListD0Ev
0001:000e39ac  __ZNK12AllTermsList16accumulate_statsERN6Xapian8Internal11ExpandStatsE
0001:000e39f8  __ZNK12AllTermsList7get_wdfEv
0001:000e3c5c  __ZNK12AllTermsList18positionlist_countEv
0001:000e3ec0  __ZNK12AllTermsList18positionlist_beginEv
0001:000e394c  __ZN12AllTermsListD2Ev
0001:000e3910  __ZTV12AllTermsList$w$NhYx9tOcFP52RGMb3
0001:000e40f0* __ZTI12AllTermsList$w$NhYx9tOcFP52RGMb3
0001:000e4110* __ZN6Xapian21InvalidOperationErrorD1Ev$w$NhYx9tOcFP52RGMb3
0001:000e4210* __ZTIN6Xapian21InvalidOperationErrorE$w$NhYx9tOcFP52RGMb3
0001:000e40fc* __ZTS12AllTermsList$w$NhYx9tOcFP52RGMb3
0001:000e41f0* __ZTIN6Xapian12TermIterator8InternalE$w$NhYx9tOcFP52RGMb3
0001:000e410c* __ZNSt15basic_streambufIcSt11char_traitsIcEE13_S_pback_sizeE$w$NhYx9tOcFP52RGMb3
0001:000e4270* __ZTSN6Xapian12TermIterator8InternalE$w$NhYx9tOcFP52RGMb3
0001:000e42a0* __ZTIN6Xapian8Internal10RefCntBaseE$w$NhYx9tOcFP52RGMb3
0001:000e4230* __ZTSN6Xapian21InvalidOperationErrorE$w$NhYx9tOcFP52RGMb3
0001:000e4294* __ZTIN6Xapian10LogicErrorE$w$NhYx9tOcFP52RGMb3
0001:000e42c7* __ZTSN6Xapian10LogicErrorE$w$NhYx9tOcFP52RGMb3
0001:000e42e0* __ZTIN6Xapian5ErrorE$w$NhYx9tOcFP52RGMb3
0001:000e42a8* __ZTSN6Xapian8Internal10RefCntBaseE$w$NhYx9tOcFP52RGMb3
0001:000e42e8* __ZTSN6Xapian5ErrorE$w$NhYx9tOcFP52RGMb3
0002:00022b10* __ZN16__Atomicity_lockILi0EE17_S_atomicity_lockE$w$NhYx9tOcFP52RGMb3
Module: F:\rd\dse\xapian-core-1.0.2\.libs\xapian.a(backends\flint\flint_version.cc)
0001:000e4358  __ZN12FlintVersion6createEv
0001:000e494c  __ZN12FlintVersion14read_and_checkEv
0001:000e5400* __ZN6Xapian20DatabaseOpeningErrorD1Ev$w$97je3pYcFP5pBFXf2
0001:000e55a8* __ZTIN6Xapian20DatabaseOpeningErrorE$w$97je3pYcFP5pBFXf2
0001:000e532c* __ZN6Xapian20DatabaseCorruptErrorD1Ev$w$97je3pYcFP5pBFXf2
0001:000e55b4* __ZTIN6Xapian20DatabaseCorruptErrorE$w$97je3pYcFP5pBFXf2
0001:000e54d4  __ZN6Xapian20DatabaseVersionErrorD1Ev$w$97je3pYcFP5pBFXf2
0001:000e55c0  __ZTIN6Xapian20DatabaseVersionErrorE$w$97je3pYcFP5pBFXf2
0001:000e5610* __ZTSN6Xapian20DatabaseOpeningErrorE$w$97je3pYcFP5pBFXf2
0001:000e5630* __ZTIN6Xapian13DatabaseErrorE$w$97je3pYcFP5pBFXf2
0001:000e55f0* __ZTSN6Xapian20DatabaseCorruptErrorE$w$97je3pYcFP5pBFXf2
0001:000e55d0  __ZTSN6Xapian20DatabaseVersionErrorE$w$97je3pYcFP5pBFXf2
0001:000e563c* __ZTSN6Xapian13DatabaseErrorE$w$97je3pYcFP5pBFXf2
0001:000e5658* __ZTIN6Xapian12RuntimeErrorE$w$97je3pYcFP5pBFXf2
0001:000e5664* __ZTSN6Xapian12RuntimeErrorE$w$97je3pYcFP5pBFXf2
0001:000e567c* __ZTIN6Xapian5ErrorE$w$97je3pYcFP5pBFXf2
0001:000e5684* __ZTSN6Xapian5ErrorE$w$97je3pYcFP5pBFXf2
0002:00022b20* __ZN16__Atomicity_lockILi0EE17_S_atomicity_lockE$w$97je3pYcFP5pBFXf2
Module: F:\rd\dse\xapian-core-1.0.2\.libs\xapian.a(languages\norwegian.cc)
0001:000e5c02* __ZN6Xapian21InternalStemNorwegianD1Ev
0001:000e5c1e* __ZN6Xapian21InternalStemNorwegianD0Ev
0001:000e5b12* __ZN6Xapian21InternalStemNorwegian4stemEv
0001:000e5c50* __ZNK6Xapian21InternalStemNorwegian15get_descriptionEv
0001:000e56c8* __ZN6Xapian21InternalStemNorwegian14r_mark_regionsEv
0001:000e5796* __ZN6Xapian21InternalStemNorwegian13r_main_suffixEv
0001:000e593e* __ZN6Xapian21InternalStemNorwegian16r_consonant_pairEv
0001:000e5a34* __ZN6Xapian21InternalStemNorwegian14r_other_suffixEv
0001:000e5b86* __ZN6Xapian21InternalStemNorwegianC2Ev
0001:000e5bb6  __ZN6Xapian21InternalStemNorwegianC1Ev
0001:000e5be6* __ZN6Xapian21InternalStemNorwegianD2Ev
0001:000e56b0  __ZTVN6Xapian21InternalStemNorwegianE$w$Dahmyj9dFP5sp5FO0
0001:000e5c5c  __ZTIN6Xapian21InternalStemNorwegianE$w$Dahmyj9dFP5sp5FO0
0001:000e5f50  __ZTSN6Xapian21InternalStemNorwegianE$w$Dahmyj9dFP5sp5FO0
0001:000e6010* __ZTIN6Xapian4Stem8InternalE$w$Dahmyj9dFP5sp5FO0
0001:000e6030* __ZTSN6Xapian4Stem8InternalE$w$Dahmyj9dFP5sp5FO0
0001:000e6048* __ZTIN6Xapian8Internal10RefCntBaseE$w$Dahmyj9dFP5sp5FO0
0001:000e6050* __ZTSN6Xapian8Internal10RefCntBaseE$w$Dahmyj9dFP5sp5FO0
0002:00022b30* __ZN16__Atomicity_lockILi0EE17_S_atomicity_lockE$w$Dahmyj9dFP5sp5FO0
Module: F:\rd\dse\xapian-core-1.0.2\.libs\xapian.a(api\termlist.cc)
0001:000e60ba* __ZN6Xapian12TermIterator8InternalD1Ev
0001:000e60c8* __ZN6Xapian12TermIterator8InternalD0Ev
0001:000e60da  __ZNK6Xapian12TermIterator8Internal19get_collection_freqEv
0001:000e60e2  __ZN6Xapian12TermIterator8Internal7skip_toERKSs
0001:000e60ac  __ZN6Xapian12TermIterator8InternalD2Ev
0001:000e6070  __ZTVN6Xapian12TermIterator8InternalE$w$tpPY9iNcFP5l9Uci2
0001:000e62d0* __ZTIN6Xapian12TermIterator8InternalE$w$tpPY9iNcFP5l9Uci2
0001:000e62f0* __ZTSN6Xapian12TermIterator8InternalE$w$tpPY9iNcFP5l9Uci2
0001:000e6318* __ZTIN6Xapian8Internal10RefCntBaseE$w$tpPY9iNcFP5l9Uci2
0001:000e6314* __ZNSt15basic_streambufIcSt11char_traitsIcEE13_S_pback_sizeE$w$tpPY9iNcFP5l9Uci2
0001:000e6320* __ZTSN6Xapian8Internal10RefCntBaseE$w$tpPY9iNcFP5l9Uci2
0002:00022b40* __ZN16__Atomicity_lockILi0EE17_S_atomicity_lockE$w$tpPY9iNcFP5l9Uci2
Module: F:\rd\dse\xapian-core-1.0.2\.libs\xapian.a(backends\flint\flint_record.cc)
0001:000e6378  __ZNK16FlintRecordTable10get_recordEj
0001:000e68cc  __ZNK16FlintRecordTable12get_doccountEv
0001:000e68d8  __ZN16FlintRecordTable14replace_recordERKSsj
0001:000e6a5c  __ZN16FlintRecordTable13delete_recordEj
0001:000e6fac* __Z25pack_uint_preserving_sortIjESsT_$w$NpOoQ9VcFP5q74pb4
0001:000e6de2* __ZStplIcSt11char_traitsIcESaIcEESbIT_T0_T1_EPKS3_RKS6_$w$NpOoQ9VcFP5q74pb4
0001:000e6ed8  __ZN6Xapian16DocNotFoundErrorD1Ev$w$NpOoQ9VcFP5q74pb4
0001:000e7094* __ZTIN6Xapian16DocNotFoundErrorE$w$NpOoQ9VcFP5q74pb4
0001:000e70a0* __ZTSN6Xapian16DocNotFoundErrorE$w$NpOoQ9VcFP5q74pb4
0001:000e70bc* __ZTIN6Xapian12RuntimeErrorE$w$NpOoQ9VcFP5q74pb4
0001:000e70c8* __ZTSN6Xapian12RuntimeErrorE$w$NpOoQ9VcFP5q74pb4
0001:000e70e0* __ZTIN6Xapian5ErrorE$w$NpOoQ9VcFP5q74pb4
0001:000e70e8* __ZTSN6Xapian5ErrorE$w$NpOoQ9VcFP5q74pb4
0002:00022b50* __ZN16__Atomicity_lockILi0EE17_S_atomicity_lockE$w$NpOoQ9VcFP5q74pb4
Module: F:\rd\dse\xapian-core-1.0.2\.libs\xapian.a(languages\hungarian.cc)
0001:000e8170* __ZN6Xapian21InternalStemHungarianD1Ev
0001:000e818c* __ZN6Xapian21InternalStemHungarianD0Ev
0001:000e7fdc* __ZN6Xapian21InternalStemHungarian4stemEv
0001:000e81be* __ZNK6Xapian21InternalStemHungarian15get_descriptionEv
0001:000e7118* __ZN6Xapian21InternalStemHungarian14r_mark_regionsEv
0001:000e72be* __ZN6Xapian21InternalStemHungarian4r_R1Ev
0001:000e72d2* __ZN6Xapian21InternalStemHungarian10r_v_endingEv
0001:000e739a* __ZN6Xapian21InternalStemHungarian8r_doubleEv
0001:000e742c* __ZN6Xapian21InternalStemHungarian10r_undoubleEv
0001:000e74ce* __ZN6Xapian21InternalStemHungarian9r_instrumEv
0001:000e7640* __ZN6Xapian21InternalStemHungarian6r_caseEv
0001:000e76da* __ZN6Xapian21InternalStemHungarian14r_case_specialEv
0001:000e77b6* __ZN6Xapian21InternalStemHungarian12r_case_otherEv
0001:000e78b6* __ZN6Xapian21InternalStemHungarian9r_factiveEv
0001:000e7a28* __ZN6Xapian21InternalStemHungarian8r_pluralEv
0001:000e7b32* __ZN6Xapian21InternalStemHungarian7r_ownedEv
0001:000e7c68* __ZN6Xapian21InternalStemHungarian12r_sing_ownerEv
0001:000e7dec* __ZN6Xapian21InternalStemHungarian12r_plur_ownerEv
0001:000e8104* __ZN6Xapian21InternalStemHungarianC2Ev
0001:000e812c  __ZN6Xapian21InternalStemHungarianC1Ev
0001:000e8154* __ZN6Xapian21InternalStemHungarianD2Ev
0001:000e7100  __ZTVN6Xapian21InternalStemHungarianE$w$Xoxz9n8dFP5h40CZ1
0001:000e81c8  __ZTIN6Xapian21InternalStemHungarianE$w$Xoxz9n8dFP5h40CZ1
0001:000e8dc0  __ZTSN6Xapian21InternalStemHungarianE$w$Xoxz9n8dFP5h40CZ1
0001:000e9040* __ZTIN6Xapian4Stem8InternalE$w$Xoxz9n8dFP5h40CZ1
0001:000e9060* __ZTSN6Xapian4Stem8InternalE$w$Xoxz9n8dFP5h40CZ1
0001:000e9078* __ZTIN6Xapian8Internal10RefCntBaseE$w$Xoxz9n8dFP5h40CZ1
0001:000e9080* __ZTSN6Xapian8Internal10RefCntBaseE$w$Xoxz9n8dFP5h40CZ1
0002:00022b60* __ZN16__Atomicity_lockILi0EE17_S_atomicity_lockE$w$Xoxz9n8dFP5h40CZ1
Module: F:\rd\dse\xapian-core-1.0.2\.libs\xapian.a(matcher\branchpostlist.cc)
0001:000e9540* __ZN14BranchPostListD1Ev
0001:000e9590* __ZN14BranchPostListD0Ev
0001:000e95e4  __ZNK14BranchPostList7get_wdfEv
0001:000e9662  __ZN14BranchPostList18read_position_listEv
0001:000e98c8  __ZNK14BranchPostList18open_position_listEv
0001:000e94f0  __ZN14BranchPostListD2Ev
0001:000e90a0  __ZTV14BranchPostList$w$D4yconddFP5VQyWK3
0001:000e9bd0* __ZTI14BranchPostList$w$D4yconddFP5VQyWK3
0001:000e94e8* __ZNK6Xapian15PostingIterator8Internal16get_collapse_keyEv$w$D4yconddFP5VQyWK3
0001:000e90f0* __ZTV13StatsGatherer$w$D4yconddFP5VQyWK3
0001:000e9bc8* __ZTI13StatsGatherer$w$D4yconddFP5VQyWK3
0001:000e9108* __ZN13StatsGathererD1Ev$w$D4yconddFP5VQyWK3
0001:000e92ee* __ZN13StatsGathererD0Ev$w$D4yconddFP5VQyWK3
0001:000e94da* __ZN13StatsGatherer16set_global_statsEj$w$D4yconddFP5VQyWK3
0001:000e9af8* __ZNSt8_Rb_treeISsSt4pairIKSsjESt10_Select1stIS2_ESt4lessISsESaIS2_EE8_M_eraseEPSt13_Rb_tree_nodeIS2_E$w$D4yconddFP5VQyWK3
0001:000e9b82* __ZNSt8_Rb_treeIPN6Xapian6Weight8InternalES3_St9_IdentityIS3_ESt4lessIS3_ESaIS3_EE8_M_eraseEPSt13_Rb_tree_nodeIS3_E$w$D4yconddFP5VQyWK3
0001:000e9c20* __ZTVN6Xapian15PostingIterator8InternalE$w$D4yconddFP5VQyWK3
0001:000e9c70* __ZN6Xapian18UnimplementedErrorD1Ev$w$D4yconddFP5VQyWK3
0001:000e9fe0* __ZTIN6Xapian18UnimplementedErrorE$w$D4yconddFP5VQyWK3
0001:000e9bed* __ZTS13StatsGatherer$w$D4yconddFP5VQyWK3
0001:000e9bdc* __ZTS14BranchPostList$w$D4yconddFP5VQyWK3
0001:000e9fc0* __ZTIN6Xapian15PostingIterator8InternalE$w$D4yconddFP5VQyWK3
0001:000e9c00* __ZNSt15basic_streambufIcSt11char_traitsIcEE13_S_pback_sizeE$w$D4yconddFP5VQyWK3
0001:000e9d44* __ZN6Xapian15PostingIterator8InternalD1Ev$w$D4yconddFP5VQyWK3
0001:000e9d52* __ZN6Xapian15PostingIterator8InternalD0Ev$w$D4yconddFP5VQyWK3
0001:000e9d86* __ZNK6Xapian15PostingIterator8Internal7get_wdfEv$w$D4yconddFP5VQyWK3
0001:000ea020* __ZTSN6Xapian15PostingIterator8InternalE$w$D4yconddFP5VQyWK3
0001:000ea050* __ZTIN6Xapian8Internal10RefCntBaseE$w$D4yconddFP5VQyWK3
0001:000e9fec* __ZTSN6Xapian18UnimplementedErrorE$w$D4yconddFP5VQyWK3
0001:000ea044* __ZTIN6Xapian10LogicErrorE$w$D4yconddFP5VQyWK3
0001:000ea077* __ZTSN6Xapian10LogicErrorE$w$D4yconddFP5VQyWK3
0001:000ea090* __ZTIN6Xapian5ErrorE$w$D4yconddFP5VQyWK3
0001:000ea058* __ZTSN6Xapian8Internal10RefCntBaseE$w$D4yconddFP5VQyWK3
0001:000ea098* __ZTSN6Xapian5ErrorE$w$D4yconddFP5VQyWK3
0002:00022b70* __ZN16__Atomicity_lockILi0EE17_S_atomicity_lockE$w$D4yconddFP5VQyWK3
Module: F:\rd\dse\xapian-core-1.0.2\.libs\xapian.a(api\ompostlistiterator.cc)
0001:000ea0c8* __ZN6Xapian15PostingIteratorC2EPNS0_8InternalE
0001:000ea170  __ZN6Xapian15PostingIteratorC1EPNS0_8InternalE
0001:000ea20c* __ZN6Xapian15PostingIteratorC2Ev
0001:000ea21a* __ZN6Xapian15PostingIteratorC1Ev
0001:000ea228* __ZN6Xapian15PostingIteratorD2Ev
0001:000ea258* __ZN6Xapian15PostingIteratorD1Ev
0001:000ea288* __ZN6Xapian15PostingIteratorC2ERKS0_
0001:000ea2a0* __ZN6Xapian15PostingIteratorC1ERKS0_
0001:000ea2f4* __ZN6Xapian15PostingIteratoraSERKS0_
0001:000ea302* __ZNK6Xapian15PostingIteratordeEv
0001:000ea328* __ZN6Xapian15PostingIteratorppEv
0001:000ea382* __ZN6Xapian15PostingIterator7skip_toEj
0001:000ea3e0* __ZNK6Xapian15PostingIterator13get_doclengthEv
0001:000ea3f8* __ZNK6Xapian15PostingIterator7get_wdfEv
0001:000ea410* __ZNK6Xapian15PostingIterator18positionlist_beginEv
0001:000ea466* __ZNK6Xapian15PostingIterator15get_descriptionEv
0001:000ea2b8  __ZN6Xapian8Internal9RefCntPtrINS_15PostingIterator8InternalEEaSEPS3_$w$thf2s2LcFP5X62Yy4
0001:000ea5e4* __ZNSt15basic_streambufIcSt11char_traitsIcEE13_S_pback_sizeE$w$thf2s2LcFP5X62Yy4
0002:00022b80* __ZN16__Atomicity_lockILi0EE17_S_atomicity_lockE$w$thf2s2LcFP5X62Yy4
Module: T:\tmp\ldconv_libgcc_so_d_a_509f473e9a421c96a8.lib(emx-ctordtor.obj)
0001:000ea5f0  ___ctordtorInit
0001:000ea5fa* ___POST$__ctordtorInit
0001:000ea61e  ___ctordtorTerm
0001:000ea628* ___POST$__ctordtorTerm
Module: F:\rd\dse\xapian-core-1.0.2\.libs\xapian.a(common\utils.cc)
0001:000ea6b0  __ZN6Xapian8Internal6is_tabE
0001:000ea7b0* __ZN6Xapian8Internal6lo_tabE
0001:000ea8d0  __ZN6Xapian8Internal6up_tabE
0001:000ea9d4  __Z11om_tostringi
0001:000eaa66  __Z11om_tostringj
0001:000eaaf8* __Z11om_tostringl
0001:000eab8a  __Z11om_tostringm
0001:000eac1e  __Z11om_tostringd
0001:000eacb0* __Z11om_tostringPKv
0001:000ead42* __Z11om_tostringb
0001:000ead84  __Z11file_existsRKSs
0002:00022ba0* __ZN16__Atomicity_lockILi0EE17_S_atomicity_lockE$w$5vuJVq5dFP5zay9A1
Module: F:\rd\dse\xapian-core-1.0.2\.libs\xapian.a(unicode\utf8itor.cc)
0001:000eadf0  __ZN6Xapian7Unicode16nonascii_to_utf8EjPc
0001:000eae84* __ZN6Xapian12Utf8IteratorC2EPKc
0001:000eaece* __ZN6Xapian12Utf8IteratorC1EPKc
0001:000eaf18  __ZNK6Xapian12Utf8Iterator25calculate_sequence_lengthEv
0001:000eb002  __ZNK6Xapian12Utf8IteratordeEv
0002:00022bb0* __ZN16__Atomicity_lockILi0EE17_S_atomicity_lockE$w$TMQI64odFP57RPt83
Module: F:\rd\dse\xapian-core-1.0.2\.libs\xapian.a(backends\flint\flint_lock.cc)
0001:000eb0a0  __ZN9FlintLock4lockEb
0001:000eb110  __ZN9FlintLock7releaseEv
0002:00022bc0* __ZN16__Atomicity_lockILi0EE17_S_atomicity_lockE$w$FHFUL4TcFP5iusnK2
Module: F:\rd\dse\xapian-core-1.0.2\.libs\xapian.a(backends\flint\flint_cursor.cc)
0001:000eb140* __ZN11FlintCursorC2EP10FlintTable
0001:000eb302  __ZN11FlintCursorC1EP10FlintTable
0001:000eb4c4* __ZN11FlintCursorD2Ev
0001:000eb5ac  __ZN11FlintCursorD1Ev
0001:000eb694  __ZN11FlintCursor4prevEv
0001:000ebd30* __ZNK11FlintCursor7get_keyEPSs
0001:000eb8f6  __ZN11FlintCursor10find_entryERKSs
0001:000eb7e6  __ZN11FlintCursor4nextEv
0001:000ebd72  __ZN11FlintCursor8read_tagEb
0001:000ebe1c  __ZN11FlintCursor3delEv
0001:000ebe5a* __ZN6Xapian20DatabaseCorruptErrorD1Ev$w$V755DRQcFP5VVtfM1
0001:000ebf30* __ZTIN6Xapian20DatabaseCorruptErrorE$w$V755DRQcFP5VVtfM1
0001:000ebf40* __ZTSN6Xapian20DatabaseCorruptErrorE$w$V755DRQcFP5VVtfM1
0001:000ebf60* __ZTIN6Xapian13DatabaseErrorE$w$V755DRQcFP5VVtfM1
0001:000ebf6c* __ZTSN6Xapian13DatabaseErrorE$w$V755DRQcFP5VVtfM1
0001:000ebf88* __ZTIN6Xapian12RuntimeErrorE$w$V755DRQcFP5VVtfM1
0001:000ebf94* __ZTSN6Xapian12RuntimeErrorE$w$V755DRQcFP5VVtfM1
0001:000ebfac* __ZTIN6Xapian5ErrorE$w$V755DRQcFP5VVtfM1
0001:000ebfb4* __ZTSN6Xapian5ErrorE$w$V755DRQcFP5VVtfM1
0002:00022bd0* __ZN16__Atomicity_lockILi0EE17_S_atomicity_lockE$w$V755DRQcFP5VVtfM1
Module: F:\rd\dse\xapian-core-1.0.2\.libs\xapian.a(backends\flint\flint_values.cc)
0001:000ebfe0* __ZN15FlintValueTable8make_keyERSsjj
0001:000ec12a* __ZN15FlintValueTable12unpack_entryEPPKcS1_PjRSs
0001:000ec9f2  __ZN15FlintValueTable9add_valueERKSsjj
0001:000ed620  __ZNK15FlintValueTable9get_valueERSsjj
0001:000eda24  __ZNK15FlintValueTable14get_all_valuesERSt3mapIjSsSt4lessIjESaISt4pairIKjSsEEEj
0001:000edffe  __ZN15FlintValueTable17delete_all_valuesEj
0001:000ee68c* __Z25pack_uint_preserving_sortIjESsT_$w$JvCmP9YcFP51s5hE3
0001:000ee4c4* __Z11unpack_uintIjEbPPKcS1_PT_$w$JvCmP9YcFP51s5hE3
0001:000ee31c* __ZN6Xapian20DatabaseCorruptErrorD1Ev$w$JvCmP9YcFP51s5hE3
0001:000ee820* __ZTIN6Xapian20DatabaseCorruptErrorE$w$JvCmP9YcFP51s5hE3
0001:000ee3f0* __ZN6Xapian10RangeErrorD1Ev$w$JvCmP9YcFP51s5hE3
0001:000ee82c* __ZTIN6Xapian10RangeErrorE$w$JvCmP9YcFP51s5hE3
0001:000ee548* __Z9pack_uintIjESsT_$w$JvCmP9YcFP51s5hE3
0001:000ee0f6* __ZStplIcSt11char_traitsIcESaIcEESbIT_T0_T1_ERKS6_S8_$w$JvCmP9YcFP51s5hE3
0001:000ee200* __ZNSt8_Rb_treeIjSt4pairIKjSsESt10_Select1stIS2_ESt4lessIjESaIS2_EE13insert_uniqueERKS2_$w$JvCmP9YcFP51s5hE3
0001:000ee176* __ZNSt8_Rb_treeIjSt4pairIKjSsESt10_Select1stIS2_ESt4lessIjESaIS2_EE8_M_eraseEPSt13_Rb_tree_nodeIS2_E$w$JvCmP9YcFP51s5hE3
0001:000ee774* __ZNSt8_Rb_treeIjSt4pairIKjSsESt10_Select1stIS2_ESt4lessIjESaIS2_EE9_M_insertEPSt18_Rb_tree_node_baseSA_RKS2_$w$JvCmP9YcFP51s5hE3
0001:000ee2cc* __ZNSt22_Rb_tree_base_iterator12_M_decrementEv$w$JvCmP9YcFP51s5hE3
0001:000ee988* __ZNSt8_Rb_treeIjSt4pairIKjSsESt10_Select1stIS2_ESt4lessIjESaIS2_EE14_M_create_nodeERKS2_$w$JvCmP9YcFP51s5hE3
0001:000ee880* __ZSt18_Rb_tree_rebalancePSt18_Rb_tree_node_baseRS0_$w$JvCmP9YcFP51s5hE3
0001:000ee860* __ZTSN6Xapian20DatabaseCorruptErrorE$w$JvCmP9YcFP51s5hE3
0001:000eea08* __ZTIN6Xapian13DatabaseErrorE$w$JvCmP9YcFP51s5hE3
0001:000ee838* __ZTSN6Xapian10RangeErrorE$w$JvCmP9YcFP51s5hE3
0001:000ee9fc* __ZTIN6Xapian12RuntimeErrorE$w$JvCmP9YcFP51s5hE3
0001:000eea46* __ZSt20_Rb_tree_rotate_leftPSt18_Rb_tree_node_baseRS0_$w$JvCmP9YcFP51s5hE3
0001:000eea88* __ZSt21_Rb_tree_rotate_rightPSt18_Rb_tree_node_baseRS0_$w$JvCmP9YcFP51s5hE3
0001:000eea2d* __ZTSN6Xapian12RuntimeErrorE$w$JvCmP9YcFP51s5hE3
0001:000eeacc* __ZTIN6Xapian5ErrorE$w$JvCmP9YcFP51s5hE3
0001:000eea14* __ZTSN6Xapian13DatabaseErrorE$w$JvCmP9YcFP51s5hE3
0001:000eead4* __ZTSN6Xapian5ErrorE$w$JvCmP9YcFP51s5hE3
0002:00022be0* __ZN16__Atomicity_lockILi0EE17_S_atomicity_lockE$w$JvCmP9YcFP51s5hE3
Module: F:\rd\dse\xapian-core-1.0.2\.libs\xapian.a(matcher\rset.cc)
0001:000eeef8  __ZN5RSetI15calculate_statsEv
0001:000ef6b8  __ZN5RSetI25give_stats_to_statssourceEPN6Xapian6Weight8InternalE
0001:000eeb00* __ZTV13StatsGatherer$w$LcgWYnjdFP5FbvVJ1
0001:000efe74* __ZTI13StatsGatherer$w$LcgWYnjdFP5FbvVJ1
0001:000eeb18* __ZN13StatsGathererD1Ev$w$LcgWYnjdFP5FbvVJ1
0001:000eecfe* __ZN13StatsGathererD0Ev$w$LcgWYnjdFP5FbvVJ1
0001:000eeeea* __ZN13StatsGatherer16set_global_statsEj$w$LcgWYnjdFP5FbvVJ1
0001:000ef8d2* __ZNSt8_Rb_treeISsSt4pairIKSsjESt10_Select1stIS2_ESt4lessISsESaIS2_EE8_M_eraseEPSt13_Rb_tree_nodeIS2_E$w$LcgWYnjdFP5FbvVJ1
0001:000efbb4* __ZNSt8_Rb_treeIPN6Xapian6Weight8InternalES3_St9_IdentityIS3_ESt4lessIS3_ESaIS3_EE8_M_eraseEPSt13_Rb_tree_nodeIS3_E$w$LcgWYnjdFP5FbvVJ1
0001:000efbf8* __ZNSt8_Rb_treeISsSt4pairIKSsjESt10_Select1stIS2_ESt4lessISsESaIS2_EE4findERS1_$w$LcgWYnjdFP5FbvVJ1
0001:000eff28* __ZNSt8_Rb_treeISsSt4pairIKSsjESt10_Select1stIS2_ESt4lessISsESaIS2_EE11lower_boundERS1_$w$LcgWYnjdFP5FbvVJ1
0001:000ef95c* __ZNSt8_Rb_treeISsSt4pairIKSsjESt10_Select1stIS2_ESt4lessISsESaIS2_EE13insert_uniqueESt17_Rb_tree_iteratorIS2_RS2_PS2_ERKS2_$w$LcgWYnjdFP5FbvVJ1
0001:000efe90* __ZNSt22_Rb_tree_base_iterator12_M_incrementEv$w$LcgWYnjdFP5FbvVJ1
0001:000efed8* __ZNSt22_Rb_tree_base_iterator12_M_decrementEv$w$LcgWYnjdFP5FbvVJ1
0001:000effba* __ZNSt8_Rb_treeISsSt4pairIKSsjESt10_Select1stIS2_ESt4lessISsESaIS2_EE9_M_insertEPSt18_Rb_tree_node_baseSA_RKS2_$w$LcgWYnjdFP5FbvVJ1
0001:000efd04* __ZNSt8_Rb_treeISsSt4pairIKSsjESt10_Select1stIS2_ESt4lessISsESaIS2_EE13insert_uniqueERKS2_$w$LcgWYnjdFP5FbvVJ1
0001:000efe7c* __ZTS13StatsGatherer$w$LcgWYnjdFP5FbvVJ1
0001:000efe8c* __ZNSt15basic_streambufIcSt11char_traitsIcEE13_S_pback_sizeE$w$LcgWYnjdFP5FbvVJ1
0001:000f01d6* __ZNSt8_Rb_treeISsSt4pairIKSsjESt10_Select1stIS2_ESt4lessISsESaIS2_EE14_M_create_nodeERKS2_$w$LcgWYnjdFP5FbvVJ1
0001:000f00ce* __ZSt18_Rb_tree_rebalancePSt18_Rb_tree_node_baseRS0_$w$LcgWYnjdFP5FbvVJ1
0001:000f024a* __ZSt20_Rb_tree_rotate_leftPSt18_Rb_tree_node_baseRS0_$w$LcgWYnjdFP5FbvVJ1
0001:000f028c* __ZSt21_Rb_tree_rotate_rightPSt18_Rb_tree_node_baseRS0_$w$LcgWYnjdFP5FbvVJ1
0002:00022bf0* __ZN16__Atomicity_lockILi0EE17_S_atomicity_lockE$w$LcgWYnjdFP5FbvVJ1
Module: F:\rd\dse\xapian-core-1.0.2\.libs\xapian.a(expand\expandweight.cc)
0001:000f02d0* __ZN6Xapian8Internal12ExpandWeightC2ERKNS_8DatabaseEjbd
0001:000f0312  __ZN6Xapian8Internal12ExpandWeightC1ERKNS_8DatabaseEjbd
0001:000f0368  __ZNK6Xapian8Internal12ExpandWeight10get_weightEPNS_12TermIterator8InternalERKSs
0001:000f0578* __ZNK6Xapian8Internal12ExpandWeight13get_maxweightEv
0001:000f05d8* __ZNSt15basic_streambufIcSt11char_traitsIcEE13_S_pback_sizeE$w$9dekeg6dFP5HXO4O0
0002:00022c00* __ZN16__Atomicity_lockILi0EE17_S_atomicity_lockE$w$9dekeg6dFP5HXO4O0
Module: F:\rd\dse\xapian-core-1.0.2\.libs\xapian.a(unicode\tclUniData.cc)
0001:000f05e0  __ZN6Xapian7Unicode8Internal18get_character_infoEj
0002:00022c10* __ZN16__Atomicity_lockILi0EE17_S_atomicity_lockE$w$DK91eTndFP5xO6gn3
Module: F:\rd\dse\xapian-core-1.0.2\.libs\xapian.a(backends\flint\flint_io.cc)
0001:000f6ec2  __Z13flint_io_readiPcjj
0001:000f7374  __Z14flint_io_writeiPKcj
0001:000f75e8* __ZN6Xapian13DatabaseErrorD1Ev$w$jcp3ERScFP5LRCO13
0001:000f76bc* __ZTIN6Xapian13DatabaseErrorE$w$jcp3ERScFP5LRCO13
0001:000f76c8* __ZTSN6Xapian13DatabaseErrorE$w$jcp3ERScFP5LRCO13
0001:000f76e4* __ZTIN6Xapian12RuntimeErrorE$w$jcp3ERScFP5LRCO13
0001:000f76f0* __ZTSN6Xapian12RuntimeErrorE$w$jcp3ERScFP5LRCO13
0001:000f7708* __ZTIN6Xapian5ErrorE$w$jcp3ERScFP5LRCO13
0001:000f7710* __ZTSN6Xapian5ErrorE$w$jcp3ERScFP5LRCO13
0002:00022c20* __ZN16__Atomicity_lockILi0EE17_S_atomicity_lockE$w$jcp3ERScFP5LRCO13
Module: F:\dev\gcc061\local\lib\libz.lib(deflate.obj)
0001:000f7720* _deflate_copyright
0001:000f77de  _deflateInit2_
0001:000f7bc2* _deflateReset
0001:000f83a0  _deflateEnd
0001:000f7a75* _deflateSetDictionary
0001:000f7ca7* _deflateParams
0001:000f7d86  _deflate
0001:000f846c* _deflateCopy
0001:000f944f  _deflateInit_
0001:000f9499* _deflatePrime
0001:000f94d2* _deflateBound
Module: F:\dev\gcc061\local\lib\libz.lib(inflate.obj)
0001:000f9880  _inflateInit2_
0001:000fa468  _inflate
0001:000fba78* _inflateSetDictionary
0001:000fbb65* _inflateSync
0001:000fbd86* _inflateCopy
0001:000fbeba* _inflateReset
0001:000fbf38* _inflateInit_
0001:000fbf63  _inflateEnd
0001:000fbfbf* _inflateSyncPoint
Module: F:\dev\gcc061\local\lib\libz.lib(zutil.obj)
0001:000fc1a0  _z_errmsg
0001:000fc1c8* _zlibCompileFlags
0001:000fc1d8* _zlibVersion
0001:000fc1e2* _zError
0001:000fc1f6  _zcalloc
0001:000fc209  _zcfree
Module: F:\dev\gcc061\local\lib\libz.lib(adler32.obj)
0001:000fc220  _adler32
Module: F:\dev\gcc061\local\lib\libz.lib(trees.obj)
0001:000fc9a0  __dist_code
0001:000fcba0  __length_code
0001:000fcd98  __tr_stored_block
0001:000fce4b  __tr_align
0001:000fd0c2  __tr_flush_block
0001:000fda5d  __tr_init
0001:000fdb33* __tr_tally
Module: F:\dev\gcc061\local\lib\libz.lib(crc32.obj)
0001:00100b40  _crc32
0001:00101058* _get_crc_table
Module: F:\dev\gcc061\local\lib\libz.lib(compress.obj)
0001:00101086* _compress2
0001:00101132* _compress
0001:001011df  _compressBound
Module: F:\dev\gcc061\local\lib\libz.lib(inftrees.obj)
0001:00101200* _inflate_copyright
0001:00101340  _inflate_table
Module: F:\dev\gcc061\local\lib\libz.lib(inffast.obj)
0001:001018d0  _inflate_fast


                        +----------------------+
                        |   Imported Symbols   |
                        +----------------------+

Symbol                              Module
======                              ======

___libc_ForkRegisterModule          libc063
___init_app                         libc063
__response                          libc063
__wildcard                          libc063
__CRT_init                          libc063
__atfork_callback                   libc063
__fmode_bin                         libc063
__ZNSt8ios_base4InitD1Ev            libc063
__ZNSt8ios_base4InitC1Ev            libc063
__alloca                            libc063
__ZSt4cout                          libc063
__ZStlsISt11char_traitsIcEERSt13basic_ostreamIcT_ES5_PKc libc063
__ZSt4endlIcSt11char_traitsIcEERSt13basic_ostreamIT_T0_ES6_ libc063
__ZNSolsEPFRSoS_E                   libc063
__ZNSsC1EPKcRKSaIcE                 libc063
__ZNSs6appendEjc                    libc063
__ZNSs6appendEPKcj                  libc063
__ZStlsIcSt11char_traitsIcESaIcEERSt13basic_ostreamIT_T0_ES7_RKSbIS4_S5_T1_E libc063
__ZNSolsEm                          libc063
__ZNSs4_Rep10_M_destroyERKSaIcE     libc063
__ZNSolsEl                          libc063
__ZNSolsEd                          libc063
__Unwind_Resume                     libc063
___cxa_begin_catch                  libc063
___cxa_end_catch                    libc063
__ZTVN10__cxxabiv117__class_type_infoE libc063
___gxx_personality_v0               libc063
__std_exit                          libc063
___cxa_pure_virtual                 libc063
___cxa_allocate_exception           libc063
__ZNSsC1ERKSs                       libc063
__ZNSs20_S_empty_rep_storageE       libc063
___cxa_throw                        libc063
___cxa_free_exception               libc063
__ZdlPv                             libc063
__Znwj                              libc063
__ZNSt24__default_alloc_templateILb1ELi0EE10deallocateEPvj libc063
__ZNSt24__default_alloc_templateILb1ELi0EE8allocateEj libc063
___cxa_rethrow                      libc063
__ZTVN10__cxxabiv121__vmi_class_type_infoE libc063
__ZTVN10__cxxabiv120__si_class_type_infoE libc063
__ZNSs4_Rep11_S_terminalE           libc063
__ZNSt8ios_baseC2Ev                 libc063
__ZTTSt14basic_ifstreamIcSt11char_traitsIcEE libc063
__ZTVSt9basic_iosIcSt11char_traitsIcEE libc063
__ZNSt9basic_iosIcSt11char_traitsIcEE4initEPSt15basic_streambufIcS1_E libc063
__ZTVSt14basic_ifstreamIcSt11char_traitsIcEE libc063
__ZNSt13basic_filebufIcSt11char_traitsIcEEC1Ev libc063
__ZNSt13basic_filebufIcSt11char_traitsIcEE4openEPKcSt13_Ios_Openmode libc063
__ZNKSt9basic_iosIcSt11char_traitsIcEE5widenEc libc063
__ZSt7getlineIcSt11char_traitsIcESaIcEERSt13basic_istreamIT_T0_ES7_RSbIS4_S5_T1_ES4_ libc063
__ZNKSs4findEcj                     libc063
__ZNSsC1ERKSsjj                     libc063
__ZNSs7replaceEjjPKcj               libc063
__ZNKSs7compareEPKc                 libc063
__ZTVSt13basic_filebufIcSt11char_traitsIcEE libc063
__ZNSt13basic_filebufIcSt11char_traitsIcEE5closeEv libc063
__ZNSt12__basic_fileIcED1Ev         libc063
__ZTVSt15basic_streambufIcSt11char_traitsIcEE libc063
__ZNSt6localeD1Ev                   libc063
__ZNSt8ios_baseD2Ev                 libc063
__ZNSt9basic_iosIcSt11char_traitsIcEE5clearESt12_Ios_Iostate libc063
__ZNSt15basic_streambufIcSt11char_traitsIcEED2Ev libc063
__ZNSs6appendERKSs                  libc063
__ZNSs7reserveEj                    libc063
__ZNSs6assignERKSs                  libc063
__ZNSsD1Ev                          libc063
__std_atoi                          libc063
__ZNSs6assignEPKcj                  libc063
_hstrerror                          tcpip32
___register_frame_table             libc063
___deregister_frame                 libc063
__ZNSs4_Rep10_M_disposeERKSaIcE     libc063
__ZNSaIcED1Ev                       libc063
__ZSt20__throw_length_errorPKc      libc063
__errno                             libc063
__ZNSs6resizeEjc                    libc063
__ZNSsC1EPKcjRKSaIcE                libc063
__ZNSs7replaceEN9__gnu_cxx17__normal_iteratorIPcSsEES2_jc libc063
__ZNSs12_M_leak_hardEv              libc063
__ZNSs4swapERSs                     libc063
__ZNKSs7compareERKSs                libc063
__ZNSs4_Rep9_S_createEjRKSaIcE      libc063
__ZSt19__throw_logic_errorPKc       libc063
__Znaj                              libc063
__ZdaPv                             libc063
__ZSt20__throw_out_of_rangePKc      libc063
__ZTVSt9bad_alloc                   libc063
__ZNSt9bad_allocD1Ev                libc063
__ZNKSs4findEPKcjj                  libc063
__ZNSsC1EjcRKSaIcE                  libc063
___ctordtorInit1                    libc063
___ctordtorTerm1                    libc063
__std_atexit                        libc063
__std_abort                         libc063
__std_memmove                       libc063
__std_strerror                      libc063
__std_stat                          libc063
__std_mkdir                         libc063
DosOpen                             doscalls
DosClose                            doscalls
__std_getenv                        libc063
__std_ceil                          libc063
__std_sqrt                          libc063
__std_log                           libc063
__std_free                          libc063
__std_malloc                        libc063
__std_memcpy                        libc063
__std_realloc                       libc063
__std_strchr                        libc063
__std_lseek                         libc063
__std_unlink                        libc063
__std_memset                        libc063
__std_close                         libc063
__std_open                          libc063
__std_fsync                         libc063
__std_frexp                         libc063
__std_ldexp                         libc063
__std_snprintf                      libc063
__std_read                          libc063
__std_write                         libc063


                        +--------------------+
                        |   Libraries Used   |
                        +--------------------+

F:\rd\dse\xapian-core-1.0.2\.libs\xapian.a
F:\dev\gcc061\local\lib\libz.lib
F:\dev\gcc061\lib\libsocket.lib
F:\dev\gcc061\lib\libc_dll.lib
F:\dev\gcc061\lib\libc_alias.lib
F:\dev\gcc061\lib\libos2.lib
T:\tmp\ldconv_libgcc_so_d_a_509f473e9a421c96a8.lib
F:\dev\gcc061\lib\libend.lib


                        +-----------------------+
                        |   Linker Statistics   |
                        +-----------------------+

Stack size:  00100000 (1048576.)
Memory size:  002249a0 (2247072.)
Entry point address: 0001:00000000
Link time: 00:00.82
